
CarSupport.elf:     file format elf32-avr

Sections:
Idx Name          Size      VMA       LMA       File off  Algn
  0 .data         000002b0  00800100  00006272  00006326  2**0
                  CONTENTS, ALLOC, LOAD, DATA
  1 .text         00006272  00000000  00000000  000000b4  2**1
                  CONTENTS, ALLOC, LOAD, READONLY, CODE
  2 .bss          000003e8  008003b0  008003b0  000065d6  2**0
                  ALLOC
  3 .eeprom       0000005f  00810000  00810000  000065d6  2**0
                  CONTENTS, ALLOC, LOAD, DATA
  4 .comment      00000030  00000000  00000000  00006635  2**0
                  CONTENTS, READONLY
  5 .note.gnu.avr.deviceinfo 0000003c  00000000  00000000  00006668  2**2
                  CONTENTS, READONLY
  6 .debug_aranges 00000648  00000000  00000000  000066a8  2**3
                  CONTENTS, READONLY, DEBUGGING
  7 .debug_info   00010cc7  00000000  00000000  00006cf0  2**0
                  CONTENTS, READONLY, DEBUGGING
  8 .debug_abbrev 0000205e  00000000  00000000  000179b7  2**0
                  CONTENTS, READONLY, DEBUGGING
  9 .debug_line   0000447a  00000000  00000000  00019a15  2**0
                  CONTENTS, READONLY, DEBUGGING
 10 .debug_frame  0000145c  00000000  00000000  0001de90  2**2
                  CONTENTS, READONLY, DEBUGGING
 11 .debug_str    000026fa  00000000  00000000  0001f2ec  2**0
                  CONTENTS, READONLY, DEBUGGING
 12 .debug_loc    0000742d  00000000  00000000  000219e6  2**0
                  CONTENTS, READONLY, DEBUGGING
 13 .debug_ranges 00000500  00000000  00000000  00028e13  2**0
                  CONTENTS, READONLY, DEBUGGING

Disassembly of section .text:

00000000 <__vectors>:
       0:	0c 94 a1 04 	jmp	0x942	; 0x942 <__ctors_end>
       4:	0c 94 c9 04 	jmp	0x992	; 0x992 <__bad_interrupt>
       8:	0c 94 c9 04 	jmp	0x992	; 0x992 <__bad_interrupt>
       c:	0c 94 c9 04 	jmp	0x992	; 0x992 <__bad_interrupt>
      10:	0c 94 c9 04 	jmp	0x992	; 0x992 <__bad_interrupt>
      14:	0c 94 c9 04 	jmp	0x992	; 0x992 <__bad_interrupt>
      18:	0c 94 c9 04 	jmp	0x992	; 0x992 <__bad_interrupt>
      1c:	0c 94 c9 04 	jmp	0x992	; 0x992 <__bad_interrupt>
      20:	0c 94 c9 04 	jmp	0x992	; 0x992 <__bad_interrupt>
      24:	0c 94 c9 04 	jmp	0x992	; 0x992 <__bad_interrupt>
      28:	0c 94 c9 04 	jmp	0x992	; 0x992 <__bad_interrupt>
      2c:	0c 94 c9 04 	jmp	0x992	; 0x992 <__bad_interrupt>
      30:	0c 94 c9 04 	jmp	0x992	; 0x992 <__bad_interrupt>
      34:	0c 94 c9 04 	jmp	0x992	; 0x992 <__bad_interrupt>
      38:	0c 94 c9 04 	jmp	0x992	; 0x992 <__bad_interrupt>
      3c:	0c 94 c9 04 	jmp	0x992	; 0x992 <__bad_interrupt>
      40:	0c 94 c9 04 	jmp	0x992	; 0x992 <__bad_interrupt>
      44:	0c 94 c9 04 	jmp	0x992	; 0x992 <__bad_interrupt>
      48:	0c 94 c9 04 	jmp	0x992	; 0x992 <__bad_interrupt>
      4c:	0c 94 c9 04 	jmp	0x992	; 0x992 <__bad_interrupt>
      50:	0c 94 c9 04 	jmp	0x992	; 0x992 <__bad_interrupt>
      54:	0c 94 c9 04 	jmp	0x992	; 0x992 <__bad_interrupt>
      58:	0c 94 c9 04 	jmp	0x992	; 0x992 <__bad_interrupt>
      5c:	0c 94 c9 04 	jmp	0x992	; 0x992 <__bad_interrupt>
      60:	0c 94 c9 04 	jmp	0x992	; 0x992 <__bad_interrupt>
      64:	0c 94 c9 04 	jmp	0x992	; 0x992 <__bad_interrupt>
      68:	81 0d       	add	r24, r1
      6a:	85 0d       	add	r24, r5
      6c:	8a 0d       	add	r24, r10
      6e:	8f 0d       	add	r24, r15
      70:	94 0d       	add	r25, r4
      72:	99 0d       	add	r25, r9
      74:	9e 0d       	add	r25, r14
      76:	a3 0d       	add	r26, r3
      78:	a9 0d       	add	r26, r9
      7a:	af 0d       	add	r26, r15
      7c:	b5 0d       	add	r27, r5
      7e:	bb 0d       	add	r27, r11
      80:	9d 0f       	add	r25, r29
      82:	a0 0f       	add	r26, r16
      84:	a3 0f       	add	r26, r19
      86:	a6 0f       	add	r26, r22
      88:	a9 0f       	add	r26, r25
      8a:	ac 0f       	add	r26, r28
      8c:	af 0f       	add	r26, r31
      8e:	b2 0f       	add	r27, r18
      90:	b8 0f       	add	r27, r24
      92:	b5 0f       	add	r27, r21
      94:	b5 22       	and	r11, r21
      96:	bd 22       	and	r11, r29
      98:	c5 22       	and	r12, r21
      9a:	cd 22       	and	r12, r29
      9c:	d5 22       	and	r13, r21
      9e:	dd 22       	and	r13, r29
      a0:	e5 22       	and	r14, r21
      a2:	da 26       	eor	r13, r26
      a4:	e2 26       	eor	r14, r18
      a6:	ea 26       	eor	r14, r26
      a8:	f2 26       	eor	r15, r18
      aa:	fa 26       	eor	r15, r26
      ac:	02 27       	eor	r16, r18
      ae:	12 27       	eor	r17, r18
      b0:	0a 27       	eor	r16, r26
      b2:	1a 27       	eor	r17, r26
      b4:	22 27       	eor	r18, r18
      b6:	2a 27       	eor	r18, r26
      b8:	32 27       	eor	r19, r18
      ba:	3a 27       	eor	r19, r26
      bc:	42 27       	eor	r20, r18
      be:	4a 27       	eor	r20, r26
      c0:	52 27       	eor	r21, r18
      c2:	5a 27       	eor	r21, r26
      c4:	cf 27       	eor	r28, r31
      c6:	f0 27       	eor	r31, r16
      c8:	00 28       	or	r0, r0
      ca:	08 28       	or	r0, r8
      cc:	f8 27       	eor	r31, r24
      ce:	da 27       	eor	r29, r26
      d0:	e5 27       	eor	r30, r21
      d2:	10 28       	or	r1, r0
      d4:	14 29       	or	r17, r4
      d6:	20 29       	or	r18, r0
      d8:	1a 29       	or	r17, r10
      da:	26 29       	or	r18, r6
      dc:	2c 29       	or	r18, r12
      de:	32 29       	or	r19, r2
      e0:	38 29       	or	r19, r8
      e2:	3e 29       	or	r19, r14
      e4:	44 29       	or	r20, r4
      e6:	4a 29       	or	r20, r10

000000e8 <__trampolines_end>:
      e8:	0a d7       	rcall	.+3604   	; 0xefe <_ZN8Activity12Tunning_rateER5PanelR7Carrage+0x36a>
      ea:	23 3c       	cpi	r18, 0xC3	; 195
      ec:	0a d7       	rcall	.+3604   	; 0xf02 <_ZN8Activity12Tunning_rateER5PanelR7Carrage+0x36e>
      ee:	a3 3c       	cpi	r26, 0xC3	; 195
      f0:	8f c2       	rjmp	.+1310   	; 0x610 <__LOCK_REGION_LENGTH__+0x210>
      f2:	f5 3c       	cpi	r31, 0xC5	; 197
      f4:	0a d7       	rcall	.+3604   	; 0xf0a <_ZN8Activity12Tunning_rateER5PanelR7Carrage+0x376>
      f6:	23 3d       	cpi	r18, 0xD3	; 211
      f8:	cd cc       	rjmp	.-1638   	; 0xfffffa94 <__eeprom_end+0xff7efa35>
      fa:	4c 3d       	cpi	r20, 0xDC	; 220
      fc:	8f c2       	rjmp	.+1310   	; 0x61c <__LOCK_REGION_LENGTH__+0x21c>
      fe:	75 3d       	cpi	r23, 0xD5	; 213
     100:	29 5c       	subi	r18, 0xC9	; 201
     102:	8f 3d       	cpi	r24, 0xDF	; 223
     104:	0a d7       	rcall	.+3604   	; 0xf1a <_ZN8Activity12Tunning_rateER5PanelR7Carrage+0x386>
     106:	a3 3d       	cpi	r26, 0xD3	; 211
     108:	ec 51       	subi	r30, 0x1C	; 28
     10a:	b8 3d       	cpi	r27, 0xD8	; 216
     10c:	cd cc       	rjmp	.-1638   	; 0xfffffaa8 <__eeprom_end+0xff7efa49>
     10e:	cc 3d       	cpi	r28, 0xDC	; 220
     110:	8f c2       	rjmp	.+1310   	; 0x630 <__LOCK_REGION_LENGTH__+0x230>
     112:	f5 3d       	cpi	r31, 0xD5	; 213
     114:	9a 99       	sbic	0x13, 2	; 19
     116:	19 3e       	cpi	r17, 0xE9	; 233
     118:	cd cc       	rjmp	.-1638   	; 0xfffffab4 <__eeprom_end+0xff7efa55>
     11a:	4c 3e       	cpi	r20, 0xEC	; 236
     11c:	9a 99       	sbic	0x13, 2	; 19
     11e:	99 3e       	cpi	r25, 0xE9	; 233
     120:	00 00       	nop
     122:	00 3f       	cpi	r16, 0xF0	; 240
     124:	00 00       	nop
     126:	40 3f       	cpi	r20, 0xF0	; 240
     128:	00 00       	nop
     12a:	80 3f       	cpi	r24, 0xF0	; 240
     12c:	00 00       	nop
     12e:	c0 3f       	cpi	r28, 0xF0	; 240
     130:	00 00       	nop
     132:	00 40       	sbci	r16, 0x00	; 0
     134:	00 00       	nop
     136:	40 40       	sbci	r20, 0x00	; 0

00000138 <_ZL10StepLevels>:
     138:	c0 c0 e0 a0 a0 a0 90 90 90 90 88 88 88 84 84 84     ................
     148:	84 82 82 82 82 81 81 ff c0 c0 e0 e0 a0 a0 90 90     ................
     158:	90 90 88 88 88 84 84 84 84 82 82 82 82 81 81 ff     ................
     168:	c0 c0 e0 e0 e0 a0 90 90 90 90 88 88 88 84 84 84     ................
     178:	84 82 82 82 82 81 81 ff c0 c0 e0 e0 e0 e0 f0 90     ................
     188:	90 90 88 88 88 84 84 84 84 82 82 82 82 81 81 ff     ................
     198:	c0 c0 e0 e0 e0 e0 f0 f0 90 90 88 88 88 84 84 84     ................
     1a8:	84 82 82 82 82 81 81 ff c0 c0 e0 e0 e0 e0 f0 f0     ................
     1b8:	f0 90 88 88 88 84 84 84 84 82 82 82 82 81 81 ff     ................
     1c8:	c0 c0 e0 e0 e0 e0 f0 f0 f0 f0 88 88 88 84 84 84     ................
     1d8:	84 82 82 82 82 81 81 ff c0 c0 e0 e0 e0 e0 f0 f0     ................
     1e8:	f0 f0 f8 88 88 84 84 84 84 82 82 82 82 81 81 ff     ................
     1f8:	c0 c0 e0 e0 e0 e0 f0 f0 f0 f0 f8 f8 88 84 84 84     ................
     208:	84 82 82 82 82 81 81 ff c0 c0 e0 e0 e0 e0 f0 f0     ................
     218:	f0 f0 f8 f8 f8 84 84 84 84 82 82 82 82 81 81 ff     ................
     228:	c0 c0 e0 e0 e0 e0 f0 f0 f0 f0 f8 f8 f8 fc 84 84     ................
     238:	84 82 82 82 82 81 81 ff c0 c0 e0 e0 e0 e0 f0 f0     ................
     248:	f0 f0 f8 f8 f8 fc fc 84 84 82 82 82 82 81 81 ff     ................
     258:	c0 c0 e0 e0 e0 e0 f0 f0 f0 f0 f8 f8 f8 fc fc fc     ................
     268:	84 82 82 82 82 81 81 ff c0 c0 e0 e0 e0 e0 f0 f0     ................
     278:	f0 f0 f8 f8 f8 fc fc fc fc 82 82 82 82 81 81 ff     ................
     288:	c0 c0 e0 e0 e0 e0 f0 f0 f0 f0 f8 f8 f8 fc fc fc     ................
     298:	fc fe 82 82 82 81 81 ff c0 c0 e0 e0 e0 e0 f0 f0     ................
     2a8:	f0 f0 f8 f8 f8 fc fc fc fc fe fe 82 82 81 81 ff     ................
     2b8:	c0 c0 e0 e0 e0 e0 f0 f0 f0 f0 f8 f8 f8 fc fc fc     ................
     2c8:	fc fe fe fe 82 81 81 ff c0 c0 e0 e0 e0 e0 f0 f0     ................
     2d8:	f0 f0 f8 f8 f8 fc fc fc fc fe fe fe fe 81 81 ff     ................
     2e8:	c0 c0 e0 e0 e0 e0 f0 f0 f0 f0 f8 f8 f8 fc fc fc     ................
     2f8:	fc fe fe fe fe ff 81 ff c0 c0 e0 e0 e0 e0 f0 f0     ................
     308:	f0 f0 f8 f8 f8 fc fc fc fc fe fe fe fe ff ff ff     ................

00000318 <_ZL10FontLookup>:
	...
     320:	00 5f 00 00 00 00 00 07 00 07 00 00 00 14 7f 14     ._..............
     330:	7f 14 00 00 24 2a 7f 2a 12 00 00 4c 2c 10 68 64     ....$*.*...L,.hd
     340:	00 00 36 49 55 22 50 00 00 00 05 03 00 00 00 00     ..6IU"P.........
     350:	00 1c 22 41 00 00 00 00 41 22 1c 00 00 00 14 08     .."A....A"......
     360:	3e 08 14 00 00 08 08 3e 08 08 00 00 00 00 50 30     >......>......P0
     370:	00 00 00 10 10 10 10 10 00 00 00 60 60 00 00 00     ...........``...
     380:	00 20 10 08 04 02 00 00 3e 51 49 45 3e 00 00 00     . ......>QIE>...
     390:	42 7f 40 00 00 00 42 61 51 49 46 00 00 21 41 45     B.@...BaQIF..!AE
     3a0:	4b 31 00 00 18 14 12 7f 10 00 00 27 45 45 45 39     K1.........'EEE9
     3b0:	00 00 3c 4a 49 49 30 00 00 01 71 09 05 03 00 00     ..<JII0...q.....
     3c0:	36 49 49 49 36 00 00 06 49 49 29 1e 00 00 00 36     6III6...II)....6
     3d0:	36 00 00 00 00 00 56 36 00 00 00 00 08 14 22 41     6.....V6......"A
     3e0:	00 00 00 14 14 14 14 14 00 00 00 41 22 14 08 00     ...........A"...
     3f0:	00 02 01 51 09 06 00 00 32 49 79 41 3e 00 00 7e     ...Q....2IyA>..~
     400:	11 11 11 7e 00 00 7f 49 49 49 36 00 00 3e 41 41     ...~...III6..>AA
     410:	41 22 00 00 7f 41 41 22 1c 00 00 7f 49 49 49 41     A"...AA"....IIIA
     420:	00 00 7f 09 09 09 01 00 00 3e 41 49 49 7a 00 00     .........>AIIz..
     430:	7f 08 08 08 7f 00 00 00 41 7f 41 00 00 00 20 40     ........A.A... @
     440:	41 3f 01 00 00 7f 08 14 22 41 00 00 7f 40 40 40     A?......"A...@@@
     450:	40 00 00 7f 02 0c 02 7f 00 00 7f 04 08 10 7f 00     @...............
     460:	00 3e 41 41 41 3e 00 00 7f 09 09 09 06 00 00 3e     .>AAA>.........>
     470:	41 51 21 5e 00 00 7f 09 19 29 46 00 00 46 49 49     AQ!^.....)F..FII
     480:	49 31 00 00 01 01 7f 01 01 00 00 3f 40 40 40 3f     I1.........?@@@?
     490:	00 00 1f 20 40 20 1f 00 00 3f 40 38 40 3f 00 00     ... @ ...?@8@?..
     4a0:	63 14 08 14 63 00 00 07 08 70 08 07 00 00 61 51     c...c....p....aQ
     4b0:	49 45 43 00 00 00 7f 41 41 00 00 00 02 04 08 10     IEC....AA.......
     4c0:	20 00 00 00 41 41 7f 00 00 00 04 02 01 02 04 00      ...AA..........
     4d0:	00 40 40 40 40 40 00 00 00 01 02 04 00 00 00 20     .@@@@@......... 
     4e0:	54 54 54 78 00 00 7f 48 44 44 38 00 00 38 44 44     TTTx...HDD8..8DD
     4f0:	44 20 00 00 38 44 44 48 7f 00 00 38 54 54 54 18     D ..8DDH...8TTT.
     500:	00 00 08 7e 09 01 02 00 00 0c 52 52 52 3e 00 00     ...~......RRR>..
     510:	7f 08 04 04 78 00 00 00 44 7d 40 00 00 00 20 40     ....x...D}@... @
     520:	44 3d 00 00 00 7f 10 28 44 00 00 00 00 41 7f 40     D=.....(D....A.@
     530:	00 00 00 7c 04 18 04 78 00 00 7c 08 04 04 78 00     ...|...x..|...x.
     540:	00 38 44 44 44 38 00 00 7c 14 14 14 08 00 00 08     .8DDD8..|.......
     550:	14 14 18 7c 00 00 7c 08 04 04 08 00 00 48 54 54     ...|..|......HTT
     560:	54 20 00 00 04 3f 44 40 20 00 00 3c 40 40 20 7c     T ...?D@ ..<@@ |
     570:	00 00 1c 20 40 20 1c 00 00 3c 40 30 40 3c 00 00     ... @ ...<@0@<..
     580:	44 28 10 28 44 00 00 0c 50 50 50 3c 00 00 44 64     D(.(D...PPP<..Dd
     590:	54 4c 44 00 00 00 08 36 41 00 00 00 00 00 7f 00     TLD....6A.......
     5a0:	00 00 00 00 41 36 08 00 00 00 08 04 08 10 08 00     ....A6..........
     5b0:	00 ff ff ff ff ff 00 00 00 00 e0 f0 f8 f8 00 f8     ................
     5c0:	f8 f0 e0 00 00 00 00 00 ff ff ff ff 00 ff ff ff     ................
     5d0:	ff 00 00 00 00 00 07 0f 1f 1f 00 1f 1f 0f 07 00     ................
     5e0:	00 00 00 00 e0 10 08 08 00 08 08 10 e0 00 00 00     ................
     5f0:	00 00 ff 00 00 00 00 00 00 00 ff 00 00 00 00 00     ................
     600:	07 08 10 10 00 10 10 08 07 00 00 00 40 80 e0 10     ............@...
     610:	08 08 00 08 08 10 e0 80 40 00 00 00 ff 42 24 18     ........@....B$.
     620:	00 18 24 42 ff 00 00 00 02 01 07 08 10 10 00 10     ..$B............
     630:	10 08 07 01 02 00 00 00 60 50 48 44 00 44 48 50     ........`PHD.DHP
     640:	60 00 00 00 00 00 06 0a 12 22 00 22 12 0a 06 00     `........"."....
     650:	00 00 00 00 60 70 78 7c 00 7c 78 70 60 00 00 00     ....`px|.|xp`...
     660:	00 00 06 0e 1e 3e 00 3e 1e 0e 06 00 00 00 18 3c     .....>.>.......<
     670:	7e e7 00 00 00 00 00 e7 7e 3c 18 00 00 00 20 30     ~.......~<.... 0
     680:	38 1c 00 1c 38 30 20 00 00 00 00 00 aa aa aa aa     8...80 .........
     690:	00 aa aa aa aa aa 00 00 00 00 00 00 00 03 00 00     ................
     6a0:	18 3c 7e e7 00 00 00 e7 7e 3c 18 00 00 00 00 00     .<~.....~<......
     6b0:	e7 e7 42 00 42 e7 e7 00 00 00 00 00 00 08 18 38     ..B.B..........8
     6c0:	70 00 70 38 18 08 00 00 00 40 80 e0 f0 f8 f8 00     p.p8.....@......
     6d0:	f8 f8 f0 e0 80 40 00 00 00 7e bd db e7 00 e7 db     .....@...~......
     6e0:	bd 7e 00 00 00 02 01 07 0f 1f 1f 00 1f 1f 0f 07     .~..............
     6f0:	01 02 00 00 ee ee 00 00 5a 00 5a 00 00 ee ee 00     ........Z.Z.....
     700:	00 00 00 e0 90 48 28 00 28 48 90 e0 00 00 00 00     .....H(.(H......
     710:	00 ff 88 44 22 00 22 44 88 ff 00 00 00 00 00 07     ...D"."D........
     720:	08 14 12 00 12 14 08 07 00 00 00 00 00 e0 30 18     ..............0.
     730:	88 00 88 18 30 e0 00 00 00 00 00 ff 22 11 88 00     ....0......."...
     740:	88 11 22 ff 00 00 00 00 00 07 0a 11 18 00 18 11     ..".............
     750:	0a 07 00 00 00 00 00 e0 10 88 48 00 48 88 10 e0     ..........H.H...
     760:	00 00 00 00 00 ff 11 88 44 00 44 88 11 ff 00 00     ........D.D.....
     770:	00 00 00 07 09 18 14 00 14 18 09 07 00 00 00 7c     ...............|
     780:	12 11 12 7c 00 00 7f 49 49 49 31 00 00 7f 49 49     ...|...III1...II
     790:	49 36 00 00 7f 01 01 01 01 00 00 60 3f 21 3f 60     I6.........`?!?`
     7a0:	00 00 7f 49 49 49 41 00 00 77 08 7f 08 77 00 00     ...IIIA..w...w..
     7b0:	22 41 49 49 36 00 00 7f 10 08 04 7f 00 00 7e 10     "AII6.........~.
     7c0:	09 04 7e 00 00 7f 08 14 22 41 00 00 40 3e 01 01     ..~....."A..@>..
     7d0:	7f 00 00 7f 02 0c 02 7f 00 00 7f 08 08 08 7f 00     ................
     7e0:	00 3e 41 41 41 3e 00 00 7f 01 01 01 7f 00 00 7f     .>AAA>..........
     7f0:	09 09 09 06 00 00 3e 41 41 41 22 00 00 01 01 7f     ......>AAA".....
     800:	01 01 00 00 07 48 48 48 3f 00 00 0e 11 7f 11 0e     .....HHH?.......
     810:	00 00 63 14 08 14 63 00 00 3f 20 20 3f 60 00 00     ..c...c..?  ?`..
     820:	07 08 08 08 7f 00 00 7f 40 7e 40 7f 00 00 3f 20     ........@~@...? 
     830:	3f 20 7f 00 00 01 7f 48 48 30 00 00 7f 48 30 00     ? .....HH0...H0.
     840:	7f 00 00 00 7f 48 48 30 00 00 22 41 49 49 3e 00     .....HH0.."AII>.
     850:	00 7f 08 3e 41 3e 00 00 46 29 19 09 7f 00 00 20     ...>A>..F)..... 
     860:	54 54 54 78 00 00 3c 4a 4a 4a 31 00 00 7c 54 54     TTTx..<JJJ1..|TT
     870:	28 00 00 00 7c 04 04 0c 00 00 00 60 3c 24 3c 60     (...|......`<$<`
     880:	00 00 38 54 54 54 18 00 00 6c 10 7c 10 6c 00 00     ..8TTT...l.|.l..
     890:	00 44 54 54 28 00 00 7c 20 10 08 7c 00 00 7c 21     .DTT(..| ..|..|!
     8a0:	12 09 7c 00 00 7c 10 28 44 00 00 00 40 38 04 04     ..|..|.(D...@8..
     8b0:	7c 00 00 7c 08 10 08 7c 00 00 7c 10 10 10 7c 00     |..|...|..|...|.
     8c0:	00 38 44 44 44 38 00 00 7c 04 04 04 7c 00 00 7c     .8DDD8..|...|..|
     8d0:	14 14 14 08 00 00 38 44 44 44 00 00 00 04 04 7c     ......8DDD.....|
     8e0:	04 04 00 00 0c 50 50 50 3c 00 00 08 14 7c 14 08     .....PPP<....|..
     8f0:	00 00 44 28 10 28 44 00 00 3c 20 20 3c 60 00 00     ..D(.(D..<  <`..
     900:	0c 10 10 10 7c 00 00 7c 40 7c 40 7c 00 00 3c 20     ....|..|@|@|..< 
     910:	3c 20 7c 00 00 04 7c 50 50 20 00 00 7c 50 20 00     < |...|PP ..|P .
     920:	7c 00 00 00 7c 50 50 20 00 00 28 44 54 54 38 00     |...|PP ..(DTT8.
     930:	00 7c 10 38 44 38 00 00 48 54 34 14 7c 00 00 00     .|.8D8..HT4.|...

00000940 <__ctors_start>:
     940:	d2 1e       	adc	r13, r18

00000942 <__ctors_end>:
     942:	11 24       	eor	r1, r1
     944:	1f be       	out	0x3f, r1	; 63
     946:	cf ef       	ldi	r28, 0xFF	; 255
     948:	d8 e0       	ldi	r29, 0x08	; 8
     94a:	de bf       	out	0x3e, r29	; 62
     94c:	cd bf       	out	0x3d, r28	; 61

0000094e <__do_copy_data>:
     94e:	13 e0       	ldi	r17, 0x03	; 3
     950:	a0 e0       	ldi	r26, 0x00	; 0
     952:	b1 e0       	ldi	r27, 0x01	; 1
     954:	e2 e7       	ldi	r30, 0x72	; 114
     956:	f2 e6       	ldi	r31, 0x62	; 98
     958:	02 c0       	rjmp	.+4      	; 0x95e <__do_copy_data+0x10>
     95a:	05 90       	lpm	r0, Z+
     95c:	0d 92       	st	X+, r0
     95e:	a0 3b       	cpi	r26, 0xB0	; 176
     960:	b1 07       	cpc	r27, r17
     962:	d9 f7       	brne	.-10     	; 0x95a <__do_copy_data+0xc>

00000964 <__do_clear_bss>:
     964:	27 e0       	ldi	r18, 0x07	; 7
     966:	a0 eb       	ldi	r26, 0xB0	; 176
     968:	b3 e0       	ldi	r27, 0x03	; 3
     96a:	01 c0       	rjmp	.+2      	; 0x96e <.do_clear_bss_start>

0000096c <.do_clear_bss_loop>:
     96c:	1d 92       	st	X+, r1

0000096e <.do_clear_bss_start>:
     96e:	a8 39       	cpi	r26, 0x98	; 152
     970:	b2 07       	cpc	r27, r18
     972:	e1 f7       	brne	.-8      	; 0x96c <.do_clear_bss_loop>

00000974 <__do_global_ctors>:
     974:	14 e0       	ldi	r17, 0x04	; 4
     976:	c1 ea       	ldi	r28, 0xA1	; 161
     978:	d4 e0       	ldi	r29, 0x04	; 4
     97a:	04 c0       	rjmp	.+8      	; 0x984 <__do_global_ctors+0x10>
     97c:	21 97       	sbiw	r28, 0x01	; 1
     97e:	fe 01       	movw	r30, r28
     980:	0e 94 e4 30 	call	0x61c8	; 0x61c8 <__tablejump2__>
     984:	c0 3a       	cpi	r28, 0xA0	; 160
     986:	d1 07       	cpc	r29, r17
     988:	c9 f7       	brne	.-14     	; 0x97c <__do_global_ctors+0x8>
     98a:	0e 94 a4 1e 	call	0x3d48	; 0x3d48 <main>
     98e:	0c 94 37 31 	jmp	0x626e	; 0x626e <_exit>

00000992 <__bad_interrupt>:
     992:	0c 94 00 00 	jmp	0	; 0x0 <__vectors>

00000996 <_ZN8ActivityC1Ev>:
		if(carrage.IfSelectetMalfuction()){Statment=SCREEN_MESSAGE; TypeMessage = MESSAGE_SELECT_MALFUCTION;};
	}
}

void Activity::SelectAllWheel(Carrage &carrage){
	carrage.SwitchAllWheel();
     996:	84 56       	subi	r24, 0x64	; 100
     998:	9f 4f       	sbci	r25, 0xFF	; 255
     99a:	fc 01       	movw	r30, r24
     99c:	10 82       	st	Z, r1
     99e:	08 95       	ret

000009a0 <_ZN8Activity4InitER7Carrage>:
     9a0:	0f 93       	push	r16
     9a2:	1f 93       	push	r17
     9a4:	cf 93       	push	r28
     9a6:	df 93       	push	r29
     9a8:	ec 01       	movw	r28, r24
     9aa:	cb 01       	movw	r24, r22
     9ac:	fe 01       	movw	r30, r28
     9ae:	ea 56       	subi	r30, 0x6A	; 106
     9b0:	ff 4f       	sbci	r31, 0xFF	; 255
     9b2:	10 82       	st	Z, r1
     9b4:	31 96       	adiw	r30, 0x01	; 1
     9b6:	10 82       	st	Z, r1
     9b8:	20 e1       	ldi	r18, 0x10	; 16
     9ba:	30 e0       	ldi	r19, 0x00	; 0
     9bc:	3a 83       	std	Y+2, r19	; 0x02
     9be:	29 83       	std	Y+1, r18	; 0x01
     9c0:	08 e0       	ldi	r16, 0x08	; 8
     9c2:	0f 83       	std	Y+7, r16	; 0x07
     9c4:	11 e0       	ldi	r17, 0x01	; 1
     9c6:	18 83       	st	Y, r17
     9c8:	0e 94 48 15 	call	0x2a90	; 0x2a90 <_ZN7Carrage14SwitchAllWheelEv>
     9cc:	1b 87       	std	Y+11, r17	; 0x0b
     9ce:	82 e0       	ldi	r24, 0x02	; 2
     9d0:	8c 87       	std	Y+12, r24	; 0x0c
     9d2:	96 e6       	ldi	r25, 0x66	; 102
     9d4:	99 87       	std	Y+9, r25	; 0x09
     9d6:	75 e0       	ldi	r23, 0x05	; 5
     9d8:	7a 87       	std	Y+10, r23	; 0x0a
     9da:	98 87       	std	Y+8, r25	; 0x08
     9dc:	94 e6       	ldi	r25, 0x64	; 100
     9de:	99 8b       	std	Y+17, r25	; 0x11
     9e0:	1a 8a       	std	Y+18, r1	; 0x12
     9e2:	1f 87       	std	Y+15, r17	; 0x0f
     9e4:	24 e0       	ldi	r18, 0x04	; 4
     9e6:	28 8b       	std	Y+16, r18	; 0x10
     9e8:	9e 87       	std	Y+14, r25	; 0x0e
     9ea:	9b a3       	std	Y+35, r25	; 0x23
     9ec:	36 e0       	ldi	r19, 0x06	; 6
     9ee:	3c a3       	std	Y+36, r19	; 0x24
     9f0:	19 a3       	std	Y+33, r17	; 0x21
     9f2:	2a a3       	std	Y+34, r18	; 0x22
     9f4:	98 a3       	std	Y+32, r25	; 0x20
     9f6:	19 a7       	std	Y+41, r17	; 0x29
     9f8:	8a a7       	std	Y+42, r24	; 0x2a
     9fa:	1f a2       	std	Y+39, r1	; 0x27
     9fc:	38 a7       	std	Y+40, r19	; 0x28
     9fe:	45 e6       	ldi	r20, 0x65	; 101
     a00:	4e a3       	std	Y+38, r20	; 0x26
     a02:	3d 8f       	std	Y+29, r19	; 0x1d
     a04:	9e 8f       	std	Y+30, r25	; 0x1e
     a06:	8b 8f       	std	Y+27, r24	; 0x1b
     a08:	43 e0       	ldi	r20, 0x03	; 3
     a0a:	4c 8f       	std	Y+28, r20	; 0x1c
     a0c:	9a 8f       	std	Y+26, r25	; 0x1a
     a0e:	1f 8a       	std	Y+23, r1	; 0x17
     a10:	98 8f       	std	Y+24, r25	; 0x18
     a12:	8d 8b       	std	Y+21, r24	; 0x15
     a14:	4e 8b       	std	Y+22, r20	; 0x16
     a16:	9c 8b       	std	Y+20, r25	; 0x14
     a18:	2f a7       	std	Y+47, r18	; 0x2f
     a1a:	48 ab       	std	Y+48, r20	; 0x30
     a1c:	7d a7       	std	Y+45, r23	; 0x2d
     a1e:	52 e7       	ldi	r21, 0x72	; 114
     a20:	5e a7       	std	Y+46, r21	; 0x2e
     a22:	5c a7       	std	Y+44, r21	; 0x2c
     a24:	97 e6       	ldi	r25, 0x67	; 103
     a26:	9d ab       	std	Y+53, r25	; 0x35
     a28:	0e ab       	std	Y+54, r16	; 0x36
     a2a:	1b aa       	std	Y+51, r1	; 0x33
     a2c:	1c ab       	std	Y+52, r17	; 0x34
     a2e:	0a ab       	std	Y+50, r16	; 0x32
     a30:	9a af       	std	Y+58, r25	; 0x3a
     a32:	2b af       	std	Y+59, r18	; 0x3b
     a34:	18 ae       	std	Y+56, r1	; 0x38
     a36:	89 af       	std	Y+57, r24	; 0x39
     a38:	2f ab       	std	Y+55, r18	; 0x37
     a3a:	9f af       	std	Y+63, r25	; 0x3f
     a3c:	fe 01       	movw	r30, r28
     a3e:	e0 5c       	subi	r30, 0xC0	; 192
     a40:	ff 4f       	sbci	r31, 0xFF	; 255
     a42:	6c e0       	ldi	r22, 0x0C	; 12
     a44:	60 83       	st	Z, r22
     a46:	1d af       	std	Y+61, r17	; 0x3d
     a48:	4e af       	std	Y+62, r20	; 0x3e
     a4a:	6c af       	std	Y+60, r22	; 0x3c
     a4c:	34 96       	adiw	r30, 0x04	; 4
     a4e:	90 83       	st	Z, r25
     a50:	31 96       	adiw	r30, 0x01	; 1
     a52:	90 83       	st	Z, r25
     a54:	33 97       	sbiw	r30, 0x03	; 3
     a56:	80 83       	st	Z, r24
     a58:	31 96       	adiw	r30, 0x01	; 1
     a5a:	40 83       	st	Z, r20
     a5c:	32 97       	sbiw	r30, 0x02	; 2
     a5e:	90 83       	st	Z, r25
     a60:	38 96       	adiw	r30, 0x08	; 8
     a62:	10 83       	st	Z, r17
     a64:	31 96       	adiw	r30, 0x01	; 1
     a66:	48 e6       	ldi	r20, 0x68	; 104
     a68:	40 83       	st	Z, r20
     a6a:	33 97       	sbiw	r30, 0x03	; 3
     a6c:	20 83       	st	Z, r18
     a6e:	31 96       	adiw	r30, 0x01	; 1
     a70:	70 83       	st	Z, r23
     a72:	32 97       	sbiw	r30, 0x02	; 2
     a74:	40 83       	st	Z, r20
     a76:	38 96       	adiw	r30, 0x08	; 8
     a78:	10 83       	st	Z, r17
     a7a:	31 96       	adiw	r30, 0x01	; 1
     a7c:	49 e6       	ldi	r20, 0x69	; 105
     a7e:	40 83       	st	Z, r20
     a80:	33 97       	sbiw	r30, 0x03	; 3
     a82:	20 83       	st	Z, r18
     a84:	31 96       	adiw	r30, 0x01	; 1
     a86:	30 83       	st	Z, r19
     a88:	32 97       	sbiw	r30, 0x02	; 2
     a8a:	40 83       	st	Z, r20
     a8c:	38 96       	adiw	r30, 0x08	; 8
     a8e:	10 83       	st	Z, r17
     a90:	31 96       	adiw	r30, 0x01	; 1
     a92:	4a e6       	ldi	r20, 0x6A	; 106
     a94:	40 83       	st	Z, r20
     a96:	33 97       	sbiw	r30, 0x03	; 3
     a98:	70 83       	st	Z, r23
     a9a:	31 96       	adiw	r30, 0x01	; 1
     a9c:	27 e0       	ldi	r18, 0x07	; 7
     a9e:	20 83       	st	Z, r18
     aa0:	32 97       	sbiw	r30, 0x02	; 2
     aa2:	40 83       	st	Z, r20
     aa4:	38 96       	adiw	r30, 0x08	; 8
     aa6:	10 83       	st	Z, r17
     aa8:	31 96       	adiw	r30, 0x01	; 1
     aaa:	90 83       	st	Z, r25
     aac:	33 97       	sbiw	r30, 0x03	; 3
     aae:	30 83       	st	Z, r19
     ab0:	31 96       	adiw	r30, 0x01	; 1
     ab2:	20 83       	st	Z, r18
     ab4:	32 97       	sbiw	r30, 0x02	; 2
     ab6:	90 83       	st	Z, r25
     ab8:	38 96       	adiw	r30, 0x08	; 8
     aba:	10 82       	st	Z, r1
     abc:	31 96       	adiw	r30, 0x01	; 1
     abe:	3b e6       	ldi	r19, 0x6B	; 107
     ac0:	30 83       	st	Z, r19
     ac2:	33 97       	sbiw	r30, 0x03	; 3
     ac4:	00 83       	st	Z, r16
     ac6:	31 96       	adiw	r30, 0x01	; 1
     ac8:	29 e0       	ldi	r18, 0x09	; 9
     aca:	20 83       	st	Z, r18
     acc:	32 97       	sbiw	r30, 0x02	; 2
     ace:	30 83       	st	Z, r19
     ad0:	38 96       	adiw	r30, 0x08	; 8
     ad2:	10 82       	st	Z, r1
     ad4:	31 96       	adiw	r30, 0x01	; 1
     ad6:	4c e6       	ldi	r20, 0x6C	; 108
     ad8:	40 83       	st	Z, r20
     ada:	33 97       	sbiw	r30, 0x03	; 3
     adc:	00 83       	st	Z, r16
     ade:	31 96       	adiw	r30, 0x01	; 1
     ae0:	3a e0       	ldi	r19, 0x0A	; 10
     ae2:	30 83       	st	Z, r19
     ae4:	32 97       	sbiw	r30, 0x02	; 2
     ae6:	40 83       	st	Z, r20
     ae8:	38 96       	adiw	r30, 0x08	; 8
     aea:	10 82       	st	Z, r1
     aec:	31 96       	adiw	r30, 0x01	; 1
     aee:	4d e6       	ldi	r20, 0x6D	; 109
     af0:	40 83       	st	Z, r20
     af2:	33 97       	sbiw	r30, 0x03	; 3
     af4:	20 83       	st	Z, r18
     af6:	31 96       	adiw	r30, 0x01	; 1
     af8:	2b e0       	ldi	r18, 0x0B	; 11
     afa:	20 83       	st	Z, r18
     afc:	32 97       	sbiw	r30, 0x02	; 2
     afe:	40 83       	st	Z, r20
     b00:	38 96       	adiw	r30, 0x08	; 8
     b02:	10 82       	st	Z, r1
     b04:	31 96       	adiw	r30, 0x01	; 1
     b06:	90 83       	st	Z, r25
     b08:	33 97       	sbiw	r30, 0x03	; 3
     b0a:	30 83       	st	Z, r19
     b0c:	31 96       	adiw	r30, 0x01	; 1
     b0e:	20 83       	st	Z, r18
     b10:	32 97       	sbiw	r30, 0x02	; 2
     b12:	90 83       	st	Z, r25
     b14:	38 96       	adiw	r30, 0x08	; 8
     b16:	80 83       	st	Z, r24
     b18:	31 96       	adiw	r30, 0x01	; 1
     b1a:	9e e6       	ldi	r25, 0x6E	; 110
     b1c:	90 83       	st	Z, r25
     b1e:	33 97       	sbiw	r30, 0x03	; 3
     b20:	60 83       	st	Z, r22
     b22:	31 96       	adiw	r30, 0x01	; 1
     b24:	2d e0       	ldi	r18, 0x0D	; 13
     b26:	20 83       	st	Z, r18
     b28:	32 97       	sbiw	r30, 0x02	; 2
     b2a:	90 83       	st	Z, r25
     b2c:	38 96       	adiw	r30, 0x08	; 8
     b2e:	80 83       	st	Z, r24
     b30:	31 96       	adiw	r30, 0x01	; 1
     b32:	3f e6       	ldi	r19, 0x6F	; 111
     b34:	30 83       	st	Z, r19
     b36:	33 97       	sbiw	r30, 0x03	; 3
     b38:	60 83       	st	Z, r22
     b3a:	31 96       	adiw	r30, 0x01	; 1
     b3c:	9e e0       	ldi	r25, 0x0E	; 14
     b3e:	90 83       	st	Z, r25
     b40:	32 97       	sbiw	r30, 0x02	; 2
     b42:	30 83       	st	Z, r19
     b44:	38 96       	adiw	r30, 0x08	; 8
     b46:	80 83       	st	Z, r24
     b48:	31 96       	adiw	r30, 0x01	; 1
     b4a:	30 e7       	ldi	r19, 0x70	; 112
     b4c:	30 83       	st	Z, r19
     b4e:	33 97       	sbiw	r30, 0x03	; 3
     b50:	20 83       	st	Z, r18
     b52:	31 96       	adiw	r30, 0x01	; 1
     b54:	2f e0       	ldi	r18, 0x0F	; 15
     b56:	20 83       	st	Z, r18
     b58:	32 97       	sbiw	r30, 0x02	; 2
     b5a:	30 83       	st	Z, r19
     b5c:	38 96       	adiw	r30, 0x08	; 8
     b5e:	80 83       	st	Z, r24
     b60:	31 96       	adiw	r30, 0x01	; 1
     b62:	31 e7       	ldi	r19, 0x71	; 113
     b64:	30 83       	st	Z, r19
     b66:	33 97       	sbiw	r30, 0x03	; 3
     b68:	90 83       	st	Z, r25
     b6a:	31 96       	adiw	r30, 0x01	; 1
     b6c:	90 e1       	ldi	r25, 0x10	; 16
     b6e:	90 83       	st	Z, r25
     b70:	32 97       	sbiw	r30, 0x02	; 2
     b72:	30 83       	st	Z, r19
     b74:	38 96       	adiw	r30, 0x08	; 8
     b76:	80 83       	st	Z, r24
     b78:	31 96       	adiw	r30, 0x01	; 1
     b7a:	50 83       	st	Z, r21
     b7c:	33 97       	sbiw	r30, 0x03	; 3
     b7e:	20 83       	st	Z, r18
     b80:	31 96       	adiw	r30, 0x01	; 1
     b82:	90 83       	st	Z, r25
     b84:	ce 57       	subi	r28, 0x7E	; 126
     b86:	df 4f       	sbci	r29, 0xFF	; 255
     b88:	58 83       	st	Y, r21
     b8a:	df 91       	pop	r29
     b8c:	cf 91       	pop	r28
     b8e:	1f 91       	pop	r17
     b90:	0f 91       	pop	r16
     b92:	08 95       	ret

00000b94 <_ZN8Activity12Tunning_rateER5PanelR7Carrage>:
     b94:	8f 92       	push	r8
     b96:	9f 92       	push	r9
     b98:	af 92       	push	r10
     b9a:	bf 92       	push	r11
     b9c:	ef 92       	push	r14
     b9e:	ff 92       	push	r15
     ba0:	0f 93       	push	r16
     ba2:	1f 93       	push	r17
     ba4:	cf 93       	push	r28
     ba6:	df 93       	push	r29
     ba8:	ec 01       	movw	r28, r24
     baa:	cb 01       	movw	r24, r22
     bac:	7a 01       	movw	r14, r20
     bae:	64 e6       	ldi	r22, 0x64	; 100
     bb0:	70 e0       	ldi	r23, 0x00	; 0
     bb2:	0e 94 ad 29 	call	0x535a	; 0x535a <_ZN5Panel7PressedEi>
     bb6:	8c 01       	movw	r16, r24
     bb8:	85 30       	cpi	r24, 0x05	; 5
     bba:	91 05       	cpc	r25, r1
     bbc:	19 f4       	brne	.+6      	; 0xbc4 <_ZN8Activity12Tunning_rateER5PanelR7Carrage+0x30>
     bbe:	18 82       	st	Y, r1
     bc0:	1f 82       	std	Y+7, r1	; 0x07
     bc2:	6f c2       	rjmp	.+1246   	; 0x10a2 <_ZN8Activity12Tunning_rateER5PanelR7Carrage+0x50e>
     bc4:	06 97       	sbiw	r24, 0x06	; 6
     bc6:	19 f4       	brne	.+6      	; 0xbce <_ZN8Activity12Tunning_rateER5PanelR7Carrage+0x3a>
     bc8:	18 82       	st	Y, r1
     bca:	1f 82       	std	Y+7, r1	; 0x07
     bcc:	6a c2       	rjmp	.+1236   	; 0x10a2 <_ZN8Activity12Tunning_rateER5PanelR7Carrage+0x50e>
     bce:	0f 3f       	cpi	r16, 0xFF	; 255
     bd0:	8f ef       	ldi	r24, 0xFF	; 255
     bd2:	18 07       	cpc	r17, r24
     bd4:	29 f4       	brne	.+10     	; 0xbe0 <_ZN8Activity12Tunning_rateER5PanelR7Carrage+0x4c>
     bd6:	1b 82       	std	Y+3, r1	; 0x03
     bd8:	1c 82       	std	Y+4, r1	; 0x04
     bda:	1d 82       	std	Y+5, r1	; 0x05
     bdc:	1e 82       	std	Y+6, r1	; 0x06
     bde:	61 c2       	rjmp	.+1218   	; 0x10a2 <_ZN8Activity12Tunning_rateER5PanelR7Carrage+0x50e>
     be0:	8f 81       	ldd	r24, Y+7	; 0x07
     be2:	8c 3c       	cpi	r24, 0xCC	; 204
     be4:	61 f4       	brne	.+24     	; 0xbfe <_ZN8Activity12Tunning_rateER5PanelR7Carrage+0x6a>
     be6:	01 15       	cp	r16, r1
     be8:	11 05       	cpc	r17, r1
     bea:	09 f0       	breq	.+2      	; 0xbee <_ZN8Activity12Tunning_rateER5PanelR7Carrage+0x5a>
     bec:	5c c2       	rjmp	.+1208   	; 0x10a6 <_ZN8Activity12Tunning_rateER5PanelR7Carrage+0x512>
     bee:	81 e0       	ldi	r24, 0x01	; 1
     bf0:	88 83       	st	Y, r24
     bf2:	9c e0       	ldi	r25, 0x0C	; 12
     bf4:	9f 83       	std	Y+7, r25	; 0x07
     bf6:	c8 56       	subi	r28, 0x68	; 104
     bf8:	df 4f       	sbci	r29, 0xFF	; 255
     bfa:	88 83       	st	Y, r24
     bfc:	52 c2       	rjmp	.+1188   	; 0x10a2 <_ZN8Activity12Tunning_rateER5PanelR7Carrage+0x50e>
     bfe:	01 15       	cp	r16, r1
     c00:	11 05       	cpc	r17, r1
     c02:	39 f4       	brne	.+14     	; 0xc12 <_ZN8Activity12Tunning_rateER5PanelR7Carrage+0x7e>
     c04:	18 82       	st	Y, r1
     c06:	1f 82       	std	Y+7, r1	; 0x07
     c08:	c8 56       	subi	r28, 0x68	; 104
     c0a:	df 4f       	sbci	r29, 0xFF	; 255
     c0c:	81 e0       	ldi	r24, 0x01	; 1
     c0e:	88 83       	st	Y, r24
     c10:	48 c2       	rjmp	.+1168   	; 0x10a2 <_ZN8Activity12Tunning_rateER5PanelR7Carrage+0x50e>
     c12:	01 30       	cpi	r16, 0x01	; 1
     c14:	11 05       	cpc	r17, r1
     c16:	31 f0       	breq	.+12     	; 0xc24 <_ZN8Activity12Tunning_rateER5PanelR7Carrage+0x90>
     c18:	02 30       	cpi	r16, 0x02	; 2
     c1a:	11 05       	cpc	r17, r1
     c1c:	31 f4       	brne	.+12     	; 0xc2a <_ZN8Activity12Tunning_rateER5PanelR7Carrage+0x96>
     c1e:	8f 5f       	subi	r24, 0xFF	; 255
     c20:	8f 83       	std	Y+7, r24	; 0x07
     c22:	5d c0       	rjmp	.+186    	; 0xcde <_ZN8Activity12Tunning_rateER5PanelR7Carrage+0x14a>
     c24:	81 50       	subi	r24, 0x01	; 1
     c26:	8f 83       	std	Y+7, r24	; 0x07
     c28:	5a c0       	rjmp	.+180    	; 0xcde <_ZN8Activity12Tunning_rateER5PanelR7Carrage+0x14a>
     c2a:	88 3c       	cpi	r24, 0xC8	; 200
     c2c:	09 f0       	breq	.+2      	; 0xc30 <_ZN8Activity12Tunning_rateER5PanelR7Carrage+0x9c>
     c2e:	57 c0       	rjmp	.+174    	; 0xcde <_ZN8Activity12Tunning_rateER5PanelR7Carrage+0x14a>
     c30:	03 30       	cpi	r16, 0x03	; 3
     c32:	11 05       	cpc	r17, r1
     c34:	21 f0       	breq	.+8      	; 0xc3e <_ZN8Activity12Tunning_rateER5PanelR7Carrage+0xaa>
     c36:	04 30       	cpi	r16, 0x04	; 4
     c38:	11 05       	cpc	r17, r1
     c3a:	51 f1       	breq	.+84     	; 0xc90 <_ZN8Activity12Tunning_rateER5PanelR7Carrage+0xfc>
     c3c:	50 c0       	rjmp	.+160    	; 0xcde <_ZN8Activity12Tunning_rateER5PanelR7Carrage+0x14a>
     c3e:	57 01       	movw	r10, r14
     c40:	ea ec       	ldi	r30, 0xCA	; 202
     c42:	ae 0e       	add	r10, r30
     c44:	b1 1c       	adc	r11, r1
     c46:	2a e0       	ldi	r18, 0x0A	; 10
     c48:	37 ed       	ldi	r19, 0xD7	; 215
     c4a:	43 e2       	ldi	r20, 0x23	; 35
     c4c:	5c e3       	ldi	r21, 0x3C	; 60
     c4e:	6b 81       	ldd	r22, Y+3	; 0x03
     c50:	7c 81       	ldd	r23, Y+4	; 0x04
     c52:	8d 81       	ldd	r24, Y+5	; 0x05
     c54:	9e 81       	ldd	r25, Y+6	; 0x06
     c56:	0e 94 93 2e 	call	0x5d26	; 0x5d26 <__addsf3>
     c5a:	9b 01       	movw	r18, r22
     c5c:	ac 01       	movw	r20, r24
     c5e:	f5 01       	movw	r30, r10
     c60:	60 81       	ld	r22, Z
     c62:	71 81       	ldd	r23, Z+1	; 0x01
     c64:	82 81       	ldd	r24, Z+2	; 0x02
     c66:	93 81       	ldd	r25, Z+3	; 0x03
     c68:	0e 94 92 2e 	call	0x5d24	; 0x5d24 <__subsf3>
     c6c:	f5 01       	movw	r30, r10
     c6e:	60 83       	st	Z, r22
     c70:	71 83       	std	Z+1, r23	; 0x01
     c72:	82 83       	std	Z+2, r24	; 0x02
     c74:	93 83       	std	Z+3, r25	; 0x03
     c76:	8c ee       	ldi	r24, 0xEC	; 236
     c78:	91 e5       	ldi	r25, 0x51	; 81
     c7a:	a8 eb       	ldi	r26, 0xB8	; 184
     c7c:	bd e3       	ldi	r27, 0x3D	; 61
     c7e:	8b 83       	std	Y+3, r24	; 0x03
     c80:	9c 83       	std	Y+4, r25	; 0x04
     c82:	ad 83       	std	Y+5, r26	; 0x05
     c84:	be 83       	std	Y+6, r27	; 0x06
     c86:	8f 81       	ldd	r24, Y+7	; 0x07
     c88:	89 3c       	cpi	r24, 0xC9	; 201
     c8a:	09 f0       	breq	.+2      	; 0xc8e <_ZN8Activity12Tunning_rateER5PanelR7Carrage+0xfa>
     c8c:	15 c2       	rjmp	.+1066   	; 0x10b8 <_ZN8Activity12Tunning_rateER5PanelR7Carrage+0x524>
     c8e:	33 c0       	rjmp	.+102    	; 0xcf6 <_ZN8Activity12Tunning_rateER5PanelR7Carrage+0x162>
     c90:	57 01       	movw	r10, r14
     c92:	fa ec       	ldi	r31, 0xCA	; 202
     c94:	af 0e       	add	r10, r31
     c96:	b1 1c       	adc	r11, r1
     c98:	2a e0       	ldi	r18, 0x0A	; 10
     c9a:	37 ed       	ldi	r19, 0xD7	; 215
     c9c:	43 e2       	ldi	r20, 0x23	; 35
     c9e:	5c e3       	ldi	r21, 0x3C	; 60
     ca0:	6b 81       	ldd	r22, Y+3	; 0x03
     ca2:	7c 81       	ldd	r23, Y+4	; 0x04
     ca4:	8d 81       	ldd	r24, Y+5	; 0x05
     ca6:	9e 81       	ldd	r25, Y+6	; 0x06
     ca8:	0e 94 93 2e 	call	0x5d26	; 0x5d26 <__addsf3>
     cac:	f5 01       	movw	r30, r10
     cae:	20 81       	ld	r18, Z
     cb0:	31 81       	ldd	r19, Z+1	; 0x01
     cb2:	42 81       	ldd	r20, Z+2	; 0x02
     cb4:	53 81       	ldd	r21, Z+3	; 0x03
     cb6:	0e 94 93 2e 	call	0x5d26	; 0x5d26 <__addsf3>
     cba:	f5 01       	movw	r30, r10
     cbc:	60 83       	st	Z, r22
     cbe:	71 83       	std	Z+1, r23	; 0x01
     cc0:	82 83       	std	Z+2, r24	; 0x02
     cc2:	93 83       	std	Z+3, r25	; 0x03
     cc4:	8c ee       	ldi	r24, 0xEC	; 236
     cc6:	91 e5       	ldi	r25, 0x51	; 81
     cc8:	a8 eb       	ldi	r26, 0xB8	; 184
     cca:	bd e3       	ldi	r27, 0x3D	; 61
     ccc:	8b 83       	std	Y+3, r24	; 0x03
     cce:	9c 83       	std	Y+4, r25	; 0x04
     cd0:	ad 83       	std	Y+5, r26	; 0x05
     cd2:	be 83       	std	Y+6, r27	; 0x06
     cd4:	8f 81       	ldd	r24, Y+7	; 0x07
     cd6:	89 3c       	cpi	r24, 0xC9	; 201
     cd8:	09 f0       	breq	.+2      	; 0xcdc <_ZN8Activity12Tunning_rateER5PanelR7Carrage+0x148>
     cda:	f3 c1       	rjmp	.+998    	; 0x10c2 <_ZN8Activity12Tunning_rateER5PanelR7Carrage+0x52e>
     cdc:	35 c0       	rjmp	.+106    	; 0xd48 <_ZN8Activity12Tunning_rateER5PanelR7Carrage+0x1b4>
     cde:	8f 81       	ldd	r24, Y+7	; 0x07
     ce0:	89 3c       	cpi	r24, 0xC9	; 201
     ce2:	09 f0       	breq	.+2      	; 0xce6 <_ZN8Activity12Tunning_rateER5PanelR7Carrage+0x152>
     ce4:	58 c0       	rjmp	.+176    	; 0xd96 <_ZN8Activity12Tunning_rateER5PanelR7Carrage+0x202>
     ce6:	03 30       	cpi	r16, 0x03	; 3
     ce8:	11 05       	cpc	r17, r1
     cea:	29 f0       	breq	.+10     	; 0xcf6 <_ZN8Activity12Tunning_rateER5PanelR7Carrage+0x162>
     cec:	04 30       	cpi	r16, 0x04	; 4
     cee:	11 05       	cpc	r17, r1
     cf0:	09 f0       	breq	.+2      	; 0xcf4 <_ZN8Activity12Tunning_rateER5PanelR7Carrage+0x160>
     cf2:	51 c0       	rjmp	.+162    	; 0xd96 <_ZN8Activity12Tunning_rateER5PanelR7Carrage+0x202>
     cf4:	29 c0       	rjmp	.+82     	; 0xd48 <_ZN8Activity12Tunning_rateER5PanelR7Carrage+0x1b4>
     cf6:	57 01       	movw	r10, r14
     cf8:	fe ec       	ldi	r31, 0xCE	; 206
     cfa:	af 0e       	add	r10, r31
     cfc:	b1 1c       	adc	r11, r1
     cfe:	20 e0       	ldi	r18, 0x00	; 0
     d00:	30 e0       	ldi	r19, 0x00	; 0
     d02:	40 e8       	ldi	r20, 0x80	; 128
     d04:	5f e3       	ldi	r21, 0x3F	; 63
     d06:	6b 81       	ldd	r22, Y+3	; 0x03
     d08:	7c 81       	ldd	r23, Y+4	; 0x04
     d0a:	8d 81       	ldd	r24, Y+5	; 0x05
     d0c:	9e 81       	ldd	r25, Y+6	; 0x06
     d0e:	0e 94 93 2e 	call	0x5d26	; 0x5d26 <__addsf3>
     d12:	9b 01       	movw	r18, r22
     d14:	ac 01       	movw	r20, r24
     d16:	f5 01       	movw	r30, r10
     d18:	60 81       	ld	r22, Z
     d1a:	71 81       	ldd	r23, Z+1	; 0x01
     d1c:	82 81       	ldd	r24, Z+2	; 0x02
     d1e:	93 81       	ldd	r25, Z+3	; 0x03
     d20:	0e 94 92 2e 	call	0x5d24	; 0x5d24 <__subsf3>
     d24:	f5 01       	movw	r30, r10
     d26:	60 83       	st	Z, r22
     d28:	71 83       	std	Z+1, r23	; 0x01
     d2a:	82 83       	std	Z+2, r24	; 0x02
     d2c:	93 83       	std	Z+3, r25	; 0x03
     d2e:	80 e0       	ldi	r24, 0x00	; 0
     d30:	90 e0       	ldi	r25, 0x00	; 0
     d32:	a0 e1       	ldi	r26, 0x10	; 16
     d34:	b1 e4       	ldi	r27, 0x41	; 65
     d36:	8b 83       	std	Y+3, r24	; 0x03
     d38:	9c 83       	std	Y+4, r25	; 0x04
     d3a:	ad 83       	std	Y+5, r26	; 0x05
     d3c:	be 83       	std	Y+6, r27	; 0x06
     d3e:	8f 81       	ldd	r24, Y+7	; 0x07
     d40:	8b 3c       	cpi	r24, 0xCB	; 203
     d42:	09 f0       	breq	.+2      	; 0xd46 <_ZN8Activity12Tunning_rateER5PanelR7Carrage+0x1b2>
     d44:	84 c0       	rjmp	.+264    	; 0xe4e <_ZN8Activity12Tunning_rateER5PanelR7Carrage+0x2ba>
     d46:	33 c0       	rjmp	.+102    	; 0xdae <_ZN8Activity12Tunning_rateER5PanelR7Carrage+0x21a>
     d48:	57 01       	movw	r10, r14
     d4a:	fe ec       	ldi	r31, 0xCE	; 206
     d4c:	af 0e       	add	r10, r31
     d4e:	b1 1c       	adc	r11, r1
     d50:	20 e0       	ldi	r18, 0x00	; 0
     d52:	30 e0       	ldi	r19, 0x00	; 0
     d54:	40 e8       	ldi	r20, 0x80	; 128
     d56:	5f e3       	ldi	r21, 0x3F	; 63
     d58:	6b 81       	ldd	r22, Y+3	; 0x03
     d5a:	7c 81       	ldd	r23, Y+4	; 0x04
     d5c:	8d 81       	ldd	r24, Y+5	; 0x05
     d5e:	9e 81       	ldd	r25, Y+6	; 0x06
     d60:	0e 94 93 2e 	call	0x5d26	; 0x5d26 <__addsf3>
     d64:	f5 01       	movw	r30, r10
     d66:	20 81       	ld	r18, Z
     d68:	31 81       	ldd	r19, Z+1	; 0x01
     d6a:	42 81       	ldd	r20, Z+2	; 0x02
     d6c:	53 81       	ldd	r21, Z+3	; 0x03
     d6e:	0e 94 93 2e 	call	0x5d26	; 0x5d26 <__addsf3>
     d72:	f5 01       	movw	r30, r10
     d74:	60 83       	st	Z, r22
     d76:	71 83       	std	Z+1, r23	; 0x01
     d78:	82 83       	std	Z+2, r24	; 0x02
     d7a:	93 83       	std	Z+3, r25	; 0x03
     d7c:	80 e0       	ldi	r24, 0x00	; 0
     d7e:	90 e0       	ldi	r25, 0x00	; 0
     d80:	a0 e1       	ldi	r26, 0x10	; 16
     d82:	b1 e4       	ldi	r27, 0x41	; 65
     d84:	8b 83       	std	Y+3, r24	; 0x03
     d86:	9c 83       	std	Y+4, r25	; 0x04
     d88:	ad 83       	std	Y+5, r26	; 0x05
     d8a:	be 83       	std	Y+6, r27	; 0x06
     d8c:	8f 81       	ldd	r24, Y+7	; 0x07
     d8e:	8b 3c       	cpi	r24, 0xCB	; 203
     d90:	09 f0       	breq	.+2      	; 0xd94 <_ZN8Activity12Tunning_rateER5PanelR7Carrage+0x200>
     d92:	5d c0       	rjmp	.+186    	; 0xe4e <_ZN8Activity12Tunning_rateER5PanelR7Carrage+0x2ba>
     d94:	35 c0       	rjmp	.+106    	; 0xe00 <_ZN8Activity12Tunning_rateER5PanelR7Carrage+0x26c>
     d96:	8f 81       	ldd	r24, Y+7	; 0x07
     d98:	8b 3c       	cpi	r24, 0xCB	; 203
     d9a:	09 f0       	breq	.+2      	; 0xd9e <_ZN8Activity12Tunning_rateER5PanelR7Carrage+0x20a>
     d9c:	58 c0       	rjmp	.+176    	; 0xe4e <_ZN8Activity12Tunning_rateER5PanelR7Carrage+0x2ba>
     d9e:	03 30       	cpi	r16, 0x03	; 3
     da0:	11 05       	cpc	r17, r1
     da2:	29 f0       	breq	.+10     	; 0xdae <_ZN8Activity12Tunning_rateER5PanelR7Carrage+0x21a>
     da4:	04 30       	cpi	r16, 0x04	; 4
     da6:	11 05       	cpc	r17, r1
     da8:	09 f0       	breq	.+2      	; 0xdac <_ZN8Activity12Tunning_rateER5PanelR7Carrage+0x218>
     daa:	51 c0       	rjmp	.+162    	; 0xe4e <_ZN8Activity12Tunning_rateER5PanelR7Carrage+0x2ba>
     dac:	29 c0       	rjmp	.+82     	; 0xe00 <_ZN8Activity12Tunning_rateER5PanelR7Carrage+0x26c>
     dae:	57 01       	movw	r10, r14
     db0:	f2 ed       	ldi	r31, 0xD2	; 210
     db2:	af 0e       	add	r10, r31
     db4:	b1 1c       	adc	r11, r1
     db6:	20 e0       	ldi	r18, 0x00	; 0
     db8:	30 e0       	ldi	r19, 0x00	; 0
     dba:	40 e8       	ldi	r20, 0x80	; 128
     dbc:	5f e3       	ldi	r21, 0x3F	; 63
     dbe:	6b 81       	ldd	r22, Y+3	; 0x03
     dc0:	7c 81       	ldd	r23, Y+4	; 0x04
     dc2:	8d 81       	ldd	r24, Y+5	; 0x05
     dc4:	9e 81       	ldd	r25, Y+6	; 0x06
     dc6:	0e 94 93 2e 	call	0x5d26	; 0x5d26 <__addsf3>
     dca:	9b 01       	movw	r18, r22
     dcc:	ac 01       	movw	r20, r24
     dce:	f5 01       	movw	r30, r10
     dd0:	60 81       	ld	r22, Z
     dd2:	71 81       	ldd	r23, Z+1	; 0x01
     dd4:	82 81       	ldd	r24, Z+2	; 0x02
     dd6:	93 81       	ldd	r25, Z+3	; 0x03
     dd8:	0e 94 92 2e 	call	0x5d24	; 0x5d24 <__subsf3>
     ddc:	f5 01       	movw	r30, r10
     dde:	60 83       	st	Z, r22
     de0:	71 83       	std	Z+1, r23	; 0x01
     de2:	82 83       	std	Z+2, r24	; 0x02
     de4:	93 83       	std	Z+3, r25	; 0x03
     de6:	80 e0       	ldi	r24, 0x00	; 0
     de8:	90 e0       	ldi	r25, 0x00	; 0
     dea:	a0 e1       	ldi	r26, 0x10	; 16
     dec:	b1 e4       	ldi	r27, 0x41	; 65
     dee:	8b 83       	std	Y+3, r24	; 0x03
     df0:	9c 83       	std	Y+4, r25	; 0x04
     df2:	ad 83       	std	Y+5, r26	; 0x05
     df4:	be 83       	std	Y+6, r27	; 0x06
     df6:	8f 81       	ldd	r24, Y+7	; 0x07
     df8:	8a 3c       	cpi	r24, 0xCA	; 202
     dfa:	09 f0       	breq	.+2      	; 0xdfe <_ZN8Activity12Tunning_rateER5PanelR7Carrage+0x26a>
     dfc:	80 c0       	rjmp	.+256    	; 0xefe <_ZN8Activity12Tunning_rateER5PanelR7Carrage+0x36a>
     dfe:	33 c0       	rjmp	.+102    	; 0xe66 <_ZN8Activity12Tunning_rateER5PanelR7Carrage+0x2d2>
     e00:	57 01       	movw	r10, r14
     e02:	f2 ed       	ldi	r31, 0xD2	; 210
     e04:	af 0e       	add	r10, r31
     e06:	b1 1c       	adc	r11, r1
     e08:	20 e0       	ldi	r18, 0x00	; 0
     e0a:	30 e0       	ldi	r19, 0x00	; 0
     e0c:	40 e8       	ldi	r20, 0x80	; 128
     e0e:	5f e3       	ldi	r21, 0x3F	; 63
     e10:	6b 81       	ldd	r22, Y+3	; 0x03
     e12:	7c 81       	ldd	r23, Y+4	; 0x04
     e14:	8d 81       	ldd	r24, Y+5	; 0x05
     e16:	9e 81       	ldd	r25, Y+6	; 0x06
     e18:	0e 94 93 2e 	call	0x5d26	; 0x5d26 <__addsf3>
     e1c:	f5 01       	movw	r30, r10
     e1e:	20 81       	ld	r18, Z
     e20:	31 81       	ldd	r19, Z+1	; 0x01
     e22:	42 81       	ldd	r20, Z+2	; 0x02
     e24:	53 81       	ldd	r21, Z+3	; 0x03
     e26:	0e 94 93 2e 	call	0x5d26	; 0x5d26 <__addsf3>
     e2a:	f5 01       	movw	r30, r10
     e2c:	60 83       	st	Z, r22
     e2e:	71 83       	std	Z+1, r23	; 0x01
     e30:	82 83       	std	Z+2, r24	; 0x02
     e32:	93 83       	std	Z+3, r25	; 0x03
     e34:	80 e0       	ldi	r24, 0x00	; 0
     e36:	90 e0       	ldi	r25, 0x00	; 0
     e38:	a0 e1       	ldi	r26, 0x10	; 16
     e3a:	b1 e4       	ldi	r27, 0x41	; 65
     e3c:	8b 83       	std	Y+3, r24	; 0x03
     e3e:	9c 83       	std	Y+4, r25	; 0x04
     e40:	ad 83       	std	Y+5, r26	; 0x05
     e42:	be 83       	std	Y+6, r27	; 0x06
     e44:	8f 81       	ldd	r24, Y+7	; 0x07
     e46:	8a 3c       	cpi	r24, 0xCA	; 202
     e48:	09 f0       	breq	.+2      	; 0xe4c <_ZN8Activity12Tunning_rateER5PanelR7Carrage+0x2b8>
     e4a:	59 c0       	rjmp	.+178    	; 0xefe <_ZN8Activity12Tunning_rateER5PanelR7Carrage+0x36a>
     e4c:	33 c0       	rjmp	.+102    	; 0xeb4 <_ZN8Activity12Tunning_rateER5PanelR7Carrage+0x320>
     e4e:	8f 81       	ldd	r24, Y+7	; 0x07
     e50:	8a 3c       	cpi	r24, 0xCA	; 202
     e52:	09 f0       	breq	.+2      	; 0xe56 <_ZN8Activity12Tunning_rateER5PanelR7Carrage+0x2c2>
     e54:	54 c0       	rjmp	.+168    	; 0xefe <_ZN8Activity12Tunning_rateER5PanelR7Carrage+0x36a>
     e56:	03 30       	cpi	r16, 0x03	; 3
     e58:	11 05       	cpc	r17, r1
     e5a:	29 f0       	breq	.+10     	; 0xe66 <_ZN8Activity12Tunning_rateER5PanelR7Carrage+0x2d2>
     e5c:	04 30       	cpi	r16, 0x04	; 4
     e5e:	11 05       	cpc	r17, r1
     e60:	09 f0       	breq	.+2      	; 0xe64 <_ZN8Activity12Tunning_rateER5PanelR7Carrage+0x2d0>
     e62:	4d c0       	rjmp	.+154    	; 0xefe <_ZN8Activity12Tunning_rateER5PanelR7Carrage+0x36a>
     e64:	27 c0       	rjmp	.+78     	; 0xeb4 <_ZN8Activity12Tunning_rateER5PanelR7Carrage+0x320>
     e66:	87 01       	movw	r16, r14
     e68:	0a 52       	subi	r16, 0x2A	; 42
     e6a:	1f 4f       	sbci	r17, 0xFF	; 255
     e6c:	2a e0       	ldi	r18, 0x0A	; 10
     e6e:	37 ed       	ldi	r19, 0xD7	; 215
     e70:	43 e2       	ldi	r20, 0x23	; 35
     e72:	5c e3       	ldi	r21, 0x3C	; 60
     e74:	6b 81       	ldd	r22, Y+3	; 0x03
     e76:	7c 81       	ldd	r23, Y+4	; 0x04
     e78:	8d 81       	ldd	r24, Y+5	; 0x05
     e7a:	9e 81       	ldd	r25, Y+6	; 0x06
     e7c:	0e 94 93 2e 	call	0x5d26	; 0x5d26 <__addsf3>
     e80:	9b 01       	movw	r18, r22
     e82:	ac 01       	movw	r20, r24
     e84:	f8 01       	movw	r30, r16
     e86:	60 81       	ld	r22, Z
     e88:	71 81       	ldd	r23, Z+1	; 0x01
     e8a:	82 81       	ldd	r24, Z+2	; 0x02
     e8c:	93 81       	ldd	r25, Z+3	; 0x03
     e8e:	0e 94 92 2e 	call	0x5d24	; 0x5d24 <__subsf3>
     e92:	f8 01       	movw	r30, r16
     e94:	60 83       	st	Z, r22
     e96:	71 83       	std	Z+1, r23	; 0x01
     e98:	82 83       	std	Z+2, r24	; 0x02
     e9a:	93 83       	std	Z+3, r25	; 0x03
     e9c:	8c ee       	ldi	r24, 0xEC	; 236
     e9e:	91 e5       	ldi	r25, 0x51	; 81
     ea0:	a8 eb       	ldi	r26, 0xB8	; 184
     ea2:	bd e3       	ldi	r27, 0x3D	; 61
     ea4:	8b 83       	std	Y+3, r24	; 0x03
     ea6:	9c 83       	std	Y+4, r25	; 0x04
     ea8:	ad 83       	std	Y+5, r26	; 0x05
     eaa:	be 83       	std	Y+6, r27	; 0x06
     eac:	8f 81       	ldd	r24, Y+7	; 0x07
     eae:	8c 3c       	cpi	r24, 0xCC	; 204
     eb0:	80 f5       	brcc	.+96     	; 0xf12 <_ZN8Activity12Tunning_rateER5PanelR7Carrage+0x37e>
     eb2:	34 c0       	rjmp	.+104    	; 0xf1c <_ZN8Activity12Tunning_rateER5PanelR7Carrage+0x388>
     eb4:	87 01       	movw	r16, r14
     eb6:	0a 52       	subi	r16, 0x2A	; 42
     eb8:	1f 4f       	sbci	r17, 0xFF	; 255
     eba:	2a e0       	ldi	r18, 0x0A	; 10
     ebc:	37 ed       	ldi	r19, 0xD7	; 215
     ebe:	43 e2       	ldi	r20, 0x23	; 35
     ec0:	5c e3       	ldi	r21, 0x3C	; 60
     ec2:	6b 81       	ldd	r22, Y+3	; 0x03
     ec4:	7c 81       	ldd	r23, Y+4	; 0x04
     ec6:	8d 81       	ldd	r24, Y+5	; 0x05
     ec8:	9e 81       	ldd	r25, Y+6	; 0x06
     eca:	0e 94 93 2e 	call	0x5d26	; 0x5d26 <__addsf3>
     ece:	f8 01       	movw	r30, r16
     ed0:	20 81       	ld	r18, Z
     ed2:	31 81       	ldd	r19, Z+1	; 0x01
     ed4:	42 81       	ldd	r20, Z+2	; 0x02
     ed6:	53 81       	ldd	r21, Z+3	; 0x03
     ed8:	0e 94 93 2e 	call	0x5d26	; 0x5d26 <__addsf3>
     edc:	f8 01       	movw	r30, r16
     ede:	60 83       	st	Z, r22
     ee0:	71 83       	std	Z+1, r23	; 0x01
     ee2:	82 83       	std	Z+2, r24	; 0x02
     ee4:	93 83       	std	Z+3, r25	; 0x03
     ee6:	8c ee       	ldi	r24, 0xEC	; 236
     ee8:	91 e5       	ldi	r25, 0x51	; 81
     eea:	a8 eb       	ldi	r26, 0xB8	; 184
     eec:	bd e3       	ldi	r27, 0x3D	; 61
     eee:	8b 83       	std	Y+3, r24	; 0x03
     ef0:	9c 83       	std	Y+4, r25	; 0x04
     ef2:	ad 83       	std	Y+5, r26	; 0x05
     ef4:	be 83       	std	Y+6, r27	; 0x06
     ef6:	8f 81       	ldd	r24, Y+7	; 0x07
     ef8:	8c 3c       	cpi	r24, 0xCC	; 204
     efa:	80 f0       	brcs	.+32     	; 0xf1c <_ZN8Activity12Tunning_rateER5PanelR7Carrage+0x388>
     efc:	0d c0       	rjmp	.+26     	; 0xf18 <_ZN8Activity12Tunning_rateER5PanelR7Carrage+0x384>
     efe:	8f 81       	ldd	r24, Y+7	; 0x07
     f00:	8c 3c       	cpi	r24, 0xCC	; 204
     f02:	60 f0       	brcs	.+24     	; 0xf1c <_ZN8Activity12Tunning_rateER5PanelR7Carrage+0x388>
     f04:	03 30       	cpi	r16, 0x03	; 3
     f06:	11 05       	cpc	r17, r1
     f08:	21 f0       	breq	.+8      	; 0xf12 <_ZN8Activity12Tunning_rateER5PanelR7Carrage+0x37e>
     f0a:	04 30       	cpi	r16, 0x04	; 4
     f0c:	11 05       	cpc	r17, r1
     f0e:	31 f4       	brne	.+12     	; 0xf1c <_ZN8Activity12Tunning_rateER5PanelR7Carrage+0x388>
     f10:	03 c0       	rjmp	.+6      	; 0xf18 <_ZN8Activity12Tunning_rateER5PanelR7Carrage+0x384>
     f12:	81 50       	subi	r24, 0x01	; 1
     f14:	8f 83       	std	Y+7, r24	; 0x07
     f16:	02 c0       	rjmp	.+4      	; 0xf1c <_ZN8Activity12Tunning_rateER5PanelR7Carrage+0x388>
     f18:	8f 5f       	subi	r24, 0xFF	; 255
     f1a:	8f 83       	std	Y+7, r24	; 0x07
     f1c:	8f 81       	ldd	r24, Y+7	; 0x07
     f1e:	89 3c       	cpi	r24, 0xC9	; 201
     f20:	18 f4       	brcc	.+6      	; 0xf28 <_ZN8Activity12Tunning_rateER5PanelR7Carrage+0x394>
     f22:	88 ec       	ldi	r24, 0xC8	; 200
     f24:	8f 83       	std	Y+7, r24	; 0x07
     f26:	04 c0       	rjmp	.+8      	; 0xf30 <_ZN8Activity12Tunning_rateER5PanelR7Carrage+0x39c>
     f28:	8d 3c       	cpi	r24, 0xCD	; 205
     f2a:	10 f0       	brcs	.+4      	; 0xf30 <_ZN8Activity12Tunning_rateER5PanelR7Carrage+0x39c>
     f2c:	8d ec       	ldi	r24, 0xCD	; 205
     f2e:	8f 83       	std	Y+7, r24	; 0x07
     f30:	f7 01       	movw	r30, r14
     f32:	e6 53       	subi	r30, 0x36	; 54
     f34:	ff 4f       	sbci	r31, 0xFF	; 255
     f36:	80 80       	ld	r8, Z
     f38:	91 80       	ldd	r9, Z+1	; 0x01
     f3a:	a2 80       	ldd	r10, Z+2	; 0x02
     f3c:	b3 80       	ldd	r11, Z+3	; 0x03
     f3e:	20 e0       	ldi	r18, 0x00	; 0
     f40:	30 e0       	ldi	r19, 0x00	; 0
     f42:	a9 01       	movw	r20, r18
     f44:	c5 01       	movw	r24, r10
     f46:	b4 01       	movw	r22, r8
     f48:	0e 94 ff 2e 	call	0x5dfe	; 0x5dfe <__cmpsf2>
     f4c:	18 16       	cp	r1, r24
     f4e:	64 f0       	brlt	.+24     	; 0xf68 <_ZN8Activity12Tunning_rateER5PanelR7Carrage+0x3d4>
     f50:	8a e0       	ldi	r24, 0x0A	; 10
     f52:	97 ed       	ldi	r25, 0xD7	; 215
     f54:	a3 e2       	ldi	r26, 0x23	; 35
     f56:	bc e3       	ldi	r27, 0x3C	; 60
     f58:	f7 01       	movw	r30, r14
     f5a:	e6 53       	subi	r30, 0x36	; 54
     f5c:	ff 4f       	sbci	r31, 0xFF	; 255
     f5e:	80 83       	st	Z, r24
     f60:	91 83       	std	Z+1, r25	; 0x01
     f62:	a2 83       	std	Z+2, r26	; 0x02
     f64:	b3 83       	std	Z+3, r27	; 0x03
     f66:	15 c0       	rjmp	.+42     	; 0xf92 <_ZN8Activity12Tunning_rateER5PanelR7Carrage+0x3fe>
     f68:	20 e0       	ldi	r18, 0x00	; 0
     f6a:	30 e0       	ldi	r19, 0x00	; 0
     f6c:	40 e4       	ldi	r20, 0x40	; 64
     f6e:	50 e4       	ldi	r21, 0x40	; 64
     f70:	c5 01       	movw	r24, r10
     f72:	b4 01       	movw	r22, r8
     f74:	0e 94 5e 30 	call	0x60bc	; 0x60bc <__gesf2>
     f78:	88 23       	and	r24, r24
     f7a:	5c f0       	brlt	.+22     	; 0xf92 <_ZN8Activity12Tunning_rateER5PanelR7Carrage+0x3fe>
     f7c:	80 e0       	ldi	r24, 0x00	; 0
     f7e:	90 e0       	ldi	r25, 0x00	; 0
     f80:	a0 e4       	ldi	r26, 0x40	; 64
     f82:	b0 e4       	ldi	r27, 0x40	; 64
     f84:	f7 01       	movw	r30, r14
     f86:	e6 53       	subi	r30, 0x36	; 54
     f88:	ff 4f       	sbci	r31, 0xFF	; 255
     f8a:	80 83       	st	Z, r24
     f8c:	91 83       	std	Z+1, r25	; 0x01
     f8e:	a2 83       	std	Z+2, r26	; 0x02
     f90:	b3 83       	std	Z+3, r27	; 0x03
     f92:	f7 01       	movw	r30, r14
     f94:	e2 53       	subi	r30, 0x32	; 50
     f96:	ff 4f       	sbci	r31, 0xFF	; 255
     f98:	80 80       	ld	r8, Z
     f9a:	91 80       	ldd	r9, Z+1	; 0x01
     f9c:	a2 80       	ldd	r10, Z+2	; 0x02
     f9e:	b3 80       	ldd	r11, Z+3	; 0x03
     fa0:	20 e0       	ldi	r18, 0x00	; 0
     fa2:	30 e0       	ldi	r19, 0x00	; 0
     fa4:	a9 01       	movw	r20, r18
     fa6:	c5 01       	movw	r24, r10
     fa8:	b4 01       	movw	r22, r8
     faa:	0e 94 ff 2e 	call	0x5dfe	; 0x5dfe <__cmpsf2>
     fae:	18 16       	cp	r1, r24
     fb0:	44 f0       	brlt	.+16     	; 0xfc2 <_ZN8Activity12Tunning_rateER5PanelR7Carrage+0x42e>
     fb2:	f7 01       	movw	r30, r14
     fb4:	e2 53       	subi	r30, 0x32	; 50
     fb6:	ff 4f       	sbci	r31, 0xFF	; 255
     fb8:	10 82       	st	Z, r1
     fba:	11 82       	std	Z+1, r1	; 0x01
     fbc:	12 82       	std	Z+2, r1	; 0x02
     fbe:	13 82       	std	Z+3, r1	; 0x03
     fc0:	15 c0       	rjmp	.+42     	; 0xfec <_ZN8Activity12Tunning_rateER5PanelR7Carrage+0x458>
     fc2:	20 e0       	ldi	r18, 0x00	; 0
     fc4:	30 ec       	ldi	r19, 0xC0	; 192
     fc6:	49 e7       	ldi	r20, 0x79	; 121
     fc8:	54 e4       	ldi	r21, 0x44	; 68
     fca:	c5 01       	movw	r24, r10
     fcc:	b4 01       	movw	r22, r8
     fce:	0e 94 5e 30 	call	0x60bc	; 0x60bc <__gesf2>
     fd2:	88 23       	and	r24, r24
     fd4:	5c f0       	brlt	.+22     	; 0xfec <_ZN8Activity12Tunning_rateER5PanelR7Carrage+0x458>
     fd6:	80 e0       	ldi	r24, 0x00	; 0
     fd8:	90 ec       	ldi	r25, 0xC0	; 192
     fda:	a9 e7       	ldi	r26, 0x79	; 121
     fdc:	b4 e4       	ldi	r27, 0x44	; 68
     fde:	f7 01       	movw	r30, r14
     fe0:	e2 53       	subi	r30, 0x32	; 50
     fe2:	ff 4f       	sbci	r31, 0xFF	; 255
     fe4:	80 83       	st	Z, r24
     fe6:	91 83       	std	Z+1, r25	; 0x01
     fe8:	a2 83       	std	Z+2, r26	; 0x02
     fea:	b3 83       	std	Z+3, r27	; 0x03
     fec:	f7 01       	movw	r30, r14
     fee:	ee 52       	subi	r30, 0x2E	; 46
     ff0:	ff 4f       	sbci	r31, 0xFF	; 255
     ff2:	80 80       	ld	r8, Z
     ff4:	91 80       	ldd	r9, Z+1	; 0x01
     ff6:	a2 80       	ldd	r10, Z+2	; 0x02
     ff8:	b3 80       	ldd	r11, Z+3	; 0x03
     ffa:	20 e0       	ldi	r18, 0x00	; 0
     ffc:	30 e0       	ldi	r19, 0x00	; 0
     ffe:	a9 01       	movw	r20, r18
    1000:	c5 01       	movw	r24, r10
    1002:	b4 01       	movw	r22, r8
    1004:	0e 94 ff 2e 	call	0x5dfe	; 0x5dfe <__cmpsf2>
    1008:	18 16       	cp	r1, r24
    100a:	44 f0       	brlt	.+16     	; 0x101c <_ZN8Activity12Tunning_rateER5PanelR7Carrage+0x488>
    100c:	f7 01       	movw	r30, r14
    100e:	ee 52       	subi	r30, 0x2E	; 46
    1010:	ff 4f       	sbci	r31, 0xFF	; 255
    1012:	10 82       	st	Z, r1
    1014:	11 82       	std	Z+1, r1	; 0x01
    1016:	12 82       	std	Z+2, r1	; 0x02
    1018:	13 82       	std	Z+3, r1	; 0x03
    101a:	15 c0       	rjmp	.+42     	; 0x1046 <_ZN8Activity12Tunning_rateER5PanelR7Carrage+0x4b2>
    101c:	20 e0       	ldi	r18, 0x00	; 0
    101e:	30 ec       	ldi	r19, 0xC0	; 192
    1020:	49 e7       	ldi	r20, 0x79	; 121
    1022:	54 e4       	ldi	r21, 0x44	; 68
    1024:	c5 01       	movw	r24, r10
    1026:	b4 01       	movw	r22, r8
    1028:	0e 94 5e 30 	call	0x60bc	; 0x60bc <__gesf2>
    102c:	88 23       	and	r24, r24
    102e:	5c f0       	brlt	.+22     	; 0x1046 <_ZN8Activity12Tunning_rateER5PanelR7Carrage+0x4b2>
    1030:	80 e0       	ldi	r24, 0x00	; 0
    1032:	90 ec       	ldi	r25, 0xC0	; 192
    1034:	a9 e7       	ldi	r26, 0x79	; 121
    1036:	b4 e4       	ldi	r27, 0x44	; 68
    1038:	f7 01       	movw	r30, r14
    103a:	ee 52       	subi	r30, 0x2E	; 46
    103c:	ff 4f       	sbci	r31, 0xFF	; 255
    103e:	80 83       	st	Z, r24
    1040:	91 83       	std	Z+1, r25	; 0x01
    1042:	a2 83       	std	Z+2, r26	; 0x02
    1044:	b3 83       	std	Z+3, r27	; 0x03
    1046:	f7 01       	movw	r30, r14
    1048:	ea 52       	subi	r30, 0x2A	; 42
    104a:	ff 4f       	sbci	r31, 0xFF	; 255
    104c:	80 80       	ld	r8, Z
    104e:	91 80       	ldd	r9, Z+1	; 0x01
    1050:	a2 80       	ldd	r10, Z+2	; 0x02
    1052:	b3 80       	ldd	r11, Z+3	; 0x03
    1054:	20 e0       	ldi	r18, 0x00	; 0
    1056:	30 e0       	ldi	r19, 0x00	; 0
    1058:	a9 01       	movw	r20, r18
    105a:	c5 01       	movw	r24, r10
    105c:	b4 01       	movw	r22, r8
    105e:	0e 94 ff 2e 	call	0x5dfe	; 0x5dfe <__cmpsf2>
    1062:	18 16       	cp	r1, r24
    1064:	44 f0       	brlt	.+16     	; 0x1076 <_ZN8Activity12Tunning_rateER5PanelR7Carrage+0x4e2>
    1066:	f7 01       	movw	r30, r14
    1068:	ea 52       	subi	r30, 0x2A	; 42
    106a:	ff 4f       	sbci	r31, 0xFF	; 255
    106c:	10 82       	st	Z, r1
    106e:	11 82       	std	Z+1, r1	; 0x01
    1070:	12 82       	std	Z+2, r1	; 0x02
    1072:	13 82       	std	Z+3, r1	; 0x03
    1074:	15 c0       	rjmp	.+42     	; 0x10a0 <_ZN8Activity12Tunning_rateER5PanelR7Carrage+0x50c>
    1076:	20 e0       	ldi	r18, 0x00	; 0
    1078:	30 e0       	ldi	r19, 0x00	; 0
    107a:	40 e0       	ldi	r20, 0x00	; 0
    107c:	5f e3       	ldi	r21, 0x3F	; 63
    107e:	c5 01       	movw	r24, r10
    1080:	b4 01       	movw	r22, r8
    1082:	0e 94 5e 30 	call	0x60bc	; 0x60bc <__gesf2>
    1086:	88 23       	and	r24, r24
    1088:	5c f0       	brlt	.+22     	; 0x10a0 <_ZN8Activity12Tunning_rateER5PanelR7Carrage+0x50c>
    108a:	f7 01       	movw	r30, r14
    108c:	ea 52       	subi	r30, 0x2A	; 42
    108e:	ff 4f       	sbci	r31, 0xFF	; 255
    1090:	80 e0       	ldi	r24, 0x00	; 0
    1092:	90 e0       	ldi	r25, 0x00	; 0
    1094:	a0 e0       	ldi	r26, 0x00	; 0
    1096:	bf e3       	ldi	r27, 0x3F	; 63
    1098:	80 83       	st	Z, r24
    109a:	91 83       	std	Z+1, r25	; 0x01
    109c:	a2 83       	std	Z+2, r26	; 0x02
    109e:	b3 83       	std	Z+3, r27	; 0x03
    10a0:	15 c0       	rjmp	.+42     	; 0x10cc <_ZN8Activity12Tunning_rateER5PanelR7Carrage+0x538>
    10a2:	80 e0       	ldi	r24, 0x00	; 0
    10a4:	13 c0       	rjmp	.+38     	; 0x10cc <_ZN8Activity12Tunning_rateER5PanelR7Carrage+0x538>
    10a6:	01 30       	cpi	r16, 0x01	; 1
    10a8:	11 05       	cpc	r17, r1
    10aa:	09 f4       	brne	.+2      	; 0x10ae <_ZN8Activity12Tunning_rateER5PanelR7Carrage+0x51a>
    10ac:	bb cd       	rjmp	.-1162   	; 0xc24 <_ZN8Activity12Tunning_rateER5PanelR7Carrage+0x90>
    10ae:	02 30       	cpi	r16, 0x02	; 2
    10b0:	11 05       	cpc	r17, r1
    10b2:	09 f4       	brne	.+2      	; 0x10b6 <_ZN8Activity12Tunning_rateER5PanelR7Carrage+0x522>
    10b4:	b4 cd       	rjmp	.-1176   	; 0xc1e <_ZN8Activity12Tunning_rateER5PanelR7Carrage+0x8a>
    10b6:	13 ce       	rjmp	.-986    	; 0xcde <_ZN8Activity12Tunning_rateER5PanelR7Carrage+0x14a>
    10b8:	8f 81       	ldd	r24, Y+7	; 0x07
    10ba:	8b 3c       	cpi	r24, 0xCB	; 203
    10bc:	09 f0       	breq	.+2      	; 0x10c0 <_ZN8Activity12Tunning_rateER5PanelR7Carrage+0x52c>
    10be:	c7 ce       	rjmp	.-626    	; 0xe4e <_ZN8Activity12Tunning_rateER5PanelR7Carrage+0x2ba>
    10c0:	76 ce       	rjmp	.-788    	; 0xdae <_ZN8Activity12Tunning_rateER5PanelR7Carrage+0x21a>
    10c2:	8f 81       	ldd	r24, Y+7	; 0x07
    10c4:	8b 3c       	cpi	r24, 0xCB	; 203
    10c6:	09 f0       	breq	.+2      	; 0x10ca <_ZN8Activity12Tunning_rateER5PanelR7Carrage+0x536>
    10c8:	c2 ce       	rjmp	.-636    	; 0xe4e <_ZN8Activity12Tunning_rateER5PanelR7Carrage+0x2ba>
    10ca:	9a ce       	rjmp	.-716    	; 0xe00 <_ZN8Activity12Tunning_rateER5PanelR7Carrage+0x26c>
    10cc:	df 91       	pop	r29
    10ce:	cf 91       	pop	r28
    10d0:	1f 91       	pop	r17
    10d2:	0f 91       	pop	r16
    10d4:	ff 90       	pop	r15
    10d6:	ef 90       	pop	r14
    10d8:	bf 90       	pop	r11
    10da:	af 90       	pop	r10
    10dc:	9f 90       	pop	r9
    10de:	8f 90       	pop	r8
    10e0:	08 95       	ret

000010e2 <_ZN8Activity10Limits_setER5PanelR7Carrage>:
    10e2:	cf 92       	push	r12
    10e4:	df 92       	push	r13
    10e6:	ef 92       	push	r14
    10e8:	ff 92       	push	r15
    10ea:	0f 93       	push	r16
    10ec:	1f 93       	push	r17
    10ee:	cf 93       	push	r28
    10f0:	df 93       	push	r29
    10f2:	ec 01       	movw	r28, r24
    10f4:	cb 01       	movw	r24, r22
    10f6:	8a 01       	movw	r16, r20
    10f8:	64 e6       	ldi	r22, 0x64	; 100
    10fa:	70 e0       	ldi	r23, 0x00	; 0
    10fc:	0e 94 ad 29 	call	0x535a	; 0x535a <_ZN5Panel7PressedEi>
    1100:	85 30       	cpi	r24, 0x05	; 5
    1102:	91 05       	cpc	r25, r1
    1104:	19 f4       	brne	.+6      	; 0x110c <_ZN8Activity10Limits_setER5PanelR7Carrage+0x2a>
    1106:	18 82       	st	Y, r1
    1108:	1f 82       	std	Y+7, r1	; 0x07
    110a:	51 c1       	rjmp	.+674    	; 0x13ae <_ZN8Activity10Limits_setER5PanelR7Carrage+0x2cc>
    110c:	86 30       	cpi	r24, 0x06	; 6
    110e:	91 05       	cpc	r25, r1
    1110:	19 f4       	brne	.+6      	; 0x1118 <_ZN8Activity10Limits_setER5PanelR7Carrage+0x36>
    1112:	18 82       	st	Y, r1
    1114:	1f 82       	std	Y+7, r1	; 0x07
    1116:	4b c1       	rjmp	.+662    	; 0x13ae <_ZN8Activity10Limits_setER5PanelR7Carrage+0x2cc>
    1118:	8f 3f       	cpi	r24, 0xFF	; 255
    111a:	2f ef       	ldi	r18, 0xFF	; 255
    111c:	92 07       	cpc	r25, r18
    111e:	29 f4       	brne	.+10     	; 0x112a <_ZN8Activity10Limits_setER5PanelR7Carrage+0x48>
    1120:	1b 82       	std	Y+3, r1	; 0x03
    1122:	1c 82       	std	Y+4, r1	; 0x04
    1124:	1d 82       	std	Y+5, r1	; 0x05
    1126:	1e 82       	std	Y+6, r1	; 0x06
    1128:	42 c1       	rjmp	.+644    	; 0x13ae <_ZN8Activity10Limits_setER5PanelR7Carrage+0x2cc>
    112a:	2f 81       	ldd	r18, Y+7	; 0x07
    112c:	24 3d       	cpi	r18, 0xD4	; 212
    112e:	59 f4       	brne	.+22     	; 0x1146 <_ZN8Activity10Limits_setER5PanelR7Carrage+0x64>
    1130:	00 97       	sbiw	r24, 0x00	; 0
    1132:	09 f0       	breq	.+2      	; 0x1136 <_ZN8Activity10Limits_setER5PanelR7Carrage+0x54>
    1134:	3e c1       	rjmp	.+636    	; 0x13b2 <_ZN8Activity10Limits_setER5PanelR7Carrage+0x2d0>
    1136:	81 e0       	ldi	r24, 0x01	; 1
    1138:	88 83       	st	Y, r24
    113a:	9d e0       	ldi	r25, 0x0D	; 13
    113c:	9f 83       	std	Y+7, r25	; 0x07
    113e:	c8 56       	subi	r28, 0x68	; 104
    1140:	df 4f       	sbci	r29, 0xFF	; 255
    1142:	88 83       	st	Y, r24
    1144:	34 c1       	rjmp	.+616    	; 0x13ae <_ZN8Activity10Limits_setER5PanelR7Carrage+0x2cc>
    1146:	00 97       	sbiw	r24, 0x00	; 0
    1148:	39 f4       	brne	.+14     	; 0x1158 <_ZN8Activity10Limits_setER5PanelR7Carrage+0x76>
    114a:	18 82       	st	Y, r1
    114c:	1f 82       	std	Y+7, r1	; 0x07
    114e:	c8 56       	subi	r28, 0x68	; 104
    1150:	df 4f       	sbci	r29, 0xFF	; 255
    1152:	81 e0       	ldi	r24, 0x01	; 1
    1154:	88 83       	st	Y, r24
    1156:	2b c1       	rjmp	.+598    	; 0x13ae <_ZN8Activity10Limits_setER5PanelR7Carrage+0x2cc>
    1158:	81 30       	cpi	r24, 0x01	; 1
    115a:	91 05       	cpc	r25, r1
    115c:	31 f0       	breq	.+12     	; 0x116a <_ZN8Activity10Limits_setER5PanelR7Carrage+0x88>
    115e:	82 30       	cpi	r24, 0x02	; 2
    1160:	91 05       	cpc	r25, r1
    1162:	31 f4       	brne	.+12     	; 0x1170 <_ZN8Activity10Limits_setER5PanelR7Carrage+0x8e>
    1164:	2f 5f       	subi	r18, 0xFF	; 255
    1166:	2f 83       	std	Y+7, r18	; 0x07
    1168:	9f c0       	rjmp	.+318    	; 0x12a8 <_ZN8Activity10Limits_setER5PanelR7Carrage+0x1c6>
    116a:	21 50       	subi	r18, 0x01	; 1
    116c:	2f 83       	std	Y+7, r18	; 0x07
    116e:	9c c0       	rjmp	.+312    	; 0x12a8 <_ZN8Activity10Limits_setER5PanelR7Carrage+0x1c6>
    1170:	3e e2       	ldi	r19, 0x2E	; 46
    1172:	32 0f       	add	r19, r18
    1174:	32 30       	cpi	r19, 0x02	; 2
    1176:	08 f0       	brcs	.+2      	; 0x117a <_ZN8Activity10Limits_setER5PanelR7Carrage+0x98>
    1178:	97 c0       	rjmp	.+302    	; 0x12a8 <_ZN8Activity10Limits_setER5PanelR7Carrage+0x1c6>
    117a:	83 30       	cpi	r24, 0x03	; 3
    117c:	91 05       	cpc	r25, r1
    117e:	29 f0       	breq	.+10     	; 0x118a <_ZN8Activity10Limits_setER5PanelR7Carrage+0xa8>
    1180:	84 30       	cpi	r24, 0x04	; 4
    1182:	91 05       	cpc	r25, r1
    1184:	09 f4       	brne	.+2      	; 0x1188 <_ZN8Activity10Limits_setER5PanelR7Carrage+0xa6>
    1186:	4b c0       	rjmp	.+150    	; 0x121e <_ZN8Activity10Limits_setER5PanelR7Carrage+0x13c>
    1188:	8f c0       	rjmp	.+286    	; 0x12a8 <_ZN8Activity10Limits_setER5PanelR7Carrage+0x1c6>
    118a:	22 3d       	cpi	r18, 0xD2	; 210
    118c:	e9 f4       	brne	.+58     	; 0x11c8 <_ZN8Activity10Limits_setER5PanelR7Carrage+0xe6>
    118e:	78 01       	movw	r14, r16
    1190:	8a ed       	ldi	r24, 0xDA	; 218
    1192:	e8 0e       	add	r14, r24
    1194:	f1 1c       	adc	r15, r1
    1196:	2a e0       	ldi	r18, 0x0A	; 10
    1198:	37 ed       	ldi	r19, 0xD7	; 215
    119a:	43 e2       	ldi	r20, 0x23	; 35
    119c:	5c e3       	ldi	r21, 0x3C	; 60
    119e:	6b 81       	ldd	r22, Y+3	; 0x03
    11a0:	7c 81       	ldd	r23, Y+4	; 0x04
    11a2:	8d 81       	ldd	r24, Y+5	; 0x05
    11a4:	9e 81       	ldd	r25, Y+6	; 0x06
    11a6:	0e 94 93 2e 	call	0x5d26	; 0x5d26 <__addsf3>
    11aa:	9b 01       	movw	r18, r22
    11ac:	ac 01       	movw	r20, r24
    11ae:	f7 01       	movw	r30, r14
    11b0:	60 81       	ld	r22, Z
    11b2:	71 81       	ldd	r23, Z+1	; 0x01
    11b4:	82 81       	ldd	r24, Z+2	; 0x02
    11b6:	93 81       	ldd	r25, Z+3	; 0x03
    11b8:	0e 94 92 2e 	call	0x5d24	; 0x5d24 <__subsf3>
    11bc:	f7 01       	movw	r30, r14
    11be:	60 83       	st	Z, r22
    11c0:	71 83       	std	Z+1, r23	; 0x01
    11c2:	82 83       	std	Z+2, r24	; 0x02
    11c4:	93 83       	std	Z+3, r25	; 0x03
    11c6:	1c c0       	rjmp	.+56     	; 0x1200 <_ZN8Activity10Limits_setER5PanelR7Carrage+0x11e>
    11c8:	78 01       	movw	r14, r16
    11ca:	fe ed       	ldi	r31, 0xDE	; 222
    11cc:	ef 0e       	add	r14, r31
    11ce:	f1 1c       	adc	r15, r1
    11d0:	2a e0       	ldi	r18, 0x0A	; 10
    11d2:	37 ed       	ldi	r19, 0xD7	; 215
    11d4:	43 e2       	ldi	r20, 0x23	; 35
    11d6:	5c e3       	ldi	r21, 0x3C	; 60
    11d8:	6b 81       	ldd	r22, Y+3	; 0x03
    11da:	7c 81       	ldd	r23, Y+4	; 0x04
    11dc:	8d 81       	ldd	r24, Y+5	; 0x05
    11de:	9e 81       	ldd	r25, Y+6	; 0x06
    11e0:	0e 94 93 2e 	call	0x5d26	; 0x5d26 <__addsf3>
    11e4:	9b 01       	movw	r18, r22
    11e6:	ac 01       	movw	r20, r24
    11e8:	f7 01       	movw	r30, r14
    11ea:	60 81       	ld	r22, Z
    11ec:	71 81       	ldd	r23, Z+1	; 0x01
    11ee:	82 81       	ldd	r24, Z+2	; 0x02
    11f0:	93 81       	ldd	r25, Z+3	; 0x03
    11f2:	0e 94 92 2e 	call	0x5d24	; 0x5d24 <__subsf3>
    11f6:	f7 01       	movw	r30, r14
    11f8:	60 83       	st	Z, r22
    11fa:	71 83       	std	Z+1, r23	; 0x01
    11fc:	82 83       	std	Z+2, r24	; 0x02
    11fe:	93 83       	std	Z+3, r25	; 0x03
    1200:	8c ee       	ldi	r24, 0xEC	; 236
    1202:	91 e5       	ldi	r25, 0x51	; 81
    1204:	a8 eb       	ldi	r26, 0xB8	; 184
    1206:	bd e3       	ldi	r27, 0x3D	; 61
    1208:	8b 83       	std	Y+3, r24	; 0x03
    120a:	9c 83       	std	Y+4, r25	; 0x04
    120c:	ad 83       	std	Y+5, r26	; 0x05
    120e:	be 83       	std	Y+6, r27	; 0x06
    1210:	2f 81       	ldd	r18, Y+7	; 0x07
    1212:	8c e2       	ldi	r24, 0x2C	; 44
    1214:	82 0f       	add	r24, r18
    1216:	82 30       	cpi	r24, 0x02	; 2
    1218:	08 f0       	brcs	.+2      	; 0x121c <_ZN8Activity10Limits_setER5PanelR7Carrage+0x13a>
    121a:	56 c0       	rjmp	.+172    	; 0x12c8 <_ZN8Activity10Limits_setER5PanelR7Carrage+0x1e6>
    121c:	50 c0       	rjmp	.+160    	; 0x12be <_ZN8Activity10Limits_setER5PanelR7Carrage+0x1dc>
    121e:	22 3d       	cpi	r18, 0xD2	; 210
    1220:	d9 f4       	brne	.+54     	; 0x1258 <_ZN8Activity10Limits_setER5PanelR7Carrage+0x176>
    1222:	78 01       	movw	r14, r16
    1224:	fa ed       	ldi	r31, 0xDA	; 218
    1226:	ef 0e       	add	r14, r31
    1228:	f1 1c       	adc	r15, r1
    122a:	2a e0       	ldi	r18, 0x0A	; 10
    122c:	37 ed       	ldi	r19, 0xD7	; 215
    122e:	43 e2       	ldi	r20, 0x23	; 35
    1230:	5c e3       	ldi	r21, 0x3C	; 60
    1232:	6b 81       	ldd	r22, Y+3	; 0x03
    1234:	7c 81       	ldd	r23, Y+4	; 0x04
    1236:	8d 81       	ldd	r24, Y+5	; 0x05
    1238:	9e 81       	ldd	r25, Y+6	; 0x06
    123a:	0e 94 93 2e 	call	0x5d26	; 0x5d26 <__addsf3>
    123e:	f7 01       	movw	r30, r14
    1240:	20 81       	ld	r18, Z
    1242:	31 81       	ldd	r19, Z+1	; 0x01
    1244:	42 81       	ldd	r20, Z+2	; 0x02
    1246:	53 81       	ldd	r21, Z+3	; 0x03
    1248:	0e 94 93 2e 	call	0x5d26	; 0x5d26 <__addsf3>
    124c:	f7 01       	movw	r30, r14
    124e:	60 83       	st	Z, r22
    1250:	71 83       	std	Z+1, r23	; 0x01
    1252:	82 83       	std	Z+2, r24	; 0x02
    1254:	93 83       	std	Z+3, r25	; 0x03
    1256:	1a c0       	rjmp	.+52     	; 0x128c <_ZN8Activity10Limits_setER5PanelR7Carrage+0x1aa>
    1258:	78 01       	movw	r14, r16
    125a:	fe ed       	ldi	r31, 0xDE	; 222
    125c:	ef 0e       	add	r14, r31
    125e:	f1 1c       	adc	r15, r1
    1260:	2a e0       	ldi	r18, 0x0A	; 10
    1262:	37 ed       	ldi	r19, 0xD7	; 215
    1264:	43 e2       	ldi	r20, 0x23	; 35
    1266:	5c e3       	ldi	r21, 0x3C	; 60
    1268:	6b 81       	ldd	r22, Y+3	; 0x03
    126a:	7c 81       	ldd	r23, Y+4	; 0x04
    126c:	8d 81       	ldd	r24, Y+5	; 0x05
    126e:	9e 81       	ldd	r25, Y+6	; 0x06
    1270:	0e 94 93 2e 	call	0x5d26	; 0x5d26 <__addsf3>
    1274:	f7 01       	movw	r30, r14
    1276:	20 81       	ld	r18, Z
    1278:	31 81       	ldd	r19, Z+1	; 0x01
    127a:	42 81       	ldd	r20, Z+2	; 0x02
    127c:	53 81       	ldd	r21, Z+3	; 0x03
    127e:	0e 94 93 2e 	call	0x5d26	; 0x5d26 <__addsf3>
    1282:	f7 01       	movw	r30, r14
    1284:	60 83       	st	Z, r22
    1286:	71 83       	std	Z+1, r23	; 0x01
    1288:	82 83       	std	Z+2, r24	; 0x02
    128a:	93 83       	std	Z+3, r25	; 0x03
    128c:	8c ee       	ldi	r24, 0xEC	; 236
    128e:	91 e5       	ldi	r25, 0x51	; 81
    1290:	a8 eb       	ldi	r26, 0xB8	; 184
    1292:	bd e3       	ldi	r27, 0x3D	; 61
    1294:	8b 83       	std	Y+3, r24	; 0x03
    1296:	9c 83       	std	Y+4, r25	; 0x04
    1298:	ad 83       	std	Y+5, r26	; 0x05
    129a:	be 83       	std	Y+6, r27	; 0x06
    129c:	2f 81       	ldd	r18, Y+7	; 0x07
    129e:	8c e2       	ldi	r24, 0x2C	; 44
    12a0:	82 0f       	add	r24, r18
    12a2:	82 30       	cpi	r24, 0x02	; 2
    12a4:	88 f4       	brcc	.+34     	; 0x12c8 <_ZN8Activity10Limits_setER5PanelR7Carrage+0x1e6>
    12a6:	0e c0       	rjmp	.+28     	; 0x12c4 <_ZN8Activity10Limits_setER5PanelR7Carrage+0x1e2>
    12a8:	2f 81       	ldd	r18, Y+7	; 0x07
    12aa:	3c e2       	ldi	r19, 0x2C	; 44
    12ac:	32 0f       	add	r19, r18
    12ae:	32 30       	cpi	r19, 0x02	; 2
    12b0:	58 f4       	brcc	.+22     	; 0x12c8 <_ZN8Activity10Limits_setER5PanelR7Carrage+0x1e6>
    12b2:	83 30       	cpi	r24, 0x03	; 3
    12b4:	91 05       	cpc	r25, r1
    12b6:	19 f0       	breq	.+6      	; 0x12be <_ZN8Activity10Limits_setER5PanelR7Carrage+0x1dc>
    12b8:	04 97       	sbiw	r24, 0x04	; 4
    12ba:	31 f4       	brne	.+12     	; 0x12c8 <_ZN8Activity10Limits_setER5PanelR7Carrage+0x1e6>
    12bc:	03 c0       	rjmp	.+6      	; 0x12c4 <_ZN8Activity10Limits_setER5PanelR7Carrage+0x1e2>
    12be:	21 50       	subi	r18, 0x01	; 1
    12c0:	2f 83       	std	Y+7, r18	; 0x07
    12c2:	02 c0       	rjmp	.+4      	; 0x12c8 <_ZN8Activity10Limits_setER5PanelR7Carrage+0x1e6>
    12c4:	2f 5f       	subi	r18, 0xFF	; 255
    12c6:	2f 83       	std	Y+7, r18	; 0x07
    12c8:	8f 81       	ldd	r24, Y+7	; 0x07
    12ca:	83 3d       	cpi	r24, 0xD3	; 211
    12cc:	18 f4       	brcc	.+6      	; 0x12d4 <_ZN8Activity10Limits_setER5PanelR7Carrage+0x1f2>
    12ce:	82 ed       	ldi	r24, 0xD2	; 210
    12d0:	8f 83       	std	Y+7, r24	; 0x07
    12d2:	04 c0       	rjmp	.+8      	; 0x12dc <_ZN8Activity10Limits_setER5PanelR7Carrage+0x1fa>
    12d4:	85 3d       	cpi	r24, 0xD5	; 213
    12d6:	10 f0       	brcs	.+4      	; 0x12dc <_ZN8Activity10Limits_setER5PanelR7Carrage+0x1fa>
    12d8:	85 ed       	ldi	r24, 0xD5	; 213
    12da:	8f 83       	std	Y+7, r24	; 0x07
    12dc:	20 e0       	ldi	r18, 0x00	; 0
    12de:	30 e0       	ldi	r19, 0x00	; 0
    12e0:	a9 01       	movw	r20, r18
    12e2:	f8 01       	movw	r30, r16
    12e4:	e6 52       	subi	r30, 0x26	; 38
    12e6:	ff 4f       	sbci	r31, 0xFF	; 255
    12e8:	60 81       	ld	r22, Z
    12ea:	71 81       	ldd	r23, Z+1	; 0x01
    12ec:	82 81       	ldd	r24, Z+2	; 0x02
    12ee:	93 81       	ldd	r25, Z+3	; 0x03
    12f0:	0e 94 ff 2e 	call	0x5dfe	; 0x5dfe <__cmpsf2>
    12f4:	18 16       	cp	r1, r24
    12f6:	3c f0       	brlt	.+14     	; 0x1306 <_ZN8Activity10Limits_setER5PanelR7Carrage+0x224>
    12f8:	f8 01       	movw	r30, r16
    12fa:	e6 52       	subi	r30, 0x26	; 38
    12fc:	ff 4f       	sbci	r31, 0xFF	; 255
    12fe:	10 82       	st	Z, r1
    1300:	11 82       	std	Z+1, r1	; 0x01
    1302:	12 82       	std	Z+2, r1	; 0x02
    1304:	13 82       	std	Z+3, r1	; 0x03
    1306:	20 e0       	ldi	r18, 0x00	; 0
    1308:	30 e0       	ldi	r19, 0x00	; 0
    130a:	40 ea       	ldi	r20, 0xA0	; 160
    130c:	50 e4       	ldi	r21, 0x40	; 64
    130e:	f8 01       	movw	r30, r16
    1310:	e2 52       	subi	r30, 0x22	; 34
    1312:	ff 4f       	sbci	r31, 0xFF	; 255
    1314:	60 81       	ld	r22, Z
    1316:	71 81       	ldd	r23, Z+1	; 0x01
    1318:	82 81       	ldd	r24, Z+2	; 0x02
    131a:	93 81       	ldd	r25, Z+3	; 0x03
    131c:	0e 94 5e 30 	call	0x60bc	; 0x60bc <__gesf2>
    1320:	88 23       	and	r24, r24
    1322:	5c f0       	brlt	.+22     	; 0x133a <_ZN8Activity10Limits_setER5PanelR7Carrage+0x258>
    1324:	80 e0       	ldi	r24, 0x00	; 0
    1326:	90 e0       	ldi	r25, 0x00	; 0
    1328:	a0 ea       	ldi	r26, 0xA0	; 160
    132a:	b0 e4       	ldi	r27, 0x40	; 64
    132c:	f8 01       	movw	r30, r16
    132e:	e2 52       	subi	r30, 0x22	; 34
    1330:	ff 4f       	sbci	r31, 0xFF	; 255
    1332:	80 83       	st	Z, r24
    1334:	91 83       	std	Z+1, r25	; 0x01
    1336:	a2 83       	std	Z+2, r26	; 0x02
    1338:	b3 83       	std	Z+3, r27	; 0x03
    133a:	8f 81       	ldd	r24, Y+7	; 0x07
    133c:	82 3d       	cpi	r24, 0xD2	; 210
    133e:	19 f0       	breq	.+6      	; 0x1346 <_ZN8Activity10Limits_setER5PanelR7Carrage+0x264>
    1340:	83 3d       	cpi	r24, 0xD3	; 211
    1342:	d9 f0       	breq	.+54     	; 0x137a <_ZN8Activity10Limits_setER5PanelR7Carrage+0x298>
    1344:	33 c0       	rjmp	.+102    	; 0x13ac <_ZN8Activity10Limits_setER5PanelR7Carrage+0x2ca>
    1346:	f8 01       	movw	r30, r16
    1348:	e2 52       	subi	r30, 0x22	; 34
    134a:	ff 4f       	sbci	r31, 0xFF	; 255
    134c:	c0 80       	ld	r12, Z
    134e:	d1 80       	ldd	r13, Z+1	; 0x01
    1350:	e2 80       	ldd	r14, Z+2	; 0x02
    1352:	f3 80       	ldd	r15, Z+3	; 0x03
    1354:	a7 01       	movw	r20, r14
    1356:	96 01       	movw	r18, r12
    1358:	34 97       	sbiw	r30, 0x04	; 4
    135a:	60 81       	ld	r22, Z
    135c:	71 81       	ldd	r23, Z+1	; 0x01
    135e:	82 81       	ldd	r24, Z+2	; 0x02
    1360:	93 81       	ldd	r25, Z+3	; 0x03
    1362:	0e 94 5e 30 	call	0x60bc	; 0x60bc <__gesf2>
    1366:	88 23       	and	r24, r24
    1368:	0c f1       	brlt	.+66     	; 0x13ac <_ZN8Activity10Limits_setER5PanelR7Carrage+0x2ca>
    136a:	f8 01       	movw	r30, r16
    136c:	e6 52       	subi	r30, 0x26	; 38
    136e:	ff 4f       	sbci	r31, 0xFF	; 255
    1370:	c0 82       	st	Z, r12
    1372:	d1 82       	std	Z+1, r13	; 0x01
    1374:	e2 82       	std	Z+2, r14	; 0x02
    1376:	f3 82       	std	Z+3, r15	; 0x03
    1378:	19 c0       	rjmp	.+50     	; 0x13ac <_ZN8Activity10Limits_setER5PanelR7Carrage+0x2ca>
    137a:	f8 01       	movw	r30, r16
    137c:	e6 52       	subi	r30, 0x26	; 38
    137e:	ff 4f       	sbci	r31, 0xFF	; 255
    1380:	c0 80       	ld	r12, Z
    1382:	d1 80       	ldd	r13, Z+1	; 0x01
    1384:	e2 80       	ldd	r14, Z+2	; 0x02
    1386:	f3 80       	ldd	r15, Z+3	; 0x03
    1388:	a7 01       	movw	r20, r14
    138a:	96 01       	movw	r18, r12
    138c:	34 96       	adiw	r30, 0x04	; 4
    138e:	60 81       	ld	r22, Z
    1390:	71 81       	ldd	r23, Z+1	; 0x01
    1392:	82 81       	ldd	r24, Z+2	; 0x02
    1394:	93 81       	ldd	r25, Z+3	; 0x03
    1396:	0e 94 ff 2e 	call	0x5dfe	; 0x5dfe <__cmpsf2>
    139a:	18 16       	cp	r1, r24
    139c:	3c f0       	brlt	.+14     	; 0x13ac <_ZN8Activity10Limits_setER5PanelR7Carrage+0x2ca>
    139e:	f8 01       	movw	r30, r16
    13a0:	e2 52       	subi	r30, 0x22	; 34
    13a2:	ff 4f       	sbci	r31, 0xFF	; 255
    13a4:	c0 82       	st	Z, r12
    13a6:	d1 82       	std	Z+1, r13	; 0x01
    13a8:	e2 82       	std	Z+2, r14	; 0x02
    13aa:	f3 82       	std	Z+3, r15	; 0x03
    13ac:	0b c0       	rjmp	.+22     	; 0x13c4 <_ZN8Activity10Limits_setER5PanelR7Carrage+0x2e2>
    13ae:	80 e0       	ldi	r24, 0x00	; 0
    13b0:	09 c0       	rjmp	.+18     	; 0x13c4 <_ZN8Activity10Limits_setER5PanelR7Carrage+0x2e2>
    13b2:	81 30       	cpi	r24, 0x01	; 1
    13b4:	91 05       	cpc	r25, r1
    13b6:	09 f4       	brne	.+2      	; 0x13ba <_ZN8Activity10Limits_setER5PanelR7Carrage+0x2d8>
    13b8:	d8 ce       	rjmp	.-592    	; 0x116a <_ZN8Activity10Limits_setER5PanelR7Carrage+0x88>
    13ba:	82 30       	cpi	r24, 0x02	; 2
    13bc:	91 05       	cpc	r25, r1
    13be:	09 f4       	brne	.+2      	; 0x13c2 <_ZN8Activity10Limits_setER5PanelR7Carrage+0x2e0>
    13c0:	d1 ce       	rjmp	.-606    	; 0x1164 <_ZN8Activity10Limits_setER5PanelR7Carrage+0x82>
    13c2:	72 cf       	rjmp	.-284    	; 0x12a8 <_ZN8Activity10Limits_setER5PanelR7Carrage+0x1c6>
    13c4:	df 91       	pop	r29
    13c6:	cf 91       	pop	r28
    13c8:	1f 91       	pop	r17
    13ca:	0f 91       	pop	r16
    13cc:	ff 90       	pop	r15
    13ce:	ef 90       	pop	r14
    13d0:	df 90       	pop	r13
    13d2:	cf 90       	pop	r12
    13d4:	08 95       	ret

000013d6 <_ZN8Activity14Malfaction_setER5PanelR7Carrage>:
    13d6:	8f 92       	push	r8
    13d8:	9f 92       	push	r9
    13da:	af 92       	push	r10
    13dc:	bf 92       	push	r11
    13de:	ef 92       	push	r14
    13e0:	ff 92       	push	r15
    13e2:	0f 93       	push	r16
    13e4:	1f 93       	push	r17
    13e6:	cf 93       	push	r28
    13e8:	df 93       	push	r29
    13ea:	ec 01       	movw	r28, r24
    13ec:	cb 01       	movw	r24, r22
    13ee:	7a 01       	movw	r14, r20
    13f0:	64 e6       	ldi	r22, 0x64	; 100
    13f2:	70 e0       	ldi	r23, 0x00	; 0
    13f4:	0e 94 ad 29 	call	0x535a	; 0x535a <_ZN5Panel7PressedEi>
    13f8:	8c 01       	movw	r16, r24
    13fa:	85 30       	cpi	r24, 0x05	; 5
    13fc:	91 05       	cpc	r25, r1
    13fe:	19 f4       	brne	.+6      	; 0x1406 <_ZN8Activity14Malfaction_setER5PanelR7Carrage+0x30>
    1400:	18 82       	st	Y, r1
    1402:	1f 82       	std	Y+7, r1	; 0x07
    1404:	4c c1       	rjmp	.+664    	; 0x169e <_ZN8Activity14Malfaction_setER5PanelR7Carrage+0x2c8>
    1406:	06 97       	sbiw	r24, 0x06	; 6
    1408:	19 f4       	brne	.+6      	; 0x1410 <_ZN8Activity14Malfaction_setER5PanelR7Carrage+0x3a>
    140a:	18 82       	st	Y, r1
    140c:	1f 82       	std	Y+7, r1	; 0x07
    140e:	47 c1       	rjmp	.+654    	; 0x169e <_ZN8Activity14Malfaction_setER5PanelR7Carrage+0x2c8>
    1410:	0f 3f       	cpi	r16, 0xFF	; 255
    1412:	8f ef       	ldi	r24, 0xFF	; 255
    1414:	18 07       	cpc	r17, r24
    1416:	29 f4       	brne	.+10     	; 0x1422 <_ZN8Activity14Malfaction_setER5PanelR7Carrage+0x4c>
    1418:	1b 82       	std	Y+3, r1	; 0x03
    141a:	1c 82       	std	Y+4, r1	; 0x04
    141c:	1d 82       	std	Y+5, r1	; 0x05
    141e:	1e 82       	std	Y+6, r1	; 0x06
    1420:	3e c1       	rjmp	.+636    	; 0x169e <_ZN8Activity14Malfaction_setER5PanelR7Carrage+0x2c8>
    1422:	8f 81       	ldd	r24, Y+7	; 0x07
    1424:	8f 3d       	cpi	r24, 0xDF	; 223
    1426:	61 f4       	brne	.+24     	; 0x1440 <_ZN8Activity14Malfaction_setER5PanelR7Carrage+0x6a>
    1428:	01 15       	cp	r16, r1
    142a:	11 05       	cpc	r17, r1
    142c:	09 f0       	breq	.+2      	; 0x1430 <_ZN8Activity14Malfaction_setER5PanelR7Carrage+0x5a>
    142e:	39 c1       	rjmp	.+626    	; 0x16a2 <_ZN8Activity14Malfaction_setER5PanelR7Carrage+0x2cc>
    1430:	81 e0       	ldi	r24, 0x01	; 1
    1432:	88 83       	st	Y, r24
    1434:	9e e0       	ldi	r25, 0x0E	; 14
    1436:	9f 83       	std	Y+7, r25	; 0x07
    1438:	c8 56       	subi	r28, 0x68	; 104
    143a:	df 4f       	sbci	r29, 0xFF	; 255
    143c:	88 83       	st	Y, r24
    143e:	2f c1       	rjmp	.+606    	; 0x169e <_ZN8Activity14Malfaction_setER5PanelR7Carrage+0x2c8>
    1440:	01 15       	cp	r16, r1
    1442:	11 05       	cpc	r17, r1
    1444:	39 f4       	brne	.+14     	; 0x1454 <_ZN8Activity14Malfaction_setER5PanelR7Carrage+0x7e>
    1446:	18 82       	st	Y, r1
    1448:	1f 82       	std	Y+7, r1	; 0x07
    144a:	c8 56       	subi	r28, 0x68	; 104
    144c:	df 4f       	sbci	r29, 0xFF	; 255
    144e:	81 e0       	ldi	r24, 0x01	; 1
    1450:	88 83       	st	Y, r24
    1452:	25 c1       	rjmp	.+586    	; 0x169e <_ZN8Activity14Malfaction_setER5PanelR7Carrage+0x2c8>
    1454:	01 30       	cpi	r16, 0x01	; 1
    1456:	11 05       	cpc	r17, r1
    1458:	31 f0       	breq	.+12     	; 0x1466 <_ZN8Activity14Malfaction_setER5PanelR7Carrage+0x90>
    145a:	02 30       	cpi	r16, 0x02	; 2
    145c:	11 05       	cpc	r17, r1
    145e:	31 f4       	brne	.+12     	; 0x146c <_ZN8Activity14Malfaction_setER5PanelR7Carrage+0x96>
    1460:	8f 5f       	subi	r24, 0xFF	; 255
    1462:	8f 83       	std	Y+7, r24	; 0x07
    1464:	1c c0       	rjmp	.+56     	; 0x149e <_ZN8Activity14Malfaction_setER5PanelR7Carrage+0xc8>
    1466:	81 50       	subi	r24, 0x01	; 1
    1468:	8f 83       	std	Y+7, r24	; 0x07
    146a:	19 c0       	rjmp	.+50     	; 0x149e <_ZN8Activity14Malfaction_setER5PanelR7Carrage+0xc8>
    146c:	8e 3d       	cpi	r24, 0xDE	; 222
    146e:	b9 f4       	brne	.+46     	; 0x149e <_ZN8Activity14Malfaction_setER5PanelR7Carrage+0xc8>
    1470:	03 30       	cpi	r16, 0x03	; 3
    1472:	11 05       	cpc	r17, r1
    1474:	21 f0       	breq	.+8      	; 0x147e <_ZN8Activity14Malfaction_setER5PanelR7Carrage+0xa8>
    1476:	04 30       	cpi	r16, 0x04	; 4
    1478:	11 05       	cpc	r17, r1
    147a:	49 f0       	breq	.+18     	; 0x148e <_ZN8Activity14Malfaction_setER5PanelR7Carrage+0xb8>
    147c:	10 c0       	rjmp	.+32     	; 0x149e <_ZN8Activity14Malfaction_setER5PanelR7Carrage+0xc8>
    147e:	c7 01       	movw	r24, r14
    1480:	0e 94 ff 14 	call	0x29fe	; 0x29fe <_ZN7Carrage17switch_malfactionEv>
    1484:	8f 81       	ldd	r24, Y+7	; 0x07
    1486:	8c 3d       	cpi	r24, 0xDC	; 220
    1488:	09 f0       	breq	.+2      	; 0x148c <_ZN8Activity14Malfaction_setER5PanelR7Carrage+0xb6>
    148a:	14 c1       	rjmp	.+552    	; 0x16b4 <_ZN8Activity14Malfaction_setER5PanelR7Carrage+0x2de>
    148c:	14 c0       	rjmp	.+40     	; 0x14b6 <_ZN8Activity14Malfaction_setER5PanelR7Carrage+0xe0>
    148e:	c7 01       	movw	r24, r14
    1490:	0e 94 ff 14 	call	0x29fe	; 0x29fe <_ZN7Carrage17switch_malfactionEv>
    1494:	8f 81       	ldd	r24, Y+7	; 0x07
    1496:	8c 3d       	cpi	r24, 0xDC	; 220
    1498:	09 f0       	breq	.+2      	; 0x149c <_ZN8Activity14Malfaction_setER5PanelR7Carrage+0xc6>
    149a:	11 c1       	rjmp	.+546    	; 0x16be <_ZN8Activity14Malfaction_setER5PanelR7Carrage+0x2e8>
    149c:	35 c0       	rjmp	.+106    	; 0x1508 <_ZN8Activity14Malfaction_setER5PanelR7Carrage+0x132>
    149e:	8f 81       	ldd	r24, Y+7	; 0x07
    14a0:	8c 3d       	cpi	r24, 0xDC	; 220
    14a2:	09 f0       	breq	.+2      	; 0x14a6 <_ZN8Activity14Malfaction_setER5PanelR7Carrage+0xd0>
    14a4:	58 c0       	rjmp	.+176    	; 0x1556 <_ZN8Activity14Malfaction_setER5PanelR7Carrage+0x180>
    14a6:	03 30       	cpi	r16, 0x03	; 3
    14a8:	11 05       	cpc	r17, r1
    14aa:	29 f0       	breq	.+10     	; 0x14b6 <_ZN8Activity14Malfaction_setER5PanelR7Carrage+0xe0>
    14ac:	04 30       	cpi	r16, 0x04	; 4
    14ae:	11 05       	cpc	r17, r1
    14b0:	09 f0       	breq	.+2      	; 0x14b4 <_ZN8Activity14Malfaction_setER5PanelR7Carrage+0xde>
    14b2:	51 c0       	rjmp	.+162    	; 0x1556 <_ZN8Activity14Malfaction_setER5PanelR7Carrage+0x180>
    14b4:	29 c0       	rjmp	.+82     	; 0x1508 <_ZN8Activity14Malfaction_setER5PanelR7Carrage+0x132>
    14b6:	57 01       	movw	r10, r14
    14b8:	e2 ee       	ldi	r30, 0xE2	; 226
    14ba:	ae 0e       	add	r10, r30
    14bc:	b1 1c       	adc	r11, r1
    14be:	20 e0       	ldi	r18, 0x00	; 0
    14c0:	30 e0       	ldi	r19, 0x00	; 0
    14c2:	40 e8       	ldi	r20, 0x80	; 128
    14c4:	5f e3       	ldi	r21, 0x3F	; 63
    14c6:	6b 81       	ldd	r22, Y+3	; 0x03
    14c8:	7c 81       	ldd	r23, Y+4	; 0x04
    14ca:	8d 81       	ldd	r24, Y+5	; 0x05
    14cc:	9e 81       	ldd	r25, Y+6	; 0x06
    14ce:	0e 94 93 2e 	call	0x5d26	; 0x5d26 <__addsf3>
    14d2:	9b 01       	movw	r18, r22
    14d4:	ac 01       	movw	r20, r24
    14d6:	f5 01       	movw	r30, r10
    14d8:	60 81       	ld	r22, Z
    14da:	71 81       	ldd	r23, Z+1	; 0x01
    14dc:	82 81       	ldd	r24, Z+2	; 0x02
    14de:	93 81       	ldd	r25, Z+3	; 0x03
    14e0:	0e 94 92 2e 	call	0x5d24	; 0x5d24 <__subsf3>
    14e4:	f5 01       	movw	r30, r10
    14e6:	60 83       	st	Z, r22
    14e8:	71 83       	std	Z+1, r23	; 0x01
    14ea:	82 83       	std	Z+2, r24	; 0x02
    14ec:	93 83       	std	Z+3, r25	; 0x03
    14ee:	80 e0       	ldi	r24, 0x00	; 0
    14f0:	90 e0       	ldi	r25, 0x00	; 0
    14f2:	a0 e1       	ldi	r26, 0x10	; 16
    14f4:	b1 e4       	ldi	r27, 0x41	; 65
    14f6:	8b 83       	std	Y+3, r24	; 0x03
    14f8:	9c 83       	std	Y+4, r25	; 0x04
    14fa:	ad 83       	std	Y+5, r26	; 0x05
    14fc:	be 83       	std	Y+6, r27	; 0x06
    14fe:	8f 81       	ldd	r24, Y+7	; 0x07
    1500:	8d 3d       	cpi	r24, 0xDD	; 221
    1502:	09 f0       	breq	.+2      	; 0x1506 <_ZN8Activity14Malfaction_setER5PanelR7Carrage+0x130>
    1504:	80 c0       	rjmp	.+256    	; 0x1606 <_ZN8Activity14Malfaction_setER5PanelR7Carrage+0x230>
    1506:	33 c0       	rjmp	.+102    	; 0x156e <_ZN8Activity14Malfaction_setER5PanelR7Carrage+0x198>
    1508:	57 01       	movw	r10, r14
    150a:	f2 ee       	ldi	r31, 0xE2	; 226
    150c:	af 0e       	add	r10, r31
    150e:	b1 1c       	adc	r11, r1
    1510:	20 e0       	ldi	r18, 0x00	; 0
    1512:	30 e0       	ldi	r19, 0x00	; 0
    1514:	40 e8       	ldi	r20, 0x80	; 128
    1516:	5f e3       	ldi	r21, 0x3F	; 63
    1518:	6b 81       	ldd	r22, Y+3	; 0x03
    151a:	7c 81       	ldd	r23, Y+4	; 0x04
    151c:	8d 81       	ldd	r24, Y+5	; 0x05
    151e:	9e 81       	ldd	r25, Y+6	; 0x06
    1520:	0e 94 93 2e 	call	0x5d26	; 0x5d26 <__addsf3>
    1524:	f5 01       	movw	r30, r10
    1526:	20 81       	ld	r18, Z
    1528:	31 81       	ldd	r19, Z+1	; 0x01
    152a:	42 81       	ldd	r20, Z+2	; 0x02
    152c:	53 81       	ldd	r21, Z+3	; 0x03
    152e:	0e 94 93 2e 	call	0x5d26	; 0x5d26 <__addsf3>
    1532:	f5 01       	movw	r30, r10
    1534:	60 83       	st	Z, r22
    1536:	71 83       	std	Z+1, r23	; 0x01
    1538:	82 83       	std	Z+2, r24	; 0x02
    153a:	93 83       	std	Z+3, r25	; 0x03
    153c:	80 e0       	ldi	r24, 0x00	; 0
    153e:	90 e0       	ldi	r25, 0x00	; 0
    1540:	a0 e1       	ldi	r26, 0x10	; 16
    1542:	b1 e4       	ldi	r27, 0x41	; 65
    1544:	8b 83       	std	Y+3, r24	; 0x03
    1546:	9c 83       	std	Y+4, r25	; 0x04
    1548:	ad 83       	std	Y+5, r26	; 0x05
    154a:	be 83       	std	Y+6, r27	; 0x06
    154c:	8f 81       	ldd	r24, Y+7	; 0x07
    154e:	8d 3d       	cpi	r24, 0xDD	; 221
    1550:	09 f0       	breq	.+2      	; 0x1554 <_ZN8Activity14Malfaction_setER5PanelR7Carrage+0x17e>
    1552:	59 c0       	rjmp	.+178    	; 0x1606 <_ZN8Activity14Malfaction_setER5PanelR7Carrage+0x230>
    1554:	33 c0       	rjmp	.+102    	; 0x15bc <_ZN8Activity14Malfaction_setER5PanelR7Carrage+0x1e6>
    1556:	8f 81       	ldd	r24, Y+7	; 0x07
    1558:	8d 3d       	cpi	r24, 0xDD	; 221
    155a:	09 f0       	breq	.+2      	; 0x155e <_ZN8Activity14Malfaction_setER5PanelR7Carrage+0x188>
    155c:	54 c0       	rjmp	.+168    	; 0x1606 <_ZN8Activity14Malfaction_setER5PanelR7Carrage+0x230>
    155e:	03 30       	cpi	r16, 0x03	; 3
    1560:	11 05       	cpc	r17, r1
    1562:	29 f0       	breq	.+10     	; 0x156e <_ZN8Activity14Malfaction_setER5PanelR7Carrage+0x198>
    1564:	04 30       	cpi	r16, 0x04	; 4
    1566:	11 05       	cpc	r17, r1
    1568:	09 f0       	breq	.+2      	; 0x156c <_ZN8Activity14Malfaction_setER5PanelR7Carrage+0x196>
    156a:	4d c0       	rjmp	.+154    	; 0x1606 <_ZN8Activity14Malfaction_setER5PanelR7Carrage+0x230>
    156c:	27 c0       	rjmp	.+78     	; 0x15bc <_ZN8Activity14Malfaction_setER5PanelR7Carrage+0x1e6>
    156e:	87 01       	movw	r16, r14
    1570:	0a 51       	subi	r16, 0x1A	; 26
    1572:	1f 4f       	sbci	r17, 0xFF	; 255
    1574:	2a e0       	ldi	r18, 0x0A	; 10
    1576:	37 ed       	ldi	r19, 0xD7	; 215
    1578:	43 e2       	ldi	r20, 0x23	; 35
    157a:	5c e3       	ldi	r21, 0x3C	; 60
    157c:	6b 81       	ldd	r22, Y+3	; 0x03
    157e:	7c 81       	ldd	r23, Y+4	; 0x04
    1580:	8d 81       	ldd	r24, Y+5	; 0x05
    1582:	9e 81       	ldd	r25, Y+6	; 0x06
    1584:	0e 94 93 2e 	call	0x5d26	; 0x5d26 <__addsf3>
    1588:	9b 01       	movw	r18, r22
    158a:	ac 01       	movw	r20, r24
    158c:	f8 01       	movw	r30, r16
    158e:	60 81       	ld	r22, Z
    1590:	71 81       	ldd	r23, Z+1	; 0x01
    1592:	82 81       	ldd	r24, Z+2	; 0x02
    1594:	93 81       	ldd	r25, Z+3	; 0x03
    1596:	0e 94 92 2e 	call	0x5d24	; 0x5d24 <__subsf3>
    159a:	f8 01       	movw	r30, r16
    159c:	60 83       	st	Z, r22
    159e:	71 83       	std	Z+1, r23	; 0x01
    15a0:	82 83       	std	Z+2, r24	; 0x02
    15a2:	93 83       	std	Z+3, r25	; 0x03
    15a4:	8c ee       	ldi	r24, 0xEC	; 236
    15a6:	91 e5       	ldi	r25, 0x51	; 81
    15a8:	a8 eb       	ldi	r26, 0xB8	; 184
    15aa:	bd e3       	ldi	r27, 0x3D	; 61
    15ac:	8b 83       	std	Y+3, r24	; 0x03
    15ae:	9c 83       	std	Y+4, r25	; 0x04
    15b0:	ad 83       	std	Y+5, r26	; 0x05
    15b2:	be 83       	std	Y+6, r27	; 0x06
    15b4:	8f 81       	ldd	r24, Y+7	; 0x07
    15b6:	8f 3d       	cpi	r24, 0xDF	; 223
    15b8:	a8 f1       	brcs	.+106    	; 0x1624 <_ZN8Activity14Malfaction_setER5PanelR7Carrage+0x24e>
    15ba:	2f c0       	rjmp	.+94     	; 0x161a <_ZN8Activity14Malfaction_setER5PanelR7Carrage+0x244>
    15bc:	87 01       	movw	r16, r14
    15be:	0a 51       	subi	r16, 0x1A	; 26
    15c0:	1f 4f       	sbci	r17, 0xFF	; 255
    15c2:	2a e0       	ldi	r18, 0x0A	; 10
    15c4:	37 ed       	ldi	r19, 0xD7	; 215
    15c6:	43 e2       	ldi	r20, 0x23	; 35
    15c8:	5c e3       	ldi	r21, 0x3C	; 60
    15ca:	6b 81       	ldd	r22, Y+3	; 0x03
    15cc:	7c 81       	ldd	r23, Y+4	; 0x04
    15ce:	8d 81       	ldd	r24, Y+5	; 0x05
    15d0:	9e 81       	ldd	r25, Y+6	; 0x06
    15d2:	0e 94 93 2e 	call	0x5d26	; 0x5d26 <__addsf3>
    15d6:	f8 01       	movw	r30, r16
    15d8:	20 81       	ld	r18, Z
    15da:	31 81       	ldd	r19, Z+1	; 0x01
    15dc:	42 81       	ldd	r20, Z+2	; 0x02
    15de:	53 81       	ldd	r21, Z+3	; 0x03
    15e0:	0e 94 93 2e 	call	0x5d26	; 0x5d26 <__addsf3>
    15e4:	f8 01       	movw	r30, r16
    15e6:	60 83       	st	Z, r22
    15e8:	71 83       	std	Z+1, r23	; 0x01
    15ea:	82 83       	std	Z+2, r24	; 0x02
    15ec:	93 83       	std	Z+3, r25	; 0x03
    15ee:	8c ee       	ldi	r24, 0xEC	; 236
    15f0:	91 e5       	ldi	r25, 0x51	; 81
    15f2:	a8 eb       	ldi	r26, 0xB8	; 184
    15f4:	bd e3       	ldi	r27, 0x3D	; 61
    15f6:	8b 83       	std	Y+3, r24	; 0x03
    15f8:	9c 83       	std	Y+4, r25	; 0x04
    15fa:	ad 83       	std	Y+5, r26	; 0x05
    15fc:	be 83       	std	Y+6, r27	; 0x06
    15fe:	8f 81       	ldd	r24, Y+7	; 0x07
    1600:	8f 3d       	cpi	r24, 0xDF	; 223
    1602:	70 f4       	brcc	.+28     	; 0x1620 <_ZN8Activity14Malfaction_setER5PanelR7Carrage+0x24a>
    1604:	0f c0       	rjmp	.+30     	; 0x1624 <_ZN8Activity14Malfaction_setER5PanelR7Carrage+0x24e>
    1606:	8f 81       	ldd	r24, Y+7	; 0x07
    1608:	8f 3d       	cpi	r24, 0xDF	; 223
    160a:	60 f0       	brcs	.+24     	; 0x1624 <_ZN8Activity14Malfaction_setER5PanelR7Carrage+0x24e>
    160c:	03 30       	cpi	r16, 0x03	; 3
    160e:	11 05       	cpc	r17, r1
    1610:	21 f0       	breq	.+8      	; 0x161a <_ZN8Activity14Malfaction_setER5PanelR7Carrage+0x244>
    1612:	04 30       	cpi	r16, 0x04	; 4
    1614:	11 05       	cpc	r17, r1
    1616:	31 f4       	brne	.+12     	; 0x1624 <_ZN8Activity14Malfaction_setER5PanelR7Carrage+0x24e>
    1618:	03 c0       	rjmp	.+6      	; 0x1620 <_ZN8Activity14Malfaction_setER5PanelR7Carrage+0x24a>
    161a:	81 50       	subi	r24, 0x01	; 1
    161c:	8f 83       	std	Y+7, r24	; 0x07
    161e:	02 c0       	rjmp	.+4      	; 0x1624 <_ZN8Activity14Malfaction_setER5PanelR7Carrage+0x24e>
    1620:	8f 5f       	subi	r24, 0xFF	; 255
    1622:	8f 83       	std	Y+7, r24	; 0x07
    1624:	8f 81       	ldd	r24, Y+7	; 0x07
    1626:	8d 3d       	cpi	r24, 0xDD	; 221
    1628:	18 f4       	brcc	.+6      	; 0x1630 <_ZN8Activity14Malfaction_setER5PanelR7Carrage+0x25a>
    162a:	8c ed       	ldi	r24, 0xDC	; 220
    162c:	8f 83       	std	Y+7, r24	; 0x07
    162e:	04 c0       	rjmp	.+8      	; 0x1638 <_ZN8Activity14Malfaction_setER5PanelR7Carrage+0x262>
    1630:	80 3e       	cpi	r24, 0xE0	; 224
    1632:	10 f0       	brcs	.+4      	; 0x1638 <_ZN8Activity14Malfaction_setER5PanelR7Carrage+0x262>
    1634:	80 ee       	ldi	r24, 0xE0	; 224
    1636:	8f 83       	std	Y+7, r24	; 0x07
    1638:	f7 01       	movw	r30, r14
    163a:	ee 51       	subi	r30, 0x1E	; 30
    163c:	ff 4f       	sbci	r31, 0xFF	; 255
    163e:	80 80       	ld	r8, Z
    1640:	91 80       	ldd	r9, Z+1	; 0x01
    1642:	a2 80       	ldd	r10, Z+2	; 0x02
    1644:	b3 80       	ldd	r11, Z+3	; 0x03
    1646:	20 e0       	ldi	r18, 0x00	; 0
    1648:	30 e0       	ldi	r19, 0x00	; 0
    164a:	40 ea       	ldi	r20, 0xA0	; 160
    164c:	50 e4       	ldi	r21, 0x40	; 64
    164e:	c5 01       	movw	r24, r10
    1650:	b4 01       	movw	r22, r8
    1652:	0e 94 ff 2e 	call	0x5dfe	; 0x5dfe <__cmpsf2>
    1656:	18 16       	cp	r1, r24
    1658:	64 f0       	brlt	.+24     	; 0x1672 <_ZN8Activity14Malfaction_setER5PanelR7Carrage+0x29c>
    165a:	f7 01       	movw	r30, r14
    165c:	ee 51       	subi	r30, 0x1E	; 30
    165e:	ff 4f       	sbci	r31, 0xFF	; 255
    1660:	80 e0       	ldi	r24, 0x00	; 0
    1662:	90 e0       	ldi	r25, 0x00	; 0
    1664:	a0 ea       	ldi	r26, 0xA0	; 160
    1666:	b0 e4       	ldi	r27, 0x40	; 64
    1668:	80 83       	st	Z, r24
    166a:	91 83       	std	Z+1, r25	; 0x01
    166c:	a2 83       	std	Z+2, r26	; 0x02
    166e:	b3 83       	std	Z+3, r27	; 0x03
    1670:	15 c0       	rjmp	.+42     	; 0x169c <_ZN8Activity14Malfaction_setER5PanelR7Carrage+0x2c6>
    1672:	20 e0       	ldi	r18, 0x00	; 0
    1674:	30 ec       	ldi	r19, 0xC0	; 192
    1676:	49 e7       	ldi	r20, 0x79	; 121
    1678:	54 e4       	ldi	r21, 0x44	; 68
    167a:	c5 01       	movw	r24, r10
    167c:	b4 01       	movw	r22, r8
    167e:	0e 94 5e 30 	call	0x60bc	; 0x60bc <__gesf2>
    1682:	88 23       	and	r24, r24
    1684:	5c f0       	brlt	.+22     	; 0x169c <_ZN8Activity14Malfaction_setER5PanelR7Carrage+0x2c6>
    1686:	f7 01       	movw	r30, r14
    1688:	ee 51       	subi	r30, 0x1E	; 30
    168a:	ff 4f       	sbci	r31, 0xFF	; 255
    168c:	80 e0       	ldi	r24, 0x00	; 0
    168e:	90 ec       	ldi	r25, 0xC0	; 192
    1690:	a9 e7       	ldi	r26, 0x79	; 121
    1692:	b4 e4       	ldi	r27, 0x44	; 68
    1694:	80 83       	st	Z, r24
    1696:	91 83       	std	Z+1, r25	; 0x01
    1698:	a2 83       	std	Z+2, r26	; 0x02
    169a:	b3 83       	std	Z+3, r27	; 0x03
    169c:	15 c0       	rjmp	.+42     	; 0x16c8 <_ZN8Activity14Malfaction_setER5PanelR7Carrage+0x2f2>
    169e:	80 e0       	ldi	r24, 0x00	; 0
    16a0:	13 c0       	rjmp	.+38     	; 0x16c8 <_ZN8Activity14Malfaction_setER5PanelR7Carrage+0x2f2>
    16a2:	01 30       	cpi	r16, 0x01	; 1
    16a4:	11 05       	cpc	r17, r1
    16a6:	09 f4       	brne	.+2      	; 0x16aa <_ZN8Activity14Malfaction_setER5PanelR7Carrage+0x2d4>
    16a8:	de ce       	rjmp	.-580    	; 0x1466 <_ZN8Activity14Malfaction_setER5PanelR7Carrage+0x90>
    16aa:	02 30       	cpi	r16, 0x02	; 2
    16ac:	11 05       	cpc	r17, r1
    16ae:	09 f4       	brne	.+2      	; 0x16b2 <_ZN8Activity14Malfaction_setER5PanelR7Carrage+0x2dc>
    16b0:	d7 ce       	rjmp	.-594    	; 0x1460 <_ZN8Activity14Malfaction_setER5PanelR7Carrage+0x8a>
    16b2:	f5 ce       	rjmp	.-534    	; 0x149e <_ZN8Activity14Malfaction_setER5PanelR7Carrage+0xc8>
    16b4:	8f 81       	ldd	r24, Y+7	; 0x07
    16b6:	8d 3d       	cpi	r24, 0xDD	; 221
    16b8:	09 f0       	breq	.+2      	; 0x16bc <_ZN8Activity14Malfaction_setER5PanelR7Carrage+0x2e6>
    16ba:	a5 cf       	rjmp	.-182    	; 0x1606 <_ZN8Activity14Malfaction_setER5PanelR7Carrage+0x230>
    16bc:	58 cf       	rjmp	.-336    	; 0x156e <_ZN8Activity14Malfaction_setER5PanelR7Carrage+0x198>
    16be:	8f 81       	ldd	r24, Y+7	; 0x07
    16c0:	8d 3d       	cpi	r24, 0xDD	; 221
    16c2:	09 f0       	breq	.+2      	; 0x16c6 <_ZN8Activity14Malfaction_setER5PanelR7Carrage+0x2f0>
    16c4:	a0 cf       	rjmp	.-192    	; 0x1606 <_ZN8Activity14Malfaction_setER5PanelR7Carrage+0x230>
    16c6:	7a cf       	rjmp	.-268    	; 0x15bc <_ZN8Activity14Malfaction_setER5PanelR7Carrage+0x1e6>
    16c8:	df 91       	pop	r29
    16ca:	cf 91       	pop	r28
    16cc:	1f 91       	pop	r17
    16ce:	0f 91       	pop	r16
    16d0:	ff 90       	pop	r15
    16d2:	ef 90       	pop	r14
    16d4:	bf 90       	pop	r11
    16d6:	af 90       	pop	r10
    16d8:	9f 90       	pop	r9
    16da:	8f 90       	pop	r8
    16dc:	08 95       	ret

000016de <_ZN8Activity6ErrorsER5PanelR7Carrage>:
    16de:	0f 93       	push	r16
    16e0:	1f 93       	push	r17
    16e2:	cf 93       	push	r28
    16e4:	df 93       	push	r29
    16e6:	ec 01       	movw	r28, r24
    16e8:	cb 01       	movw	r24, r22
    16ea:	8a 01       	movw	r16, r20
    16ec:	64 e6       	ldi	r22, 0x64	; 100
    16ee:	70 e0       	ldi	r23, 0x00	; 0
    16f0:	0e 94 ad 29 	call	0x535a	; 0x535a <_ZN5Panel7PressedEi>
    16f4:	85 30       	cpi	r24, 0x05	; 5
    16f6:	91 05       	cpc	r25, r1
    16f8:	19 f4       	brne	.+6      	; 0x1700 <_ZN8Activity6ErrorsER5PanelR7Carrage+0x22>
    16fa:	18 82       	st	Y, r1
    16fc:	1f 82       	std	Y+7, r1	; 0x07
    16fe:	73 c0       	rjmp	.+230    	; 0x17e6 <_ZN8Activity6ErrorsER5PanelR7Carrage+0x108>
    1700:	86 30       	cpi	r24, 0x06	; 6
    1702:	91 05       	cpc	r25, r1
    1704:	19 f4       	brne	.+6      	; 0x170c <_ZN8Activity6ErrorsER5PanelR7Carrage+0x2e>
    1706:	18 82       	st	Y, r1
    1708:	1f 82       	std	Y+7, r1	; 0x07
    170a:	6d c0       	rjmp	.+218    	; 0x17e6 <_ZN8Activity6ErrorsER5PanelR7Carrage+0x108>
    170c:	8f 3f       	cpi	r24, 0xFF	; 255
    170e:	2f ef       	ldi	r18, 0xFF	; 255
    1710:	92 07       	cpc	r25, r18
    1712:	09 f4       	brne	.+2      	; 0x1716 <_ZN8Activity6ErrorsER5PanelR7Carrage+0x38>
    1714:	68 c0       	rjmp	.+208    	; 0x17e6 <_ZN8Activity6ErrorsER5PanelR7Carrage+0x108>
    1716:	00 97       	sbiw	r24, 0x00	; 0
    1718:	39 f4       	brne	.+14     	; 0x1728 <_ZN8Activity6ErrorsER5PanelR7Carrage+0x4a>
    171a:	2f 81       	ldd	r18, Y+7	; 0x07
    171c:	26 3e       	cpi	r18, 0xE6	; 230
    171e:	79 f4       	brne	.+30     	; 0x173e <_ZN8Activity6ErrorsER5PanelR7Carrage+0x60>
    1720:	c8 01       	movw	r24, r16
    1722:	0e 94 07 15 	call	0x2a0e	; 0x2a0e <_ZN7Carrage11errorsResetEv>
    1726:	5f c0       	rjmp	.+190    	; 0x17e6 <_ZN8Activity6ErrorsER5PanelR7Carrage+0x108>
    1728:	84 30       	cpi	r24, 0x04	; 4
    172a:	91 05       	cpc	r25, r1
    172c:	09 f0       	breq	.+2      	; 0x1730 <_ZN8Activity6ErrorsER5PanelR7Carrage+0x52>
    172e:	61 c0       	rjmp	.+194    	; 0x17f2 <_ZN8Activity6ErrorsER5PanelR7Carrage+0x114>
    1730:	2f 81       	ldd	r18, Y+7	; 0x07
    1732:	26 3e       	cpi	r18, 0xE6	; 230
    1734:	01 f5       	brne	.+64     	; 0x1776 <_ZN8Activity6ErrorsER5PanelR7Carrage+0x98>
    1736:	c8 01       	movw	r24, r16
    1738:	0e 94 07 15 	call	0x2a0e	; 0x2a0e <_ZN7Carrage11errorsResetEv>
    173c:	54 c0       	rjmp	.+168    	; 0x17e6 <_ZN8Activity6ErrorsER5PanelR7Carrage+0x108>
    173e:	2f 81       	ldd	r18, Y+7	; 0x07
    1740:	2b 3e       	cpi	r18, 0xEB	; 235
    1742:	09 f0       	breq	.+2      	; 0x1746 <_ZN8Activity6ErrorsER5PanelR7Carrage+0x68>
    1744:	52 c0       	rjmp	.+164    	; 0x17ea <_ZN8Activity6ErrorsER5PanelR7Carrage+0x10c>
    1746:	81 e0       	ldi	r24, 0x01	; 1
    1748:	88 83       	st	Y, r24
    174a:	8f e0       	ldi	r24, 0x0F	; 15
    174c:	8f 83       	std	Y+7, r24	; 0x07
    174e:	4b c0       	rjmp	.+150    	; 0x17e6 <_ZN8Activity6ErrorsER5PanelR7Carrage+0x108>
    1750:	18 82       	st	Y, r1
    1752:	1f 82       	std	Y+7, r1	; 0x07
    1754:	c8 56       	subi	r28, 0x68	; 104
    1756:	df 4f       	sbci	r29, 0xFF	; 255
    1758:	81 e0       	ldi	r24, 0x01	; 1
    175a:	88 83       	st	Y, r24
    175c:	44 c0       	rjmp	.+136    	; 0x17e6 <_ZN8Activity6ErrorsER5PanelR7Carrage+0x108>
    175e:	81 30       	cpi	r24, 0x01	; 1
    1760:	91 05       	cpc	r25, r1
    1762:	31 f0       	breq	.+12     	; 0x1770 <_ZN8Activity6ErrorsER5PanelR7Carrage+0x92>
    1764:	82 30       	cpi	r24, 0x02	; 2
    1766:	91 05       	cpc	r25, r1
    1768:	31 f4       	brne	.+12     	; 0x1776 <_ZN8Activity6ErrorsER5PanelR7Carrage+0x98>
    176a:	2f 5f       	subi	r18, 0xFF	; 255
    176c:	2f 83       	std	Y+7, r18	; 0x07
    176e:	30 c0       	rjmp	.+96     	; 0x17d0 <_ZN8Activity6ErrorsER5PanelR7Carrage+0xf2>
    1770:	21 50       	subi	r18, 0x01	; 1
    1772:	2f 83       	std	Y+7, r18	; 0x07
    1774:	15 c0       	rjmp	.+42     	; 0x17a0 <_ZN8Activity6ErrorsER5PanelR7Carrage+0xc2>
    1776:	84 30       	cpi	r24, 0x04	; 4
    1778:	91 05       	cpc	r25, r1
    177a:	31 f4       	brne	.+12     	; 0x1788 <_ZN8Activity6ErrorsER5PanelR7Carrage+0xaa>
    177c:	8f 81       	ldd	r24, Y+7	; 0x07
    177e:	8b 3e       	cpi	r24, 0xEB	; 235
    1780:	29 f5       	brne	.+74     	; 0x17cc <_ZN8Activity6ErrorsER5PanelR7Carrage+0xee>
    1782:	8c ee       	ldi	r24, 0xEC	; 236
    1784:	8f 83       	std	Y+7, r24	; 0x07
    1786:	2f c0       	rjmp	.+94     	; 0x17e6 <_ZN8Activity6ErrorsER5PanelR7Carrage+0x108>
    1788:	83 30       	cpi	r24, 0x03	; 3
    178a:	91 05       	cpc	r25, r1
    178c:	31 f4       	brne	.+12     	; 0x179a <_ZN8Activity6ErrorsER5PanelR7Carrage+0xbc>
    178e:	8f 81       	ldd	r24, Y+7	; 0x07
    1790:	8c 3e       	cpi	r24, 0xEC	; 236
    1792:	b9 f4       	brne	.+46     	; 0x17c2 <_ZN8Activity6ErrorsER5PanelR7Carrage+0xe4>
    1794:	8b ee       	ldi	r24, 0xEB	; 235
    1796:	8f 83       	std	Y+7, r24	; 0x07
    1798:	26 c0       	rjmp	.+76     	; 0x17e6 <_ZN8Activity6ErrorsER5PanelR7Carrage+0x108>
    179a:	81 30       	cpi	r24, 0x01	; 1
    179c:	91 05       	cpc	r25, r1
    179e:	31 f4       	brne	.+12     	; 0x17ac <_ZN8Activity6ErrorsER5PanelR7Carrage+0xce>
    17a0:	8f 81       	ldd	r24, Y+7	; 0x07
    17a2:	8c 3e       	cpi	r24, 0xEC	; 236
    17a4:	a9 f4       	brne	.+42     	; 0x17d0 <_ZN8Activity6ErrorsER5PanelR7Carrage+0xf2>
    17a6:	8b ee       	ldi	r24, 0xEB	; 235
    17a8:	8f 83       	std	Y+7, r24	; 0x07
    17aa:	1d c0       	rjmp	.+58     	; 0x17e6 <_ZN8Activity6ErrorsER5PanelR7Carrage+0x108>
    17ac:	83 30       	cpi	r24, 0x03	; 3
    17ae:	91 05       	cpc	r25, r1
    17b0:	41 f0       	breq	.+16     	; 0x17c2 <_ZN8Activity6ErrorsER5PanelR7Carrage+0xe4>
    17b2:	84 30       	cpi	r24, 0x04	; 4
    17b4:	91 05       	cpc	r25, r1
    17b6:	51 f0       	breq	.+20     	; 0x17cc <_ZN8Activity6ErrorsER5PanelR7Carrage+0xee>
    17b8:	89 2b       	or	r24, r25
    17ba:	51 f4       	brne	.+20     	; 0x17d0 <_ZN8Activity6ErrorsER5PanelR7Carrage+0xf2>
    17bc:	87 e0       	ldi	r24, 0x07	; 7
    17be:	88 83       	st	Y, r24
    17c0:	07 c0       	rjmp	.+14     	; 0x17d0 <_ZN8Activity6ErrorsER5PanelR7Carrage+0xf2>
    17c2:	81 e0       	ldi	r24, 0x01	; 1
    17c4:	88 83       	st	Y, r24
    17c6:	8f e0       	ldi	r24, 0x0F	; 15
    17c8:	8f 83       	std	Y+7, r24	; 0x07
    17ca:	0d c0       	rjmp	.+26     	; 0x17e6 <_ZN8Activity6ErrorsER5PanelR7Carrage+0x108>
    17cc:	87 e0       	ldi	r24, 0x07	; 7
    17ce:	88 83       	st	Y, r24
    17d0:	8f 81       	ldd	r24, Y+7	; 0x07
    17d2:	87 3e       	cpi	r24, 0xE7	; 231
    17d4:	18 f4       	brcc	.+6      	; 0x17dc <_ZN8Activity6ErrorsER5PanelR7Carrage+0xfe>
    17d6:	86 ee       	ldi	r24, 0xE6	; 230
    17d8:	8f 83       	std	Y+7, r24	; 0x07
    17da:	04 c0       	rjmp	.+8      	; 0x17e4 <_ZN8Activity6ErrorsER5PanelR7Carrage+0x106>
    17dc:	8c 3e       	cpi	r24, 0xEC	; 236
    17de:	10 f0       	brcs	.+4      	; 0x17e4 <_ZN8Activity6ErrorsER5PanelR7Carrage+0x106>
    17e0:	8c ee       	ldi	r24, 0xEC	; 236
    17e2:	8f 83       	std	Y+7, r24	; 0x07
    17e4:	10 c0       	rjmp	.+32     	; 0x1806 <_ZN8Activity6ErrorsER5PanelR7Carrage+0x128>
    17e6:	80 e0       	ldi	r24, 0x00	; 0
    17e8:	0e c0       	rjmp	.+28     	; 0x1806 <_ZN8Activity6ErrorsER5PanelR7Carrage+0x128>
    17ea:	2c 3e       	cpi	r18, 0xEC	; 236
    17ec:	09 f0       	breq	.+2      	; 0x17f0 <_ZN8Activity6ErrorsER5PanelR7Carrage+0x112>
    17ee:	b7 cf       	rjmp	.-146    	; 0x175e <_ZN8Activity6ErrorsER5PanelR7Carrage+0x80>
    17f0:	af cf       	rjmp	.-162    	; 0x1750 <_ZN8Activity6ErrorsER5PanelR7Carrage+0x72>
    17f2:	2f 81       	ldd	r18, Y+7	; 0x07
    17f4:	81 30       	cpi	r24, 0x01	; 1
    17f6:	91 05       	cpc	r25, r1
    17f8:	09 f4       	brne	.+2      	; 0x17fc <_ZN8Activity6ErrorsER5PanelR7Carrage+0x11e>
    17fa:	ba cf       	rjmp	.-140    	; 0x1770 <_ZN8Activity6ErrorsER5PanelR7Carrage+0x92>
    17fc:	82 30       	cpi	r24, 0x02	; 2
    17fe:	91 05       	cpc	r25, r1
    1800:	09 f4       	brne	.+2      	; 0x1804 <_ZN8Activity6ErrorsER5PanelR7Carrage+0x126>
    1802:	b3 cf       	rjmp	.-154    	; 0x176a <_ZN8Activity6ErrorsER5PanelR7Carrage+0x8c>
    1804:	c1 cf       	rjmp	.-126    	; 0x1788 <_ZN8Activity6ErrorsER5PanelR7Carrage+0xaa>
    1806:	df 91       	pop	r29
    1808:	cf 91       	pop	r28
    180a:	1f 91       	pop	r17
    180c:	0f 91       	pop	r16
    180e:	08 95       	ret

00001810 <_ZN8Activity5ErrorER5PanelR7Carrage>:
    1810:	cf 93       	push	r28
    1812:	df 93       	push	r29
    1814:	ec 01       	movw	r28, r24
    1816:	cb 01       	movw	r24, r22
    1818:	64 e6       	ldi	r22, 0x64	; 100
    181a:	70 e0       	ldi	r23, 0x00	; 0
    181c:	0e 94 ad 29 	call	0x535a	; 0x535a <_ZN5Panel7PressedEi>
    1820:	9c 01       	movw	r18, r24
    1822:	25 50       	subi	r18, 0x05	; 5
    1824:	31 09       	sbc	r19, r1
    1826:	22 30       	cpi	r18, 0x02	; 2
    1828:	31 05       	cpc	r19, r1
    182a:	28 f0       	brcs	.+10     	; 0x1836 <_ZN8Activity5ErrorER5PanelR7Carrage+0x26>
    182c:	01 96       	adiw	r24, 0x01	; 1
    182e:	19 f0       	breq	.+6      	; 0x1836 <_ZN8Activity5ErrorER5PanelR7Carrage+0x26>
    1830:	86 e0       	ldi	r24, 0x06	; 6
    1832:	88 83       	st	Y, r24
    1834:	01 c0       	rjmp	.+2      	; 0x1838 <_ZN8Activity5ErrorER5PanelR7Carrage+0x28>
    1836:	80 e0       	ldi	r24, 0x00	; 0
    1838:	df 91       	pop	r29
    183a:	cf 91       	pop	r28
    183c:	08 95       	ret

0000183e <_ZN8Activity12LCD_SettingsER5PanelR7Carrage>:
    183e:	0f 93       	push	r16
    1840:	1f 93       	push	r17
    1842:	cf 93       	push	r28
    1844:	df 93       	push	r29
    1846:	ec 01       	movw	r28, r24
    1848:	cb 01       	movw	r24, r22
    184a:	8a 01       	movw	r16, r20
    184c:	64 e6       	ldi	r22, 0x64	; 100
    184e:	70 e0       	ldi	r23, 0x00	; 0
    1850:	0e 94 ad 29 	call	0x535a	; 0x535a <_ZN5Panel7PressedEi>
    1854:	85 30       	cpi	r24, 0x05	; 5
    1856:	91 05       	cpc	r25, r1
    1858:	19 f4       	brne	.+6      	; 0x1860 <_ZN8Activity12LCD_SettingsER5PanelR7Carrage+0x22>
    185a:	18 82       	st	Y, r1
    185c:	1f 82       	std	Y+7, r1	; 0x07
    185e:	7d c0       	rjmp	.+250    	; 0x195a <_ZN8Activity12LCD_SettingsER5PanelR7Carrage+0x11c>
    1860:	86 30       	cpi	r24, 0x06	; 6
    1862:	91 05       	cpc	r25, r1
    1864:	19 f4       	brne	.+6      	; 0x186c <_ZN8Activity12LCD_SettingsER5PanelR7Carrage+0x2e>
    1866:	18 82       	st	Y, r1
    1868:	1f 82       	std	Y+7, r1	; 0x07
    186a:	77 c0       	rjmp	.+238    	; 0x195a <_ZN8Activity12LCD_SettingsER5PanelR7Carrage+0x11c>
    186c:	8f 3f       	cpi	r24, 0xFF	; 255
    186e:	2f ef       	ldi	r18, 0xFF	; 255
    1870:	92 07       	cpc	r25, r18
    1872:	09 f4       	brne	.+2      	; 0x1876 <_ZN8Activity12LCD_SettingsER5PanelR7Carrage+0x38>
    1874:	72 c0       	rjmp	.+228    	; 0x195a <_ZN8Activity12LCD_SettingsER5PanelR7Carrage+0x11c>
    1876:	2f 81       	ldd	r18, Y+7	; 0x07
    1878:	21 3f       	cpi	r18, 0xF1	; 241
    187a:	51 f4       	brne	.+20     	; 0x1890 <_ZN8Activity12LCD_SettingsER5PanelR7Carrage+0x52>
    187c:	00 97       	sbiw	r24, 0x00	; 0
    187e:	61 f5       	brne	.+88     	; 0x18d8 <_ZN8Activity12LCD_SettingsER5PanelR7Carrage+0x9a>
    1880:	81 e0       	ldi	r24, 0x01	; 1
    1882:	88 83       	st	Y, r24
    1884:	9c e0       	ldi	r25, 0x0C	; 12
    1886:	9f 83       	std	Y+7, r25	; 0x07
    1888:	c8 56       	subi	r28, 0x68	; 104
    188a:	df 4f       	sbci	r29, 0xFF	; 255
    188c:	88 83       	st	Y, r24
    188e:	65 c0       	rjmp	.+202    	; 0x195a <_ZN8Activity12LCD_SettingsER5PanelR7Carrage+0x11c>
    1890:	00 97       	sbiw	r24, 0x00	; 0
    1892:	39 f4       	brne	.+14     	; 0x18a2 <_ZN8Activity12LCD_SettingsER5PanelR7Carrage+0x64>
    1894:	18 82       	st	Y, r1
    1896:	1f 82       	std	Y+7, r1	; 0x07
    1898:	c8 56       	subi	r28, 0x68	; 104
    189a:	df 4f       	sbci	r29, 0xFF	; 255
    189c:	81 e0       	ldi	r24, 0x01	; 1
    189e:	88 83       	st	Y, r24
    18a0:	5c c0       	rjmp	.+184    	; 0x195a <_ZN8Activity12LCD_SettingsER5PanelR7Carrage+0x11c>
    18a2:	20 3f       	cpi	r18, 0xF0	; 240
    18a4:	c9 f4       	brne	.+50     	; 0x18d8 <_ZN8Activity12LCD_SettingsER5PanelR7Carrage+0x9a>
    18a6:	83 30       	cpi	r24, 0x03	; 3
    18a8:	91 05       	cpc	r25, r1
    18aa:	21 f0       	breq	.+8      	; 0x18b4 <_ZN8Activity12LCD_SettingsER5PanelR7Carrage+0x76>
    18ac:	84 30       	cpi	r24, 0x04	; 4
    18ae:	91 05       	cpc	r25, r1
    18b0:	51 f0       	breq	.+20     	; 0x18c6 <_ZN8Activity12LCD_SettingsER5PanelR7Carrage+0x88>
    18b2:	12 c0       	rjmp	.+36     	; 0x18d8 <_ZN8Activity12LCD_SettingsER5PanelR7Carrage+0x9a>
    18b4:	f8 01       	movw	r30, r16
    18b6:	e2 51       	subi	r30, 0x12	; 18
    18b8:	ff 4f       	sbci	r31, 0xFF	; 255
    18ba:	80 81       	ld	r24, Z
    18bc:	81 50       	subi	r24, 0x01	; 1
    18be:	80 83       	st	Z, r24
    18c0:	0e 94 43 1a 	call	0x3486	; 0x3486 <_Z8Lcd_inith>
    18c4:	21 c0       	rjmp	.+66     	; 0x1908 <_ZN8Activity12LCD_SettingsER5PanelR7Carrage+0xca>
    18c6:	f8 01       	movw	r30, r16
    18c8:	e2 51       	subi	r30, 0x12	; 18
    18ca:	ff 4f       	sbci	r31, 0xFF	; 255
    18cc:	80 81       	ld	r24, Z
    18ce:	8f 5f       	subi	r24, 0xFF	; 255
    18d0:	80 83       	st	Z, r24
    18d2:	0e 94 43 1a 	call	0x3486	; 0x3486 <_Z8Lcd_inith>
    18d6:	0f c0       	rjmp	.+30     	; 0x18f6 <_ZN8Activity12LCD_SettingsER5PanelR7Carrage+0xb8>
    18d8:	81 30       	cpi	r24, 0x01	; 1
    18da:	91 05       	cpc	r25, r1
    18dc:	31 f0       	breq	.+12     	; 0x18ea <_ZN8Activity12LCD_SettingsER5PanelR7Carrage+0xac>
    18de:	82 30       	cpi	r24, 0x02	; 2
    18e0:	91 05       	cpc	r25, r1
    18e2:	31 f4       	brne	.+12     	; 0x18f0 <_ZN8Activity12LCD_SettingsER5PanelR7Carrage+0xb2>
    18e4:	2f 5f       	subi	r18, 0xFF	; 255
    18e6:	2f 83       	std	Y+7, r18	; 0x07
    18e8:	1d c0       	rjmp	.+58     	; 0x1924 <_ZN8Activity12LCD_SettingsER5PanelR7Carrage+0xe6>
    18ea:	21 50       	subi	r18, 0x01	; 1
    18ec:	2f 83       	std	Y+7, r18	; 0x07
    18ee:	14 c0       	rjmp	.+40     	; 0x1918 <_ZN8Activity12LCD_SettingsER5PanelR7Carrage+0xda>
    18f0:	84 30       	cpi	r24, 0x04	; 4
    18f2:	91 05       	cpc	r25, r1
    18f4:	31 f4       	brne	.+12     	; 0x1902 <_ZN8Activity12LCD_SettingsER5PanelR7Carrage+0xc4>
    18f6:	8f 81       	ldd	r24, Y+7	; 0x07
    18f8:	81 3f       	cpi	r24, 0xF1	; 241
    18fa:	a1 f4       	brne	.+40     	; 0x1924 <_ZN8Activity12LCD_SettingsER5PanelR7Carrage+0xe6>
    18fc:	82 ef       	ldi	r24, 0xF2	; 242
    18fe:	8f 83       	std	Y+7, r24	; 0x07
    1900:	2c c0       	rjmp	.+88     	; 0x195a <_ZN8Activity12LCD_SettingsER5PanelR7Carrage+0x11c>
    1902:	83 30       	cpi	r24, 0x03	; 3
    1904:	91 05       	cpc	r25, r1
    1906:	31 f4       	brne	.+12     	; 0x1914 <_ZN8Activity12LCD_SettingsER5PanelR7Carrage+0xd6>
    1908:	8f 81       	ldd	r24, Y+7	; 0x07
    190a:	82 3f       	cpi	r24, 0xF2	; 242
    190c:	59 f4       	brne	.+22     	; 0x1924 <_ZN8Activity12LCD_SettingsER5PanelR7Carrage+0xe6>
    190e:	81 ef       	ldi	r24, 0xF1	; 241
    1910:	8f 83       	std	Y+7, r24	; 0x07
    1912:	23 c0       	rjmp	.+70     	; 0x195a <_ZN8Activity12LCD_SettingsER5PanelR7Carrage+0x11c>
    1914:	01 97       	sbiw	r24, 0x01	; 1
    1916:	31 f4       	brne	.+12     	; 0x1924 <_ZN8Activity12LCD_SettingsER5PanelR7Carrage+0xe6>
    1918:	8f 81       	ldd	r24, Y+7	; 0x07
    191a:	82 3f       	cpi	r24, 0xF2	; 242
    191c:	19 f4       	brne	.+6      	; 0x1924 <_ZN8Activity12LCD_SettingsER5PanelR7Carrage+0xe6>
    191e:	81 ef       	ldi	r24, 0xF1	; 241
    1920:	8f 83       	std	Y+7, r24	; 0x07
    1922:	1b c0       	rjmp	.+54     	; 0x195a <_ZN8Activity12LCD_SettingsER5PanelR7Carrage+0x11c>
    1924:	8f 81       	ldd	r24, Y+7	; 0x07
    1926:	81 3f       	cpi	r24, 0xF1	; 241
    1928:	18 f4       	brcc	.+6      	; 0x1930 <_ZN8Activity12LCD_SettingsER5PanelR7Carrage+0xf2>
    192a:	80 ef       	ldi	r24, 0xF0	; 240
    192c:	8f 83       	std	Y+7, r24	; 0x07
    192e:	04 c0       	rjmp	.+8      	; 0x1938 <_ZN8Activity12LCD_SettingsER5PanelR7Carrage+0xfa>
    1930:	82 3f       	cpi	r24, 0xF2	; 242
    1932:	10 f0       	brcs	.+4      	; 0x1938 <_ZN8Activity12LCD_SettingsER5PanelR7Carrage+0xfa>
    1934:	82 ef       	ldi	r24, 0xF2	; 242
    1936:	8f 83       	std	Y+7, r24	; 0x07
    1938:	f8 01       	movw	r30, r16
    193a:	e2 51       	subi	r30, 0x12	; 18
    193c:	ff 4f       	sbci	r31, 0xFF	; 255
    193e:	80 81       	ld	r24, Z
    1940:	87 3b       	cpi	r24, 0xB7	; 183
    1942:	18 f4       	brcc	.+6      	; 0x194a <_ZN8Activity12LCD_SettingsER5PanelR7Carrage+0x10c>
    1944:	86 eb       	ldi	r24, 0xB6	; 182
    1946:	80 83       	st	Z, r24
    1948:	07 c0       	rjmp	.+14     	; 0x1958 <_ZN8Activity12LCD_SettingsER5PanelR7Carrage+0x11a>
    194a:	89 3c       	cpi	r24, 0xC9	; 201
    194c:	28 f0       	brcs	.+10     	; 0x1958 <_ZN8Activity12LCD_SettingsER5PanelR7Carrage+0x11a>
    194e:	f8 01       	movw	r30, r16
    1950:	e2 51       	subi	r30, 0x12	; 18
    1952:	ff 4f       	sbci	r31, 0xFF	; 255
    1954:	89 ec       	ldi	r24, 0xC9	; 201
    1956:	80 83       	st	Z, r24
    1958:	01 c0       	rjmp	.+2      	; 0x195c <_ZN8Activity12LCD_SettingsER5PanelR7Carrage+0x11e>
    195a:	80 e0       	ldi	r24, 0x00	; 0
    195c:	df 91       	pop	r29
    195e:	cf 91       	pop	r28
    1960:	1f 91       	pop	r17
    1962:	0f 91       	pop	r16
    1964:	08 95       	ret

00001966 <_ZN8Activity11SelectWheelER7Carrage>:
    1966:	0f 93       	push	r16
    1968:	1f 93       	push	r17
    196a:	cf 93       	push	r28
    196c:	df 93       	push	r29
    196e:	ec 01       	movw	r28, r24
    1970:	8b 01       	movw	r16, r22
    1972:	8f 81       	ldd	r24, Y+7	; 0x07
    1974:	82 30       	cpi	r24, 0x02	; 2
    1976:	69 f0       	breq	.+26     	; 0x1992 <_ZN8Activity11SelectWheelER7Carrage+0x2c>
    1978:	18 f4       	brcc	.+6      	; 0x1980 <_ZN8Activity11SelectWheelER7Carrage+0x1a>
    197a:	81 30       	cpi	r24, 0x01	; 1
    197c:	31 f0       	breq	.+12     	; 0x198a <_ZN8Activity11SelectWheelER7Carrage+0x24>
    197e:	19 c0       	rjmp	.+50     	; 0x19b2 <_ZN8Activity11SelectWheelER7Carrage+0x4c>
    1980:	83 30       	cpi	r24, 0x03	; 3
    1982:	61 f0       	breq	.+24     	; 0x199c <_ZN8Activity11SelectWheelER7Carrage+0x36>
    1984:	84 30       	cpi	r24, 0x04	; 4
    1986:	81 f0       	breq	.+32     	; 0x19a8 <_ZN8Activity11SelectWheelER7Carrage+0x42>
    1988:	14 c0       	rjmp	.+40     	; 0x19b2 <_ZN8Activity11SelectWheelER7Carrage+0x4c>
    198a:	cb 01       	movw	r24, r22
    198c:	0e 94 b0 2d 	call	0x5b60	; 0x5b60 <_ZN5Wheel6SelectEv>
    1990:	10 c0       	rjmp	.+32     	; 0x19b2 <_ZN8Activity11SelectWheelER7Carrage+0x4c>
    1992:	cb 01       	movw	r24, r22
    1994:	c2 96       	adiw	r24, 0x32	; 50
    1996:	0e 94 b0 2d 	call	0x5b60	; 0x5b60 <_ZN5Wheel6SelectEv>
    199a:	0b c0       	rjmp	.+22     	; 0x19b2 <_ZN8Activity11SelectWheelER7Carrage+0x4c>
    199c:	cb 01       	movw	r24, r22
    199e:	8c 59       	subi	r24, 0x9C	; 156
    19a0:	9f 4f       	sbci	r25, 0xFF	; 255
    19a2:	0e 94 b0 2d 	call	0x5b60	; 0x5b60 <_ZN5Wheel6SelectEv>
    19a6:	05 c0       	rjmp	.+10     	; 0x19b2 <_ZN8Activity11SelectWheelER7Carrage+0x4c>
    19a8:	cb 01       	movw	r24, r22
    19aa:	8a 56       	subi	r24, 0x6A	; 106
    19ac:	9f 4f       	sbci	r25, 0xFF	; 255
    19ae:	0e 94 b0 2d 	call	0x5b60	; 0x5b60 <_ZN5Wheel6SelectEv>
    19b2:	fe 01       	movw	r30, r28
    19b4:	e4 56       	subi	r30, 0x64	; 100
    19b6:	ff 4f       	sbci	r31, 0xFF	; 255
    19b8:	80 81       	ld	r24, Z
    19ba:	81 11       	cpse	r24, r1
    19bc:	0d c0       	rjmp	.+26     	; 0x19d8 <_ZN8Activity11SelectWheelER7Carrage+0x72>
    19be:	c8 01       	movw	r24, r16
    19c0:	0e 94 bf 10 	call	0x217e	; 0x217e <_ZN7Carrage20IfSelectetMalfuctionEv>
    19c4:	88 23       	and	r24, r24
    19c6:	41 f0       	breq	.+16     	; 0x19d8 <_ZN8Activity11SelectWheelER7Carrage+0x72>
    19c8:	88 e0       	ldi	r24, 0x08	; 8
    19ca:	88 83       	st	Y, r24
    19cc:	c6 56       	subi	r28, 0x66	; 102
    19ce:	df 4f       	sbci	r29, 0xFF	; 255
    19d0:	81 e0       	ldi	r24, 0x01	; 1
    19d2:	90 e0       	ldi	r25, 0x00	; 0
    19d4:	99 83       	std	Y+1, r25	; 0x01
    19d6:	88 83       	st	Y, r24
    19d8:	df 91       	pop	r29
    19da:	cf 91       	pop	r28
    19dc:	1f 91       	pop	r17
    19de:	0f 91       	pop	r16
    19e0:	08 95       	ret

000019e2 <_ZN8Activity4SaveEv>:
}



void Activity::Save(){
	SaveFlag = true; //For set position in EEMEM
    19e2:	fc 01       	movw	r30, r24
    19e4:	ea 56       	subi	r30, 0x6A	; 106
    19e6:	ff 4f       	sbci	r31, 0xFF	; 255
    19e8:	21 e0       	ldi	r18, 0x01	; 1
    19ea:	20 83       	st	Z, r18
	switch(Cursor){
    19ec:	fc 01       	movw	r30, r24
    19ee:	27 81       	ldd	r18, Z+7	; 0x07
    19f0:	25 30       	cpi	r18, 0x05	; 5
    19f2:	41 f0       	breq	.+16     	; 0x1a04 <_ZN8Activity4SaveEv+0x22>
    19f4:	26 30       	cpi	r18, 0x06	; 6
    19f6:	61 f0       	breq	.+24     	; 0x1a10 <_ZN8Activity4SaveEv+0x2e>
    19f8:	24 30       	cpi	r18, 0x04	; 4
    19fa:	79 f4       	brne	.+30     	; 0x1a1a <_ZN8Activity4SaveEv+0x38>
		case(PARKING_SAVE):SavePosition = 0;break;
    19fc:	e7 56       	subi	r30, 0x67	; 103
    19fe:	ff 4f       	sbci	r31, 0xFF	; 255
    1a00:	10 82       	st	Z, r1
    1a02:	0b c0       	rjmp	.+22     	; 0x1a1a <_ZN8Activity4SaveEv+0x38>
		case(HIGHTPOSITION_SAVE):SavePosition = 1;break;
    1a04:	21 e0       	ldi	r18, 0x01	; 1
    1a06:	fc 01       	movw	r30, r24
    1a08:	e7 56       	subi	r30, 0x67	; 103
    1a0a:	ff 4f       	sbci	r31, 0xFF	; 255
    1a0c:	20 83       	st	Z, r18
    1a0e:	05 c0       	rjmp	.+10     	; 0x1a1a <_ZN8Activity4SaveEv+0x38>
		case(LOWPOSITION_SAVE):SavePosition = 2;break;
    1a10:	22 e0       	ldi	r18, 0x02	; 2
    1a12:	fc 01       	movw	r30, r24
    1a14:	e7 56       	subi	r30, 0x67	; 103
    1a16:	ff 4f       	sbci	r31, 0xFF	; 255
    1a18:	20 83       	st	Z, r18
	}
	Statment=SCREEN_MESSAGE;TypeMessage = MESSAGE_SAVE;;
    1a1a:	28 e0       	ldi	r18, 0x08	; 8
    1a1c:	fc 01       	movw	r30, r24
    1a1e:	20 83       	st	Z, r18
    1a20:	e6 56       	subi	r30, 0x66	; 102
    1a22:	ff 4f       	sbci	r31, 0xFF	; 255
    1a24:	11 82       	std	Z+1, r1	; 0x01
    1a26:	10 82       	st	Z, r1
    1a28:	08 95       	ret

00001a2a <_ZN8Activity12Get_val_stepEv>:
}

float Activity::Get_val_step(){
	return pgm_read_float (&(Steps[Step]));
    1a2a:	dc 01       	movw	r26, r24
    1a2c:	11 96       	adiw	r26, 0x01	; 1
    1a2e:	ed 91       	ld	r30, X+
    1a30:	fc 91       	ld	r31, X
    1a32:	12 97       	sbiw	r26, 0x02	; 2
    1a34:	ee 0f       	add	r30, r30
    1a36:	ff 1f       	adc	r31, r31
    1a38:	ee 0f       	add	r30, r30
    1a3a:	ff 1f       	adc	r31, r31
    1a3c:	e8 51       	subi	r30, 0x18	; 24
    1a3e:	ff 4f       	sbci	r31, 0xFF	; 255
    1a40:	65 91       	lpm	r22, Z+
    1a42:	75 91       	lpm	r23, Z+
    1a44:	85 91       	lpm	r24, Z+
    1a46:	94 91       	lpm	r25, Z
}
    1a48:	08 95       	ret

00001a4a <_ZN8Activity3SetEv>:

void  Activity::Set(){
    1a4a:	fc 01       	movw	r30, r24
	SetFlag = true; //For set position in EEMEM and start adjastment there.
    1a4c:	dc 01       	movw	r26, r24
    1a4e:	a9 56       	subi	r26, 0x69	; 105
    1a50:	bf 4f       	sbci	r27, 0xFF	; 255
    1a52:	81 e0       	ldi	r24, 0x01	; 1
    1a54:	8c 93       	st	X, r24
	switch(Cursor){
    1a56:	87 81       	ldd	r24, Z+7	; 0x07
    1a58:	89 30       	cpi	r24, 0x09	; 9
    1a5a:	39 f0       	breq	.+14     	; 0x1a6a <_ZN8Activity3SetEv+0x20>
    1a5c:	8a 30       	cpi	r24, 0x0A	; 10
    1a5e:	59 f0       	breq	.+22     	; 0x1a76 <_ZN8Activity3SetEv+0x2c>
    1a60:	88 30       	cpi	r24, 0x08	; 8
    1a62:	71 f4       	brne	.+28     	; 0x1a80 <_ZN8Activity3SetEv+0x36>
		case(PARKING_SET):SavePosition = 0;break;
    1a64:	12 96       	adiw	r26, 0x02	; 2
    1a66:	1c 92       	st	X, r1
    1a68:	0b c0       	rjmp	.+22     	; 0x1a80 <_ZN8Activity3SetEv+0x36>
		case(HIGHTPOSITION_SET):SavePosition = 1;break;
    1a6a:	81 e0       	ldi	r24, 0x01	; 1
    1a6c:	df 01       	movw	r26, r30
    1a6e:	a7 56       	subi	r26, 0x67	; 103
    1a70:	bf 4f       	sbci	r27, 0xFF	; 255
    1a72:	8c 93       	st	X, r24
    1a74:	05 c0       	rjmp	.+10     	; 0x1a80 <_ZN8Activity3SetEv+0x36>
		case(LOWPOSITION_SET):SavePosition = 2;break;
    1a76:	82 e0       	ldi	r24, 0x02	; 2
    1a78:	df 01       	movw	r26, r30
    1a7a:	a7 56       	subi	r26, 0x67	; 103
    1a7c:	bf 4f       	sbci	r27, 0xFF	; 255
    1a7e:	8c 93       	st	X, r24
	}
	Statment=SCREEN_ADJUST;
    1a80:	82 e0       	ldi	r24, 0x02	; 2
    1a82:	80 83       	st	Z, r24
	Cursor = MENU;
    1a84:	17 82       	std	Z+7, r1	; 0x07
    1a86:	08 95       	ret

00001a88 <_ZN8Activity16Menu_Screen_MoveER5PanelR7Carrage>:
	}
	if (Step <= 0){Step=0;}
	if (Step >= 19){Step=19;}
}

bool Activity::Menu_Screen_Move(Panel &panel, Carrage &carrage){
    1a88:	0f 93       	push	r16
    1a8a:	1f 93       	push	r17
    1a8c:	cf 93       	push	r28
    1a8e:	df 93       	push	r29
    1a90:	ec 01       	movw	r28, r24
    1a92:	8b 01       	movw	r16, r22
    1a94:	ca 01       	movw	r24, r20
	carrage.ControlMalfinction();
    1a96:	0e 94 4e 14 	call	0x289c	; 0x289c <_ZN7Carrage18ControlMalfinctionEv>
	int move = panel.Pressed(100);
    1a9a:	64 e6       	ldi	r22, 0x64	; 100
    1a9c:	70 e0       	ldi	r23, 0x00	; 0
    1a9e:	c8 01       	movw	r24, r16
    1aa0:	0e 94 ad 29 	call	0x535a	; 0x535a <_ZN5Panel7PressedEi>
	int next;
	if (move == B_W_UP_){Statment=SCREEN_MAIN;Cursor = MENU;return false;}
    1aa4:	85 30       	cpi	r24, 0x05	; 5
    1aa6:	91 05       	cpc	r25, r1
    1aa8:	21 f4       	brne	.+8      	; 0x1ab2 <_ZN8Activity16Menu_Screen_MoveER5PanelR7Carrage+0x2a>
    1aaa:	18 82       	st	Y, r1
    1aac:	1f 82       	std	Y+7, r1	; 0x07
    1aae:	80 e0       	ldi	r24, 0x00	; 0
    1ab0:	6c c0       	rjmp	.+216    	; 0x1b8a <_ZN8Activity16Menu_Screen_MoveER5PanelR7Carrage+0x102>
	if (move == B_W_DOWN){Statment=SCREEN_MAIN;Cursor = MENU;return false;}
    1ab2:	86 30       	cpi	r24, 0x06	; 6
    1ab4:	91 05       	cpc	r25, r1
    1ab6:	21 f4       	brne	.+8      	; 0x1ac0 <_ZN8Activity16Menu_Screen_MoveER5PanelR7Carrage+0x38>
    1ab8:	18 82       	st	Y, r1
    1aba:	1f 82       	std	Y+7, r1	; 0x07
    1abc:	80 e0       	ldi	r24, 0x00	; 0
    1abe:	65 c0       	rjmp	.+202    	; 0x1b8a <_ZN8Activity16Menu_Screen_MoveER5PanelR7Carrage+0x102>
	if (move == B_NOTHING ){return false;}
    1ac0:	8f 3f       	cpi	r24, 0xFF	; 255
    1ac2:	2f ef       	ldi	r18, 0xFF	; 255
    1ac4:	92 07       	cpc	r25, r18
    1ac6:	09 f4       	brne	.+2      	; 0x1aca <_ZN8Activity16Menu_Screen_MoveER5PanelR7Carrage+0x42>
    1ac8:	5f c0       	rjmp	.+190    	; 0x1b88 <_ZN8Activity16Menu_Screen_MoveER5PanelR7Carrage+0x100>
	next = Menu_Screen_cursor_pathes[Cursor][move];
    1aca:	2f 81       	ldd	r18, Y+7	; 0x07
    1acc:	30 e0       	ldi	r19, 0x00	; 0
    1ace:	a9 01       	movw	r20, r18
    1ad0:	44 0f       	add	r20, r20
    1ad2:	55 1f       	adc	r21, r21
    1ad4:	44 0f       	add	r20, r20
    1ad6:	55 1f       	adc	r21, r21
    1ad8:	24 0f       	add	r18, r20
    1ada:	35 1f       	adc	r19, r21
    1adc:	2c 0f       	add	r18, r28
    1ade:	3d 1f       	adc	r19, r29
    1ae0:	f9 01       	movw	r30, r18
    1ae2:	e8 0f       	add	r30, r24
    1ae4:	f9 1f       	adc	r31, r25
    1ae6:	22 a9       	ldd	r18, Z+50	; 0x32
	switch(next){
    1ae8:	82 2f       	mov	r24, r18
    1aea:	90 e0       	ldi	r25, 0x00	; 0
    1aec:	fc 01       	movw	r30, r24
    1aee:	e7 56       	subi	r30, 0x67	; 103
    1af0:	f1 09       	sbc	r31, r1
    1af2:	ec 30       	cpi	r30, 0x0C	; 12
    1af4:	f1 05       	cpc	r31, r1
    1af6:	08 f0       	brcs	.+2      	; 0x1afa <_ZN8Activity16Menu_Screen_MoveER5PanelR7Carrage+0x72>
    1af8:	44 c0       	rjmp	.+136    	; 0x1b82 <_ZN8Activity16Menu_Screen_MoveER5PanelR7Carrage+0xfa>
    1afa:	ec 5c       	subi	r30, 0xCC	; 204
    1afc:	ff 4f       	sbci	r31, 0xFF	; 255
    1afe:	0c 94 e4 30 	jmp	0x61c8	; 0x61c8 <__tablejump2__>
		case (ACTION_MENU_EXIT):Statment=SCREEN_MAIN;Cursor = MENU;break;
    1b02:	18 82       	st	Y, r1
    1b04:	1f 82       	std	Y+7, r1	; 0x07
		case (ACTION_TEST_MALFACTION):Statment = SCREEN_SET_MALFACTION;Cursor = TIME_MALFACTION;break;
		case (ACTION_ERRORS):Statment = SCREEN_SET_ERRORS;Cursor = ERRORS_RESET;break;
		case (ACTION_LCD_SETTINGS):Statment = SCREEN_LCD_SETTINGS;Cursor = LCD_SET_CONTRAST;break;
		default: Cursor = next;break;
	}
	return true;
    1b06:	81 e0       	ldi	r24, 0x01	; 1
	if (move == B_W_UP_){Statment=SCREEN_MAIN;Cursor = MENU;return false;}
	if (move == B_W_DOWN){Statment=SCREEN_MAIN;Cursor = MENU;return false;}
	if (move == B_NOTHING ){return false;}
	next = Menu_Screen_cursor_pathes[Cursor][move];
	switch(next){
		case (ACTION_MENU_EXIT):Statment=SCREEN_MAIN;Cursor = MENU;break;
    1b08:	40 c0       	rjmp	.+128    	; 0x1b8a <_ZN8Activity16Menu_Screen_MoveER5PanelR7Carrage+0x102>
		case (ACTION_PARKING_SAVE):Save();break;
    1b0a:	ce 01       	movw	r24, r28
    1b0c:	0e 94 f1 0c 	call	0x19e2	; 0x19e2 <_ZN8Activity4SaveEv>
		case (ACTION_TEST_MALFACTION):Statment = SCREEN_SET_MALFACTION;Cursor = TIME_MALFACTION;break;
		case (ACTION_ERRORS):Statment = SCREEN_SET_ERRORS;Cursor = ERRORS_RESET;break;
		case (ACTION_LCD_SETTINGS):Statment = SCREEN_LCD_SETTINGS;Cursor = LCD_SET_CONTRAST;break;
		default: Cursor = next;break;
	}
	return true;
    1b10:	81 e0       	ldi	r24, 0x01	; 1
	if (move == B_W_DOWN){Statment=SCREEN_MAIN;Cursor = MENU;return false;}
	if (move == B_NOTHING ){return false;}
	next = Menu_Screen_cursor_pathes[Cursor][move];
	switch(next){
		case (ACTION_MENU_EXIT):Statment=SCREEN_MAIN;Cursor = MENU;break;
		case (ACTION_PARKING_SAVE):Save();break;
    1b12:	3b c0       	rjmp	.+118    	; 0x1b8a <_ZN8Activity16Menu_Screen_MoveER5PanelR7Carrage+0x102>
		case (ACTION_HIGHTPOSITION_SAVE):Save();break;
    1b14:	ce 01       	movw	r24, r28
    1b16:	0e 94 f1 0c 	call	0x19e2	; 0x19e2 <_ZN8Activity4SaveEv>
		case (ACTION_TEST_MALFACTION):Statment = SCREEN_SET_MALFACTION;Cursor = TIME_MALFACTION;break;
		case (ACTION_ERRORS):Statment = SCREEN_SET_ERRORS;Cursor = ERRORS_RESET;break;
		case (ACTION_LCD_SETTINGS):Statment = SCREEN_LCD_SETTINGS;Cursor = LCD_SET_CONTRAST;break;
		default: Cursor = next;break;
	}
	return true;
    1b1a:	81 e0       	ldi	r24, 0x01	; 1
	if (move == B_NOTHING ){return false;}
	next = Menu_Screen_cursor_pathes[Cursor][move];
	switch(next){
		case (ACTION_MENU_EXIT):Statment=SCREEN_MAIN;Cursor = MENU;break;
		case (ACTION_PARKING_SAVE):Save();break;
		case (ACTION_HIGHTPOSITION_SAVE):Save();break;
    1b1c:	36 c0       	rjmp	.+108    	; 0x1b8a <_ZN8Activity16Menu_Screen_MoveER5PanelR7Carrage+0x102>
		case (ACTION_LOWPOSITION_SAVE):Save();break;
    1b1e:	ce 01       	movw	r24, r28
    1b20:	0e 94 f1 0c 	call	0x19e2	; 0x19e2 <_ZN8Activity4SaveEv>
		case (ACTION_TEST_MALFACTION):Statment = SCREEN_SET_MALFACTION;Cursor = TIME_MALFACTION;break;
		case (ACTION_ERRORS):Statment = SCREEN_SET_ERRORS;Cursor = ERRORS_RESET;break;
		case (ACTION_LCD_SETTINGS):Statment = SCREEN_LCD_SETTINGS;Cursor = LCD_SET_CONTRAST;break;
		default: Cursor = next;break;
	}
	return true;
    1b24:	81 e0       	ldi	r24, 0x01	; 1
	next = Menu_Screen_cursor_pathes[Cursor][move];
	switch(next){
		case (ACTION_MENU_EXIT):Statment=SCREEN_MAIN;Cursor = MENU;break;
		case (ACTION_PARKING_SAVE):Save();break;
		case (ACTION_HIGHTPOSITION_SAVE):Save();break;
		case (ACTION_LOWPOSITION_SAVE):Save();break;
    1b26:	31 c0       	rjmp	.+98     	; 0x1b8a <_ZN8Activity16Menu_Screen_MoveER5PanelR7Carrage+0x102>
		case (ACTION_PARKING_SET):Set();break;
    1b28:	ce 01       	movw	r24, r28
    1b2a:	0e 94 25 0d 	call	0x1a4a	; 0x1a4a <_ZN8Activity3SetEv>
		case (ACTION_TEST_MALFACTION):Statment = SCREEN_SET_MALFACTION;Cursor = TIME_MALFACTION;break;
		case (ACTION_ERRORS):Statment = SCREEN_SET_ERRORS;Cursor = ERRORS_RESET;break;
		case (ACTION_LCD_SETTINGS):Statment = SCREEN_LCD_SETTINGS;Cursor = LCD_SET_CONTRAST;break;
		default: Cursor = next;break;
	}
	return true;
    1b2e:	81 e0       	ldi	r24, 0x01	; 1
	switch(next){
		case (ACTION_MENU_EXIT):Statment=SCREEN_MAIN;Cursor = MENU;break;
		case (ACTION_PARKING_SAVE):Save();break;
		case (ACTION_HIGHTPOSITION_SAVE):Save();break;
		case (ACTION_LOWPOSITION_SAVE):Save();break;
		case (ACTION_PARKING_SET):Set();break;
    1b30:	2c c0       	rjmp	.+88     	; 0x1b8a <_ZN8Activity16Menu_Screen_MoveER5PanelR7Carrage+0x102>
		case (ACTION_HIGHTPOSITION_SET):Set();break;
    1b32:	ce 01       	movw	r24, r28
    1b34:	0e 94 25 0d 	call	0x1a4a	; 0x1a4a <_ZN8Activity3SetEv>
		case (ACTION_TEST_MALFACTION):Statment = SCREEN_SET_MALFACTION;Cursor = TIME_MALFACTION;break;
		case (ACTION_ERRORS):Statment = SCREEN_SET_ERRORS;Cursor = ERRORS_RESET;break;
		case (ACTION_LCD_SETTINGS):Statment = SCREEN_LCD_SETTINGS;Cursor = LCD_SET_CONTRAST;break;
		default: Cursor = next;break;
	}
	return true;
    1b38:	81 e0       	ldi	r24, 0x01	; 1
		case (ACTION_MENU_EXIT):Statment=SCREEN_MAIN;Cursor = MENU;break;
		case (ACTION_PARKING_SAVE):Save();break;
		case (ACTION_HIGHTPOSITION_SAVE):Save();break;
		case (ACTION_LOWPOSITION_SAVE):Save();break;
		case (ACTION_PARKING_SET):Set();break;
		case (ACTION_HIGHTPOSITION_SET):Set();break;
    1b3a:	27 c0       	rjmp	.+78     	; 0x1b8a <_ZN8Activity16Menu_Screen_MoveER5PanelR7Carrage+0x102>
		case (ACTION_LOWPOSITION_SET):Set();break;
    1b3c:	ce 01       	movw	r24, r28
    1b3e:	0e 94 25 0d 	call	0x1a4a	; 0x1a4a <_ZN8Activity3SetEv>
		case (ACTION_TEST_MALFACTION):Statment = SCREEN_SET_MALFACTION;Cursor = TIME_MALFACTION;break;
		case (ACTION_ERRORS):Statment = SCREEN_SET_ERRORS;Cursor = ERRORS_RESET;break;
		case (ACTION_LCD_SETTINGS):Statment = SCREEN_LCD_SETTINGS;Cursor = LCD_SET_CONTRAST;break;
		default: Cursor = next;break;
	}
	return true;
    1b42:	81 e0       	ldi	r24, 0x01	; 1
		case (ACTION_PARKING_SAVE):Save();break;
		case (ACTION_HIGHTPOSITION_SAVE):Save();break;
		case (ACTION_LOWPOSITION_SAVE):Save();break;
		case (ACTION_PARKING_SET):Set();break;
		case (ACTION_HIGHTPOSITION_SET):Set();break;
		case (ACTION_LOWPOSITION_SET):Set();break;
    1b44:	22 c0       	rjmp	.+68     	; 0x1b8a <_ZN8Activity16Menu_Screen_MoveER5PanelR7Carrage+0x102>
		case (ACTION_TUNING_SET):Statment = SCREEN_TUNNING;Cursor = TUNING;break;
    1b46:	83 e0       	ldi	r24, 0x03	; 3
    1b48:	88 83       	st	Y, r24
    1b4a:	88 ec       	ldi	r24, 0xC8	; 200
    1b4c:	8f 83       	std	Y+7, r24	; 0x07
		case (ACTION_TEST_MALFACTION):Statment = SCREEN_SET_MALFACTION;Cursor = TIME_MALFACTION;break;
		case (ACTION_ERRORS):Statment = SCREEN_SET_ERRORS;Cursor = ERRORS_RESET;break;
		case (ACTION_LCD_SETTINGS):Statment = SCREEN_LCD_SETTINGS;Cursor = LCD_SET_CONTRAST;break;
		default: Cursor = next;break;
	}
	return true;
    1b4e:	81 e0       	ldi	r24, 0x01	; 1
		case (ACTION_HIGHTPOSITION_SAVE):Save();break;
		case (ACTION_LOWPOSITION_SAVE):Save();break;
		case (ACTION_PARKING_SET):Set();break;
		case (ACTION_HIGHTPOSITION_SET):Set();break;
		case (ACTION_LOWPOSITION_SET):Set();break;
		case (ACTION_TUNING_SET):Statment = SCREEN_TUNNING;Cursor = TUNING;break;
    1b50:	1c c0       	rjmp	.+56     	; 0x1b8a <_ZN8Activity16Menu_Screen_MoveER5PanelR7Carrage+0x102>
		case (ACTION_LIMITS_SET):Statment = SCREEN_LIMITS;Cursor = LIMITS_MIN;break;
    1b52:	84 e0       	ldi	r24, 0x04	; 4
    1b54:	88 83       	st	Y, r24
    1b56:	82 ed       	ldi	r24, 0xD2	; 210
    1b58:	8f 83       	std	Y+7, r24	; 0x07
		case (ACTION_TEST_MALFACTION):Statment = SCREEN_SET_MALFACTION;Cursor = TIME_MALFACTION;break;
		case (ACTION_ERRORS):Statment = SCREEN_SET_ERRORS;Cursor = ERRORS_RESET;break;
		case (ACTION_LCD_SETTINGS):Statment = SCREEN_LCD_SETTINGS;Cursor = LCD_SET_CONTRAST;break;
		default: Cursor = next;break;
	}
	return true;
    1b5a:	81 e0       	ldi	r24, 0x01	; 1
		case (ACTION_LOWPOSITION_SAVE):Save();break;
		case (ACTION_PARKING_SET):Set();break;
		case (ACTION_HIGHTPOSITION_SET):Set();break;
		case (ACTION_LOWPOSITION_SET):Set();break;
		case (ACTION_TUNING_SET):Statment = SCREEN_TUNNING;Cursor = TUNING;break;
		case (ACTION_LIMITS_SET):Statment = SCREEN_LIMITS;Cursor = LIMITS_MIN;break;
    1b5c:	16 c0       	rjmp	.+44     	; 0x1b8a <_ZN8Activity16Menu_Screen_MoveER5PanelR7Carrage+0x102>
		case (ACTION_TEST_MALFACTION):Statment = SCREEN_SET_MALFACTION;Cursor = TIME_MALFACTION;break;
    1b5e:	85 e0       	ldi	r24, 0x05	; 5
    1b60:	88 83       	st	Y, r24
    1b62:	8c ed       	ldi	r24, 0xDC	; 220
    1b64:	8f 83       	std	Y+7, r24	; 0x07
		case (ACTION_ERRORS):Statment = SCREEN_SET_ERRORS;Cursor = ERRORS_RESET;break;
		case (ACTION_LCD_SETTINGS):Statment = SCREEN_LCD_SETTINGS;Cursor = LCD_SET_CONTRAST;break;
		default: Cursor = next;break;
	}
	return true;
    1b66:	81 e0       	ldi	r24, 0x01	; 1
		case (ACTION_PARKING_SET):Set();break;
		case (ACTION_HIGHTPOSITION_SET):Set();break;
		case (ACTION_LOWPOSITION_SET):Set();break;
		case (ACTION_TUNING_SET):Statment = SCREEN_TUNNING;Cursor = TUNING;break;
		case (ACTION_LIMITS_SET):Statment = SCREEN_LIMITS;Cursor = LIMITS_MIN;break;
		case (ACTION_TEST_MALFACTION):Statment = SCREEN_SET_MALFACTION;Cursor = TIME_MALFACTION;break;
    1b68:	10 c0       	rjmp	.+32     	; 0x1b8a <_ZN8Activity16Menu_Screen_MoveER5PanelR7Carrage+0x102>
		case (ACTION_ERRORS):Statment = SCREEN_SET_ERRORS;Cursor = ERRORS_RESET;break;
    1b6a:	86 e0       	ldi	r24, 0x06	; 6
    1b6c:	88 83       	st	Y, r24
    1b6e:	86 ee       	ldi	r24, 0xE6	; 230
    1b70:	8f 83       	std	Y+7, r24	; 0x07
		case (ACTION_LCD_SETTINGS):Statment = SCREEN_LCD_SETTINGS;Cursor = LCD_SET_CONTRAST;break;
		default: Cursor = next;break;
	}
	return true;
    1b72:	81 e0       	ldi	r24, 0x01	; 1
		case (ACTION_HIGHTPOSITION_SET):Set();break;
		case (ACTION_LOWPOSITION_SET):Set();break;
		case (ACTION_TUNING_SET):Statment = SCREEN_TUNNING;Cursor = TUNING;break;
		case (ACTION_LIMITS_SET):Statment = SCREEN_LIMITS;Cursor = LIMITS_MIN;break;
		case (ACTION_TEST_MALFACTION):Statment = SCREEN_SET_MALFACTION;Cursor = TIME_MALFACTION;break;
		case (ACTION_ERRORS):Statment = SCREEN_SET_ERRORS;Cursor = ERRORS_RESET;break;
    1b74:	0a c0       	rjmp	.+20     	; 0x1b8a <_ZN8Activity16Menu_Screen_MoveER5PanelR7Carrage+0x102>
		case (ACTION_LCD_SETTINGS):Statment = SCREEN_LCD_SETTINGS;Cursor = LCD_SET_CONTRAST;break;
    1b76:	89 e0       	ldi	r24, 0x09	; 9
    1b78:	88 83       	st	Y, r24
    1b7a:	80 ef       	ldi	r24, 0xF0	; 240
    1b7c:	8f 83       	std	Y+7, r24	; 0x07
		default: Cursor = next;break;
	}
	return true;
    1b7e:	81 e0       	ldi	r24, 0x01	; 1
		case (ACTION_LOWPOSITION_SET):Set();break;
		case (ACTION_TUNING_SET):Statment = SCREEN_TUNNING;Cursor = TUNING;break;
		case (ACTION_LIMITS_SET):Statment = SCREEN_LIMITS;Cursor = LIMITS_MIN;break;
		case (ACTION_TEST_MALFACTION):Statment = SCREEN_SET_MALFACTION;Cursor = TIME_MALFACTION;break;
		case (ACTION_ERRORS):Statment = SCREEN_SET_ERRORS;Cursor = ERRORS_RESET;break;
		case (ACTION_LCD_SETTINGS):Statment = SCREEN_LCD_SETTINGS;Cursor = LCD_SET_CONTRAST;break;
    1b80:	04 c0       	rjmp	.+8      	; 0x1b8a <_ZN8Activity16Menu_Screen_MoveER5PanelR7Carrage+0x102>
		default: Cursor = next;break;
    1b82:	2f 83       	std	Y+7, r18	; 0x07
	}
	return true;
    1b84:	81 e0       	ldi	r24, 0x01	; 1
		case (ACTION_TUNING_SET):Statment = SCREEN_TUNNING;Cursor = TUNING;break;
		case (ACTION_LIMITS_SET):Statment = SCREEN_LIMITS;Cursor = LIMITS_MIN;break;
		case (ACTION_TEST_MALFACTION):Statment = SCREEN_SET_MALFACTION;Cursor = TIME_MALFACTION;break;
		case (ACTION_ERRORS):Statment = SCREEN_SET_ERRORS;Cursor = ERRORS_RESET;break;
		case (ACTION_LCD_SETTINGS):Statment = SCREEN_LCD_SETTINGS;Cursor = LCD_SET_CONTRAST;break;
		default: Cursor = next;break;
    1b86:	01 c0       	rjmp	.+2      	; 0x1b8a <_ZN8Activity16Menu_Screen_MoveER5PanelR7Carrage+0x102>
	carrage.ControlMalfinction();
	int move = panel.Pressed(100);
	int next;
	if (move == B_W_UP_){Statment=SCREEN_MAIN;Cursor = MENU;return false;}
	if (move == B_W_DOWN){Statment=SCREEN_MAIN;Cursor = MENU;return false;}
	if (move == B_NOTHING ){return false;}
    1b88:	80 e0       	ldi	r24, 0x00	; 0
		case (ACTION_LCD_SETTINGS):Statment = SCREEN_LCD_SETTINGS;Cursor = LCD_SET_CONTRAST;break;
		default: Cursor = next;break;
	}
	return true;
	
}
    1b8a:	df 91       	pop	r29
    1b8c:	cf 91       	pop	r28
    1b8e:	1f 91       	pop	r17
    1b90:	0f 91       	pop	r16
    1b92:	08 95       	ret

00001b94 <_ZN8Activity24MessageSelectMalfunctionER5Panel>:
		case(MESSAGE_ANEBLE_WHILE_DRIVING):_delay_ms(1500);Statment=SCREEN_MAIN;Cursor = MENU;break;
	}
}


bool Activity::MessageSelectMalfunction(Panel &panel){
    1b94:	cf 93       	push	r28
    1b96:	df 93       	push	r29
    1b98:	ec 01       	movw	r28, r24
    1b9a:	cb 01       	movw	r24, r22
	int pressed = panel.Pressed(100);
    1b9c:	64 e6       	ldi	r22, 0x64	; 100
    1b9e:	70 e0       	ldi	r23, 0x00	; 0
    1ba0:	0e 94 ad 29 	call	0x535a	; 0x535a <_ZN5Panel7PressedEi>
	if (pressed == B_NOTHING ){return false;}
    1ba4:	01 96       	adiw	r24, 0x01	; 1
    1ba6:	11 f4       	brne	.+4      	; 0x1bac <_ZN8Activity24MessageSelectMalfunctionER5Panel+0x18>
    1ba8:	80 e0       	ldi	r24, 0x00	; 0
    1baa:	05 c0       	rjmp	.+10     	; 0x1bb6 <_ZN8Activity24MessageSelectMalfunctionER5Panel+0x22>
	if (!(pressed == B_NOTHING)){Statment=SCREEN_MAIN;MessageMoveMalfunctionReaded=true;}
    1bac:	18 82       	st	Y, r1
    1bae:	c4 56       	subi	r28, 0x64	; 100
    1bb0:	df 4f       	sbci	r29, 0xFF	; 255
    1bb2:	81 e0       	ldi	r24, 0x01	; 1
    1bb4:	88 83       	st	Y, r24
}
    1bb6:	df 91       	pop	r29
    1bb8:	cf 91       	pop	r28
    1bba:	08 95       	ret

00001bbc <_ZN8Activity21MessageGetMalfunctionER5PanelR7Carrage>:

bool Activity::MessageGetMalfunction(Panel &panel,Carrage &carrage){
    1bbc:	0f 93       	push	r16
    1bbe:	1f 93       	push	r17
    1bc0:	cf 93       	push	r28
    1bc2:	df 93       	push	r29
    1bc4:	8c 01       	movw	r16, r24
    1bc6:	cb 01       	movw	r24, r22
    1bc8:	ea 01       	movw	r28, r20
	int pressed = panel.Pressed(100);
    1bca:	64 e6       	ldi	r22, 0x64	; 100
    1bcc:	70 e0       	ldi	r23, 0x00	; 0
    1bce:	0e 94 ad 29 	call	0x535a	; 0x535a <_ZN5Panel7PressedEi>
	if (pressed == B_NOTHING ){return false;}
    1bd2:	01 96       	adiw	r24, 0x01	; 1
    1bd4:	11 f4       	brne	.+4      	; 0x1bda <_ZN8Activity21MessageGetMalfunctionER5PanelR7Carrage+0x1e>
    1bd6:	80 e0       	ldi	r24, 0x00	; 0
    1bd8:	08 c0       	rjmp	.+16     	; 0x1bea <_ZN8Activity21MessageGetMalfunctionER5PanelR7Carrage+0x2e>
	if (!(pressed == B_NOTHING)){carrage.flagNewMalfuction=false;Statment=SCREEN_SET_ERRORS;Cursor=ERRORS_RESET;}
    1bda:	c4 51       	subi	r28, 0x14	; 20
    1bdc:	df 4f       	sbci	r29, 0xFF	; 255
    1bde:	18 82       	st	Y, r1
    1be0:	86 e0       	ldi	r24, 0x06	; 6
    1be2:	f8 01       	movw	r30, r16
    1be4:	80 83       	st	Z, r24
    1be6:	86 ee       	ldi	r24, 0xE6	; 230
    1be8:	87 83       	std	Z+7, r24	; 0x07
}
    1bea:	df 91       	pop	r29
    1bec:	cf 91       	pop	r28
    1bee:	1f 91       	pop	r17
    1bf0:	0f 91       	pop	r16
    1bf2:	08 95       	ret

00001bf4 <_ZN8Activity7MessageER5PanelR7Carrage>:
	Statment=SCREEN_ADJUST;
	Cursor = MENU;
}

bool Activity::Message(Panel &panel,Carrage &carrage){
	switch(TypeMessage){
    1bf4:	fc 01       	movw	r30, r24
    1bf6:	e6 56       	subi	r30, 0x66	; 102
    1bf8:	ff 4f       	sbci	r31, 0xFF	; 255
    1bfa:	20 81       	ld	r18, Z
    1bfc:	31 81       	ldd	r19, Z+1	; 0x01
    1bfe:	22 30       	cpi	r18, 0x02	; 2
    1c00:	31 05       	cpc	r19, r1
    1c02:	29 f1       	breq	.+74     	; 0x1c4e <_ZN8Activity7MessageER5PanelR7Carrage+0x5a>
    1c04:	3c f4       	brge	.+14     	; 0x1c14 <_ZN8Activity7MessageER5PanelR7Carrage+0x20>
    1c06:	21 15       	cp	r18, r1
    1c08:	31 05       	cpc	r19, r1
    1c0a:	81 f0       	breq	.+32     	; 0x1c2c <_ZN8Activity7MessageER5PanelR7Carrage+0x38>
    1c0c:	21 30       	cpi	r18, 0x01	; 1
    1c0e:	31 05       	cpc	r19, r1
    1c10:	d9 f0       	breq	.+54     	; 0x1c48 <_ZN8Activity7MessageER5PanelR7Carrage+0x54>
    1c12:	08 95       	ret
    1c14:	20 39       	cpi	r18, 0x90	; 144
    1c16:	41 e0       	ldi	r20, 0x01	; 1
    1c18:	34 07       	cpc	r19, r20
    1c1a:	49 f1       	breq	.+82     	; 0x1c6e <_ZN8Activity7MessageER5PanelR7Carrage+0x7a>
    1c1c:	21 39       	cpi	r18, 0x91	; 145
    1c1e:	e1 e0       	ldi	r30, 0x01	; 1
    1c20:	3e 07       	cpc	r19, r30
    1c22:	a1 f1       	breq	.+104    	; 0x1c8c <_ZN8Activity7MessageER5PanelR7Carrage+0x98>
    1c24:	23 30       	cpi	r18, 0x03	; 3
    1c26:	31 05       	cpc	r19, r1
    1c28:	e9 f5       	brne	.+122    	; 0x1ca4 <_ZN8Activity7MessageER5PanelR7Carrage+0xb0>
    1c2a:	14 c0       	rjmp	.+40     	; 0x1c54 <_ZN8Activity7MessageER5PanelR7Carrage+0x60>
	#else
		//round up by default
		__ticks_dc = (uint32_t)(ceil(fabs(__tmp)));
	#endif

	__builtin_avr_delay_cycles(__ticks_dc);
    1c2c:	ff ef       	ldi	r31, 0xFF	; 255
    1c2e:	2d e3       	ldi	r18, 0x3D	; 61
    1c30:	39 e4       	ldi	r19, 0x49	; 73
    1c32:	f1 50       	subi	r31, 0x01	; 1
    1c34:	20 40       	sbci	r18, 0x00	; 0
    1c36:	30 40       	sbci	r19, 0x00	; 0
    1c38:	e1 f7       	brne	.-8      	; 0x1c32 <_ZN8Activity7MessageER5PanelR7Carrage+0x3e>
    1c3a:	00 c0       	rjmp	.+0      	; 0x1c3c <_ZN8Activity7MessageER5PanelR7Carrage+0x48>
    1c3c:	00 00       	nop
		case(MESSAGE_SAVE):_delay_ms(1500);Statment=SCREEN_MENU;Cursor = SAVE;break;
    1c3e:	21 e0       	ldi	r18, 0x01	; 1
    1c40:	fc 01       	movw	r30, r24
    1c42:	20 83       	st	Z, r18
    1c44:	27 83       	std	Z+7, r18	; 0x07
    1c46:	08 95       	ret
		case(MESSAGE_SELECT_MALFUCTION):MessageSelectMalfunction(panel);break;
    1c48:	0e 94 ca 0d 	call	0x1b94	; 0x1b94 <_ZN8Activity24MessageSelectMalfunctionER5Panel>
    1c4c:	08 95       	ret
		case(MESSAGE_GET_MALFUCTION):MessageGetMalfunction(panel, carrage);break;
    1c4e:	0e 94 de 0d 	call	0x1bbc	; 0x1bbc <_ZN8Activity21MessageGetMalfunctionER5PanelR7Carrage>
    1c52:	08 95       	ret
    1c54:	ff ef       	ldi	r31, 0xFF	; 255
    1c56:	2d e3       	ldi	r18, 0x3D	; 61
    1c58:	39 e4       	ldi	r19, 0x49	; 73
    1c5a:	f1 50       	subi	r31, 0x01	; 1
    1c5c:	20 40       	sbci	r18, 0x00	; 0
    1c5e:	30 40       	sbci	r19, 0x00	; 0
    1c60:	e1 f7       	brne	.-8      	; 0x1c5a <_ZN8Activity7MessageER5PanelR7Carrage+0x66>
    1c62:	00 c0       	rjmp	.+0      	; 0x1c64 <_ZN8Activity7MessageER5PanelR7Carrage+0x70>
    1c64:	00 00       	nop
		case(MESSAGE_NO_ANY_SELECTED):_delay_ms(1500);Statment=SCREEN_MAIN;Cursor = MENU;break;
    1c66:	fc 01       	movw	r30, r24
    1c68:	10 82       	st	Z, r1
    1c6a:	17 82       	std	Z+7, r1	; 0x07
    1c6c:	08 95       	ret
    1c6e:	ff ef       	ldi	r31, 0xFF	; 255
    1c70:	2d e3       	ldi	r18, 0x3D	; 61
    1c72:	39 e4       	ldi	r19, 0x49	; 73
    1c74:	f1 50       	subi	r31, 0x01	; 1
    1c76:	20 40       	sbci	r18, 0x00	; 0
    1c78:	30 40       	sbci	r19, 0x00	; 0
    1c7a:	e1 f7       	brne	.-8      	; 0x1c74 <_ZN8Activity7MessageER5PanelR7Carrage+0x80>
    1c7c:	00 c0       	rjmp	.+0      	; 0x1c7e <_ZN8Activity7MessageER5PanelR7Carrage+0x8a>
    1c7e:	00 00       	nop
		case(MESSAGE_GET_LIMITS):_delay_ms(1500);Statment=SCREEN_LIMITS;Cursor=LIMITS_MIN;break;
    1c80:	24 e0       	ldi	r18, 0x04	; 4
    1c82:	fc 01       	movw	r30, r24
    1c84:	20 83       	st	Z, r18
    1c86:	22 ed       	ldi	r18, 0xD2	; 210
    1c88:	27 83       	std	Z+7, r18	; 0x07
    1c8a:	08 95       	ret
    1c8c:	ff ef       	ldi	r31, 0xFF	; 255
    1c8e:	2d e3       	ldi	r18, 0x3D	; 61
    1c90:	39 e4       	ldi	r19, 0x49	; 73
    1c92:	f1 50       	subi	r31, 0x01	; 1
    1c94:	20 40       	sbci	r18, 0x00	; 0
    1c96:	30 40       	sbci	r19, 0x00	; 0
    1c98:	e1 f7       	brne	.-8      	; 0x1c92 <_ZN8Activity7MessageER5PanelR7Carrage+0x9e>
    1c9a:	00 c0       	rjmp	.+0      	; 0x1c9c <_ZN8Activity7MessageER5PanelR7Carrage+0xa8>
    1c9c:	00 00       	nop
		case(MESSAGE_ANEBLE_WHILE_DRIVING):_delay_ms(1500);Statment=SCREEN_MAIN;Cursor = MENU;break;
    1c9e:	fc 01       	movw	r30, r24
    1ca0:	10 82       	st	Z, r1
    1ca2:	17 82       	std	Z+7, r1	; 0x07
	}
}
    1ca4:	08 95       	ret

00001ca6 <_ZN8Activity9ForceMoveER7Carragei>:
	int pressed = panel.Pressed(100);
	if (pressed == B_NOTHING ){return false;}
	if (!(pressed == B_NOTHING)){carrage.flagNewMalfuction=false;Statment=SCREEN_SET_ERRORS;Cursor=ERRORS_RESET;}
}

bool Activity::ForceMove(Carrage &carrage, int derection){
    1ca6:	ef 92       	push	r14
    1ca8:	ff 92       	push	r15
    1caa:	0f 93       	push	r16
    1cac:	1f 93       	push	r17
    1cae:	cf 93       	push	r28
    1cb0:	df 93       	push	r29
	if(carrage.caragemove){Statment=SCREEN_MESSAGE; TypeMessage = MESSAGE_ANEBLE_WHILE_DRIVING;return false;}
    1cb2:	fb 01       	movw	r30, r22
    1cb4:	e6 51       	subi	r30, 0x16	; 22
    1cb6:	ff 4f       	sbci	r31, 0xFF	; 255
    1cb8:	20 81       	ld	r18, Z
    1cba:	22 23       	and	r18, r18
    1cbc:	59 f0       	breq	.+22     	; 0x1cd4 <_ZN8Activity9ForceMoveER7Carragei+0x2e>
    1cbe:	28 e0       	ldi	r18, 0x08	; 8
    1cc0:	fc 01       	movw	r30, r24
    1cc2:	20 83       	st	Z, r18
    1cc4:	e6 56       	subi	r30, 0x66	; 102
    1cc6:	ff 4f       	sbci	r31, 0xFF	; 255
    1cc8:	21 e9       	ldi	r18, 0x91	; 145
    1cca:	31 e0       	ldi	r19, 0x01	; 1
    1ccc:	31 83       	std	Z+1, r19	; 0x01
    1cce:	20 83       	st	Z, r18
    1cd0:	80 e0       	ldi	r24, 0x00	; 0
    1cd2:	35 c0       	rjmp	.+106    	; 0x1d3e <_ZN8Activity9ForceMoveER7Carragei+0x98>
    1cd4:	8a 01       	movw	r16, r20
    1cd6:	7b 01       	movw	r14, r22
    1cd8:	ec 01       	movw	r28, r24
	if(!MessageMoveMalfunctionReaded){
    1cda:	fc 01       	movw	r30, r24
    1cdc:	e4 56       	subi	r30, 0x64	; 100
    1cde:	ff 4f       	sbci	r31, 0xFF	; 255
    1ce0:	80 81       	ld	r24, Z
    1ce2:	81 11       	cpse	r24, r1
    1ce4:	0e c0       	rjmp	.+28     	; 0x1d02 <_ZN8Activity9ForceMoveER7Carragei+0x5c>
		if(carrage.IfSelectetMalfuction()){Statment=SCREEN_MESSAGE; TypeMessage = MESSAGE_SELECT_MALFUCTION;};
    1ce6:	cb 01       	movw	r24, r22
    1ce8:	0e 94 bf 10 	call	0x217e	; 0x217e <_ZN7Carrage20IfSelectetMalfuctionEv>
    1cec:	88 23       	and	r24, r24
    1cee:	49 f0       	breq	.+18     	; 0x1d02 <_ZN8Activity9ForceMoveER7Carragei+0x5c>
    1cf0:	88 e0       	ldi	r24, 0x08	; 8
    1cf2:	88 83       	st	Y, r24
    1cf4:	81 e0       	ldi	r24, 0x01	; 1
    1cf6:	90 e0       	ldi	r25, 0x00	; 0
    1cf8:	fe 01       	movw	r30, r28
    1cfa:	e6 56       	subi	r30, 0x66	; 102
    1cfc:	ff 4f       	sbci	r31, 0xFF	; 255
    1cfe:	91 83       	std	Z+1, r25	; 0x01
    1d00:	80 83       	st	Z, r24
	}
	carrage.ResecCountMalfinction();
    1d02:	c7 01       	movw	r24, r14
    1d04:	0e 94 f1 14 	call	0x29e2	; 0x29e2 <_ZN7Carrage21ResecCountMalfinctionEv>
	if(!carrage.AnySelected()){Statment=SCREEN_MESSAGE;TypeMessage=MESSAGE_NO_ANY_SELECTED;}
    1d08:	c7 01       	movw	r24, r14
    1d0a:	0e 94 74 15 	call	0x2ae8	; 0x2ae8 <_ZN7Carrage11AnySelectedEv>
    1d0e:	81 11       	cpse	r24, r1
    1d10:	08 c0       	rjmp	.+16     	; 0x1d22 <_ZN8Activity9ForceMoveER7Carragei+0x7c>
    1d12:	88 e0       	ldi	r24, 0x08	; 8
    1d14:	88 83       	st	Y, r24
    1d16:	c6 56       	subi	r28, 0x66	; 102
    1d18:	df 4f       	sbci	r29, 0xFF	; 255
    1d1a:	83 e0       	ldi	r24, 0x03	; 3
    1d1c:	90 e0       	ldi	r25, 0x00	; 0
    1d1e:	99 83       	std	Y+1, r25	; 0x01
    1d20:	88 83       	st	Y, r24
	switch(derection){
    1d22:	05 30       	cpi	r16, 0x05	; 5
    1d24:	11 05       	cpc	r17, r1
    1d26:	21 f0       	breq	.+8      	; 0x1d30 <_ZN8Activity9ForceMoveER7Carragei+0x8a>
    1d28:	06 30       	cpi	r16, 0x06	; 6
    1d2a:	11 05       	cpc	r17, r1
    1d2c:	29 f0       	breq	.+10     	; 0x1d38 <_ZN8Activity9ForceMoveER7Carragei+0x92>
    1d2e:	07 c0       	rjmp	.+14     	; 0x1d3e <_ZN8Activity9ForceMoveER7Carragei+0x98>
		case(B_W_UP_):carrage.ForceUp();break;
    1d30:	c7 01       	movw	r24, r14
    1d32:	0e 94 62 16 	call	0x2cc4	; 0x2cc4 <_ZN7Carrage7ForceUpEv>
    1d36:	03 c0       	rjmp	.+6      	; 0x1d3e <_ZN8Activity9ForceMoveER7Carragei+0x98>
		case(B_W_DOWN):carrage.ForceDown();break;
    1d38:	c7 01       	movw	r24, r14
    1d3a:	0e 94 ba 15 	call	0x2b74	; 0x2b74 <_ZN7Carrage9ForceDownEv>
	}
		
}
    1d3e:	df 91       	pop	r29
    1d40:	cf 91       	pop	r28
    1d42:	1f 91       	pop	r17
    1d44:	0f 91       	pop	r16
    1d46:	ff 90       	pop	r15
    1d48:	ef 90       	pop	r14
    1d4a:	08 95       	ret

00001d4c <_ZN8Activity16Main_Screen_MoveER5PanelR7Carrage>:
		case(SCREEN_LCD_SETTINGS):LCD_Settings(panel,carrage);break;
		case(SCREEN_MESSAGE):Message(panel,carrage);break;
	}
}

bool Activity::Main_Screen_Move(Panel &panel, Carrage &carrage){
    1d4c:	ef 92       	push	r14
    1d4e:	ff 92       	push	r15
    1d50:	0f 93       	push	r16
    1d52:	1f 93       	push	r17
    1d54:	cf 93       	push	r28
    1d56:	df 93       	push	r29
    1d58:	ec 01       	movw	r28, r24
    1d5a:	7b 01       	movw	r14, r22
    1d5c:	8a 01       	movw	r16, r20
	carrage.ControlMalfinction();
    1d5e:	ca 01       	movw	r24, r20
    1d60:	0e 94 4e 14 	call	0x289c	; 0x289c <_ZN7Carrage18ControlMalfinctionEv>
	int move = panel.Pressed(100);
    1d64:	64 e6       	ldi	r22, 0x64	; 100
    1d66:	70 e0       	ldi	r23, 0x00	; 0
    1d68:	c7 01       	movw	r24, r14
    1d6a:	0e 94 ad 29 	call	0x535a	; 0x535a <_ZN5Panel7PressedEi>
    1d6e:	ac 01       	movw	r20, r24
	int next;
	if (move == B_W_UP_||move == B_W_DOWN){ForceMove(carrage, move);return false;}
    1d70:	05 97       	sbiw	r24, 0x05	; 5
    1d72:	02 97       	sbiw	r24, 0x02	; 2
    1d74:	30 f4       	brcc	.+12     	; 0x1d82 <_ZN8Activity16Main_Screen_MoveER5PanelR7Carrage+0x36>
    1d76:	b8 01       	movw	r22, r16
    1d78:	ce 01       	movw	r24, r28
    1d7a:	0e 94 53 0e 	call	0x1ca6	; 0x1ca6 <_ZN8Activity9ForceMoveER7Carragei>
    1d7e:	80 e0       	ldi	r24, 0x00	; 0
    1d80:	39 c0       	rjmp	.+114    	; 0x1df4 <_ZN8Activity16Main_Screen_MoveER5PanelR7Carrage+0xa8>
	if (move == B_NOTHING ){return false;}
    1d82:	4f 3f       	cpi	r20, 0xFF	; 255
    1d84:	8f ef       	ldi	r24, 0xFF	; 255
    1d86:	58 07       	cpc	r21, r24
    1d88:	a1 f1       	breq	.+104    	; 0x1df2 <_ZN8Activity16Main_Screen_MoveER5PanelR7Carrage+0xa6>
	next = Main_Screen_cursor_pathes[Cursor][move];
    1d8a:	9f 81       	ldd	r25, Y+7	; 0x07
    1d8c:	29 2f       	mov	r18, r25
    1d8e:	30 e0       	ldi	r19, 0x00	; 0
    1d90:	c9 01       	movw	r24, r18
    1d92:	88 0f       	add	r24, r24
    1d94:	99 1f       	adc	r25, r25
    1d96:	28 0f       	add	r18, r24
    1d98:	39 1f       	adc	r19, r25
    1d9a:	22 0f       	add	r18, r18
    1d9c:	33 1f       	adc	r19, r19
    1d9e:	2c 0f       	add	r18, r28
    1da0:	3d 1f       	adc	r19, r29
    1da2:	f9 01       	movw	r30, r18
    1da4:	e4 0f       	add	r30, r20
    1da6:	f5 1f       	adc	r31, r21
    1da8:	80 85       	ldd	r24, Z+8	; 0x08
	switch(next){
    1daa:	85 36       	cpi	r24, 0x65	; 101
    1dac:	a1 f0       	breq	.+40     	; 0x1dd6 <_ZN8Activity16Main_Screen_MoveER5PanelR7Carrage+0x8a>
    1dae:	18 f4       	brcc	.+6      	; 0x1db6 <_ZN8Activity16Main_Screen_MoveER5PanelR7Carrage+0x6a>
    1db0:	84 36       	cpi	r24, 0x64	; 100
    1db2:	31 f0       	breq	.+12     	; 0x1dc0 <_ZN8Activity16Main_Screen_MoveER5PanelR7Carrage+0x74>
    1db4:	1b c0       	rjmp	.+54     	; 0x1dec <_ZN8Activity16Main_Screen_MoveER5PanelR7Carrage+0xa0>
    1db6:	86 36       	cpi	r24, 0x66	; 102
    1db8:	a9 f0       	breq	.+42     	; 0x1de4 <_ZN8Activity16Main_Screen_MoveER5PanelR7Carrage+0x98>
    1dba:	82 37       	cpi	r24, 0x72	; 114
    1dbc:	39 f0       	breq	.+14     	; 0x1dcc <_ZN8Activity16Main_Screen_MoveER5PanelR7Carrage+0x80>
    1dbe:	16 c0       	rjmp	.+44     	; 0x1dec <_ZN8Activity16Main_Screen_MoveER5PanelR7Carrage+0xa0>
		case (ACTION_WHEEL):SelectWheel(carrage);break;
    1dc0:	b8 01       	movw	r22, r16
    1dc2:	ce 01       	movw	r24, r28
    1dc4:	0e 94 b3 0c 	call	0x1966	; 0x1966 <_ZN8Activity11SelectWheelER7Carrage>
		case (ACTION_ALL_WHEEL):SelectAllWheel(carrage);break;
		case (ACTION_ADJUST):Statment = SCREEN_ADJUST; carrage.beforeAdjast() ;break;
		case (ACTION_MENU):Statment = SCREEN_MENU;Cursor = SETPOSITION;break;
		default: Cursor = next;break;
	}
	return true;
    1dc8:	81 e0       	ldi	r24, 0x01	; 1
	int next;
	if (move == B_W_UP_||move == B_W_DOWN){ForceMove(carrage, move);return false;}
	if (move == B_NOTHING ){return false;}
	next = Main_Screen_cursor_pathes[Cursor][move];
	switch(next){
		case (ACTION_WHEEL):SelectWheel(carrage);break;
    1dca:	14 c0       	rjmp	.+40     	; 0x1df4 <_ZN8Activity16Main_Screen_MoveER5PanelR7Carrage+0xa8>
		if(carrage.IfSelectetMalfuction()){Statment=SCREEN_MESSAGE; TypeMessage = MESSAGE_SELECT_MALFUCTION;};
	}
}

void Activity::SelectAllWheel(Carrage &carrage){
	carrage.SwitchAllWheel();
    1dcc:	c8 01       	movw	r24, r16
    1dce:	0e 94 48 15 	call	0x2a90	; 0x2a90 <_ZN7Carrage14SwitchAllWheelEv>
		case (ACTION_ALL_WHEEL):SelectAllWheel(carrage);break;
		case (ACTION_ADJUST):Statment = SCREEN_ADJUST; carrage.beforeAdjast() ;break;
		case (ACTION_MENU):Statment = SCREEN_MENU;Cursor = SETPOSITION;break;
		default: Cursor = next;break;
	}
	return true;
    1dd2:	81 e0       	ldi	r24, 0x01	; 1
    1dd4:	0f c0       	rjmp	.+30     	; 0x1df4 <_ZN8Activity16Main_Screen_MoveER5PanelR7Carrage+0xa8>
	if (move == B_NOTHING ){return false;}
	next = Main_Screen_cursor_pathes[Cursor][move];
	switch(next){
		case (ACTION_WHEEL):SelectWheel(carrage);break;
		case (ACTION_ALL_WHEEL):SelectAllWheel(carrage);break;
		case (ACTION_ADJUST):Statment = SCREEN_ADJUST; carrage.beforeAdjast() ;break;
    1dd6:	82 e0       	ldi	r24, 0x02	; 2
    1dd8:	88 83       	st	Y, r24
    1dda:	c8 01       	movw	r24, r16
    1ddc:	0e 94 93 10 	call	0x2126	; 0x2126 <_ZN7Carrage12beforeAdjastEv>
		case (ACTION_MENU):Statment = SCREEN_MENU;Cursor = SETPOSITION;break;
		default: Cursor = next;break;
	}
	return true;
    1de0:	81 e0       	ldi	r24, 0x01	; 1
	if (move == B_NOTHING ){return false;}
	next = Main_Screen_cursor_pathes[Cursor][move];
	switch(next){
		case (ACTION_WHEEL):SelectWheel(carrage);break;
		case (ACTION_ALL_WHEEL):SelectAllWheel(carrage);break;
		case (ACTION_ADJUST):Statment = SCREEN_ADJUST; carrage.beforeAdjast() ;break;
    1de2:	08 c0       	rjmp	.+16     	; 0x1df4 <_ZN8Activity16Main_Screen_MoveER5PanelR7Carrage+0xa8>
		case (ACTION_MENU):Statment = SCREEN_MENU;Cursor = SETPOSITION;break;
    1de4:	81 e0       	ldi	r24, 0x01	; 1
    1de6:	88 83       	st	Y, r24
    1de8:	1f 82       	std	Y+7, r1	; 0x07
    1dea:	04 c0       	rjmp	.+8      	; 0x1df4 <_ZN8Activity16Main_Screen_MoveER5PanelR7Carrage+0xa8>
		default: Cursor = next;break;
    1dec:	8f 83       	std	Y+7, r24	; 0x07
	}
	return true;
    1dee:	81 e0       	ldi	r24, 0x01	; 1
	switch(next){
		case (ACTION_WHEEL):SelectWheel(carrage);break;
		case (ACTION_ALL_WHEEL):SelectAllWheel(carrage);break;
		case (ACTION_ADJUST):Statment = SCREEN_ADJUST; carrage.beforeAdjast() ;break;
		case (ACTION_MENU):Statment = SCREEN_MENU;Cursor = SETPOSITION;break;
		default: Cursor = next;break;
    1df0:	01 c0       	rjmp	.+2      	; 0x1df4 <_ZN8Activity16Main_Screen_MoveER5PanelR7Carrage+0xa8>
bool Activity::Main_Screen_Move(Panel &panel, Carrage &carrage){
	carrage.ControlMalfinction();
	int move = panel.Pressed(100);
	int next;
	if (move == B_W_UP_||move == B_W_DOWN){ForceMove(carrage, move);return false;}
	if (move == B_NOTHING ){return false;}
    1df2:	80 e0       	ldi	r24, 0x00	; 0
		case (ACTION_ADJUST):Statment = SCREEN_ADJUST; carrage.beforeAdjast() ;break;
		case (ACTION_MENU):Statment = SCREEN_MENU;Cursor = SETPOSITION;break;
		default: Cursor = next;break;
	}
	return true;
}
    1df4:	df 91       	pop	r29
    1df6:	cf 91       	pop	r28
    1df8:	1f 91       	pop	r17
    1dfa:	0f 91       	pop	r16
    1dfc:	ff 90       	pop	r15
    1dfe:	ef 90       	pop	r14
    1e00:	08 95       	ret

00001e02 <_ZN8Activity17Adjusting_CarrageER5PanelR7Carrage>:

bool Activity::Adjusting_Carrage(Panel &panel, Carrage &carrage){
    1e02:	cf 92       	push	r12
    1e04:	df 92       	push	r13
    1e06:	ef 92       	push	r14
    1e08:	ff 92       	push	r15
    1e0a:	0f 93       	push	r16
    1e0c:	1f 93       	push	r17
    1e0e:	cf 93       	push	r28
    1e10:	df 93       	push	r29
    1e12:	ec 01       	movw	r28, r24
    1e14:	6b 01       	movw	r12, r22
    1e16:	8a 01       	movw	r16, r20
	carrage.ControlMalfinction();
    1e18:	ca 01       	movw	r24, r20
    1e1a:	0e 94 4e 14 	call	0x289c	; 0x289c <_ZN7Carrage18ControlMalfinctionEv>
	if(carrage.caragemove){Statment=SCREEN_MESSAGE; TypeMessage = MESSAGE_ANEBLE_WHILE_DRIVING;return false;}
    1e1e:	f8 01       	movw	r30, r16
    1e20:	e6 51       	subi	r30, 0x16	; 22
    1e22:	ff 4f       	sbci	r31, 0xFF	; 255
    1e24:	80 81       	ld	r24, Z
    1e26:	88 23       	and	r24, r24
    1e28:	49 f0       	breq	.+18     	; 0x1e3c <_ZN8Activity17Adjusting_CarrageER5PanelR7Carrage+0x3a>
    1e2a:	88 e0       	ldi	r24, 0x08	; 8
    1e2c:	88 83       	st	Y, r24
    1e2e:	c6 56       	subi	r28, 0x66	; 102
    1e30:	df 4f       	sbci	r29, 0xFF	; 255
    1e32:	81 e9       	ldi	r24, 0x91	; 145
    1e34:	91 e0       	ldi	r25, 0x01	; 1
    1e36:	99 83       	std	Y+1, r25	; 0x01
    1e38:	88 83       	st	Y, r24
    1e3a:	67 c0       	rjmp	.+206    	; 0x1f0a <_ZN8Activity17Adjusting_CarrageER5PanelR7Carrage+0x108>
	int pressed = panel.Pressed(100);
    1e3c:	64 e6       	ldi	r22, 0x64	; 100
    1e3e:	70 e0       	ldi	r23, 0x00	; 0
    1e40:	c6 01       	movw	r24, r12
    1e42:	0e 94 ad 29 	call	0x535a	; 0x535a <_ZN5Panel7PressedEi>
    1e46:	7c 01       	movw	r14, r24
	if (pressed == B_W_UP_||pressed == B_W_DOWN){ForceMove(carrage, pressed);return false;}
    1e48:	05 97       	sbiw	r24, 0x05	; 5
    1e4a:	02 97       	sbiw	r24, 0x02	; 2
    1e4c:	30 f4       	brcc	.+12     	; 0x1e5a <_ZN8Activity17Adjusting_CarrageER5PanelR7Carrage+0x58>
    1e4e:	a7 01       	movw	r20, r14
    1e50:	b8 01       	movw	r22, r16
    1e52:	ce 01       	movw	r24, r28
    1e54:	0e 94 53 0e 	call	0x1ca6	; 0x1ca6 <_ZN8Activity9ForceMoveER7Carragei>
    1e58:	58 c0       	rjmp	.+176    	; 0x1f0a <_ZN8Activity17Adjusting_CarrageER5PanelR7Carrage+0x108>
	if (pressed == B_NOTHING ){return false;}
    1e5a:	8f ef       	ldi	r24, 0xFF	; 255
    1e5c:	e8 16       	cp	r14, r24
    1e5e:	f8 06       	cpc	r15, r24
    1e60:	09 f4       	brne	.+2      	; 0x1e64 <_ZN8Activity17Adjusting_CarrageER5PanelR7Carrage+0x62>
    1e62:	53 c0       	rjmp	.+166    	; 0x1f0a <_ZN8Activity17Adjusting_CarrageER5PanelR7Carrage+0x108>
	if(B_UP___||B_DOWN_){if(!carrage.AnySelected()){Statment=SCREEN_MESSAGE;TypeMessage=MESSAGE_NO_ANY_SELECTED;}}
    1e64:	c8 01       	movw	r24, r16
    1e66:	0e 94 74 15 	call	0x2ae8	; 0x2ae8 <_ZN7Carrage11AnySelectedEv>
    1e6a:	81 11       	cpse	r24, r1
    1e6c:	09 c0       	rjmp	.+18     	; 0x1e80 <_ZN8Activity17Adjusting_CarrageER5PanelR7Carrage+0x7e>
    1e6e:	88 e0       	ldi	r24, 0x08	; 8
    1e70:	88 83       	st	Y, r24
    1e72:	83 e0       	ldi	r24, 0x03	; 3
    1e74:	90 e0       	ldi	r25, 0x00	; 0
    1e76:	fe 01       	movw	r30, r28
    1e78:	e6 56       	subi	r30, 0x66	; 102
    1e7a:	ff 4f       	sbci	r31, 0xFF	; 255
    1e7c:	91 83       	std	Z+1, r25	; 0x01
    1e7e:	80 83       	st	Z, r24
	switch(pressed){
    1e80:	82 e0       	ldi	r24, 0x02	; 2
    1e82:	e8 16       	cp	r14, r24
    1e84:	f1 04       	cpc	r15, r1
    1e86:	e9 f0       	breq	.+58     	; 0x1ec2 <_ZN8Activity17Adjusting_CarrageER5PanelR7Carrage+0xc0>
    1e88:	3c f4       	brge	.+14     	; 0x1e98 <_ZN8Activity17Adjusting_CarrageER5PanelR7Carrage+0x96>
    1e8a:	e1 14       	cp	r14, r1
    1e8c:	f1 04       	cpc	r15, r1
    1e8e:	69 f0       	breq	.+26     	; 0x1eaa <_ZN8Activity17Adjusting_CarrageER5PanelR7Carrage+0xa8>
    1e90:	ea 94       	dec	r14
    1e92:	ef 28       	or	r14, r15
    1e94:	61 f0       	breq	.+24     	; 0x1eae <_ZN8Activity17Adjusting_CarrageER5PanelR7Carrage+0xac>
    1e96:	2a c0       	rjmp	.+84     	; 0x1eec <_ZN8Activity17Adjusting_CarrageER5PanelR7Carrage+0xea>
    1e98:	83 e0       	ldi	r24, 0x03	; 3
    1e9a:	e8 16       	cp	r14, r24
    1e9c:	f1 04       	cpc	r15, r1
    1e9e:	d9 f0       	breq	.+54     	; 0x1ed6 <_ZN8Activity17Adjusting_CarrageER5PanelR7Carrage+0xd4>
    1ea0:	84 e0       	ldi	r24, 0x04	; 4
    1ea2:	e8 16       	cp	r14, r24
    1ea4:	f1 04       	cpc	r15, r1
    1ea6:	e9 f0       	breq	.+58     	; 0x1ee2 <_ZN8Activity17Adjusting_CarrageER5PanelR7Carrage+0xe0>
    1ea8:	21 c0       	rjmp	.+66     	; 0x1eec <_ZN8Activity17Adjusting_CarrageER5PanelR7Carrage+0xea>
		case(B_OK___):Statment = SCREEN_MAIN; break;
    1eaa:	18 82       	st	Y, r1
    1eac:	1f c0       	rjmp	.+62     	; 0x1eec <_ZN8Activity17Adjusting_CarrageER5PanelR7Carrage+0xea>
		case(B_UP___):carrage.Up(Get_val_step(), panel); break;
    1eae:	ce 01       	movw	r24, r28
    1eb0:	0e 94 15 0d 	call	0x1a2a	; 0x1a2a <_ZN8Activity12Get_val_stepEv>
    1eb4:	ab 01       	movw	r20, r22
    1eb6:	bc 01       	movw	r22, r24
    1eb8:	96 01       	movw	r18, r12
    1eba:	c8 01       	movw	r24, r16
    1ebc:	0e 94 40 19 	call	0x3280	; 0x3280 <_ZN7Carrage2UpEfR5Panel>
    1ec0:	15 c0       	rjmp	.+42     	; 0x1eec <_ZN8Activity17Adjusting_CarrageER5PanelR7Carrage+0xea>
		case(B_DOWN_):carrage.Down(Get_val_step(), panel); break;
    1ec2:	ce 01       	movw	r24, r28
    1ec4:	0e 94 15 0d 	call	0x1a2a	; 0x1a2a <_ZN8Activity12Get_val_stepEv>
    1ec8:	ab 01       	movw	r20, r22
    1eca:	bc 01       	movw	r22, r24
    1ecc:	96 01       	movw	r18, r12
    1ece:	c8 01       	movw	r24, r16
    1ed0:	0e 94 75 19 	call	0x32ea	; 0x32ea <_ZN7Carrage4DownEfR5Panel>
    1ed4:	0b c0       	rjmp	.+22     	; 0x1eec <_ZN8Activity17Adjusting_CarrageER5PanelR7Carrage+0xea>
		case(B_LEFT_):Step--; break;
    1ed6:	89 81       	ldd	r24, Y+1	; 0x01
    1ed8:	9a 81       	ldd	r25, Y+2	; 0x02
    1eda:	01 97       	sbiw	r24, 0x01	; 1
    1edc:	9a 83       	std	Y+2, r25	; 0x02
    1ede:	89 83       	std	Y+1, r24	; 0x01
    1ee0:	05 c0       	rjmp	.+10     	; 0x1eec <_ZN8Activity17Adjusting_CarrageER5PanelR7Carrage+0xea>
		case(B_RIGHT):Step++; break;
    1ee2:	89 81       	ldd	r24, Y+1	; 0x01
    1ee4:	9a 81       	ldd	r25, Y+2	; 0x02
    1ee6:	01 96       	adiw	r24, 0x01	; 1
    1ee8:	9a 83       	std	Y+2, r25	; 0x02
    1eea:	89 83       	std	Y+1, r24	; 0x01
	}
	if (Step <= 0){Step=0;}
    1eec:	89 81       	ldd	r24, Y+1	; 0x01
    1eee:	9a 81       	ldd	r25, Y+2	; 0x02
    1ef0:	18 16       	cp	r1, r24
    1ef2:	19 06       	cpc	r1, r25
    1ef4:	1c f0       	brlt	.+6      	; 0x1efc <_ZN8Activity17Adjusting_CarrageER5PanelR7Carrage+0xfa>
    1ef6:	1a 82       	std	Y+2, r1	; 0x02
    1ef8:	19 82       	std	Y+1, r1	; 0x01
    1efa:	06 c0       	rjmp	.+12     	; 0x1f08 <_ZN8Activity17Adjusting_CarrageER5PanelR7Carrage+0x106>
	if (Step >= 19){Step=19;}
    1efc:	43 97       	sbiw	r24, 0x13	; 19
    1efe:	24 f0       	brlt	.+8      	; 0x1f08 <_ZN8Activity17Adjusting_CarrageER5PanelR7Carrage+0x106>
    1f00:	83 e1       	ldi	r24, 0x13	; 19
    1f02:	90 e0       	ldi	r25, 0x00	; 0
    1f04:	9a 83       	std	Y+2, r25	; 0x02
    1f06:	89 83       	std	Y+1, r24	; 0x01
}
    1f08:	01 c0       	rjmp	.+2      	; 0x1f0c <_ZN8Activity17Adjusting_CarrageER5PanelR7Carrage+0x10a>
    1f0a:	80 e0       	ldi	r24, 0x00	; 0
    1f0c:	df 91       	pop	r29
    1f0e:	cf 91       	pop	r28
    1f10:	1f 91       	pop	r17
    1f12:	0f 91       	pop	r16
    1f14:	ff 90       	pop	r15
    1f16:	ef 90       	pop	r14
    1f18:	df 90       	pop	r13
    1f1a:	cf 90       	pop	r12
    1f1c:	08 95       	ret

00001f1e <_ZN8Activity13Cursor_ActionER5PanelR7Carrage>:
	Menu_Screen_cursor_pathes[SETTINGS_LCD ][B_DOWN_] = SETTINGS_LCD ;
	Menu_Screen_cursor_pathes[SETTINGS_LCD ][B_OK___] = ACTION_LCD_SETTINGS;
	
}

bool Activity::Cursor_Action(Panel &panel, Carrage &carrage){
    1f1e:	0f 93       	push	r16
    1f20:	1f 93       	push	r17
	switch(Statment){
    1f22:	dc 01       	movw	r26, r24
    1f24:	ec 91       	ld	r30, X
    1f26:	0e 2f       	mov	r16, r30
    1f28:	10 e0       	ldi	r17, 0x00	; 0
    1f2a:	0a 30       	cpi	r16, 0x0A	; 10
    1f2c:	11 05       	cpc	r17, r1
    1f2e:	10 f5       	brcc	.+68     	; 0x1f74 <_ZN8Activity13Cursor_ActionER5PanelR7Carrage+0x56>
    1f30:	f8 01       	movw	r30, r16
    1f32:	e0 5c       	subi	r30, 0xC0	; 192
    1f34:	ff 4f       	sbci	r31, 0xFF	; 255
    1f36:	0c 94 e4 30 	jmp	0x61c8	; 0x61c8 <__tablejump2__>
		case(SCREEN_MAIN):Main_Screen_Move(panel,carrage);break;
    1f3a:	0e 94 a6 0e 	call	0x1d4c	; 0x1d4c <_ZN8Activity16Main_Screen_MoveER5PanelR7Carrage>
    1f3e:	1a c0       	rjmp	.+52     	; 0x1f74 <_ZN8Activity13Cursor_ActionER5PanelR7Carrage+0x56>
		case(SCREEN_MENU):Menu_Screen_Move(panel,carrage);break;
    1f40:	0e 94 44 0d 	call	0x1a88	; 0x1a88 <_ZN8Activity16Menu_Screen_MoveER5PanelR7Carrage>
    1f44:	17 c0       	rjmp	.+46     	; 0x1f74 <_ZN8Activity13Cursor_ActionER5PanelR7Carrage+0x56>
		case(SCREEN_ADJUST):Adjusting_Carrage(panel,carrage);break;
    1f46:	0e 94 01 0f 	call	0x1e02	; 0x1e02 <_ZN8Activity17Adjusting_CarrageER5PanelR7Carrage>
    1f4a:	14 c0       	rjmp	.+40     	; 0x1f74 <_ZN8Activity13Cursor_ActionER5PanelR7Carrage+0x56>
		case(SCREEN_TUNNING):Tunning_rate(panel,carrage);break;
    1f4c:	0e 94 ca 05 	call	0xb94	; 0xb94 <_ZN8Activity12Tunning_rateER5PanelR7Carrage>
    1f50:	11 c0       	rjmp	.+34     	; 0x1f74 <_ZN8Activity13Cursor_ActionER5PanelR7Carrage+0x56>
		case(SCREEN_LIMITS):Limits_set(panel,carrage);break;
    1f52:	0e 94 71 08 	call	0x10e2	; 0x10e2 <_ZN8Activity10Limits_setER5PanelR7Carrage>
    1f56:	0e c0       	rjmp	.+28     	; 0x1f74 <_ZN8Activity13Cursor_ActionER5PanelR7Carrage+0x56>
		case(SCREEN_SET_MALFACTION):Malfaction_set(panel,carrage);break;
    1f58:	0e 94 eb 09 	call	0x13d6	; 0x13d6 <_ZN8Activity14Malfaction_setER5PanelR7Carrage>
    1f5c:	0b c0       	rjmp	.+22     	; 0x1f74 <_ZN8Activity13Cursor_ActionER5PanelR7Carrage+0x56>
		case(SCREEN_SET_ERRORS):Errors(panel,carrage);break;
    1f5e:	0e 94 6f 0b 	call	0x16de	; 0x16de <_ZN8Activity6ErrorsER5PanelR7Carrage>
    1f62:	08 c0       	rjmp	.+16     	; 0x1f74 <_ZN8Activity13Cursor_ActionER5PanelR7Carrage+0x56>
		case(SCREEN_ERROR_WHEEL):Error(panel,carrage);break;
    1f64:	0e 94 08 0c 	call	0x1810	; 0x1810 <_ZN8Activity5ErrorER5PanelR7Carrage>
    1f68:	05 c0       	rjmp	.+10     	; 0x1f74 <_ZN8Activity13Cursor_ActionER5PanelR7Carrage+0x56>
		case(SCREEN_LCD_SETTINGS):LCD_Settings(panel,carrage);break;
    1f6a:	0e 94 1f 0c 	call	0x183e	; 0x183e <_ZN8Activity12LCD_SettingsER5PanelR7Carrage>
    1f6e:	02 c0       	rjmp	.+4      	; 0x1f74 <_ZN8Activity13Cursor_ActionER5PanelR7Carrage+0x56>
		case(SCREEN_MESSAGE):Message(panel,carrage);break;
    1f70:	0e 94 fa 0d 	call	0x1bf4	; 0x1bf4 <_ZN8Activity7MessageER5PanelR7Carrage>
	}
}
    1f74:	1f 91       	pop	r17
    1f76:	0f 91       	pop	r16
    1f78:	08 95       	ret

00001f7a <_ZN6ButtonC1Ev>:
#include "Button.h"
#include <avr/io.h>
#include <util/delay.h>

// default constructor
Button::Button(){
    1f7a:	08 95       	ret

00001f7c <_ZN6Button4InitEci>:
	
}

void Button::Init(char port, int pin)
{
    1f7c:	fc 01       	movw	r30, r24
	_port = port;
    1f7e:	60 83       	st	Z, r22
	_pin = pin;
    1f80:	41 83       	std	Z+1, r20	; 0x01
    1f82:	52 83       	std	Z+2, r21	; 0x02
	slice_limit = 500;
    1f84:	84 ef       	ldi	r24, 0xF4	; 244
    1f86:	91 e0       	ldi	r25, 0x01	; 1
    1f88:	96 83       	std	Z+6, r25	; 0x06
    1f8a:	85 83       	std	Z+5, r24	; 0x05
	switch (_port){
    1f8c:	63 34       	cpi	r22, 0x43	; 67
    1f8e:	a1 f0       	breq	.+40     	; 0x1fb8 <_ZN6Button4InitEci+0x3c>
    1f90:	64 34       	cpi	r22, 0x44	; 68
    1f92:	11 f1       	breq	.+68     	; 0x1fd8 <_ZN6Button4InitEci+0x5c>
    1f94:	62 34       	cpi	r22, 0x42	; 66
    1f96:	79 f5       	brne	.+94     	; 0x1ff6 <_ZN6Button4InitEci+0x7a>
		case 'B': DDRB &= ~(1<<(pin)); PORTB |= (1<<(pin)); break;
    1f98:	24 b1       	in	r18, 0x04	; 4
    1f9a:	81 e0       	ldi	r24, 0x01	; 1
    1f9c:	90 e0       	ldi	r25, 0x00	; 0
    1f9e:	02 c0       	rjmp	.+4      	; 0x1fa4 <_ZN6Button4InitEci+0x28>
    1fa0:	88 0f       	add	r24, r24
    1fa2:	99 1f       	adc	r25, r25
    1fa4:	4a 95       	dec	r20
    1fa6:	e2 f7       	brpl	.-8      	; 0x1fa0 <_ZN6Button4InitEci+0x24>
    1fa8:	98 2f       	mov	r25, r24
    1faa:	90 95       	com	r25
    1fac:	92 23       	and	r25, r18
    1fae:	94 b9       	out	0x04, r25	; 4
    1fb0:	95 b1       	in	r25, 0x05	; 5
    1fb2:	89 2b       	or	r24, r25
    1fb4:	85 b9       	out	0x05, r24	; 5
    1fb6:	08 95       	ret
		case 'C': DDRC &= ~(1<<(pin)); PORTC |= (1<<(pin)); break;
    1fb8:	27 b1       	in	r18, 0x07	; 7
    1fba:	81 e0       	ldi	r24, 0x01	; 1
    1fbc:	90 e0       	ldi	r25, 0x00	; 0
    1fbe:	02 c0       	rjmp	.+4      	; 0x1fc4 <_ZN6Button4InitEci+0x48>
    1fc0:	88 0f       	add	r24, r24
    1fc2:	99 1f       	adc	r25, r25
    1fc4:	4a 95       	dec	r20
    1fc6:	e2 f7       	brpl	.-8      	; 0x1fc0 <_ZN6Button4InitEci+0x44>
    1fc8:	98 2f       	mov	r25, r24
    1fca:	90 95       	com	r25
    1fcc:	92 23       	and	r25, r18
    1fce:	97 b9       	out	0x07, r25	; 7
    1fd0:	98 b1       	in	r25, 0x08	; 8
    1fd2:	89 2b       	or	r24, r25
    1fd4:	88 b9       	out	0x08, r24	; 8
    1fd6:	08 95       	ret
		case 'D': DDRD &= ~(1<<(pin)); PORTD |= (1<<(pin)); break;
    1fd8:	2a b1       	in	r18, 0x0a	; 10
    1fda:	81 e0       	ldi	r24, 0x01	; 1
    1fdc:	90 e0       	ldi	r25, 0x00	; 0
    1fde:	02 c0       	rjmp	.+4      	; 0x1fe4 <_ZN6Button4InitEci+0x68>
    1fe0:	88 0f       	add	r24, r24
    1fe2:	99 1f       	adc	r25, r25
    1fe4:	4a 95       	dec	r20
    1fe6:	e2 f7       	brpl	.-8      	; 0x1fe0 <_ZN6Button4InitEci+0x64>
    1fe8:	98 2f       	mov	r25, r24
    1fea:	90 95       	com	r25
    1fec:	92 23       	and	r25, r18
    1fee:	9a b9       	out	0x0a, r25	; 10
    1ff0:	9b b1       	in	r25, 0x0b	; 11
    1ff2:	89 2b       	or	r24, r25
    1ff4:	8b b9       	out	0x0b, r24	; 11
    1ff6:	08 95       	ret

00001ff8 <_ZN6Button7PressedEi>:
	}
	
}

bool Button::Pressed(int debounce){
    1ff8:	fc 01       	movw	r30, r24
	//debounce   
	bool read_pin;
	int i;
	
	if (debounce >= 0){
    1ffa:	77 23       	and	r23, r23
    1ffc:	74 f1       	brlt	.+92     	; 0x205a <_ZN6Button7PressedEi+0x62>
		switch (_port){
    1ffe:	80 81       	ld	r24, Z
    2000:	83 34       	cpi	r24, 0x43	; 67
    2002:	79 f0       	breq	.+30     	; 0x2022 <_ZN6Button7PressedEi+0x2a>
    2004:	84 34       	cpi	r24, 0x44	; 68
    2006:	b9 f0       	breq	.+46     	; 0x2036 <_ZN6Button7PressedEi+0x3e>
    2008:	82 34       	cpi	r24, 0x42	; 66
    200a:	09 f0       	breq	.+2      	; 0x200e <_ZN6Button7PressedEi+0x16>
    200c:	6a c0       	rjmp	.+212    	; 0x20e2 <_ZN6Button7PressedEi+0xea>
			case 'B': read_pin = ((1 << _pin) & PINB); break;
    200e:	83 b1       	in	r24, 0x03	; 3
    2010:	90 e0       	ldi	r25, 0x00	; 0
    2012:	01 80       	ldd	r0, Z+1	; 0x01
    2014:	02 c0       	rjmp	.+4      	; 0x201a <_ZN6Button7PressedEi+0x22>
    2016:	95 95       	asr	r25
    2018:	87 95       	ror	r24
    201a:	0a 94       	dec	r0
    201c:	e2 f7       	brpl	.-8      	; 0x2016 <_ZN6Button7PressedEi+0x1e>
    201e:	81 70       	andi	r24, 0x01	; 1
    2020:	13 c0       	rjmp	.+38     	; 0x2048 <_ZN6Button7PressedEi+0x50>
			case 'C': read_pin = ((1 << _pin) & PINC); break;
    2022:	86 b1       	in	r24, 0x06	; 6
    2024:	90 e0       	ldi	r25, 0x00	; 0
    2026:	01 80       	ldd	r0, Z+1	; 0x01
    2028:	02 c0       	rjmp	.+4      	; 0x202e <_ZN6Button7PressedEi+0x36>
    202a:	95 95       	asr	r25
    202c:	87 95       	ror	r24
    202e:	0a 94       	dec	r0
    2030:	e2 f7       	brpl	.-8      	; 0x202a <_ZN6Button7PressedEi+0x32>
    2032:	81 70       	andi	r24, 0x01	; 1
    2034:	09 c0       	rjmp	.+18     	; 0x2048 <_ZN6Button7PressedEi+0x50>
			case 'D': read_pin = ((1 << _pin) & PIND); break;
    2036:	89 b1       	in	r24, 0x09	; 9
    2038:	90 e0       	ldi	r25, 0x00	; 0
    203a:	01 80       	ldd	r0, Z+1	; 0x01
    203c:	02 c0       	rjmp	.+4      	; 0x2042 <_ZN6Button7PressedEi+0x4a>
    203e:	95 95       	asr	r25
    2040:	87 95       	ror	r24
    2042:	0a 94       	dec	r0
    2044:	e2 f7       	brpl	.-8      	; 0x203e <_ZN6Button7PressedEi+0x46>
    2046:	81 70       	andi	r24, 0x01	; 1
			default: return false;
		}
		
		if (read_pin){
    2048:	88 23       	and	r24, r24
    204a:	09 f4       	brne	.+2      	; 0x204e <_ZN6Button7PressedEi+0x56>
    204c:	4e c0       	rjmp	.+156    	; 0x20ea <_ZN6Button7PressedEi+0xf2>
			slice_limit = 800;
    204e:	80 e2       	ldi	r24, 0x20	; 32
    2050:	93 e0       	ldi	r25, 0x03	; 3
    2052:	96 83       	std	Z+6, r25	; 0x06
    2054:	85 83       	std	Z+5, r24	; 0x05
			return false;
    2056:	80 e0       	ldi	r24, 0x00	; 0
    2058:	08 95       	ret
			}else{
			debounce--;
		};
	};
	//button anti slice
	slice = 0;
    205a:	14 82       	std	Z+4, r1	; 0x04
    205c:	13 82       	std	Z+3, r1	; 0x03
	while((!read_pin)&&(slice<slice_limit)){
    205e:	85 81       	ldd	r24, Z+5	; 0x05
    2060:	96 81       	ldd	r25, Z+6	; 0x06
    2062:	18 16       	cp	r1, r24
    2064:	19 06       	cpc	r1, r25
    2066:	34 f0       	brlt	.+12     	; 0x2074 <_ZN6Button7PressedEi+0x7c>
    2068:	36 c0       	rjmp	.+108    	; 0x20d6 <_ZN6Button7PressedEi+0xde>
    206a:	25 81       	ldd	r18, Z+5	; 0x05
    206c:	36 81       	ldd	r19, Z+6	; 0x06
    206e:	82 17       	cp	r24, r18
    2070:	93 07       	cpc	r25, r19
    2072:	8c f5       	brge	.+98     	; 0x20d6 <_ZN6Button7PressedEi+0xde>
		switch (_port){
    2074:	80 81       	ld	r24, Z
    2076:	83 34       	cpi	r24, 0x43	; 67
    2078:	71 f0       	breq	.+28     	; 0x2096 <_ZN6Button7PressedEi+0x9e>
    207a:	84 34       	cpi	r24, 0x44	; 68
    207c:	b1 f0       	breq	.+44     	; 0x20aa <_ZN6Button7PressedEi+0xb2>
    207e:	82 34       	cpi	r24, 0x42	; 66
    2080:	91 f5       	brne	.+100    	; 0x20e6 <_ZN6Button7PressedEi+0xee>
			case 'B': read_pin = ((1 << _pin) & PINB); break;
    2082:	23 b1       	in	r18, 0x03	; 3
    2084:	30 e0       	ldi	r19, 0x00	; 0
    2086:	01 80       	ldd	r0, Z+1	; 0x01
    2088:	02 c0       	rjmp	.+4      	; 0x208e <_ZN6Button7PressedEi+0x96>
    208a:	35 95       	asr	r19
    208c:	27 95       	ror	r18
    208e:	0a 94       	dec	r0
    2090:	e2 f7       	brpl	.-8      	; 0x208a <_ZN6Button7PressedEi+0x92>
    2092:	21 70       	andi	r18, 0x01	; 1
    2094:	13 c0       	rjmp	.+38     	; 0x20bc <_ZN6Button7PressedEi+0xc4>
			case 'C': read_pin = ((1 << _pin) & PINC); break;
    2096:	26 b1       	in	r18, 0x06	; 6
    2098:	30 e0       	ldi	r19, 0x00	; 0
    209a:	01 80       	ldd	r0, Z+1	; 0x01
    209c:	02 c0       	rjmp	.+4      	; 0x20a2 <_ZN6Button7PressedEi+0xaa>
    209e:	35 95       	asr	r19
    20a0:	27 95       	ror	r18
    20a2:	0a 94       	dec	r0
    20a4:	e2 f7       	brpl	.-8      	; 0x209e <_ZN6Button7PressedEi+0xa6>
    20a6:	21 70       	andi	r18, 0x01	; 1
    20a8:	09 c0       	rjmp	.+18     	; 0x20bc <_ZN6Button7PressedEi+0xc4>
			case 'D': read_pin = ((1 << _pin) & PIND); break;
    20aa:	29 b1       	in	r18, 0x09	; 9
    20ac:	30 e0       	ldi	r19, 0x00	; 0
    20ae:	01 80       	ldd	r0, Z+1	; 0x01
    20b0:	02 c0       	rjmp	.+4      	; 0x20b6 <_ZN6Button7PressedEi+0xbe>
    20b2:	35 95       	asr	r19
    20b4:	27 95       	ror	r18
    20b6:	0a 94       	dec	r0
    20b8:	e2 f7       	brpl	.-8      	; 0x20b2 <_ZN6Button7PressedEi+0xba>
    20ba:	21 70       	andi	r18, 0x01	; 1
    20bc:	8f e9       	ldi	r24, 0x9F	; 159
    20be:	9f e0       	ldi	r25, 0x0F	; 15
    20c0:	01 97       	sbiw	r24, 0x01	; 1
    20c2:	f1 f7       	brne	.-4      	; 0x20c0 <_ZN6Button7PressedEi+0xc8>
    20c4:	00 c0       	rjmp	.+0      	; 0x20c6 <_ZN6Button7PressedEi+0xce>
    20c6:	00 00       	nop
			default: return false;
		}
		_delay_ms(1);
		slice++;
    20c8:	83 81       	ldd	r24, Z+3	; 0x03
    20ca:	94 81       	ldd	r25, Z+4	; 0x04
    20cc:	01 96       	adiw	r24, 0x01	; 1
    20ce:	94 83       	std	Z+4, r25	; 0x04
    20d0:	83 83       	std	Z+3, r24	; 0x03
			debounce--;
		};
	};
	//button anti slice
	slice = 0;
	while((!read_pin)&&(slice<slice_limit)){
    20d2:	22 23       	and	r18, r18
    20d4:	51 f2       	breq	.-108    	; 0x206a <_ZN6Button7PressedEi+0x72>
			default: return false;
		}
		_delay_ms(1);
		slice++;
	}
	slice_limit=100;
    20d6:	84 e6       	ldi	r24, 0x64	; 100
    20d8:	90 e0       	ldi	r25, 0x00	; 0
    20da:	96 83       	std	Z+6, r25	; 0x06
    20dc:	85 83       	std	Z+5, r24	; 0x05
	return true;
    20de:	81 e0       	ldi	r24, 0x01	; 1
    20e0:	08 95       	ret
	if (debounce >= 0){
		switch (_port){
			case 'B': read_pin = ((1 << _pin) & PINB); break;
			case 'C': read_pin = ((1 << _pin) & PINC); break;
			case 'D': read_pin = ((1 << _pin) & PIND); break;
			default: return false;
    20e2:	80 e0       	ldi	r24, 0x00	; 0
    20e4:	08 95       	ret
	while((!read_pin)&&(slice<slice_limit)){
		switch (_port){
			case 'B': read_pin = ((1 << _pin) & PINB); break;
			case 'C': read_pin = ((1 << _pin) & PINC); break;
			case 'D': read_pin = ((1 << _pin) & PIND); break;
			default: return false;
    20e6:	80 e0       	ldi	r24, 0x00	; 0
    20e8:	08 95       	ret
			}else{
			debounce--;
		};
	};
	//button anti slice
	slice = 0;
    20ea:	14 82       	std	Z+4, r1	; 0x04
    20ec:	13 82       	std	Z+3, r1	; 0x03
    20ee:	b7 cf       	rjmp	.-146    	; 0x205e <_ZN6Button7PressedEi+0x66>

000020f0 <_ZN7CarrageC1Ev>:
	chechAll();
}

bool Carrage::IfForseAdjast(){
	
};
    20f0:	cf 93       	push	r28
    20f2:	df 93       	push	r29
    20f4:	ec 01       	movw	r28, r24
    20f6:	0e 94 80 2b 	call	0x5700	; 0x5700 <_ZN5WheelC1Ev>
    20fa:	ce 01       	movw	r24, r28
    20fc:	c2 96       	adiw	r24, 0x32	; 50
    20fe:	0e 94 80 2b 	call	0x5700	; 0x5700 <_ZN5WheelC1Ev>
    2102:	ce 01       	movw	r24, r28
    2104:	8c 59       	subi	r24, 0x9C	; 156
    2106:	9f 4f       	sbci	r25, 0xFF	; 255
    2108:	0e 94 80 2b 	call	0x5700	; 0x5700 <_ZN5WheelC1Ev>
    210c:	ce 01       	movw	r24, r28
    210e:	8a 56       	subi	r24, 0x6A	; 106
    2110:	9f 4f       	sbci	r25, 0xFF	; 255
    2112:	0e 94 80 2b 	call	0x5700	; 0x5700 <_ZN5WheelC1Ev>
    2116:	ce 01       	movw	r24, r28
    2118:	88 53       	subi	r24, 0x38	; 56
    211a:	9f 4f       	sbci	r25, 0xFF	; 255
    211c:	0e 94 88 2a 	call	0x5510	; 0x5510 <_ZN7SupportC1Ev>
    2120:	df 91       	pop	r29
    2122:	cf 91       	pop	r28
    2124:	08 95       	ret

00002126 <_ZN7Carrage12beforeAdjastEv>:

void Carrage::beforeAdjast(){
    2126:	cf 93       	push	r28
    2128:	df 93       	push	r29
    212a:	ec 01       	movw	r28, r24
	Wheel_1.initialHight();
    212c:	0e 94 be 2b 	call	0x577c	; 0x577c <_ZN5Wheel12initialHightEv>
	Wheel_2.initialHight();
    2130:	ce 01       	movw	r24, r28
    2132:	c2 96       	adiw	r24, 0x32	; 50
    2134:	0e 94 be 2b 	call	0x577c	; 0x577c <_ZN5Wheel12initialHightEv>
	Wheel_3.initialHight();
    2138:	ce 01       	movw	r24, r28
    213a:	8c 59       	subi	r24, 0x9C	; 156
    213c:	9f 4f       	sbci	r25, 0xFF	; 255
    213e:	0e 94 be 2b 	call	0x577c	; 0x577c <_ZN5Wheel12initialHightEv>
	Wheel_4.initialHight();
    2142:	ce 01       	movw	r24, r28
    2144:	8a 56       	subi	r24, 0x6A	; 106
    2146:	9f 4f       	sbci	r25, 0xFF	; 255
    2148:	0e 94 be 2b 	call	0x577c	; 0x577c <_ZN5Wheel12initialHightEv>
}
    214c:	df 91       	pop	r29
    214e:	cf 91       	pop	r28
    2150:	08 95       	ret

00002152 <_ZN7Carrage14oldHightUpdateEv>:
	if(!ChekGetLimitsLow()){support.ForceMove(step_force_move,derWheel[1], derWheel[2] ,derWheel[3] ,derWheel[4] );}
	oldHightUpdate();
	
}

void Carrage::oldHightUpdate(){
    2152:	cf 93       	push	r28
    2154:	df 93       	push	r29
    2156:	ec 01       	movw	r28, r24
	Wheel_1.oldHightUpdate();
    2158:	0e 94 57 2d 	call	0x5aae	; 0x5aae <_ZN5Wheel14oldHightUpdateEv>
	Wheel_2.oldHightUpdate();
    215c:	ce 01       	movw	r24, r28
    215e:	c2 96       	adiw	r24, 0x32	; 50
    2160:	0e 94 57 2d 	call	0x5aae	; 0x5aae <_ZN5Wheel14oldHightUpdateEv>
	Wheel_3.oldHightUpdate();
    2164:	ce 01       	movw	r24, r28
    2166:	8c 59       	subi	r24, 0x9C	; 156
    2168:	9f 4f       	sbci	r25, 0xFF	; 255
    216a:	0e 94 57 2d 	call	0x5aae	; 0x5aae <_ZN5Wheel14oldHightUpdateEv>
	Wheel_4.oldHightUpdate();
    216e:	ce 01       	movw	r24, r28
    2170:	8a 56       	subi	r24, 0x6A	; 106
    2172:	9f 4f       	sbci	r25, 0xFF	; 255
    2174:	0e 94 57 2d 	call	0x5aae	; 0x5aae <_ZN5Wheel14oldHightUpdateEv>
}
    2178:	df 91       	pop	r29
    217a:	cf 91       	pop	r28
    217c:	08 95       	ret

0000217e <_ZN7Carrage20IfSelectetMalfuctionEv>:

bool Carrage::IfSelectetMalfuction(){
    217e:	cf 93       	push	r28
    2180:	df 93       	push	r29
    2182:	ec 01       	movw	r28, r24
	return Wheel_1.selected_malfinction()||Wheel_2.selected_malfinction()||Wheel_3.selected_malfinction()||Wheel_4.selected_malfinction();
    2184:	0e 94 17 2e 	call	0x5c2e	; 0x5c2e <_ZN5Wheel20selected_malfinctionEv>
    2188:	81 11       	cpse	r24, r1
    218a:	12 c0       	rjmp	.+36     	; 0x21b0 <_ZN7Carrage20IfSelectetMalfuctionEv+0x32>
    218c:	ce 01       	movw	r24, r28
    218e:	c2 96       	adiw	r24, 0x32	; 50
    2190:	0e 94 17 2e 	call	0x5c2e	; 0x5c2e <_ZN5Wheel20selected_malfinctionEv>
    2194:	81 11       	cpse	r24, r1
    2196:	0c c0       	rjmp	.+24     	; 0x21b0 <_ZN7Carrage20IfSelectetMalfuctionEv+0x32>
    2198:	ce 01       	movw	r24, r28
    219a:	8c 59       	subi	r24, 0x9C	; 156
    219c:	9f 4f       	sbci	r25, 0xFF	; 255
    219e:	0e 94 17 2e 	call	0x5c2e	; 0x5c2e <_ZN5Wheel20selected_malfinctionEv>
    21a2:	81 11       	cpse	r24, r1
    21a4:	05 c0       	rjmp	.+10     	; 0x21b0 <_ZN7Carrage20IfSelectetMalfuctionEv+0x32>
    21a6:	ce 01       	movw	r24, r28
    21a8:	8a 56       	subi	r24, 0x6A	; 106
    21aa:	9f 4f       	sbci	r25, 0xFF	; 255
    21ac:	0e 94 17 2e 	call	0x5c2e	; 0x5c2e <_ZN5Wheel20selected_malfinctionEv>
}
    21b0:	df 91       	pop	r29
    21b2:	cf 91       	pop	r28
    21b4:	08 95       	ret

000021b6 <_ZN7Carrage9SetLimitsEv>:


void Carrage::SetLimits(){
    21b6:	cf 93       	push	r28
    21b8:	df 93       	push	r29
    21ba:	fc 01       	movw	r30, r24
	Wheel_1.maxHight = max;
    21bc:	dc 01       	movw	r26, r24
    21be:	a2 52       	subi	r26, 0x22	; 34
    21c0:	bf 4f       	sbci	r27, 0xFF	; 255
    21c2:	8d 91       	ld	r24, X+
    21c4:	9d 91       	ld	r25, X+
    21c6:	0d 90       	ld	r0, X+
    21c8:	bc 91       	ld	r27, X
    21ca:	a0 2d       	mov	r26, r0
    21cc:	86 83       	std	Z+6, r24	; 0x06
    21ce:	97 83       	std	Z+7, r25	; 0x07
    21d0:	a0 87       	std	Z+8, r26	; 0x08
    21d2:	b1 87       	std	Z+9, r27	; 0x09
	Wheel_2.maxHight = max;
    21d4:	80 af       	std	Z+56, r24	; 0x38
    21d6:	91 af       	std	Z+57, r25	; 0x39
    21d8:	a2 af       	std	Z+58, r26	; 0x3a
    21da:	b3 af       	std	Z+59, r27	; 0x3b
	Wheel_3.maxHight = max;
    21dc:	ef 01       	movw	r28, r30
    21de:	c6 59       	subi	r28, 0x96	; 150
    21e0:	df 4f       	sbci	r29, 0xFF	; 255
    21e2:	88 83       	st	Y, r24
    21e4:	99 83       	std	Y+1, r25	; 0x01
    21e6:	aa 83       	std	Y+2, r26	; 0x02
    21e8:	bb 83       	std	Y+3, r27	; 0x03
	Wheel_4.maxHight = max;
    21ea:	e2 96       	adiw	r28, 0x32	; 50
    21ec:	88 83       	st	Y, r24
    21ee:	99 83       	std	Y+1, r25	; 0x01
    21f0:	aa 83       	std	Y+2, r26	; 0x02
    21f2:	bb 83       	std	Y+3, r27	; 0x03
	
	Wheel_1.minHight = min;
    21f4:	df 01       	movw	r26, r30
    21f6:	a6 52       	subi	r26, 0x26	; 38
    21f8:	bf 4f       	sbci	r27, 0xFF	; 255
    21fa:	8d 91       	ld	r24, X+
    21fc:	9d 91       	ld	r25, X+
    21fe:	0d 90       	ld	r0, X+
    2200:	bc 91       	ld	r27, X
    2202:	a0 2d       	mov	r26, r0
    2204:	82 87       	std	Z+10, r24	; 0x0a
    2206:	93 87       	std	Z+11, r25	; 0x0b
    2208:	a4 87       	std	Z+12, r26	; 0x0c
    220a:	b5 87       	std	Z+13, r27	; 0x0d
	Wheel_2.minHight = min;
    220c:	84 af       	std	Z+60, r24	; 0x3c
    220e:	95 af       	std	Z+61, r25	; 0x3d
    2210:	a6 af       	std	Z+62, r26	; 0x3e
    2212:	b7 af       	std	Z+63, r27	; 0x3f
	Wheel_3.minHight = min;
    2214:	ae 97       	sbiw	r28, 0x2e	; 46
    2216:	88 83       	st	Y, r24
    2218:	99 83       	std	Y+1, r25	; 0x01
    221a:	aa 83       	std	Y+2, r26	; 0x02
    221c:	bb 83       	std	Y+3, r27	; 0x03
	Wheel_4.minHight = min;
    221e:	e0 56       	subi	r30, 0x60	; 96
    2220:	ff 4f       	sbci	r31, 0xFF	; 255
    2222:	80 83       	st	Z, r24
    2224:	91 83       	std	Z+1, r25	; 0x01
    2226:	a2 83       	std	Z+2, r26	; 0x02
    2228:	b3 83       	std	Z+3, r27	; 0x03
}
    222a:	df 91       	pop	r29
    222c:	cf 91       	pop	r28
    222e:	08 95       	ret

00002230 <_ZN7Carrage19CheckLimitsSetHightEv>:

void Carrage::CheckLimitsSetHight(){
    2230:	cf 93       	push	r28
    2232:	df 93       	push	r29
    2234:	ec 01       	movw	r28, r24
	Wheel_1.SetLimitsSetHight();
    2236:	0e 94 25 2d 	call	0x5a4a	; 0x5a4a <_ZN5Wheel17SetLimitsSetHightEv>
	Wheel_2.SetLimitsSetHight();
    223a:	ce 01       	movw	r24, r28
    223c:	c2 96       	adiw	r24, 0x32	; 50
    223e:	0e 94 25 2d 	call	0x5a4a	; 0x5a4a <_ZN5Wheel17SetLimitsSetHightEv>
	Wheel_3.SetLimitsSetHight();
    2242:	ce 01       	movw	r24, r28
    2244:	8c 59       	subi	r24, 0x9C	; 156
    2246:	9f 4f       	sbci	r25, 0xFF	; 255
    2248:	0e 94 25 2d 	call	0x5a4a	; 0x5a4a <_ZN5Wheel17SetLimitsSetHightEv>
	Wheel_4.SetLimitsSetHight();
    224c:	ce 01       	movw	r24, r28
    224e:	8a 56       	subi	r24, 0x6A	; 106
    2250:	9f 4f       	sbci	r25, 0xFF	; 255
    2252:	0e 94 25 2d 	call	0x5a4a	; 0x5a4a <_ZN5Wheel17SetLimitsSetHightEv>
}
    2256:	df 91       	pop	r29
    2258:	cf 91       	pop	r28
    225a:	08 95       	ret

0000225c <_ZN7Carrage8chechAllEv>:
			if  (checked[1]&&checked[2]&&checked[3]&&checked[4]){return true;}else{flagNewMalfuction = true;return false;}		
		}
		return true;
}

bool Carrage::chechAll(){
    225c:	2f 92       	push	r2
    225e:	3f 92       	push	r3
    2260:	4f 92       	push	r4
    2262:	5f 92       	push	r5
    2264:	6f 92       	push	r6
    2266:	7f 92       	push	r7
    2268:	8f 92       	push	r8
    226a:	9f 92       	push	r9
    226c:	af 92       	push	r10
    226e:	bf 92       	push	r11
    2270:	cf 92       	push	r12
    2272:	df 92       	push	r13
    2274:	ef 92       	push	r14
    2276:	ff 92       	push	r15
    2278:	0f 93       	push	r16
    227a:	1f 93       	push	r17
    227c:	cf 93       	push	r28
    227e:	df 93       	push	r29
    2280:	00 d0       	rcall	.+0      	; 0x2282 <_ZN7Carrage8chechAllEv+0x26>
    2282:	00 d0       	rcall	.+0      	; 0x2284 <_ZN7Carrage8chechAllEv+0x28>
    2284:	00 d0       	rcall	.+0      	; 0x2286 <_ZN7Carrage8chechAllEv+0x2a>
    2286:	cd b7       	in	r28, 0x3d	; 61
    2288:	de b7       	in	r29, 0x3e	; 62
    228a:	9e 83       	std	Y+6, r25	; 0x06
    228c:	8d 83       	std	Y+5, r24	; 0x05
	Wheel_1.get_hight();
    228e:	0e 94 84 2b 	call	0x5708	; 0x5708 <_ZN5Wheel9get_hightEv>
	Wheel_2.get_hight();
    2292:	6d 80       	ldd	r6, Y+5	; 0x05
    2294:	7e 80       	ldd	r7, Y+6	; 0x06
    2296:	82 e3       	ldi	r24, 0x32	; 50
    2298:	68 0e       	add	r6, r24
    229a:	71 1c       	adc	r7, r1
    229c:	c3 01       	movw	r24, r6
    229e:	0e 94 84 2b 	call	0x5708	; 0x5708 <_ZN5Wheel9get_hightEv>
	Wheel_3.get_hight();
    22a2:	ed 81       	ldd	r30, Y+5	; 0x05
    22a4:	fe 81       	ldd	r31, Y+6	; 0x06
    22a6:	ec 59       	subi	r30, 0x9C	; 156
    22a8:	ff 4f       	sbci	r31, 0xFF	; 255
    22aa:	fa 83       	std	Y+2, r31	; 0x02
    22ac:	e9 83       	std	Y+1, r30	; 0x01
    22ae:	cf 01       	movw	r24, r30
    22b0:	0e 94 84 2b 	call	0x5708	; 0x5708 <_ZN5Wheel9get_hightEv>
	Wheel_4.get_hight();
    22b4:	4d 80       	ldd	r4, Y+5	; 0x05
    22b6:	5e 80       	ldd	r5, Y+6	; 0x06
    22b8:	f6 e9       	ldi	r31, 0x96	; 150
    22ba:	4f 0e       	add	r4, r31
    22bc:	51 1c       	adc	r5, r1
    22be:	c2 01       	movw	r24, r4
    22c0:	0e 94 84 2b 	call	0x5708	; 0x5708 <_ZN5Wheel9get_hightEv>
	support.Adjast(10, inertion ,1, 1 ,1 ,1 );
    22c4:	8d 81       	ldd	r24, Y+5	; 0x05
    22c6:	9e 81       	ldd	r25, Y+6	; 0x06
    22c8:	88 53       	subi	r24, 0x38	; 56
    22ca:	9f 4f       	sbci	r25, 0xFF	; 255
    22cc:	9c 83       	std	Y+4, r25	; 0x04
    22ce:	8b 83       	std	Y+3, r24	; 0x03
    22d0:	2d 80       	ldd	r2, Y+5	; 0x05
    22d2:	3e 80       	ldd	r3, Y+6	; 0x06
    22d4:	9e ec       	ldi	r25, 0xCE	; 206
    22d6:	29 0e       	add	r2, r25
    22d8:	31 1c       	adc	r3, r1
    22da:	f1 01       	movw	r30, r2
    22dc:	20 81       	ld	r18, Z
    22de:	31 81       	ldd	r19, Z+1	; 0x01
    22e0:	42 81       	ldd	r20, Z+2	; 0x02
    22e2:	53 81       	ldd	r21, Z+3	; 0x03
    22e4:	aa 24       	eor	r10, r10
    22e6:	a3 94       	inc	r10
    22e8:	b1 2c       	mov	r11, r1
    22ea:	cc 24       	eor	r12, r12
    22ec:	c3 94       	inc	r12
    22ee:	d1 2c       	mov	r13, r1
    22f0:	ee 24       	eor	r14, r14
    22f2:	e3 94       	inc	r14
    22f4:	f1 2c       	mov	r15, r1
    22f6:	01 e0       	ldi	r16, 0x01	; 1
    22f8:	10 e0       	ldi	r17, 0x00	; 0
    22fa:	6a e0       	ldi	r22, 0x0A	; 10
    22fc:	70 e0       	ldi	r23, 0x00	; 0
    22fe:	8b 81       	ldd	r24, Y+3	; 0x03
    2300:	9c 81       	ldd	r25, Y+4	; 0x04
    2302:	0e 94 91 2a 	call	0x5522	; 0x5522 <_ZN7Support6AdjastEifiiii>
	checked[1]=Wheel_1.Check();	
    2306:	8d 81       	ldd	r24, Y+5	; 0x05
    2308:	9e 81       	ldd	r25, Y+6	; 0x06
    230a:	0e 94 e2 2c 	call	0x59c4	; 0x59c4 <_ZN5Wheel5CheckEv>
    230e:	8d 80       	ldd	r8, Y+5	; 0x05
    2310:	9e 80       	ldd	r9, Y+6	; 0x06
    2312:	fe ef       	ldi	r31, 0xFE	; 254
    2314:	8f 0e       	add	r8, r31
    2316:	91 1c       	adc	r9, r1
    2318:	90 e0       	ldi	r25, 0x00	; 0
    231a:	f4 01       	movw	r30, r8
    231c:	91 83       	std	Z+1, r25	; 0x01
    231e:	80 83       	st	Z, r24
	checked[2]=Wheel_2.Check();
    2320:	c3 01       	movw	r24, r6
    2322:	0e 94 e2 2c 	call	0x59c4	; 0x59c4 <_ZN5Wheel5CheckEv>
    2326:	ed 81       	ldd	r30, Y+5	; 0x05
    2328:	fe 81       	ldd	r31, Y+6	; 0x06
    232a:	f3 95       	inc	r31
    232c:	90 e0       	ldi	r25, 0x00	; 0
    232e:	91 83       	std	Z+1, r25	; 0x01
    2330:	80 83       	st	Z, r24
	checked[3]=Wheel_3.Check();
    2332:	89 81       	ldd	r24, Y+1	; 0x01
    2334:	9a 81       	ldd	r25, Y+2	; 0x02
    2336:	0e 94 e2 2c 	call	0x59c4	; 0x59c4 <_ZN5Wheel5CheckEv>
    233a:	ed 81       	ldd	r30, Y+5	; 0x05
    233c:	fe 81       	ldd	r31, Y+6	; 0x06
    233e:	ee 5f       	subi	r30, 0xFE	; 254
    2340:	fe 4f       	sbci	r31, 0xFE	; 254
    2342:	90 e0       	ldi	r25, 0x00	; 0
    2344:	91 83       	std	Z+1, r25	; 0x01
    2346:	80 83       	st	Z, r24
	checked[4]=Wheel_4.Check();
    2348:	c2 01       	movw	r24, r4
    234a:	0e 94 e2 2c 	call	0x59c4	; 0x59c4 <_ZN5Wheel5CheckEv>
    234e:	ed 81       	ldd	r30, Y+5	; 0x05
    2350:	fe 81       	ldd	r31, Y+6	; 0x06
    2352:	ec 5f       	subi	r30, 0xFC	; 252
    2354:	fe 4f       	sbci	r31, 0xFE	; 254
    2356:	90 e0       	ldi	r25, 0x00	; 0
    2358:	91 83       	std	Z+1, r25	; 0x01
    235a:	80 83       	st	Z, r24
	support.Adjast(10, inertion ,2, 2 ,2 ,2 );
    235c:	f1 01       	movw	r30, r2
    235e:	20 81       	ld	r18, Z
    2360:	31 81       	ldd	r19, Z+1	; 0x01
    2362:	42 81       	ldd	r20, Z+2	; 0x02
    2364:	53 81       	ldd	r21, Z+3	; 0x03
    2366:	68 94       	set
    2368:	aa 24       	eor	r10, r10
    236a:	a1 f8       	bld	r10, 1
    236c:	b1 2c       	mov	r11, r1
    236e:	68 94       	set
    2370:	cc 24       	eor	r12, r12
    2372:	c1 f8       	bld	r12, 1
    2374:	d1 2c       	mov	r13, r1
    2376:	68 94       	set
    2378:	ee 24       	eor	r14, r14
    237a:	e1 f8       	bld	r14, 1
    237c:	f1 2c       	mov	r15, r1
    237e:	02 e0       	ldi	r16, 0x02	; 2
    2380:	10 e0       	ldi	r17, 0x00	; 0
    2382:	6a e0       	ldi	r22, 0x0A	; 10
    2384:	70 e0       	ldi	r23, 0x00	; 0
    2386:	8b 81       	ldd	r24, Y+3	; 0x03
    2388:	9c 81       	ldd	r25, Y+4	; 0x04
    238a:	0e 94 91 2a 	call	0x5522	; 0x5522 <_ZN7Support6AdjastEifiiii>
	if  (checked[1]&&checked[2]&&checked[3]&&checked[4]){return true;}else{flagNewMalfuction = true;return false;}
    238e:	f4 01       	movw	r30, r8
    2390:	80 81       	ld	r24, Z
    2392:	91 81       	ldd	r25, Z+1	; 0x01
    2394:	89 2b       	or	r24, r25
    2396:	b9 f0       	breq	.+46     	; 0x23c6 <_ZN7Carrage8chechAllEv+0x16a>
    2398:	ed 81       	ldd	r30, Y+5	; 0x05
    239a:	fe 81       	ldd	r31, Y+6	; 0x06
    239c:	f3 95       	inc	r31
    239e:	80 81       	ld	r24, Z
    23a0:	91 81       	ldd	r25, Z+1	; 0x01
    23a2:	89 2b       	or	r24, r25
    23a4:	81 f0       	breq	.+32     	; 0x23c6 <_ZN7Carrage8chechAllEv+0x16a>
    23a6:	ed 81       	ldd	r30, Y+5	; 0x05
    23a8:	fe 81       	ldd	r31, Y+6	; 0x06
    23aa:	ee 5f       	subi	r30, 0xFE	; 254
    23ac:	fe 4f       	sbci	r31, 0xFE	; 254
    23ae:	80 81       	ld	r24, Z
    23b0:	91 81       	ldd	r25, Z+1	; 0x01
    23b2:	89 2b       	or	r24, r25
    23b4:	41 f0       	breq	.+16     	; 0x23c6 <_ZN7Carrage8chechAllEv+0x16a>
    23b6:	ed 81       	ldd	r30, Y+5	; 0x05
    23b8:	fe 81       	ldd	r31, Y+6	; 0x06
    23ba:	ec 5f       	subi	r30, 0xFC	; 252
    23bc:	fe 4f       	sbci	r31, 0xFE	; 254
    23be:	80 81       	ld	r24, Z
    23c0:	91 81       	ldd	r25, Z+1	; 0x01
    23c2:	89 2b       	or	r24, r25
    23c4:	61 f4       	brne	.+24     	; 0x23de <_ZN7Carrage8chechAllEv+0x182>
    23c6:	8d 81       	ldd	r24, Y+5	; 0x05
    23c8:	9e 81       	ldd	r25, Y+6	; 0x06
    23ca:	84 51       	subi	r24, 0x14	; 20
    23cc:	9f 4f       	sbci	r25, 0xFF	; 255
    23ce:	9a 83       	std	Y+2, r25	; 0x02
    23d0:	89 83       	std	Y+1, r24	; 0x01
    23d2:	81 e0       	ldi	r24, 0x01	; 1
    23d4:	e9 81       	ldd	r30, Y+1	; 0x01
    23d6:	fa 81       	ldd	r31, Y+2	; 0x02
    23d8:	80 83       	st	Z, r24
    23da:	80 e0       	ldi	r24, 0x00	; 0
    23dc:	01 c0       	rjmp	.+2      	; 0x23e0 <_ZN7Carrage8chechAllEv+0x184>
    23de:	81 e0       	ldi	r24, 0x01	; 1
	
}
    23e0:	26 96       	adiw	r28, 0x06	; 6
    23e2:	0f b6       	in	r0, 0x3f	; 63
    23e4:	f8 94       	cli
    23e6:	de bf       	out	0x3e, r29	; 62
    23e8:	0f be       	out	0x3f, r0	; 63
    23ea:	cd bf       	out	0x3d, r28	; 61
    23ec:	df 91       	pop	r29
    23ee:	cf 91       	pop	r28
    23f0:	1f 91       	pop	r17
    23f2:	0f 91       	pop	r16
    23f4:	ff 90       	pop	r15
    23f6:	ef 90       	pop	r14
    23f8:	df 90       	pop	r13
    23fa:	cf 90       	pop	r12
    23fc:	bf 90       	pop	r11
    23fe:	af 90       	pop	r10
    2400:	9f 90       	pop	r9
    2402:	8f 90       	pop	r8
    2404:	7f 90       	pop	r7
    2406:	6f 90       	pop	r6
    2408:	5f 90       	pop	r5
    240a:	4f 90       	pop	r4
    240c:	3f 90       	pop	r3
    240e:	2f 90       	pop	r2
    2410:	08 95       	ret

00002412 <_ZN7Carrage4InitEv>:
// default constructor
Carrage::Carrage()
{
} //Carrage

void Carrage::Init(){
    2412:	cf 93       	push	r28
    2414:	df 93       	push	r29
    2416:	ec 01       	movw	r28, r24
	Wheel_1.Init(1);
    2418:	61 e0       	ldi	r22, 0x01	; 1
    241a:	70 e0       	ldi	r23, 0x00	; 0
    241c:	0e 94 93 2b 	call	0x5726	; 0x5726 <_ZN5Wheel4InitEi>
	Wheel_2.Init(2);
    2420:	62 e0       	ldi	r22, 0x02	; 2
    2422:	70 e0       	ldi	r23, 0x00	; 0
    2424:	ce 01       	movw	r24, r28
    2426:	c2 96       	adiw	r24, 0x32	; 50
    2428:	0e 94 93 2b 	call	0x5726	; 0x5726 <_ZN5Wheel4InitEi>
	Wheel_3.Init(3);
    242c:	63 e0       	ldi	r22, 0x03	; 3
    242e:	70 e0       	ldi	r23, 0x00	; 0
    2430:	ce 01       	movw	r24, r28
    2432:	8c 59       	subi	r24, 0x9C	; 156
    2434:	9f 4f       	sbci	r25, 0xFF	; 255
    2436:	0e 94 93 2b 	call	0x5726	; 0x5726 <_ZN5Wheel4InitEi>
	Wheel_4.Init(4);
    243a:	64 e0       	ldi	r22, 0x04	; 4
    243c:	70 e0       	ldi	r23, 0x00	; 0
    243e:	ce 01       	movw	r24, r28
    2440:	8a 56       	subi	r24, 0x6A	; 106
    2442:	9f 4f       	sbci	r25, 0xFF	; 255
    2444:	0e 94 93 2b 	call	0x5726	; 0x5726 <_ZN5Wheel4InitEi>
	support.Init();
    2448:	ce 01       	movw	r24, r28
    244a:	88 53       	subi	r24, 0x38	; 56
    244c:	9f 4f       	sbci	r25, 0xFF	; 255
    244e:	0e 94 89 2a 	call	0x5512	; 0x5512 <_ZN7Support4InitEv>
	_step =1;
    2452:	fe 01       	movw	r30, r28
    2454:	e8 5f       	subi	r30, 0xF8	; 248
    2456:	fe 4f       	sbci	r31, 0xFE	; 254
    2458:	81 e0       	ldi	r24, 0x01	; 1
    245a:	90 e0       	ldi	r25, 0x00	; 0
    245c:	91 83       	std	Z+1, r25	; 0x01
    245e:	80 83       	st	Z, r24
	chechAll();
    2460:	ce 01       	movw	r24, r28
    2462:	0e 94 2e 11 	call	0x225c	; 0x225c <_ZN7Carrage8chechAllEv>
}
    2466:	df 91       	pop	r29
    2468:	cf 91       	pop	r28
    246a:	08 95       	ret

0000246c <_ZN7Carrage7getStepEv>:
	support.Adjast(10, inertion ,2, 2 ,2 ,2 );
	if  (checked[1]&&checked[2]&&checked[3]&&checked[4]){return true;}else{flagNewMalfuction = true;return false;}
	
}

int Carrage::getStep(){
    246c:	cf 93       	push	r28
    246e:	df 93       	push	r29
	int step = 0;
	int i;
	sort_array[0] = Wheel_1.step;
    2470:	fc 01       	movw	r30, r24
    2472:	e1 51       	subi	r30, 0x11	; 17
    2474:	ff 4f       	sbci	r31, 0xFF	; 255
    2476:	dc 01       	movw	r26, r24
    2478:	97 96       	adiw	r26, 0x27	; 39
    247a:	2d 91       	ld	r18, X+
    247c:	3c 91       	ld	r19, X
    247e:	98 97       	sbiw	r26, 0x28	; 40
    2480:	31 83       	std	Z+1, r19	; 0x01
    2482:	20 83       	st	Z, r18
	sort_array[1] = Wheel_2.step;
    2484:	af 50       	subi	r26, 0x0F	; 15
    2486:	bf 4f       	sbci	r27, 0xFF	; 255
    2488:	ec 01       	movw	r28, r24
    248a:	c7 5a       	subi	r28, 0xA7	; 167
    248c:	df 4f       	sbci	r29, 0xFF	; 255
    248e:	28 81       	ld	r18, Y
    2490:	39 81       	ldd	r19, Y+1	; 0x01
    2492:	11 96       	adiw	r26, 0x01	; 1
    2494:	3c 93       	st	X, r19
    2496:	2e 93       	st	-X, r18
	sort_array[2] = Wheel_3.step;
    2498:	12 96       	adiw	r26, 0x02	; 2
    249a:	e2 96       	adiw	r28, 0x32	; 50
    249c:	28 81       	ld	r18, Y
    249e:	39 81       	ldd	r19, Y+1	; 0x01
    24a0:	11 96       	adiw	r26, 0x01	; 1
    24a2:	3c 93       	st	X, r19
    24a4:	2e 93       	st	-X, r18
	sort_array[3] = Wheel_4.step;
    24a6:	12 96       	adiw	r26, 0x02	; 2
    24a8:	e2 96       	adiw	r28, 0x32	; 50
    24aa:	28 81       	ld	r18, Y
    24ac:	39 81       	ldd	r19, Y+1	; 0x01
    24ae:	2d 93       	st	X+, r18
    24b0:	3c 93       	st	X, r19
    24b2:	df 01       	movw	r26, r30
    24b4:	ac 01       	movw	r20, r24
    24b6:	49 50       	subi	r20, 0x09	; 9
    24b8:	5f 4f       	sbci	r21, 0xFF	; 255
	i = 0;
	while(i<4){
		if (sort_array[i]>0){step = sort_array[i];i=5;}
    24ba:	61 91       	ld	r22, Z+
    24bc:	71 91       	ld	r23, Z+
    24be:	16 16       	cp	r1, r22
    24c0:	17 06       	cpc	r1, r23
    24c2:	24 f0       	brlt	.+8      	; 0x24cc <_ZN7Carrage7getStepEv+0x60>
	sort_array[0] = Wheel_1.step;
	sort_array[1] = Wheel_2.step;
	sort_array[2] = Wheel_3.step;
	sort_array[3] = Wheel_4.step;
	i = 0;
	while(i<4){
    24c4:	e4 17       	cp	r30, r20
    24c6:	f5 07       	cpc	r31, r21
    24c8:	c1 f7       	brne	.-16     	; 0x24ba <_ZN7Carrage7getStepEv+0x4e>
    24ca:	27 c0       	rjmp	.+78     	; 0x251a <_ZN7Carrage7getStepEv+0xae>
		if (sort_array[i]>0){step = sort_array[i];i=5;}
		i++;
	};
	
	if (step == 0){return 0;};
    24cc:	61 15       	cp	r22, r1
    24ce:	71 05       	cpc	r23, r1
    24d0:	39 f1       	breq	.+78     	; 0x2520 <_ZN7Carrage7getStepEv+0xb4>
		
	i = 0;	
	while(i<4){
		if ( sort_array[i] > 0){
    24d2:	2d 91       	ld	r18, X+
    24d4:	3d 91       	ld	r19, X+
    24d6:	12 16       	cp	r1, r18
    24d8:	13 06       	cpc	r1, r19
    24da:	24 f4       	brge	.+8      	; 0x24e4 <_ZN7Carrage7getStepEv+0x78>
    24dc:	26 17       	cp	r18, r22
    24de:	37 07       	cpc	r19, r23
    24e0:	0c f4       	brge	.+2      	; 0x24e4 <_ZN7Carrage7getStepEv+0x78>
    24e2:	b9 01       	movw	r22, r18
	};
	
	if (step == 0){return 0;};
		
	i = 0;	
	while(i<4){
    24e4:	a4 17       	cp	r26, r20
    24e6:	b5 07       	cpc	r27, r21
    24e8:	a1 f7       	brne	.-24     	; 0x24d2 <_ZN7Carrage7getStepEv+0x66>
		i++;
	}
	//step = sort_array[0];
	step=step;
	if (step>50){step = 50;}
	return step*tunning;
    24ea:	63 33       	cpi	r22, 0x33	; 51
    24ec:	71 05       	cpc	r23, r1
    24ee:	14 f0       	brlt	.+4      	; 0x24f4 <_ZN7Carrage7getStepEv+0x88>
    24f0:	62 e3       	ldi	r22, 0x32	; 50
    24f2:	70 e0       	ldi	r23, 0x00	; 0
    24f4:	ec 01       	movw	r28, r24
    24f6:	07 2e       	mov	r0, r23
    24f8:	00 0c       	add	r0, r0
    24fa:	88 0b       	sbc	r24, r24
    24fc:	99 0b       	sbc	r25, r25
    24fe:	0e 94 ae 2f 	call	0x5f5c	; 0x5f5c <__floatsisf>
    2502:	c6 53       	subi	r28, 0x36	; 54
    2504:	df 4f       	sbci	r29, 0xFF	; 255
    2506:	28 81       	ld	r18, Y
    2508:	39 81       	ldd	r19, Y+1	; 0x01
    250a:	4a 81       	ldd	r20, Y+2	; 0x02
    250c:	5b 81       	ldd	r21, Y+3	; 0x03
    250e:	0e 94 63 30 	call	0x60c6	; 0x60c6 <__mulsf3>
    2512:	0e 94 76 2f 	call	0x5eec	; 0x5eec <__fixsfsi>
    2516:	cb 01       	movw	r24, r22
    2518:	05 c0       	rjmp	.+10     	; 0x2524 <_ZN7Carrage7getStepEv+0xb8>
	while(i<4){
		if (sort_array[i]>0){step = sort_array[i];i=5;}
		i++;
	};
	
	if (step == 0){return 0;};
    251a:	80 e0       	ldi	r24, 0x00	; 0
    251c:	90 e0       	ldi	r25, 0x00	; 0
    251e:	02 c0       	rjmp	.+4      	; 0x2524 <_ZN7Carrage7getStepEv+0xb8>
    2520:	80 e0       	ldi	r24, 0x00	; 0
    2522:	90 e0       	ldi	r25, 0x00	; 0
	}
	//step = sort_array[0];
	step=step;
	if (step>50){step = 50;}
	return step*tunning;
} 
    2524:	df 91       	pop	r29
    2526:	cf 91       	pop	r28
    2528:	08 95       	ret

0000252a <_ZN7Carrage20Fast_print_LSD_hightE5Wheel>:

void Carrage::Fast_print_LSD_hight(Wheel wheel){
    252a:	cf 92       	push	r12
    252c:	df 92       	push	r13
    252e:	ef 92       	push	r14
    2530:	ff 92       	push	r15
    2532:	0f 93       	push	r16
    2534:	1f 93       	push	r17
    2536:	cf 93       	push	r28
    2538:	df 93       	push	r29
    253a:	cd b7       	in	r28, 0x3d	; 61
    253c:	de b7       	in	r29, 0x3e	; 62
	int hight_pos_x;
	int hight_pos_y;
	int n = wheel.number;
	int Char_wheel[6];
	//get position
	switch(n){
    253e:	8b 85       	ldd	r24, Y+11	; 0x0b
    2540:	9c 85       	ldd	r25, Y+12	; 0x0c
    2542:	82 30       	cpi	r24, 0x02	; 2
    2544:	91 05       	cpc	r25, r1
    2546:	71 f0       	breq	.+28     	; 0x2564 <_ZN7Carrage20Fast_print_LSD_hightE5Wheel+0x3a>
    2548:	1c f4       	brge	.+6      	; 0x2550 <_ZN7Carrage20Fast_print_LSD_hightE5Wheel+0x26>
    254a:	01 97       	sbiw	r24, 0x01	; 1
    254c:	39 f0       	breq	.+14     	; 0x255c <_ZN7Carrage20Fast_print_LSD_hightE5Wheel+0x32>
    254e:	1d c0       	rjmp	.+58     	; 0x258a <_ZN7Carrage20Fast_print_LSD_hightE5Wheel+0x60>
    2550:	83 30       	cpi	r24, 0x03	; 3
    2552:	91 05       	cpc	r25, r1
    2554:	71 f0       	breq	.+28     	; 0x2572 <_ZN7Carrage20Fast_print_LSD_hightE5Wheel+0x48>
    2556:	04 97       	sbiw	r24, 0x04	; 4
    2558:	a1 f0       	breq	.+40     	; 0x2582 <_ZN7Carrage20Fast_print_LSD_hightE5Wheel+0x58>
    255a:	17 c0       	rjmp	.+46     	; 0x258a <_ZN7Carrage20Fast_print_LSD_hightE5Wheel+0x60>
		case 1:hight_pos_x = 0; hight_pos_y = 1 ; break;
    255c:	cc 24       	eor	r12, r12
    255e:	c3 94       	inc	r12
    2560:	d1 2c       	mov	r13, r1
    2562:	13 c0       	rjmp	.+38     	; 0x258a <_ZN7Carrage20Fast_print_LSD_hightE5Wheel+0x60>
		case 2:hight_pos_x = 11; hight_pos_y = 1 ;break;
    2564:	cc 24       	eor	r12, r12
    2566:	c3 94       	inc	r12
    2568:	0f 2e       	mov	r0, r31
    256a:	fb e0       	ldi	r31, 0x0B	; 11
    256c:	df 2e       	mov	r13, r31
    256e:	f0 2d       	mov	r31, r0
    2570:	0c c0       	rjmp	.+24     	; 0x258a <_ZN7Carrage20Fast_print_LSD_hightE5Wheel+0x60>
		case 3:hight_pos_x = 11; hight_pos_y = 4 ;break;
    2572:	68 94       	set
    2574:	cc 24       	eor	r12, r12
    2576:	c2 f8       	bld	r12, 2
    2578:	0f 2e       	mov	r0, r31
    257a:	fb e0       	ldi	r31, 0x0B	; 11
    257c:	df 2e       	mov	r13, r31
    257e:	f0 2d       	mov	r31, r0
    2580:	04 c0       	rjmp	.+8      	; 0x258a <_ZN7Carrage20Fast_print_LSD_hightE5Wheel+0x60>
		case 4:hight_pos_x = 0; hight_pos_y = 4 ;break;
    2582:	68 94       	set
    2584:	cc 24       	eor	r12, r12
    2586:	c2 f8       	bld	r12, 2
    2588:	d1 2c       	mov	r13, r1
	}
	float hight = wheel.sethight;
	//Lcd_printf2(hight_pos_x, hight_pos_y-1, FONT_1X, hight, 2);
	hight = wheel.get_hight();
    258a:	ce 01       	movw	r24, r28
    258c:	0b 96       	adiw	r24, 0x0b	; 11
    258e:	0e 94 84 2b 	call	0x5708	; 0x5708 <_ZN5Wheel9get_hightEv>
    2592:	8b 01       	movw	r16, r22
    2594:	9c 01       	movw	r18, r24

	Lcd_printf2(hight_pos_x, hight_pos_y, FONT_1X, hight, 2);
    2596:	68 94       	set
    2598:	ee 24       	eor	r14, r14
    259a:	e1 f8       	bld	r14, 1
    259c:	f1 2c       	mov	r15, r1
    259e:	41 e0       	ldi	r20, 0x01	; 1
    25a0:	6c 2d       	mov	r22, r12
    25a2:	8d 2d       	mov	r24, r13
    25a4:	0e 94 92 1c 	call	0x3924	; 0x3924 <_Z11Lcd_printf2hh11LcdFontSizefi>
	Lcd_update();
    25a8:	0e 94 7d 1a 	call	0x34fa	; 0x34fa <_Z10Lcd_updatev>
}
    25ac:	df 91       	pop	r29
    25ae:	cf 91       	pop	r28
    25b0:	1f 91       	pop	r17
    25b2:	0f 91       	pop	r16
    25b4:	ff 90       	pop	r15
    25b6:	ef 90       	pop	r14
    25b8:	df 90       	pop	r13
    25ba:	cf 90       	pop	r12
    25bc:	08 95       	ret

000025be <_ZN7Carrage17chechWheelsBeforeEv>:
		
		
	}
}

bool Carrage::chechWheelsBefore(){
    25be:	2f 92       	push	r2
    25c0:	3f 92       	push	r3
    25c2:	4f 92       	push	r4
    25c4:	5f 92       	push	r5
    25c6:	6f 92       	push	r6
    25c8:	7f 92       	push	r7
    25ca:	8f 92       	push	r8
    25cc:	9f 92       	push	r9
    25ce:	af 92       	push	r10
    25d0:	bf 92       	push	r11
    25d2:	cf 92       	push	r12
    25d4:	df 92       	push	r13
    25d6:	ef 92       	push	r14
    25d8:	ff 92       	push	r15
    25da:	0f 93       	push	r16
    25dc:	1f 93       	push	r17
    25de:	cf 93       	push	r28
    25e0:	df 93       	push	r29
    25e2:	ec 01       	movw	r28, r24
		
		derWheel[1] = Wheel_1.takeDerection(accuracy);
    25e4:	8c 01       	movw	r16, r24
    25e6:	0a 52       	subi	r16, 0x2A	; 42
    25e8:	1f 4f       	sbci	r17, 0xFF	; 255
    25ea:	f8 01       	movw	r30, r16
    25ec:	40 81       	ld	r20, Z
    25ee:	51 81       	ldd	r21, Z+1	; 0x01
    25f0:	62 81       	ldd	r22, Z+2	; 0x02
    25f2:	73 81       	ldd	r23, Z+3	; 0x03
    25f4:	0e 94 e2 2b 	call	0x57c4	; 0x57c4 <_ZN5Wheel13takeDerectionEf>
    25f8:	fe 01       	movw	r30, r28
    25fa:	e8 50       	subi	r30, 0x08	; 8
    25fc:	ff 4f       	sbci	r31, 0xFF	; 255
    25fe:	80 83       	st	Z, r24
		Fast_print_LSD_hight(Wheel_1);
    2600:	8d b7       	in	r24, 0x3d	; 61
    2602:	9e b7       	in	r25, 0x3e	; 62
    2604:	c2 97       	sbiw	r24, 0x32	; 50
    2606:	0f b6       	in	r0, 0x3f	; 63
    2608:	f8 94       	cli
    260a:	9e bf       	out	0x3e, r25	; 62
    260c:	0f be       	out	0x3f, r0	; 63
    260e:	8d bf       	out	0x3d, r24	; 61
    2610:	ad b7       	in	r26, 0x3d	; 61
    2612:	be b7       	in	r27, 0x3e	; 62
    2614:	11 96       	adiw	r26, 0x01	; 1
    2616:	82 e3       	ldi	r24, 0x32	; 50
    2618:	fe 01       	movw	r30, r28
    261a:	01 90       	ld	r0, Z+
    261c:	0d 92       	st	X+, r0
    261e:	8a 95       	dec	r24
    2620:	e1 f7       	brne	.-8      	; 0x261a <_ZN7Carrage17chechWheelsBeforeEv+0x5c>
    2622:	ce 01       	movw	r24, r28
    2624:	0e 94 95 12 	call	0x252a	; 0x252a <_ZN7Carrage20Fast_print_LSD_hightE5Wheel>
		derWheel[2] = Wheel_2.takeDerection(accuracy);
    2628:	3e 01       	movw	r6, r28
    262a:	92 e3       	ldi	r25, 0x32	; 50
    262c:	69 0e       	add	r6, r25
    262e:	71 1c       	adc	r7, r1
    2630:	ed b7       	in	r30, 0x3d	; 61
    2632:	fe b7       	in	r31, 0x3e	; 62
    2634:	f2 96       	adiw	r30, 0x32	; 50
    2636:	0f b6       	in	r0, 0x3f	; 63
    2638:	f8 94       	cli
    263a:	fe bf       	out	0x3e, r31	; 62
    263c:	0f be       	out	0x3f, r0	; 63
    263e:	ed bf       	out	0x3d, r30	; 61
    2640:	f8 01       	movw	r30, r16
    2642:	40 81       	ld	r20, Z
    2644:	51 81       	ldd	r21, Z+1	; 0x01
    2646:	62 81       	ldd	r22, Z+2	; 0x02
    2648:	73 81       	ldd	r23, Z+3	; 0x03
    264a:	c3 01       	movw	r24, r6
    264c:	0e 94 e2 2b 	call	0x57c4	; 0x57c4 <_ZN5Wheel13takeDerectionEf>
    2650:	fe 01       	movw	r30, r28
    2652:	e7 50       	subi	r30, 0x07	; 7
    2654:	ff 4f       	sbci	r31, 0xFF	; 255
    2656:	80 83       	st	Z, r24
		Fast_print_LSD_hight(Wheel_2);
    2658:	8d b7       	in	r24, 0x3d	; 61
    265a:	9e b7       	in	r25, 0x3e	; 62
    265c:	c2 97       	sbiw	r24, 0x32	; 50
    265e:	0f b6       	in	r0, 0x3f	; 63
    2660:	f8 94       	cli
    2662:	9e bf       	out	0x3e, r25	; 62
    2664:	0f be       	out	0x3f, r0	; 63
    2666:	8d bf       	out	0x3d, r24	; 61
    2668:	ad b7       	in	r26, 0x3d	; 61
    266a:	be b7       	in	r27, 0x3e	; 62
    266c:	11 96       	adiw	r26, 0x01	; 1
    266e:	82 e3       	ldi	r24, 0x32	; 50
    2670:	f3 01       	movw	r30, r6
    2672:	01 90       	ld	r0, Z+
    2674:	0d 92       	st	X+, r0
    2676:	8a 95       	dec	r24
    2678:	e1 f7       	brne	.-8      	; 0x2672 <_ZN7Carrage17chechWheelsBeforeEv+0xb4>
    267a:	ce 01       	movw	r24, r28
    267c:	0e 94 95 12 	call	0x252a	; 0x252a <_ZN7Carrage20Fast_print_LSD_hightE5Wheel>
		derWheel[3] = Wheel_3.takeDerection(accuracy);
    2680:	4e 01       	movw	r8, r28
    2682:	94 e6       	ldi	r25, 0x64	; 100
    2684:	89 0e       	add	r8, r25
    2686:	91 1c       	adc	r9, r1
    2688:	ed b7       	in	r30, 0x3d	; 61
    268a:	fe b7       	in	r31, 0x3e	; 62
    268c:	f2 96       	adiw	r30, 0x32	; 50
    268e:	0f b6       	in	r0, 0x3f	; 63
    2690:	f8 94       	cli
    2692:	fe bf       	out	0x3e, r31	; 62
    2694:	0f be       	out	0x3f, r0	; 63
    2696:	ed bf       	out	0x3d, r30	; 61
    2698:	f8 01       	movw	r30, r16
    269a:	40 81       	ld	r20, Z
    269c:	51 81       	ldd	r21, Z+1	; 0x01
    269e:	62 81       	ldd	r22, Z+2	; 0x02
    26a0:	73 81       	ldd	r23, Z+3	; 0x03
    26a2:	c4 01       	movw	r24, r8
    26a4:	0e 94 e2 2b 	call	0x57c4	; 0x57c4 <_ZN5Wheel13takeDerectionEf>
    26a8:	fe 01       	movw	r30, r28
    26aa:	e6 50       	subi	r30, 0x06	; 6
    26ac:	ff 4f       	sbci	r31, 0xFF	; 255
    26ae:	80 83       	st	Z, r24
		Fast_print_LSD_hight(Wheel_3);
    26b0:	8d b7       	in	r24, 0x3d	; 61
    26b2:	9e b7       	in	r25, 0x3e	; 62
    26b4:	c2 97       	sbiw	r24, 0x32	; 50
    26b6:	0f b6       	in	r0, 0x3f	; 63
    26b8:	f8 94       	cli
    26ba:	9e bf       	out	0x3e, r25	; 62
    26bc:	0f be       	out	0x3f, r0	; 63
    26be:	8d bf       	out	0x3d, r24	; 61
    26c0:	ad b7       	in	r26, 0x3d	; 61
    26c2:	be b7       	in	r27, 0x3e	; 62
    26c4:	11 96       	adiw	r26, 0x01	; 1
    26c6:	82 e3       	ldi	r24, 0x32	; 50
    26c8:	f4 01       	movw	r30, r8
    26ca:	01 90       	ld	r0, Z+
    26cc:	0d 92       	st	X+, r0
    26ce:	8a 95       	dec	r24
    26d0:	e1 f7       	brne	.-8      	; 0x26ca <_ZN7Carrage17chechWheelsBeforeEv+0x10c>
    26d2:	ce 01       	movw	r24, r28
    26d4:	0e 94 95 12 	call	0x252a	; 0x252a <_ZN7Carrage20Fast_print_LSD_hightE5Wheel>
		derWheel[4] = Wheel_4.takeDerection(accuracy);
    26d8:	2e 01       	movw	r4, r28
    26da:	96 e9       	ldi	r25, 0x96	; 150
    26dc:	49 0e       	add	r4, r25
    26de:	51 1c       	adc	r5, r1
    26e0:	ed b7       	in	r30, 0x3d	; 61
    26e2:	fe b7       	in	r31, 0x3e	; 62
    26e4:	f2 96       	adiw	r30, 0x32	; 50
    26e6:	0f b6       	in	r0, 0x3f	; 63
    26e8:	f8 94       	cli
    26ea:	fe bf       	out	0x3e, r31	; 62
    26ec:	0f be       	out	0x3f, r0	; 63
    26ee:	ed bf       	out	0x3d, r30	; 61
    26f0:	f8 01       	movw	r30, r16
    26f2:	40 81       	ld	r20, Z
    26f4:	51 81       	ldd	r21, Z+1	; 0x01
    26f6:	62 81       	ldd	r22, Z+2	; 0x02
    26f8:	73 81       	ldd	r23, Z+3	; 0x03
    26fa:	c2 01       	movw	r24, r4
    26fc:	0e 94 e2 2b 	call	0x57c4	; 0x57c4 <_ZN5Wheel13takeDerectionEf>
    2700:	fe 01       	movw	r30, r28
    2702:	e5 50       	subi	r30, 0x05	; 5
    2704:	ff 4f       	sbci	r31, 0xFF	; 255
    2706:	80 83       	st	Z, r24
		Fast_print_LSD_hight(Wheel_4);
    2708:	8d b7       	in	r24, 0x3d	; 61
    270a:	9e b7       	in	r25, 0x3e	; 62
    270c:	c2 97       	sbiw	r24, 0x32	; 50
    270e:	0f b6       	in	r0, 0x3f	; 63
    2710:	f8 94       	cli
    2712:	9e bf       	out	0x3e, r25	; 62
    2714:	0f be       	out	0x3f, r0	; 63
    2716:	8d bf       	out	0x3d, r24	; 61
    2718:	ad b7       	in	r26, 0x3d	; 61
    271a:	be b7       	in	r27, 0x3e	; 62
    271c:	11 96       	adiw	r26, 0x01	; 1
    271e:	82 e3       	ldi	r24, 0x32	; 50
    2720:	f2 01       	movw	r30, r4
    2722:	01 90       	ld	r0, Z+
    2724:	0d 92       	st	X+, r0
    2726:	8a 95       	dec	r24
    2728:	e1 f7       	brne	.-8      	; 0x2722 <_ZN7Carrage17chechWheelsBeforeEv+0x164>
    272a:	ce 01       	movw	r24, r28
    272c:	0e 94 95 12 	call	0x252a	; 0x252a <_ZN7Carrage20Fast_print_LSD_hightE5Wheel>
		if(getStep()>30){
    2730:	ed b7       	in	r30, 0x3d	; 61
    2732:	fe b7       	in	r31, 0x3e	; 62
    2734:	f2 96       	adiw	r30, 0x32	; 50
    2736:	0f b6       	in	r0, 0x3f	; 63
    2738:	f8 94       	cli
    273a:	fe bf       	out	0x3e, r31	; 62
    273c:	0f be       	out	0x3f, r0	; 63
    273e:	ed bf       	out	0x3d, r30	; 61
    2740:	ce 01       	movw	r24, r28
    2742:	0e 94 36 12 	call	0x246c	; 0x246c <_ZN7Carrage7getStepEv>
    2746:	4f 97       	sbiw	r24, 0x1f	; 31
    2748:	0c f4       	brge	.+2      	; 0x274c <_ZN7Carrage17chechWheelsBeforeEv+0x18e>
    274a:	92 c0       	rjmp	.+292    	; 0x2870 <_ZN7Carrage17chechWheelsBeforeEv+0x2b2>
			support.Adjast(20, inertion ,derWheel[1], derWheel[2] ,derWheel[3] ,derWheel[4] );
    274c:	fe 01       	movw	r30, r28
    274e:	e5 50       	subi	r30, 0x05	; 5
    2750:	ff 4f       	sbci	r31, 0xFF	; 255
    2752:	a0 80       	ld	r10, Z
    2754:	b1 2c       	mov	r11, r1
    2756:	31 97       	sbiw	r30, 0x01	; 1
    2758:	c0 80       	ld	r12, Z
    275a:	d1 2c       	mov	r13, r1
    275c:	31 97       	sbiw	r30, 0x01	; 1
    275e:	e0 80       	ld	r14, Z
    2760:	f1 2c       	mov	r15, r1
    2762:	1e 01       	movw	r2, r28
    2764:	f8 ef       	ldi	r31, 0xF8	; 248
    2766:	2f 0e       	add	r2, r31
    2768:	31 1c       	adc	r3, r1
    276a:	f1 01       	movw	r30, r2
    276c:	00 81       	ld	r16, Z
    276e:	10 e0       	ldi	r17, 0x00	; 0
    2770:	ba 97       	sbiw	r30, 0x2a	; 42
    2772:	20 81       	ld	r18, Z
    2774:	31 81       	ldd	r19, Z+1	; 0x01
    2776:	42 81       	ldd	r20, Z+2	; 0x02
    2778:	53 81       	ldd	r21, Z+3	; 0x03
    277a:	64 e1       	ldi	r22, 0x14	; 20
    277c:	70 e0       	ldi	r23, 0x00	; 0
    277e:	ce 01       	movw	r24, r28
    2780:	88 53       	subi	r24, 0x38	; 56
    2782:	9f 4f       	sbci	r25, 0xFF	; 255
    2784:	0e 94 91 2a 	call	0x5522	; 0x5522 <_ZN7Support6AdjastEifiiii>
			if	(derWheel[1]>0){checked[1]=Wheel_1.Check();}else{checked[1]=true;}
    2788:	f1 01       	movw	r30, r2
    278a:	80 81       	ld	r24, Z
    278c:	88 23       	and	r24, r24
    278e:	51 f0       	breq	.+20     	; 0x27a4 <_ZN7Carrage17chechWheelsBeforeEv+0x1e6>
    2790:	ce 01       	movw	r24, r28
    2792:	0e 94 e2 2c 	call	0x59c4	; 0x59c4 <_ZN5Wheel5CheckEv>
    2796:	fe 01       	movw	r30, r28
    2798:	e2 50       	subi	r30, 0x02	; 2
    279a:	ff 4f       	sbci	r31, 0xFF	; 255
    279c:	90 e0       	ldi	r25, 0x00	; 0
    279e:	91 83       	std	Z+1, r25	; 0x01
    27a0:	80 83       	st	Z, r24
    27a2:	07 c0       	rjmp	.+14     	; 0x27b2 <_ZN7Carrage17chechWheelsBeforeEv+0x1f4>
    27a4:	81 e0       	ldi	r24, 0x01	; 1
    27a6:	90 e0       	ldi	r25, 0x00	; 0
    27a8:	fe 01       	movw	r30, r28
    27aa:	e2 50       	subi	r30, 0x02	; 2
    27ac:	ff 4f       	sbci	r31, 0xFF	; 255
    27ae:	91 83       	std	Z+1, r25	; 0x01
    27b0:	80 83       	st	Z, r24
			if	(derWheel[2]>0){checked[2]=Wheel_2.Check();}else{checked[2]=true;}
    27b2:	fe 01       	movw	r30, r28
    27b4:	e7 50       	subi	r30, 0x07	; 7
    27b6:	ff 4f       	sbci	r31, 0xFF	; 255
    27b8:	80 81       	ld	r24, Z
    27ba:	88 23       	and	r24, r24
    27bc:	49 f0       	breq	.+18     	; 0x27d0 <_ZN7Carrage17chechWheelsBeforeEv+0x212>
    27be:	c3 01       	movw	r24, r6
    27c0:	0e 94 e2 2c 	call	0x59c4	; 0x59c4 <_ZN5Wheel5CheckEv>
    27c4:	fe 01       	movw	r30, r28
    27c6:	f3 95       	inc	r31
    27c8:	90 e0       	ldi	r25, 0x00	; 0
    27ca:	91 83       	std	Z+1, r25	; 0x01
    27cc:	80 83       	st	Z, r24
    27ce:	06 c0       	rjmp	.+12     	; 0x27dc <_ZN7Carrage17chechWheelsBeforeEv+0x21e>
    27d0:	81 e0       	ldi	r24, 0x01	; 1
    27d2:	90 e0       	ldi	r25, 0x00	; 0
    27d4:	fe 01       	movw	r30, r28
    27d6:	f3 95       	inc	r31
    27d8:	91 83       	std	Z+1, r25	; 0x01
    27da:	80 83       	st	Z, r24
			if	(derWheel[3]>0){checked[3]=Wheel_3.Check();}else{checked[3]=true;}
    27dc:	fe 01       	movw	r30, r28
    27de:	e6 50       	subi	r30, 0x06	; 6
    27e0:	ff 4f       	sbci	r31, 0xFF	; 255
    27e2:	80 81       	ld	r24, Z
    27e4:	88 23       	and	r24, r24
    27e6:	51 f0       	breq	.+20     	; 0x27fc <_ZN7Carrage17chechWheelsBeforeEv+0x23e>
    27e8:	c4 01       	movw	r24, r8
    27ea:	0e 94 e2 2c 	call	0x59c4	; 0x59c4 <_ZN5Wheel5CheckEv>
    27ee:	fe 01       	movw	r30, r28
    27f0:	ee 5f       	subi	r30, 0xFE	; 254
    27f2:	fe 4f       	sbci	r31, 0xFE	; 254
    27f4:	90 e0       	ldi	r25, 0x00	; 0
    27f6:	91 83       	std	Z+1, r25	; 0x01
    27f8:	80 83       	st	Z, r24
    27fa:	07 c0       	rjmp	.+14     	; 0x280a <_ZN7Carrage17chechWheelsBeforeEv+0x24c>
    27fc:	81 e0       	ldi	r24, 0x01	; 1
    27fe:	90 e0       	ldi	r25, 0x00	; 0
    2800:	fe 01       	movw	r30, r28
    2802:	ee 5f       	subi	r30, 0xFE	; 254
    2804:	fe 4f       	sbci	r31, 0xFE	; 254
    2806:	91 83       	std	Z+1, r25	; 0x01
    2808:	80 83       	st	Z, r24
			if	(derWheel[4]>0){checked[4]=Wheel_4.Check();}else{checked[4]=true;}	
    280a:	fe 01       	movw	r30, r28
    280c:	e5 50       	subi	r30, 0x05	; 5
    280e:	ff 4f       	sbci	r31, 0xFF	; 255
    2810:	80 81       	ld	r24, Z
    2812:	88 23       	and	r24, r24
    2814:	51 f0       	breq	.+20     	; 0x282a <_ZN7Carrage17chechWheelsBeforeEv+0x26c>
    2816:	c2 01       	movw	r24, r4
    2818:	0e 94 e2 2c 	call	0x59c4	; 0x59c4 <_ZN5Wheel5CheckEv>
    281c:	fe 01       	movw	r30, r28
    281e:	ec 5f       	subi	r30, 0xFC	; 252
    2820:	fe 4f       	sbci	r31, 0xFE	; 254
    2822:	90 e0       	ldi	r25, 0x00	; 0
    2824:	91 83       	std	Z+1, r25	; 0x01
    2826:	80 83       	st	Z, r24
    2828:	07 c0       	rjmp	.+14     	; 0x2838 <_ZN7Carrage17chechWheelsBeforeEv+0x27a>
    282a:	81 e0       	ldi	r24, 0x01	; 1
    282c:	90 e0       	ldi	r25, 0x00	; 0
    282e:	fe 01       	movw	r30, r28
    2830:	ec 5f       	subi	r30, 0xFC	; 252
    2832:	fe 4f       	sbci	r31, 0xFE	; 254
    2834:	91 83       	std	Z+1, r25	; 0x01
    2836:	80 83       	st	Z, r24
			if  (checked[1]&&checked[2]&&checked[3]&&checked[4]){return true;}else{flagNewMalfuction = true;return false;}		
    2838:	fe 01       	movw	r30, r28
    283a:	e2 50       	subi	r30, 0x02	; 2
    283c:	ff 4f       	sbci	r31, 0xFF	; 255
    283e:	80 81       	ld	r24, Z
    2840:	91 81       	ldd	r25, Z+1	; 0x01
    2842:	89 2b       	or	r24, r25
    2844:	79 f0       	breq	.+30     	; 0x2864 <_ZN7Carrage17chechWheelsBeforeEv+0x2a6>
    2846:	32 96       	adiw	r30, 0x02	; 2
    2848:	80 81       	ld	r24, Z
    284a:	91 81       	ldd	r25, Z+1	; 0x01
    284c:	89 2b       	or	r24, r25
    284e:	51 f0       	breq	.+20     	; 0x2864 <_ZN7Carrage17chechWheelsBeforeEv+0x2a6>
    2850:	32 96       	adiw	r30, 0x02	; 2
    2852:	80 81       	ld	r24, Z
    2854:	91 81       	ldd	r25, Z+1	; 0x01
    2856:	89 2b       	or	r24, r25
    2858:	29 f0       	breq	.+10     	; 0x2864 <_ZN7Carrage17chechWheelsBeforeEv+0x2a6>
    285a:	32 96       	adiw	r30, 0x02	; 2
    285c:	80 81       	ld	r24, Z
    285e:	91 81       	ldd	r25, Z+1	; 0x01
    2860:	89 2b       	or	r24, r25
    2862:	41 f4       	brne	.+16     	; 0x2874 <_ZN7Carrage17chechWheelsBeforeEv+0x2b6>
    2864:	c4 51       	subi	r28, 0x14	; 20
    2866:	df 4f       	sbci	r29, 0xFF	; 255
    2868:	81 e0       	ldi	r24, 0x01	; 1
    286a:	88 83       	st	Y, r24
    286c:	80 e0       	ldi	r24, 0x00	; 0
    286e:	03 c0       	rjmp	.+6      	; 0x2876 <_ZN7Carrage17chechWheelsBeforeEv+0x2b8>
		}
		return true;
    2870:	81 e0       	ldi	r24, 0x01	; 1
    2872:	01 c0       	rjmp	.+2      	; 0x2876 <_ZN7Carrage17chechWheelsBeforeEv+0x2b8>
			support.Adjast(20, inertion ,derWheel[1], derWheel[2] ,derWheel[3] ,derWheel[4] );
			if	(derWheel[1]>0){checked[1]=Wheel_1.Check();}else{checked[1]=true;}
			if	(derWheel[2]>0){checked[2]=Wheel_2.Check();}else{checked[2]=true;}
			if	(derWheel[3]>0){checked[3]=Wheel_3.Check();}else{checked[3]=true;}
			if	(derWheel[4]>0){checked[4]=Wheel_4.Check();}else{checked[4]=true;}	
			if  (checked[1]&&checked[2]&&checked[3]&&checked[4]){return true;}else{flagNewMalfuction = true;return false;}		
    2874:	81 e0       	ldi	r24, 0x01	; 1
		}
		return true;
}
    2876:	df 91       	pop	r29
    2878:	cf 91       	pop	r28
    287a:	1f 91       	pop	r17
    287c:	0f 91       	pop	r16
    287e:	ff 90       	pop	r15
    2880:	ef 90       	pop	r14
    2882:	df 90       	pop	r13
    2884:	cf 90       	pop	r12
    2886:	bf 90       	pop	r11
    2888:	af 90       	pop	r10
    288a:	9f 90       	pop	r9
    288c:	8f 90       	pop	r8
    288e:	7f 90       	pop	r7
    2890:	6f 90       	pop	r6
    2892:	5f 90       	pop	r5
    2894:	4f 90       	pop	r4
    2896:	3f 90       	pop	r3
    2898:	2f 90       	pop	r2
    289a:	08 95       	ret

0000289c <_ZN7Carrage18ControlMalfinctionEv>:
	Lcd_update();
}



void Carrage::ControlMalfinction(){
    289c:	af 92       	push	r10
    289e:	bf 92       	push	r11
    28a0:	cf 92       	push	r12
    28a2:	df 92       	push	r13
    28a4:	ef 92       	push	r14
    28a6:	ff 92       	push	r15
    28a8:	0f 93       	push	r16
    28aa:	1f 93       	push	r17
    28ac:	cf 93       	push	r28
    28ae:	df 93       	push	r29
    28b0:	ec 01       	movw	r28, r24
	
	Wheel_1.IsChanchedHight(sensitivityMove);
    28b2:	8c 01       	movw	r16, r24
    28b4:	0a 51       	subi	r16, 0x1A	; 26
    28b6:	1f 4f       	sbci	r17, 0xFF	; 255
    28b8:	f8 01       	movw	r30, r16
    28ba:	40 81       	ld	r20, Z
    28bc:	51 81       	ldd	r21, Z+1	; 0x01
    28be:	62 81       	ldd	r22, Z+2	; 0x02
    28c0:	73 81       	ldd	r23, Z+3	; 0x03
    28c2:	0e 94 63 2d 	call	0x5ac6	; 0x5ac6 <_ZN5Wheel15IsChanchedHightEf>
	Wheel_2.IsChanchedHight(sensitivityMove);
    28c6:	5e 01       	movw	r10, r28
    28c8:	f2 e3       	ldi	r31, 0x32	; 50
    28ca:	af 0e       	add	r10, r31
    28cc:	b1 1c       	adc	r11, r1
    28ce:	f8 01       	movw	r30, r16
    28d0:	40 81       	ld	r20, Z
    28d2:	51 81       	ldd	r21, Z+1	; 0x01
    28d4:	62 81       	ldd	r22, Z+2	; 0x02
    28d6:	73 81       	ldd	r23, Z+3	; 0x03
    28d8:	c5 01       	movw	r24, r10
    28da:	0e 94 63 2d 	call	0x5ac6	; 0x5ac6 <_ZN5Wheel15IsChanchedHightEf>
	Wheel_3.IsChanchedHight(sensitivityMove);
    28de:	6e 01       	movw	r12, r28
    28e0:	f4 e6       	ldi	r31, 0x64	; 100
    28e2:	cf 0e       	add	r12, r31
    28e4:	d1 1c       	adc	r13, r1
    28e6:	f8 01       	movw	r30, r16
    28e8:	40 81       	ld	r20, Z
    28ea:	51 81       	ldd	r21, Z+1	; 0x01
    28ec:	62 81       	ldd	r22, Z+2	; 0x02
    28ee:	73 81       	ldd	r23, Z+3	; 0x03
    28f0:	c6 01       	movw	r24, r12
    28f2:	0e 94 63 2d 	call	0x5ac6	; 0x5ac6 <_ZN5Wheel15IsChanchedHightEf>
	Wheel_4.IsChanchedHight(sensitivityMove);
    28f6:	7e 01       	movw	r14, r28
    28f8:	f6 e9       	ldi	r31, 0x96	; 150
    28fa:	ef 0e       	add	r14, r31
    28fc:	f1 1c       	adc	r15, r1
    28fe:	f8 01       	movw	r30, r16
    2900:	40 81       	ld	r20, Z
    2902:	51 81       	ldd	r21, Z+1	; 0x01
    2904:	62 81       	ldd	r22, Z+2	; 0x02
    2906:	73 81       	ldd	r23, Z+3	; 0x03
    2908:	c7 01       	movw	r24, r14
    290a:	0e 94 63 2d 	call	0x5ac6	; 0x5ac6 <_ZN5Wheel15IsChanchedHightEf>
	caragemove = (Wheel_1.move|Wheel_2.move|Wheel_3.move|Wheel_4.move);
    290e:	fe 01       	movw	r30, r28
    2910:	ec 5a       	subi	r30, 0xAC	; 172
    2912:	ff 4f       	sbci	r31, 0xFF	; 255
    2914:	9a a1       	ldd	r25, Y+34	; 0x22
    2916:	80 81       	ld	r24, Z
    2918:	89 2b       	or	r24, r25
    291a:	f2 96       	adiw	r30, 0x32	; 50
    291c:	90 81       	ld	r25, Z
    291e:	89 2b       	or	r24, r25
    2920:	f2 96       	adiw	r30, 0x32	; 50
    2922:	90 81       	ld	r25, Z
    2924:	89 2b       	or	r24, r25
    2926:	f2 96       	adiw	r30, 0x32	; 50
    2928:	80 83       	st	Z, r24
	if (OnOffMalfunction){
    292a:	31 96       	adiw	r30, 0x01	; 1
    292c:	90 81       	ld	r25, Z
    292e:	99 23       	and	r25, r25
    2930:	09 f4       	brne	.+2      	; 0x2934 <_ZN7Carrage18ControlMalfinctionEv+0x98>
    2932:	4c c0       	rjmp	.+152    	; 0x29cc <_ZN7Carrage18ControlMalfinctionEv+0x130>
		if (caragemove){
    2934:	88 23       	and	r24, r24
    2936:	09 f4       	brne	.+2      	; 0x293a <_ZN7Carrage18ControlMalfinctionEv+0x9e>
    2938:	49 c0       	rjmp	.+146    	; 0x29cc <_ZN7Carrage18ControlMalfinctionEv+0x130>
			if(Wheel_1.ControlMalfinction(countToMalfunctionLimit)){flagNewMalfuction = true;};
    293a:	39 97       	sbiw	r30, 0x09	; 9
    293c:	60 81       	ld	r22, Z
    293e:	71 81       	ldd	r23, Z+1	; 0x01
    2940:	82 81       	ldd	r24, Z+2	; 0x02
    2942:	93 81       	ldd	r25, Z+3	; 0x03
    2944:	0e 94 76 2f 	call	0x5eec	; 0x5eec <__fixsfsi>
    2948:	ce 01       	movw	r24, r28
    294a:	0e 94 09 2d 	call	0x5a12	; 0x5a12 <_ZN5Wheel18ControlMalfinctionEi>
    294e:	88 23       	and	r24, r24
    2950:	29 f0       	breq	.+10     	; 0x295c <_ZN7Carrage18ControlMalfinctionEv+0xc0>
    2952:	81 e0       	ldi	r24, 0x01	; 1
    2954:	fe 01       	movw	r30, r28
    2956:	e4 51       	subi	r30, 0x14	; 20
    2958:	ff 4f       	sbci	r31, 0xFF	; 255
    295a:	80 83       	st	Z, r24
			if(Wheel_2.ControlMalfinction(countToMalfunctionLimit)){flagNewMalfuction = true;};
    295c:	fe 01       	movw	r30, r28
    295e:	ee 51       	subi	r30, 0x1E	; 30
    2960:	ff 4f       	sbci	r31, 0xFF	; 255
    2962:	60 81       	ld	r22, Z
    2964:	71 81       	ldd	r23, Z+1	; 0x01
    2966:	82 81       	ldd	r24, Z+2	; 0x02
    2968:	93 81       	ldd	r25, Z+3	; 0x03
    296a:	0e 94 76 2f 	call	0x5eec	; 0x5eec <__fixsfsi>
    296e:	c5 01       	movw	r24, r10
    2970:	0e 94 09 2d 	call	0x5a12	; 0x5a12 <_ZN5Wheel18ControlMalfinctionEi>
    2974:	88 23       	and	r24, r24
    2976:	29 f0       	breq	.+10     	; 0x2982 <_ZN7Carrage18ControlMalfinctionEv+0xe6>
    2978:	81 e0       	ldi	r24, 0x01	; 1
    297a:	fe 01       	movw	r30, r28
    297c:	e4 51       	subi	r30, 0x14	; 20
    297e:	ff 4f       	sbci	r31, 0xFF	; 255
    2980:	80 83       	st	Z, r24
			if(Wheel_3.ControlMalfinction(countToMalfunctionLimit)){flagNewMalfuction = true;};
    2982:	fe 01       	movw	r30, r28
    2984:	ee 51       	subi	r30, 0x1E	; 30
    2986:	ff 4f       	sbci	r31, 0xFF	; 255
    2988:	60 81       	ld	r22, Z
    298a:	71 81       	ldd	r23, Z+1	; 0x01
    298c:	82 81       	ldd	r24, Z+2	; 0x02
    298e:	93 81       	ldd	r25, Z+3	; 0x03
    2990:	0e 94 76 2f 	call	0x5eec	; 0x5eec <__fixsfsi>
    2994:	c6 01       	movw	r24, r12
    2996:	0e 94 09 2d 	call	0x5a12	; 0x5a12 <_ZN5Wheel18ControlMalfinctionEi>
    299a:	88 23       	and	r24, r24
    299c:	29 f0       	breq	.+10     	; 0x29a8 <_ZN7Carrage18ControlMalfinctionEv+0x10c>
    299e:	81 e0       	ldi	r24, 0x01	; 1
    29a0:	fe 01       	movw	r30, r28
    29a2:	e4 51       	subi	r30, 0x14	; 20
    29a4:	ff 4f       	sbci	r31, 0xFF	; 255
    29a6:	80 83       	st	Z, r24
			if(Wheel_4.ControlMalfinction(countToMalfunctionLimit)){flagNewMalfuction = true;};
    29a8:	fe 01       	movw	r30, r28
    29aa:	ee 51       	subi	r30, 0x1E	; 30
    29ac:	ff 4f       	sbci	r31, 0xFF	; 255
    29ae:	60 81       	ld	r22, Z
    29b0:	71 81       	ldd	r23, Z+1	; 0x01
    29b2:	82 81       	ldd	r24, Z+2	; 0x02
    29b4:	93 81       	ldd	r25, Z+3	; 0x03
    29b6:	0e 94 76 2f 	call	0x5eec	; 0x5eec <__fixsfsi>
    29ba:	c7 01       	movw	r24, r14
    29bc:	0e 94 09 2d 	call	0x5a12	; 0x5a12 <_ZN5Wheel18ControlMalfinctionEi>
    29c0:	88 23       	and	r24, r24
    29c2:	21 f0       	breq	.+8      	; 0x29cc <_ZN7Carrage18ControlMalfinctionEv+0x130>
    29c4:	c4 51       	subi	r28, 0x14	; 20
    29c6:	df 4f       	sbci	r29, 0xFF	; 255
    29c8:	81 e0       	ldi	r24, 0x01	; 1
    29ca:	88 83       	st	Y, r24
		}
	}
}
    29cc:	df 91       	pop	r29
    29ce:	cf 91       	pop	r28
    29d0:	1f 91       	pop	r17
    29d2:	0f 91       	pop	r16
    29d4:	ff 90       	pop	r15
    29d6:	ef 90       	pop	r14
    29d8:	df 90       	pop	r13
    29da:	cf 90       	pop	r12
    29dc:	bf 90       	pop	r11
    29de:	af 90       	pop	r10
    29e0:	08 95       	ret

000029e2 <_ZN7Carrage21ResecCountMalfinctionEv>:

void Carrage::ResecCountMalfinction(){
	Wheel_1.countToMalfunction = 0;
    29e2:	fc 01       	movw	r30, r24
    29e4:	16 a2       	std	Z+38, r1	; 0x26
    29e6:	15 a2       	std	Z+37, r1	; 0x25
	Wheel_2.countToMalfunction = 0;
    29e8:	e9 5a       	subi	r30, 0xA9	; 169
    29ea:	ff 4f       	sbci	r31, 0xFF	; 255
    29ec:	11 82       	std	Z+1, r1	; 0x01
    29ee:	10 82       	st	Z, r1
	Wheel_3.countToMalfunction = 0;
    29f0:	f2 96       	adiw	r30, 0x32	; 50
    29f2:	11 82       	std	Z+1, r1	; 0x01
    29f4:	10 82       	st	Z, r1
	Wheel_4.countToMalfunction = 0;
    29f6:	f2 96       	adiw	r30, 0x32	; 50
    29f8:	11 82       	std	Z+1, r1	; 0x01
    29fa:	10 82       	st	Z, r1
    29fc:	08 95       	ret

000029fe <_ZN7Carrage17switch_malfactionEv>:
}


void Carrage::switch_malfaction(){
	OnOffMalfunction = !OnOffMalfunction;
    29fe:	fc 01       	movw	r30, r24
    2a00:	e5 51       	subi	r30, 0x15	; 21
    2a02:	ff 4f       	sbci	r31, 0xFF	; 255
    2a04:	80 81       	ld	r24, Z
    2a06:	91 e0       	ldi	r25, 0x01	; 1
    2a08:	98 27       	eor	r25, r24
    2a0a:	90 83       	st	Z, r25
    2a0c:	08 95       	ret

00002a0e <_ZN7Carrage11errorsResetEv>:
}

void Carrage::errorsReset(){
	Wheel_1.malfuction = false;
    2a0e:	fc 01       	movw	r30, r24
    2a10:	10 a2       	std	Z+32, r1	; 0x20
	Wheel_1.Error = 0;
    2a12:	14 a2       	std	Z+36, r1	; 0x24
    2a14:	13 a2       	std	Z+35, r1	; 0x23
	Wheel_2.malfuction = false;
    2a16:	ee 5a       	subi	r30, 0xAE	; 174
    2a18:	ff 4f       	sbci	r31, 0xFF	; 255
    2a1a:	10 82       	st	Z, r1
	Wheel_2.Error = 0;
    2a1c:	33 96       	adiw	r30, 0x03	; 3
    2a1e:	11 82       	std	Z+1, r1	; 0x01
    2a20:	10 82       	st	Z, r1
	Wheel_3.malfuction = false;
    2a22:	bf 96       	adiw	r30, 0x2f	; 47
    2a24:	10 82       	st	Z, r1
	Wheel_3.Error = 0;
    2a26:	33 96       	adiw	r30, 0x03	; 3
    2a28:	11 82       	std	Z+1, r1	; 0x01
    2a2a:	10 82       	st	Z, r1
	Wheel_4.malfuction = false;
    2a2c:	bf 96       	adiw	r30, 0x2f	; 47
    2a2e:	10 82       	st	Z, r1
	Wheel_4.Error = 0;
    2a30:	33 96       	adiw	r30, 0x03	; 3
    2a32:	11 82       	std	Z+1, r1	; 0x01
    2a34:	10 82       	st	Z, r1
    2a36:	08 95       	ret

00002a38 <_ZN7Carrage14SelectAllWheelEv>:
}

void Carrage::SelectAllWheel(){
	if(!Wheel_1.malfuction){Wheel_1.selected = true;}
    2a38:	fc 01       	movw	r30, r24
    2a3a:	20 a1       	ldd	r18, Z+32	; 0x20
    2a3c:	21 11       	cpse	r18, r1
    2a3e:	02 c0       	rjmp	.+4      	; 0x2a44 <_ZN7Carrage14SelectAllWheelEv+0xc>
    2a40:	21 e0       	ldi	r18, 0x01	; 1
    2a42:	27 8f       	std	Z+31, r18	; 0x1f
	if(!Wheel_2.malfuction){Wheel_2.selected = true;}
    2a44:	fc 01       	movw	r30, r24
    2a46:	ee 5a       	subi	r30, 0xAE	; 174
    2a48:	ff 4f       	sbci	r31, 0xFF	; 255
    2a4a:	20 81       	ld	r18, Z
    2a4c:	21 11       	cpse	r18, r1
    2a4e:	03 c0       	rjmp	.+6      	; 0x2a56 <_ZN7Carrage14SelectAllWheelEv+0x1e>
    2a50:	21 e0       	ldi	r18, 0x01	; 1
    2a52:	31 97       	sbiw	r30, 0x01	; 1
    2a54:	20 83       	st	Z, r18
	if(!Wheel_3.malfuction){Wheel_3.selected = true;}
    2a56:	fc 01       	movw	r30, r24
    2a58:	ec 57       	subi	r30, 0x7C	; 124
    2a5a:	ff 4f       	sbci	r31, 0xFF	; 255
    2a5c:	20 81       	ld	r18, Z
    2a5e:	21 11       	cpse	r18, r1
    2a60:	03 c0       	rjmp	.+6      	; 0x2a68 <_ZN7Carrage14SelectAllWheelEv+0x30>
    2a62:	21 e0       	ldi	r18, 0x01	; 1
    2a64:	31 97       	sbiw	r30, 0x01	; 1
    2a66:	20 83       	st	Z, r18
	if(!Wheel_4.malfuction){Wheel_4.selected = true;}
    2a68:	fc 01       	movw	r30, r24
    2a6a:	ea 54       	subi	r30, 0x4A	; 74
    2a6c:	ff 4f       	sbci	r31, 0xFF	; 255
    2a6e:	20 81       	ld	r18, Z
    2a70:	21 11       	cpse	r18, r1
    2a72:	03 c0       	rjmp	.+6      	; 0x2a7a <_ZN7Carrage14SelectAllWheelEv+0x42>
    2a74:	31 97       	sbiw	r30, 0x01	; 1
    2a76:	21 e0       	ldi	r18, 0x01	; 1
    2a78:	20 83       	st	Z, r18
    2a7a:	08 95       	ret

00002a7c <_ZN7Carrage16DiSelectAllWheelEv>:
}

void Carrage::DiSelectAllWheel(){
	Wheel_1.selected = false;
    2a7c:	fc 01       	movw	r30, r24
    2a7e:	17 8e       	std	Z+31, r1	; 0x1f
	Wheel_2.selected = false;
    2a80:	ef 5a       	subi	r30, 0xAF	; 175
    2a82:	ff 4f       	sbci	r31, 0xFF	; 255
    2a84:	10 82       	st	Z, r1
	Wheel_3.selected = false;
    2a86:	f2 96       	adiw	r30, 0x32	; 50
    2a88:	10 82       	st	Z, r1
	Wheel_4.selected = false;
    2a8a:	f2 96       	adiw	r30, 0x32	; 50
    2a8c:	10 82       	st	Z, r1
    2a8e:	08 95       	ret

00002a90 <_ZN7Carrage14SwitchAllWheelEv>:
}

void Carrage::SwitchAllWheel(){
    2a90:	cf 93       	push	r28
    2a92:	df 93       	push	r29
    2a94:	ec 01       	movw	r28, r24
	if(Wheel_1.MalFunctionAndnotselected()&&Wheel_2.MalFunctionAndnotselected()&&Wheel_3.MalFunctionAndnotselected()&&Wheel_4.MalFunctionAndnotselected()){
    2a96:	0e 94 1c 2e 	call	0x5c38	; 0x5c38 <_ZN5Wheel25MalFunctionAndnotselectedEv>
    2a9a:	88 23       	and	r24, r24
    2a9c:	f9 f0       	breq	.+62     	; 0x2adc <_ZN7Carrage14SwitchAllWheelEv+0x4c>
    2a9e:	ce 01       	movw	r24, r28
    2aa0:	c2 96       	adiw	r24, 0x32	; 50
    2aa2:	0e 94 1c 2e 	call	0x5c38	; 0x5c38 <_ZN5Wheel25MalFunctionAndnotselectedEv>
    2aa6:	88 23       	and	r24, r24
    2aa8:	c9 f0       	breq	.+50     	; 0x2adc <_ZN7Carrage14SwitchAllWheelEv+0x4c>
    2aaa:	ce 01       	movw	r24, r28
    2aac:	8c 59       	subi	r24, 0x9C	; 156
    2aae:	9f 4f       	sbci	r25, 0xFF	; 255
    2ab0:	0e 94 1c 2e 	call	0x5c38	; 0x5c38 <_ZN5Wheel25MalFunctionAndnotselectedEv>
    2ab4:	88 23       	and	r24, r24
    2ab6:	91 f0       	breq	.+36     	; 0x2adc <_ZN7Carrage14SwitchAllWheelEv+0x4c>
    2ab8:	ce 01       	movw	r24, r28
    2aba:	8a 56       	subi	r24, 0x6A	; 106
    2abc:	9f 4f       	sbci	r25, 0xFF	; 255
    2abe:	0e 94 1c 2e 	call	0x5c38	; 0x5c38 <_ZN5Wheel25MalFunctionAndnotselectedEv>
    2ac2:	88 23       	and	r24, r24
    2ac4:	59 f0       	breq	.+22     	; 0x2adc <_ZN7Carrage14SwitchAllWheelEv+0x4c>
	if(!Wheel_3.malfuction){Wheel_3.selected = true;}
	if(!Wheel_4.malfuction){Wheel_4.selected = true;}
}

void Carrage::DiSelectAllWheel(){
	Wheel_1.selected = false;
    2ac6:	1f 8e       	std	Y+31, r1	; 0x1f
	Wheel_2.selected = false;
    2ac8:	fe 01       	movw	r30, r28
    2aca:	ef 5a       	subi	r30, 0xAF	; 175
    2acc:	ff 4f       	sbci	r31, 0xFF	; 255
    2ace:	10 82       	st	Z, r1
	Wheel_3.selected = false;
    2ad0:	f2 96       	adiw	r30, 0x32	; 50
    2ad2:	10 82       	st	Z, r1
	Wheel_4.selected = false;
    2ad4:	cb 54       	subi	r28, 0x4B	; 75
    2ad6:	df 4f       	sbci	r29, 0xFF	; 255
    2ad8:	18 82       	st	Y, r1
    2ada:	03 c0       	rjmp	.+6      	; 0x2ae2 <_ZN7Carrage14SwitchAllWheelEv+0x52>

void Carrage::SwitchAllWheel(){
	if(Wheel_1.MalFunctionAndnotselected()&&Wheel_2.MalFunctionAndnotselected()&&Wheel_3.MalFunctionAndnotselected()&&Wheel_4.MalFunctionAndnotselected()){
		DiSelectAllWheel();
	}else{
		SelectAllWheel();
    2adc:	ce 01       	movw	r24, r28
    2ade:	0e 94 1c 15 	call	0x2a38	; 0x2a38 <_ZN7Carrage14SelectAllWheelEv>
	}
}
    2ae2:	df 91       	pop	r29
    2ae4:	cf 91       	pop	r28
    2ae6:	08 95       	ret

00002ae8 <_ZN7Carrage11AnySelectedEv>:

bool Carrage::AnySelected(){
    2ae8:	fc 01       	movw	r30, r24
	if(Wheel_1.selected||Wheel_2.selected||Wheel_3.selected||Wheel_4.selected){
    2aea:	87 8d       	ldd	r24, Z+31	; 0x1f
    2aec:	81 11       	cpse	r24, r1
    2aee:	0d c0       	rjmp	.+26     	; 0x2b0a <_ZN7Carrage11AnySelectedEv+0x22>
    2af0:	df 01       	movw	r26, r30
    2af2:	af 5a       	subi	r26, 0xAF	; 175
    2af4:	bf 4f       	sbci	r27, 0xFF	; 255
    2af6:	8c 91       	ld	r24, X
    2af8:	81 11       	cpse	r24, r1
    2afa:	07 c0       	rjmp	.+14     	; 0x2b0a <_ZN7Carrage11AnySelectedEv+0x22>
    2afc:	d2 96       	adiw	r26, 0x32	; 50
    2afe:	8c 91       	ld	r24, X
    2b00:	81 11       	cpse	r24, r1
    2b02:	03 c0       	rjmp	.+6      	; 0x2b0a <_ZN7Carrage11AnySelectedEv+0x22>
    2b04:	eb 54       	subi	r30, 0x4B	; 75
    2b06:	ff 4f       	sbci	r31, 0xFF	; 255
    2b08:	80 81       	ld	r24, Z
		return true;
	}else{return false;}
}
    2b0a:	08 95       	ret

00002b0c <_ZN7Carrage16ChekGetLimitsLowEv>:

bool Carrage::ChekGetLimitsLow(){
    2b0c:	cf 93       	push	r28
    2b0e:	df 93       	push	r29
    2b10:	ec 01       	movw	r28, r24
	Wheel_1.CheckGetLimitLow();
    2b12:	0e 94 22 2e 	call	0x5c44	; 0x5c44 <_ZN5Wheel16CheckGetLimitLowEv>
	Wheel_2.CheckGetLimitLow();
    2b16:	ce 01       	movw	r24, r28
    2b18:	c2 96       	adiw	r24, 0x32	; 50
    2b1a:	0e 94 22 2e 	call	0x5c44	; 0x5c44 <_ZN5Wheel16CheckGetLimitLowEv>
	Wheel_3.CheckGetLimitLow();
    2b1e:	ce 01       	movw	r24, r28
    2b20:	8c 59       	subi	r24, 0x9C	; 156
    2b22:	9f 4f       	sbci	r25, 0xFF	; 255
    2b24:	0e 94 22 2e 	call	0x5c44	; 0x5c44 <_ZN5Wheel16CheckGetLimitLowEv>
	Wheel_4.CheckGetLimitLow();
    2b28:	ce 01       	movw	r24, r28
    2b2a:	8a 56       	subi	r24, 0x6A	; 106
    2b2c:	9f 4f       	sbci	r25, 0xFF	; 255
    2b2e:	0e 94 22 2e 	call	0x5c44	; 0x5c44 <_ZN5Wheel16CheckGetLimitLowEv>
	if(Wheel_1.flagGetLimits||Wheel_2.flagGetLimits||Wheel_3.flagGetLimits||Wheel_4.flagGetLimits){
    2b32:	8a 89       	ldd	r24, Y+18	; 0x12
    2b34:	81 11       	cpse	r24, r1
    2b36:	0e c0       	rjmp	.+28     	; 0x2b54 <_ZN7Carrage16ChekGetLimitsLowEv+0x48>
    2b38:	fe 01       	movw	r30, r28
    2b3a:	ec 5b       	subi	r30, 0xBC	; 188
    2b3c:	ff 4f       	sbci	r31, 0xFF	; 255
    2b3e:	80 81       	ld	r24, Z
    2b40:	81 11       	cpse	r24, r1
    2b42:	08 c0       	rjmp	.+16     	; 0x2b54 <_ZN7Carrage16ChekGetLimitsLowEv+0x48>
    2b44:	f2 96       	adiw	r30, 0x32	; 50
    2b46:	80 81       	ld	r24, Z
    2b48:	81 11       	cpse	r24, r1
    2b4a:	04 c0       	rjmp	.+8      	; 0x2b54 <_ZN7Carrage16ChekGetLimitsLowEv+0x48>
    2b4c:	f2 96       	adiw	r30, 0x32	; 50
    2b4e:	80 81       	ld	r24, Z
    2b50:	88 23       	and	r24, r24
    2b52:	69 f0       	breq	.+26     	; 0x2b6e <_ZN7Carrage16ChekGetLimitsLowEv+0x62>
		Wheel_1.flagGetLimits = false;
    2b54:	1a 8a       	std	Y+18, r1	; 0x12
		Wheel_2.flagGetLimits = false;
    2b56:	fe 01       	movw	r30, r28
    2b58:	ec 5b       	subi	r30, 0xBC	; 188
    2b5a:	ff 4f       	sbci	r31, 0xFF	; 255
    2b5c:	10 82       	st	Z, r1
		Wheel_3.flagGetLimits = false;
    2b5e:	f2 96       	adiw	r30, 0x32	; 50
    2b60:	10 82       	st	Z, r1
		Wheel_4.flagGetLimits = false;
    2b62:	f2 96       	adiw	r30, 0x32	; 50
    2b64:	10 82       	st	Z, r1
		flagGetLimits = true;
    2b66:	c3 51       	subi	r28, 0x13	; 19
    2b68:	df 4f       	sbci	r29, 0xFF	; 255
    2b6a:	81 e0       	ldi	r24, 0x01	; 1
    2b6c:	88 83       	st	Y, r24
		return true;
	}else{
		return false;
	}
}
    2b6e:	df 91       	pop	r29
    2b70:	cf 91       	pop	r28
    2b72:	08 95       	ret

00002b74 <_ZN7Carrage9ForceDownEv>:
	if (Wheel_4.selected){derWheel[4]=1;}else{derWheel[4]=0;};
	if(!ChekGetLimitsHight()){support.ForceMove(step_force_move,derWheel[1], derWheel[2] ,derWheel[3] ,derWheel[4] );}
	oldHightUpdate();
}

void Carrage::ForceDown(){
    2b74:	af 92       	push	r10
    2b76:	bf 92       	push	r11
    2b78:	cf 92       	push	r12
    2b7a:	df 92       	push	r13
    2b7c:	ef 92       	push	r14
    2b7e:	ff 92       	push	r15
    2b80:	0f 93       	push	r16
    2b82:	1f 93       	push	r17
    2b84:	cf 93       	push	r28
    2b86:	df 93       	push	r29
    2b88:	ec 01       	movw	r28, r24
	if (Wheel_1.selected){derWheel[1]=2;}else{derWheel[1]=0;};
    2b8a:	8f 8d       	ldd	r24, Y+31	; 0x1f
    2b8c:	88 23       	and	r24, r24
    2b8e:	31 f0       	breq	.+12     	; 0x2b9c <_ZN7Carrage9ForceDownEv+0x28>
    2b90:	82 e0       	ldi	r24, 0x02	; 2
    2b92:	fe 01       	movw	r30, r28
    2b94:	e8 50       	subi	r30, 0x08	; 8
    2b96:	ff 4f       	sbci	r31, 0xFF	; 255
    2b98:	80 83       	st	Z, r24
    2b9a:	04 c0       	rjmp	.+8      	; 0x2ba4 <_ZN7Carrage9ForceDownEv+0x30>
    2b9c:	fe 01       	movw	r30, r28
    2b9e:	e8 50       	subi	r30, 0x08	; 8
    2ba0:	ff 4f       	sbci	r31, 0xFF	; 255
    2ba2:	10 82       	st	Z, r1
	if (Wheel_2.selected){derWheel[2]=2;}else{derWheel[2]=0;};
    2ba4:	fe 01       	movw	r30, r28
    2ba6:	ef 5a       	subi	r30, 0xAF	; 175
    2ba8:	ff 4f       	sbci	r31, 0xFF	; 255
    2baa:	80 81       	ld	r24, Z
    2bac:	88 23       	and	r24, r24
    2bae:	29 f0       	breq	.+10     	; 0x2bba <_ZN7Carrage9ForceDownEv+0x46>
    2bb0:	82 e0       	ldi	r24, 0x02	; 2
    2bb2:	e8 55       	subi	r30, 0x58	; 88
    2bb4:	ff 4f       	sbci	r31, 0xFF	; 255
    2bb6:	80 83       	st	Z, r24
    2bb8:	04 c0       	rjmp	.+8      	; 0x2bc2 <_ZN7Carrage9ForceDownEv+0x4e>
    2bba:	fe 01       	movw	r30, r28
    2bbc:	e7 50       	subi	r30, 0x07	; 7
    2bbe:	ff 4f       	sbci	r31, 0xFF	; 255
    2bc0:	10 82       	st	Z, r1
	if (Wheel_3.selected){derWheel[3]=2;}else{derWheel[3]=0;};
    2bc2:	fe 01       	movw	r30, r28
    2bc4:	ed 57       	subi	r30, 0x7D	; 125
    2bc6:	ff 4f       	sbci	r31, 0xFF	; 255
    2bc8:	80 81       	ld	r24, Z
    2bca:	88 23       	and	r24, r24
    2bcc:	29 f0       	breq	.+10     	; 0x2bd8 <_ZN7Carrage9ForceDownEv+0x64>
    2bce:	82 e0       	ldi	r24, 0x02	; 2
    2bd0:	e9 58       	subi	r30, 0x89	; 137
    2bd2:	ff 4f       	sbci	r31, 0xFF	; 255
    2bd4:	80 83       	st	Z, r24
    2bd6:	04 c0       	rjmp	.+8      	; 0x2be0 <_ZN7Carrage9ForceDownEv+0x6c>
    2bd8:	fe 01       	movw	r30, r28
    2bda:	e6 50       	subi	r30, 0x06	; 6
    2bdc:	ff 4f       	sbci	r31, 0xFF	; 255
    2bde:	10 82       	st	Z, r1
	if (Wheel_4.selected){derWheel[4]=2;}else{derWheel[4]=0;};
    2be0:	fe 01       	movw	r30, r28
    2be2:	eb 54       	subi	r30, 0x4B	; 75
    2be4:	ff 4f       	sbci	r31, 0xFF	; 255
    2be6:	80 81       	ld	r24, Z
    2be8:	88 23       	and	r24, r24
    2bea:	29 f0       	breq	.+10     	; 0x2bf6 <_ZN7Carrage9ForceDownEv+0x82>
    2bec:	82 e0       	ldi	r24, 0x02	; 2
    2bee:	ea 5b       	subi	r30, 0xBA	; 186
    2bf0:	ff 4f       	sbci	r31, 0xFF	; 255
    2bf2:	80 83       	st	Z, r24
    2bf4:	04 c0       	rjmp	.+8      	; 0x2bfe <_ZN7Carrage9ForceDownEv+0x8a>
    2bf6:	fe 01       	movw	r30, r28
    2bf8:	e5 50       	subi	r30, 0x05	; 5
    2bfa:	ff 4f       	sbci	r31, 0xFF	; 255
    2bfc:	10 82       	st	Z, r1
	if(!ChekGetLimitsLow()){support.ForceMove(step_force_move,derWheel[1], derWheel[2] ,derWheel[3] ,derWheel[4] );}
    2bfe:	ce 01       	movw	r24, r28
    2c00:	0e 94 86 15 	call	0x2b0c	; 0x2b0c <_ZN7Carrage16ChekGetLimitsLowEv>
    2c04:	81 11       	cpse	r24, r1
    2c06:	1c c0       	rjmp	.+56     	; 0x2c40 <_ZN7Carrage9ForceDownEv+0xcc>
    2c08:	fe 01       	movw	r30, r28
    2c0a:	e5 50       	subi	r30, 0x05	; 5
    2c0c:	ff 4f       	sbci	r31, 0xFF	; 255
    2c0e:	e0 80       	ld	r14, Z
    2c10:	f1 2c       	mov	r15, r1
    2c12:	31 97       	sbiw	r30, 0x01	; 1
    2c14:	00 81       	ld	r16, Z
    2c16:	10 e0       	ldi	r17, 0x00	; 0
    2c18:	31 97       	sbiw	r30, 0x01	; 1
    2c1a:	a0 80       	ld	r10, Z
    2c1c:	b1 2c       	mov	r11, r1
    2c1e:	31 97       	sbiw	r30, 0x01	; 1
    2c20:	c0 80       	ld	r12, Z
    2c22:	d1 2c       	mov	r13, r1
    2c24:	b6 97       	sbiw	r30, 0x26	; 38
    2c26:	60 81       	ld	r22, Z
    2c28:	71 81       	ldd	r23, Z+1	; 0x01
    2c2a:	82 81       	ldd	r24, Z+2	; 0x02
    2c2c:	93 81       	ldd	r25, Z+3	; 0x03
    2c2e:	0e 94 76 2f 	call	0x5eec	; 0x5eec <__fixsfsi>
    2c32:	95 01       	movw	r18, r10
    2c34:	a6 01       	movw	r20, r12
    2c36:	ce 01       	movw	r24, r28
    2c38:	88 53       	subi	r24, 0x38	; 56
    2c3a:	9f 4f       	sbci	r25, 0xFF	; 255
    2c3c:	0e 94 1c 2b 	call	0x5638	; 0x5638 <_ZN7Support9ForceMoveEiiiii>
	oldHightUpdate();
    2c40:	ce 01       	movw	r24, r28
    2c42:	0e 94 a9 10 	call	0x2152	; 0x2152 <_ZN7Carrage14oldHightUpdateEv>
	
}
    2c46:	df 91       	pop	r29
    2c48:	cf 91       	pop	r28
    2c4a:	1f 91       	pop	r17
    2c4c:	0f 91       	pop	r16
    2c4e:	ff 90       	pop	r15
    2c50:	ef 90       	pop	r14
    2c52:	df 90       	pop	r13
    2c54:	cf 90       	pop	r12
    2c56:	bf 90       	pop	r11
    2c58:	af 90       	pop	r10
    2c5a:	08 95       	ret

00002c5c <_ZN7Carrage18ChekGetLimitsHightEv>:
	}else{
		return false;
	}
}

bool Carrage::ChekGetLimitsHight(){
    2c5c:	cf 93       	push	r28
    2c5e:	df 93       	push	r29
    2c60:	ec 01       	movw	r28, r24
	Wheel_1.CheckGetLimitHight();
    2c62:	0e 94 5a 2e 	call	0x5cb4	; 0x5cb4 <_ZN5Wheel18CheckGetLimitHightEv>
	Wheel_2.CheckGetLimitHight();
    2c66:	ce 01       	movw	r24, r28
    2c68:	c2 96       	adiw	r24, 0x32	; 50
    2c6a:	0e 94 5a 2e 	call	0x5cb4	; 0x5cb4 <_ZN5Wheel18CheckGetLimitHightEv>
	Wheel_3.CheckGetLimitHight();
    2c6e:	ce 01       	movw	r24, r28
    2c70:	8c 59       	subi	r24, 0x9C	; 156
    2c72:	9f 4f       	sbci	r25, 0xFF	; 255
    2c74:	0e 94 5a 2e 	call	0x5cb4	; 0x5cb4 <_ZN5Wheel18CheckGetLimitHightEv>
	Wheel_4.CheckGetLimitHight();
    2c78:	ce 01       	movw	r24, r28
    2c7a:	8a 56       	subi	r24, 0x6A	; 106
    2c7c:	9f 4f       	sbci	r25, 0xFF	; 255
    2c7e:	0e 94 5a 2e 	call	0x5cb4	; 0x5cb4 <_ZN5Wheel18CheckGetLimitHightEv>
	if(Wheel_1.flagGetLimits||Wheel_2.flagGetLimits||Wheel_3.flagGetLimits||Wheel_4.flagGetLimits){
    2c82:	8a 89       	ldd	r24, Y+18	; 0x12
    2c84:	81 11       	cpse	r24, r1
    2c86:	0e c0       	rjmp	.+28     	; 0x2ca4 <_ZN7Carrage18ChekGetLimitsHightEv+0x48>
    2c88:	fe 01       	movw	r30, r28
    2c8a:	ec 5b       	subi	r30, 0xBC	; 188
    2c8c:	ff 4f       	sbci	r31, 0xFF	; 255
    2c8e:	80 81       	ld	r24, Z
    2c90:	81 11       	cpse	r24, r1
    2c92:	08 c0       	rjmp	.+16     	; 0x2ca4 <_ZN7Carrage18ChekGetLimitsHightEv+0x48>
    2c94:	f2 96       	adiw	r30, 0x32	; 50
    2c96:	80 81       	ld	r24, Z
    2c98:	81 11       	cpse	r24, r1
    2c9a:	04 c0       	rjmp	.+8      	; 0x2ca4 <_ZN7Carrage18ChekGetLimitsHightEv+0x48>
    2c9c:	f2 96       	adiw	r30, 0x32	; 50
    2c9e:	80 81       	ld	r24, Z
    2ca0:	88 23       	and	r24, r24
    2ca2:	69 f0       	breq	.+26     	; 0x2cbe <_ZN7Carrage18ChekGetLimitsHightEv+0x62>
		Wheel_1.flagGetLimits = false;
    2ca4:	1a 8a       	std	Y+18, r1	; 0x12
		Wheel_2.flagGetLimits = false;
    2ca6:	fe 01       	movw	r30, r28
    2ca8:	ec 5b       	subi	r30, 0xBC	; 188
    2caa:	ff 4f       	sbci	r31, 0xFF	; 255
    2cac:	10 82       	st	Z, r1
		Wheel_3.flagGetLimits = false;
    2cae:	f2 96       	adiw	r30, 0x32	; 50
    2cb0:	10 82       	st	Z, r1
		Wheel_4.flagGetLimits = false;
    2cb2:	f2 96       	adiw	r30, 0x32	; 50
    2cb4:	10 82       	st	Z, r1
		flagGetLimits = true;
    2cb6:	c3 51       	subi	r28, 0x13	; 19
    2cb8:	df 4f       	sbci	r29, 0xFF	; 255
    2cba:	81 e0       	ldi	r24, 0x01	; 1
    2cbc:	88 83       	st	Y, r24
		return true;
		}else{
		return false;
	}
}
    2cbe:	df 91       	pop	r29
    2cc0:	cf 91       	pop	r28
    2cc2:	08 95       	ret

00002cc4 <_ZN7Carrage7ForceUpEv>:
	Ajustment(panel);
	ChekGetLimitsLow();
	oldHightUpdate();
}

void Carrage::ForceUp(){
    2cc4:	af 92       	push	r10
    2cc6:	bf 92       	push	r11
    2cc8:	cf 92       	push	r12
    2cca:	df 92       	push	r13
    2ccc:	ef 92       	push	r14
    2cce:	ff 92       	push	r15
    2cd0:	0f 93       	push	r16
    2cd2:	1f 93       	push	r17
    2cd4:	cf 93       	push	r28
    2cd6:	df 93       	push	r29
    2cd8:	ec 01       	movw	r28, r24
	if (Wheel_1.selected){derWheel[1]=1;}else{derWheel[1]=0;};
    2cda:	8f 8d       	ldd	r24, Y+31	; 0x1f
    2cdc:	88 23       	and	r24, r24
    2cde:	31 f0       	breq	.+12     	; 0x2cec <_ZN7Carrage7ForceUpEv+0x28>
    2ce0:	81 e0       	ldi	r24, 0x01	; 1
    2ce2:	fe 01       	movw	r30, r28
    2ce4:	e8 50       	subi	r30, 0x08	; 8
    2ce6:	ff 4f       	sbci	r31, 0xFF	; 255
    2ce8:	80 83       	st	Z, r24
    2cea:	04 c0       	rjmp	.+8      	; 0x2cf4 <_ZN7Carrage7ForceUpEv+0x30>
    2cec:	fe 01       	movw	r30, r28
    2cee:	e8 50       	subi	r30, 0x08	; 8
    2cf0:	ff 4f       	sbci	r31, 0xFF	; 255
    2cf2:	10 82       	st	Z, r1
	if (Wheel_2.selected){derWheel[2]=1;}else{derWheel[2]=0;};
    2cf4:	fe 01       	movw	r30, r28
    2cf6:	ef 5a       	subi	r30, 0xAF	; 175
    2cf8:	ff 4f       	sbci	r31, 0xFF	; 255
    2cfa:	80 81       	ld	r24, Z
    2cfc:	88 23       	and	r24, r24
    2cfe:	29 f0       	breq	.+10     	; 0x2d0a <_ZN7Carrage7ForceUpEv+0x46>
    2d00:	81 e0       	ldi	r24, 0x01	; 1
    2d02:	e8 55       	subi	r30, 0x58	; 88
    2d04:	ff 4f       	sbci	r31, 0xFF	; 255
    2d06:	80 83       	st	Z, r24
    2d08:	04 c0       	rjmp	.+8      	; 0x2d12 <_ZN7Carrage7ForceUpEv+0x4e>
    2d0a:	fe 01       	movw	r30, r28
    2d0c:	e7 50       	subi	r30, 0x07	; 7
    2d0e:	ff 4f       	sbci	r31, 0xFF	; 255
    2d10:	10 82       	st	Z, r1
	if (Wheel_3.selected){derWheel[3]=1;}else{derWheel[3]=0;};
    2d12:	fe 01       	movw	r30, r28
    2d14:	ed 57       	subi	r30, 0x7D	; 125
    2d16:	ff 4f       	sbci	r31, 0xFF	; 255
    2d18:	80 81       	ld	r24, Z
    2d1a:	88 23       	and	r24, r24
    2d1c:	29 f0       	breq	.+10     	; 0x2d28 <_ZN7Carrage7ForceUpEv+0x64>
    2d1e:	81 e0       	ldi	r24, 0x01	; 1
    2d20:	e9 58       	subi	r30, 0x89	; 137
    2d22:	ff 4f       	sbci	r31, 0xFF	; 255
    2d24:	80 83       	st	Z, r24
    2d26:	04 c0       	rjmp	.+8      	; 0x2d30 <_ZN7Carrage7ForceUpEv+0x6c>
    2d28:	fe 01       	movw	r30, r28
    2d2a:	e6 50       	subi	r30, 0x06	; 6
    2d2c:	ff 4f       	sbci	r31, 0xFF	; 255
    2d2e:	10 82       	st	Z, r1
	if (Wheel_4.selected){derWheel[4]=1;}else{derWheel[4]=0;};
    2d30:	fe 01       	movw	r30, r28
    2d32:	eb 54       	subi	r30, 0x4B	; 75
    2d34:	ff 4f       	sbci	r31, 0xFF	; 255
    2d36:	80 81       	ld	r24, Z
    2d38:	88 23       	and	r24, r24
    2d3a:	29 f0       	breq	.+10     	; 0x2d46 <_ZN7Carrage7ForceUpEv+0x82>
    2d3c:	81 e0       	ldi	r24, 0x01	; 1
    2d3e:	ea 5b       	subi	r30, 0xBA	; 186
    2d40:	ff 4f       	sbci	r31, 0xFF	; 255
    2d42:	80 83       	st	Z, r24
    2d44:	04 c0       	rjmp	.+8      	; 0x2d4e <_ZN7Carrage7ForceUpEv+0x8a>
    2d46:	fe 01       	movw	r30, r28
    2d48:	e5 50       	subi	r30, 0x05	; 5
    2d4a:	ff 4f       	sbci	r31, 0xFF	; 255
    2d4c:	10 82       	st	Z, r1
	if(!ChekGetLimitsHight()){support.ForceMove(step_force_move,derWheel[1], derWheel[2] ,derWheel[3] ,derWheel[4] );}
    2d4e:	ce 01       	movw	r24, r28
    2d50:	0e 94 2e 16 	call	0x2c5c	; 0x2c5c <_ZN7Carrage18ChekGetLimitsHightEv>
    2d54:	81 11       	cpse	r24, r1
    2d56:	1c c0       	rjmp	.+56     	; 0x2d90 <_ZN7Carrage7ForceUpEv+0xcc>
    2d58:	fe 01       	movw	r30, r28
    2d5a:	e5 50       	subi	r30, 0x05	; 5
    2d5c:	ff 4f       	sbci	r31, 0xFF	; 255
    2d5e:	e0 80       	ld	r14, Z
    2d60:	f1 2c       	mov	r15, r1
    2d62:	31 97       	sbiw	r30, 0x01	; 1
    2d64:	00 81       	ld	r16, Z
    2d66:	10 e0       	ldi	r17, 0x00	; 0
    2d68:	31 97       	sbiw	r30, 0x01	; 1
    2d6a:	a0 80       	ld	r10, Z
    2d6c:	b1 2c       	mov	r11, r1
    2d6e:	31 97       	sbiw	r30, 0x01	; 1
    2d70:	c0 80       	ld	r12, Z
    2d72:	d1 2c       	mov	r13, r1
    2d74:	b6 97       	sbiw	r30, 0x26	; 38
    2d76:	60 81       	ld	r22, Z
    2d78:	71 81       	ldd	r23, Z+1	; 0x01
    2d7a:	82 81       	ldd	r24, Z+2	; 0x02
    2d7c:	93 81       	ldd	r25, Z+3	; 0x03
    2d7e:	0e 94 76 2f 	call	0x5eec	; 0x5eec <__fixsfsi>
    2d82:	95 01       	movw	r18, r10
    2d84:	a6 01       	movw	r20, r12
    2d86:	ce 01       	movw	r24, r28
    2d88:	88 53       	subi	r24, 0x38	; 56
    2d8a:	9f 4f       	sbci	r25, 0xFF	; 255
    2d8c:	0e 94 1c 2b 	call	0x5638	; 0x5638 <_ZN7Support9ForceMoveEiiiii>
	oldHightUpdate();
    2d90:	ce 01       	movw	r24, r28
    2d92:	0e 94 a9 10 	call	0x2152	; 0x2152 <_ZN7Carrage14oldHightUpdateEv>
}
    2d96:	df 91       	pop	r29
    2d98:	cf 91       	pop	r28
    2d9a:	1f 91       	pop	r17
    2d9c:	0f 91       	pop	r16
    2d9e:	ff 90       	pop	r15
    2da0:	ef 90       	pop	r14
    2da2:	df 90       	pop	r13
    2da4:	cf 90       	pop	r12
    2da6:	bf 90       	pop	r11
    2da8:	af 90       	pop	r10
    2daa:	08 95       	ret

00002dac <_ZN7Carrage17LCDflachIndicatorEi>:
		}else{
		return false;
	}
}

void Carrage::LCDflachIndicator(int i){
    2dac:	cb 01       	movw	r24, r22

	if(i%20>5){
    2dae:	64 e1       	ldi	r22, 0x14	; 20
    2db0:	70 e0       	ldi	r23, 0x00	; 0
    2db2:	0e 94 d0 30 	call	0x61a0	; 0x61a0 <__divmodhi4>
    2db6:	06 97       	sbiw	r24, 0x06	; 6
    2db8:	ec f0       	brlt	.+58     	; 0x2df4 <_ZN7Carrage17LCDflachIndicatorEi+0x48>

		LcdGotoXY(6,2);
    2dba:	62 e0       	ldi	r22, 0x02	; 2
    2dbc:	86 e0       	ldi	r24, 0x06	; 6
    2dbe:	0e 94 e3 1a 	call	0x35c6	; 0x35c6 <_Z9LcdGotoXYhh>
		LcdChr_full(0x96);
    2dc2:	86 e9       	ldi	r24, 0x96	; 150
    2dc4:	0e 94 fe 1a 	call	0x35fc	; 0x35fc <_Z11LcdChr_fullh>
		LcdGotoXY(7,2);
    2dc8:	62 e0       	ldi	r22, 0x02	; 2
    2dca:	87 e0       	ldi	r24, 0x07	; 7
    2dcc:	0e 94 e3 1a 	call	0x35c6	; 0x35c6 <_Z9LcdGotoXYhh>
		LcdChr_full(0x97);
    2dd0:	87 e9       	ldi	r24, 0x97	; 151
    2dd2:	0e 94 fe 1a 	call	0x35fc	; 0x35fc <_Z11LcdChr_fullh>
		LcdGotoXY(6,3);
    2dd6:	63 e0       	ldi	r22, 0x03	; 3
    2dd8:	86 e0       	ldi	r24, 0x06	; 6
    2dda:	0e 94 e3 1a 	call	0x35c6	; 0x35c6 <_Z9LcdGotoXYhh>
		LcdChr_full(0x98);
    2dde:	88 e9       	ldi	r24, 0x98	; 152
    2de0:	0e 94 fe 1a 	call	0x35fc	; 0x35fc <_Z11LcdChr_fullh>
		LcdGotoXY(7,3);
    2de4:	63 e0       	ldi	r22, 0x03	; 3
    2de6:	87 e0       	ldi	r24, 0x07	; 7
    2de8:	0e 94 e3 1a 	call	0x35c6	; 0x35c6 <_Z9LcdGotoXYhh>
		LcdChr_full(0x99);
    2dec:	89 e9       	ldi	r24, 0x99	; 153
    2dee:	0e 94 fe 1a 	call	0x35fc	; 0x35fc <_Z11LcdChr_fullh>
    2df2:	08 95       	ret
		
	}else{

		LcdGotoXY(6,2);
    2df4:	62 e0       	ldi	r22, 0x02	; 2
    2df6:	86 e0       	ldi	r24, 0x06	; 6
    2df8:	0e 94 e3 1a 	call	0x35c6	; 0x35c6 <_Z9LcdGotoXYhh>
		LcdChr_full(0x92);
    2dfc:	82 e9       	ldi	r24, 0x92	; 146
    2dfe:	0e 94 fe 1a 	call	0x35fc	; 0x35fc <_Z11LcdChr_fullh>
		LcdGotoXY(7,2);
    2e02:	62 e0       	ldi	r22, 0x02	; 2
    2e04:	87 e0       	ldi	r24, 0x07	; 7
    2e06:	0e 94 e3 1a 	call	0x35c6	; 0x35c6 <_Z9LcdGotoXYhh>
		LcdChr_full(0x93);
    2e0a:	83 e9       	ldi	r24, 0x93	; 147
    2e0c:	0e 94 fe 1a 	call	0x35fc	; 0x35fc <_Z11LcdChr_fullh>
		LcdGotoXY(6,3);
    2e10:	63 e0       	ldi	r22, 0x03	; 3
    2e12:	86 e0       	ldi	r24, 0x06	; 6
    2e14:	0e 94 e3 1a 	call	0x35c6	; 0x35c6 <_Z9LcdGotoXYhh>
		LcdChr_full(0x94);
    2e18:	84 e9       	ldi	r24, 0x94	; 148
    2e1a:	0e 94 fe 1a 	call	0x35fc	; 0x35fc <_Z11LcdChr_fullh>
		LcdGotoXY(7,3);
    2e1e:	63 e0       	ldi	r22, 0x03	; 3
    2e20:	87 e0       	ldi	r24, 0x07	; 7
    2e22:	0e 94 e3 1a 	call	0x35c6	; 0x35c6 <_Z9LcdGotoXYhh>
		LcdChr_full(0x95);
    2e26:	85 e9       	ldi	r24, 0x95	; 149
    2e28:	0e 94 fe 1a 	call	0x35fc	; 0x35fc <_Z11LcdChr_fullh>
    2e2c:	08 95       	ret

00002e2e <_ZN7Carrage9AjustmentER5Panel>:
	Wheel_2.SetLimitsSetHight();
	Wheel_3.SetLimitsSetHight();
	Wheel_4.SetLimitsSetHight();
}

void Carrage::Ajustment(Panel &panel){
    2e2e:	2f 92       	push	r2
    2e30:	3f 92       	push	r3
    2e32:	4f 92       	push	r4
    2e34:	5f 92       	push	r5
    2e36:	6f 92       	push	r6
    2e38:	7f 92       	push	r7
    2e3a:	8f 92       	push	r8
    2e3c:	9f 92       	push	r9
    2e3e:	af 92       	push	r10
    2e40:	bf 92       	push	r11
    2e42:	cf 92       	push	r12
    2e44:	df 92       	push	r13
    2e46:	ef 92       	push	r14
    2e48:	ff 92       	push	r15
    2e4a:	0f 93       	push	r16
    2e4c:	1f 93       	push	r17
    2e4e:	cf 93       	push	r28
    2e50:	df 93       	push	r29
    2e52:	cd b7       	in	r28, 0x3d	; 61
    2e54:	de b7       	in	r29, 0x3e	; 62
    2e56:	6a 97       	sbiw	r28, 0x1a	; 26
    2e58:	0f b6       	in	r0, 0x3f	; 63
    2e5a:	f8 94       	cli
    2e5c:	de bf       	out	0x3e, r29	; 62
    2e5e:	0f be       	out	0x3f, r0	; 63
    2e60:	cd bf       	out	0x3d, r28	; 61
    2e62:	9a 8f       	std	Y+26, r25	; 0x1a
    2e64:	89 8f       	std	Y+25, r24	; 0x19
    2e66:	7c 8b       	std	Y+20, r23	; 0x14
    2e68:	6b 8b       	std	Y+19, r22	; 0x13
	CheckLimitsSetHight();
    2e6a:	0e 94 18 11 	call	0x2230	; 0x2230 <_ZN7Carrage19CheckLimitsSetHightEv>
	finish=1;
    2e6e:	e9 8d       	ldd	r30, Y+25	; 0x19
    2e70:	fa 8d       	ldd	r31, Y+26	; 0x1a
    2e72:	ea 5f       	subi	r30, 0xFA	; 250
    2e74:	fe 4f       	sbci	r31, 0xFE	; 254
    2e76:	81 e0       	ldi	r24, 0x01	; 1
    2e78:	90 e0       	ldi	r25, 0x00	; 0
    2e7a:	91 83       	std	Z+1, r25	; 0x01
    2e7c:	80 83       	st	Z, r24
	int i=0;
	int pressed = panel.Pressed(10);
    2e7e:	6a e0       	ldi	r22, 0x0A	; 10
    2e80:	70 e0       	ldi	r23, 0x00	; 0
    2e82:	8b 89       	ldd	r24, Y+19	; 0x13
    2e84:	9c 89       	ldd	r25, Y+20	; 0x14
    2e86:	0e 94 ad 29 	call	0x535a	; 0x535a <_ZN5Panel7PressedEi>
    2e8a:	98 87       	std	Y+8, r25	; 0x08
    2e8c:	8f 83       	std	Y+7, r24	; 0x07
	if (chechWheelsBefore()){
    2e8e:	89 8d       	ldd	r24, Y+25	; 0x19
    2e90:	9a 8d       	ldd	r25, Y+26	; 0x1a
    2e92:	0e 94 df 12 	call	0x25be	; 0x25be <_ZN7Carrage17chechWheelsBeforeEv>
    2e96:	88 23       	and	r24, r24
    2e98:	09 f4       	brne	.+2      	; 0x2e9c <_ZN7Carrage9AjustmentER5Panel+0x6e>
    2e9a:	d9 c1       	rjmp	.+946    	; 0x324e <_ZN7Carrage9AjustmentER5Panel+0x420>
    2e9c:	81 2c       	mov	r8, r1
    2e9e:	91 2c       	mov	r9, r1
		while(finish>0&&i<500&&pressed == -1){
    2ea0:	29 8d       	ldd	r18, Y+25	; 0x19
    2ea2:	3a 8d       	ldd	r19, Y+26	; 0x1a
    2ea4:	2a 5f       	subi	r18, 0xFA	; 250
    2ea6:	3e 4f       	sbci	r19, 0xFE	; 254
    2ea8:	3a 87       	std	Y+10, r19	; 0x0a
    2eaa:	29 87       	std	Y+9, r18	; 0x09
			
			pressed = panel.Pressed(10);
			
			Wheel_1.hightBeforeMoveNoting();
			Wheel_2.hightBeforeMoveNoting();
    2eac:	89 8d       	ldd	r24, Y+25	; 0x19
    2eae:	9a 8d       	ldd	r25, Y+26	; 0x1a
    2eb0:	c2 96       	adiw	r24, 0x32	; 50
    2eb2:	9a 83       	std	Y+2, r25	; 0x02
    2eb4:	89 83       	std	Y+1, r24	; 0x01
			Wheel_3.hightBeforeMoveNoting();
    2eb6:	e9 8d       	ldd	r30, Y+25	; 0x19
    2eb8:	fa 8d       	ldd	r31, Y+26	; 0x1a
    2eba:	ec 59       	subi	r30, 0x9C	; 156
    2ebc:	ff 4f       	sbci	r31, 0xFF	; 255
    2ebe:	fc 83       	std	Y+4, r31	; 0x04
    2ec0:	eb 83       	std	Y+3, r30	; 0x03
			Wheel_4.hightBeforeMoveNoting();
    2ec2:	29 8d       	ldd	r18, Y+25	; 0x19
    2ec4:	3a 8d       	ldd	r19, Y+26	; 0x1a
    2ec6:	2a 56       	subi	r18, 0x6A	; 106
    2ec8:	3f 4f       	sbci	r19, 0xFF	; 255
    2eca:	3e 83       	std	Y+6, r19	; 0x06
    2ecc:	2d 83       	std	Y+5, r18	; 0x05
			
			LCDflachIndicator(i);
			derWheel[1] = Wheel_1.takeDerection(accuracy);
    2ece:	29 8c       	ldd	r2, Y+25	; 0x19
    2ed0:	3a 8c       	ldd	r3, Y+26	; 0x1a
    2ed2:	36 ed       	ldi	r19, 0xD6	; 214
    2ed4:	23 0e       	add	r2, r19
    2ed6:	31 1c       	adc	r3, r1
    2ed8:	89 8d       	ldd	r24, Y+25	; 0x19
    2eda:	9a 8d       	ldd	r25, Y+26	; 0x1a
    2edc:	88 50       	subi	r24, 0x08	; 8
    2ede:	9f 4f       	sbci	r25, 0xFF	; 255
    2ee0:	9c 87       	std	Y+12, r25	; 0x0c
    2ee2:	8b 87       	std	Y+11, r24	; 0x0b
			Fast_print_LSD_hight(Wheel_1);
			derWheel[2] = Wheel_2.takeDerection(accuracy);
    2ee4:	e9 8d       	ldd	r30, Y+25	; 0x19
    2ee6:	fa 8d       	ldd	r31, Y+26	; 0x1a
    2ee8:	e7 50       	subi	r30, 0x07	; 7
    2eea:	ff 4f       	sbci	r31, 0xFF	; 255
    2eec:	fe 87       	std	Y+14, r31	; 0x0e
    2eee:	ed 87       	std	Y+13, r30	; 0x0d
			Fast_print_LSD_hight(Wheel_2);
			derWheel[3] = Wheel_3.takeDerection(accuracy);
    2ef0:	29 8d       	ldd	r18, Y+25	; 0x19
    2ef2:	3a 8d       	ldd	r19, Y+26	; 0x1a
    2ef4:	26 50       	subi	r18, 0x06	; 6
    2ef6:	3f 4f       	sbci	r19, 0xFF	; 255
    2ef8:	38 8b       	std	Y+16, r19	; 0x10
    2efa:	2f 87       	std	Y+15, r18	; 0x0f
			Fast_print_LSD_hight(Wheel_3);
			derWheel[4] = Wheel_4.takeDerection(accuracy);
    2efc:	89 8d       	ldd	r24, Y+25	; 0x19
    2efe:	9a 8d       	ldd	r25, Y+26	; 0x1a
    2f00:	85 50       	subi	r24, 0x05	; 5
    2f02:	9f 4f       	sbci	r25, 0xFF	; 255
    2f04:	9a 8b       	std	Y+18, r25	; 0x12
    2f06:	89 8b       	std	Y+17, r24	; 0x11
			Fast_print_LSD_hight(Wheel_4);
		
			finish = derWheel[1] + derWheel[2] + derWheel[3] + derWheel[4];
			support.Adjast(getStep(), inertion ,derWheel[1], derWheel[2] ,derWheel[3] ,derWheel[4] );	
    2f08:	e9 8d       	ldd	r30, Y+25	; 0x19
    2f0a:	fa 8d       	ldd	r31, Y+26	; 0x1a
    2f0c:	e2 53       	subi	r30, 0x32	; 50
    2f0e:	ff 4f       	sbci	r31, 0xFF	; 255
    2f10:	fe 8b       	std	Y+22, r31	; 0x16
    2f12:	ed 8b       	std	Y+21, r30	; 0x15
    2f14:	29 8d       	ldd	r18, Y+25	; 0x19
    2f16:	3a 8d       	ldd	r19, Y+26	; 0x1a
    2f18:	28 53       	subi	r18, 0x38	; 56
    2f1a:	3f 4f       	sbci	r19, 0xFF	; 255
    2f1c:	38 8f       	std	Y+24, r19	; 0x18
    2f1e:	2f 8b       	std	Y+23, r18	; 0x17
	CheckLimitsSetHight();
	finish=1;
	int i=0;
	int pressed = panel.Pressed(10);
	if (chechWheelsBefore()){
		while(finish>0&&i<500&&pressed == -1){
    2f20:	e9 85       	ldd	r30, Y+9	; 0x09
    2f22:	fa 85       	ldd	r31, Y+10	; 0x0a
    2f24:	80 81       	ld	r24, Z
    2f26:	91 81       	ldd	r25, Z+1	; 0x01
    2f28:	18 16       	cp	r1, r24
    2f2a:	19 06       	cpc	r1, r25
    2f2c:	0c f0       	brlt	.+2      	; 0x2f30 <_ZN7Carrage9AjustmentER5Panel+0x102>
    2f2e:	27 c1       	rjmp	.+590    	; 0x317e <_ZN7Carrage9AjustmentER5Panel+0x350>
    2f30:	f4 ef       	ldi	r31, 0xF4	; 244
    2f32:	8f 16       	cp	r8, r31
    2f34:	f1 e0       	ldi	r31, 0x01	; 1
    2f36:	9f 06       	cpc	r9, r31
    2f38:	09 f4       	brne	.+2      	; 0x2f3c <_ZN7Carrage9AjustmentER5Panel+0x10e>
    2f3a:	28 c1       	rjmp	.+592    	; 0x318c <_ZN7Carrage9AjustmentER5Panel+0x35e>
    2f3c:	2f 81       	ldd	r18, Y+7	; 0x07
    2f3e:	38 85       	ldd	r19, Y+8	; 0x08
    2f40:	2f 3f       	cpi	r18, 0xFF	; 255
    2f42:	3f 4f       	sbci	r19, 0xFF	; 255
    2f44:	09 f0       	breq	.+2      	; 0x2f48 <_ZN7Carrage9AjustmentER5Panel+0x11a>
    2f46:	83 c1       	rjmp	.+774    	; 0x324e <_ZN7Carrage9AjustmentER5Panel+0x420>
			
			pressed = panel.Pressed(10);
    2f48:	6a e0       	ldi	r22, 0x0A	; 10
    2f4a:	70 e0       	ldi	r23, 0x00	; 0
    2f4c:	8b 89       	ldd	r24, Y+19	; 0x13
    2f4e:	9c 89       	ldd	r25, Y+20	; 0x14
    2f50:	0e 94 ad 29 	call	0x535a	; 0x535a <_ZN5Panel7PressedEi>
    2f54:	98 87       	std	Y+8, r25	; 0x08
    2f56:	8f 83       	std	Y+7, r24	; 0x07
			
			Wheel_1.hightBeforeMoveNoting();
    2f58:	89 8d       	ldd	r24, Y+25	; 0x19
    2f5a:	9a 8d       	ldd	r25, Y+26	; 0x1a
    2f5c:	0e 94 d0 2b 	call	0x57a0	; 0x57a0 <_ZN5Wheel21hightBeforeMoveNotingEv>
			Wheel_2.hightBeforeMoveNoting();
    2f60:	89 81       	ldd	r24, Y+1	; 0x01
    2f62:	9a 81       	ldd	r25, Y+2	; 0x02
    2f64:	0e 94 d0 2b 	call	0x57a0	; 0x57a0 <_ZN5Wheel21hightBeforeMoveNotingEv>
			Wheel_3.hightBeforeMoveNoting();
    2f68:	8b 81       	ldd	r24, Y+3	; 0x03
    2f6a:	9c 81       	ldd	r25, Y+4	; 0x04
    2f6c:	0e 94 d0 2b 	call	0x57a0	; 0x57a0 <_ZN5Wheel21hightBeforeMoveNotingEv>
			Wheel_4.hightBeforeMoveNoting();
    2f70:	8d 81       	ldd	r24, Y+5	; 0x05
    2f72:	9e 81       	ldd	r25, Y+6	; 0x06
    2f74:	0e 94 d0 2b 	call	0x57a0	; 0x57a0 <_ZN5Wheel21hightBeforeMoveNotingEv>
			
			LCDflachIndicator(i);
    2f78:	b4 01       	movw	r22, r8
    2f7a:	89 8d       	ldd	r24, Y+25	; 0x19
    2f7c:	9a 8d       	ldd	r25, Y+26	; 0x1a
    2f7e:	0e 94 d6 16 	call	0x2dac	; 0x2dac <_ZN7Carrage17LCDflachIndicatorEi>
			derWheel[1] = Wheel_1.takeDerection(accuracy);
    2f82:	f1 01       	movw	r30, r2
    2f84:	40 81       	ld	r20, Z
    2f86:	51 81       	ldd	r21, Z+1	; 0x01
    2f88:	62 81       	ldd	r22, Z+2	; 0x02
    2f8a:	73 81       	ldd	r23, Z+3	; 0x03
    2f8c:	89 8d       	ldd	r24, Y+25	; 0x19
    2f8e:	9a 8d       	ldd	r25, Y+26	; 0x1a
    2f90:	0e 94 e2 2b 	call	0x57c4	; 0x57c4 <_ZN5Wheel13takeDerectionEf>
    2f94:	eb 85       	ldd	r30, Y+11	; 0x0b
    2f96:	fc 85       	ldd	r31, Y+12	; 0x0c
    2f98:	80 83       	st	Z, r24
			Fast_print_LSD_hight(Wheel_1);
    2f9a:	2d b7       	in	r18, 0x3d	; 61
    2f9c:	3e b7       	in	r19, 0x3e	; 62
    2f9e:	22 53       	subi	r18, 0x32	; 50
    2fa0:	31 09       	sbc	r19, r1
    2fa2:	0f b6       	in	r0, 0x3f	; 63
    2fa4:	f8 94       	cli
    2fa6:	3e bf       	out	0x3e, r19	; 62
    2fa8:	0f be       	out	0x3f, r0	; 63
    2faa:	2d bf       	out	0x3d, r18	; 61
    2fac:	ad b7       	in	r26, 0x3d	; 61
    2fae:	be b7       	in	r27, 0x3e	; 62
    2fb0:	11 96       	adiw	r26, 0x01	; 1
    2fb2:	82 e3       	ldi	r24, 0x32	; 50
    2fb4:	e9 8d       	ldd	r30, Y+25	; 0x19
    2fb6:	fa 8d       	ldd	r31, Y+26	; 0x1a
    2fb8:	01 90       	ld	r0, Z+
    2fba:	0d 92       	st	X+, r0
    2fbc:	8a 95       	dec	r24
    2fbe:	e1 f7       	brne	.-8      	; 0x2fb8 <_ZN7Carrage9AjustmentER5Panel+0x18a>
    2fc0:	89 8d       	ldd	r24, Y+25	; 0x19
    2fc2:	9a 8d       	ldd	r25, Y+26	; 0x1a
    2fc4:	0e 94 95 12 	call	0x252a	; 0x252a <_ZN7Carrage20Fast_print_LSD_hightE5Wheel>
			derWheel[2] = Wheel_2.takeDerection(accuracy);
    2fc8:	0f b6       	in	r0, 0x3f	; 63
    2fca:	f8 94       	cli
    2fcc:	de bf       	out	0x3e, r29	; 62
    2fce:	0f be       	out	0x3f, r0	; 63
    2fd0:	cd bf       	out	0x3d, r28	; 61
    2fd2:	f1 01       	movw	r30, r2
    2fd4:	40 81       	ld	r20, Z
    2fd6:	51 81       	ldd	r21, Z+1	; 0x01
    2fd8:	62 81       	ldd	r22, Z+2	; 0x02
    2fda:	73 81       	ldd	r23, Z+3	; 0x03
    2fdc:	89 81       	ldd	r24, Y+1	; 0x01
    2fde:	9a 81       	ldd	r25, Y+2	; 0x02
    2fe0:	0e 94 e2 2b 	call	0x57c4	; 0x57c4 <_ZN5Wheel13takeDerectionEf>
    2fe4:	ed 85       	ldd	r30, Y+13	; 0x0d
    2fe6:	fe 85       	ldd	r31, Y+14	; 0x0e
    2fe8:	80 83       	st	Z, r24
			Fast_print_LSD_hight(Wheel_2);
    2fea:	2d b7       	in	r18, 0x3d	; 61
    2fec:	3e b7       	in	r19, 0x3e	; 62
    2fee:	22 53       	subi	r18, 0x32	; 50
    2ff0:	31 09       	sbc	r19, r1
    2ff2:	0f b6       	in	r0, 0x3f	; 63
    2ff4:	f8 94       	cli
    2ff6:	3e bf       	out	0x3e, r19	; 62
    2ff8:	0f be       	out	0x3f, r0	; 63
    2ffa:	2d bf       	out	0x3d, r18	; 61
    2ffc:	ad b7       	in	r26, 0x3d	; 61
    2ffe:	be b7       	in	r27, 0x3e	; 62
    3000:	11 96       	adiw	r26, 0x01	; 1
    3002:	82 e3       	ldi	r24, 0x32	; 50
    3004:	e9 81       	ldd	r30, Y+1	; 0x01
    3006:	fa 81       	ldd	r31, Y+2	; 0x02
    3008:	01 90       	ld	r0, Z+
    300a:	0d 92       	st	X+, r0
    300c:	8a 95       	dec	r24
    300e:	e1 f7       	brne	.-8      	; 0x3008 <_ZN7Carrage9AjustmentER5Panel+0x1da>
    3010:	89 8d       	ldd	r24, Y+25	; 0x19
    3012:	9a 8d       	ldd	r25, Y+26	; 0x1a
    3014:	0e 94 95 12 	call	0x252a	; 0x252a <_ZN7Carrage20Fast_print_LSD_hightE5Wheel>
			derWheel[3] = Wheel_3.takeDerection(accuracy);
    3018:	0f b6       	in	r0, 0x3f	; 63
    301a:	f8 94       	cli
    301c:	de bf       	out	0x3e, r29	; 62
    301e:	0f be       	out	0x3f, r0	; 63
    3020:	cd bf       	out	0x3d, r28	; 61
    3022:	f1 01       	movw	r30, r2
    3024:	40 81       	ld	r20, Z
    3026:	51 81       	ldd	r21, Z+1	; 0x01
    3028:	62 81       	ldd	r22, Z+2	; 0x02
    302a:	73 81       	ldd	r23, Z+3	; 0x03
    302c:	8b 81       	ldd	r24, Y+3	; 0x03
    302e:	9c 81       	ldd	r25, Y+4	; 0x04
    3030:	0e 94 e2 2b 	call	0x57c4	; 0x57c4 <_ZN5Wheel13takeDerectionEf>
    3034:	ef 85       	ldd	r30, Y+15	; 0x0f
    3036:	f8 89       	ldd	r31, Y+16	; 0x10
    3038:	80 83       	st	Z, r24
			Fast_print_LSD_hight(Wheel_3);
    303a:	2d b7       	in	r18, 0x3d	; 61
    303c:	3e b7       	in	r19, 0x3e	; 62
    303e:	22 53       	subi	r18, 0x32	; 50
    3040:	31 09       	sbc	r19, r1
    3042:	0f b6       	in	r0, 0x3f	; 63
    3044:	f8 94       	cli
    3046:	3e bf       	out	0x3e, r19	; 62
    3048:	0f be       	out	0x3f, r0	; 63
    304a:	2d bf       	out	0x3d, r18	; 61
    304c:	ad b7       	in	r26, 0x3d	; 61
    304e:	be b7       	in	r27, 0x3e	; 62
    3050:	11 96       	adiw	r26, 0x01	; 1
    3052:	82 e3       	ldi	r24, 0x32	; 50
    3054:	eb 81       	ldd	r30, Y+3	; 0x03
    3056:	fc 81       	ldd	r31, Y+4	; 0x04
    3058:	01 90       	ld	r0, Z+
    305a:	0d 92       	st	X+, r0
    305c:	8a 95       	dec	r24
    305e:	e1 f7       	brne	.-8      	; 0x3058 <_ZN7Carrage9AjustmentER5Panel+0x22a>
    3060:	89 8d       	ldd	r24, Y+25	; 0x19
    3062:	9a 8d       	ldd	r25, Y+26	; 0x1a
    3064:	0e 94 95 12 	call	0x252a	; 0x252a <_ZN7Carrage20Fast_print_LSD_hightE5Wheel>
			derWheel[4] = Wheel_4.takeDerection(accuracy);
    3068:	0f b6       	in	r0, 0x3f	; 63
    306a:	f8 94       	cli
    306c:	de bf       	out	0x3e, r29	; 62
    306e:	0f be       	out	0x3f, r0	; 63
    3070:	cd bf       	out	0x3d, r28	; 61
    3072:	f1 01       	movw	r30, r2
    3074:	40 81       	ld	r20, Z
    3076:	51 81       	ldd	r21, Z+1	; 0x01
    3078:	62 81       	ldd	r22, Z+2	; 0x02
    307a:	73 81       	ldd	r23, Z+3	; 0x03
    307c:	8d 81       	ldd	r24, Y+5	; 0x05
    307e:	9e 81       	ldd	r25, Y+6	; 0x06
    3080:	0e 94 e2 2b 	call	0x57c4	; 0x57c4 <_ZN5Wheel13takeDerectionEf>
    3084:	e9 89       	ldd	r30, Y+17	; 0x11
    3086:	fa 89       	ldd	r31, Y+18	; 0x12
    3088:	80 83       	st	Z, r24
			Fast_print_LSD_hight(Wheel_4);
    308a:	2d b7       	in	r18, 0x3d	; 61
    308c:	3e b7       	in	r19, 0x3e	; 62
    308e:	22 53       	subi	r18, 0x32	; 50
    3090:	31 09       	sbc	r19, r1
    3092:	0f b6       	in	r0, 0x3f	; 63
    3094:	f8 94       	cli
    3096:	3e bf       	out	0x3e, r19	; 62
    3098:	0f be       	out	0x3f, r0	; 63
    309a:	2d bf       	out	0x3d, r18	; 61
    309c:	ad b7       	in	r26, 0x3d	; 61
    309e:	be b7       	in	r27, 0x3e	; 62
    30a0:	11 96       	adiw	r26, 0x01	; 1
    30a2:	82 e3       	ldi	r24, 0x32	; 50
    30a4:	ed 81       	ldd	r30, Y+5	; 0x05
    30a6:	fe 81       	ldd	r31, Y+6	; 0x06
    30a8:	01 90       	ld	r0, Z+
    30aa:	0d 92       	st	X+, r0
    30ac:	8a 95       	dec	r24
    30ae:	e1 f7       	brne	.-8      	; 0x30a8 <_ZN7Carrage9AjustmentER5Panel+0x27a>
    30b0:	89 8d       	ldd	r24, Y+25	; 0x19
    30b2:	9a 8d       	ldd	r25, Y+26	; 0x1a
    30b4:	0e 94 95 12 	call	0x252a	; 0x252a <_ZN7Carrage20Fast_print_LSD_hightE5Wheel>
		
			finish = derWheel[1] + derWheel[2] + derWheel[3] + derWheel[4];
    30b8:	eb 85       	ldd	r30, Y+11	; 0x0b
    30ba:	fc 85       	ldd	r31, Y+12	; 0x0c
    30bc:	00 81       	ld	r16, Z
    30be:	10 e0       	ldi	r17, 0x00	; 0
    30c0:	ed 85       	ldd	r30, Y+13	; 0x0d
    30c2:	fe 85       	ldd	r31, Y+14	; 0x0e
    30c4:	e0 80       	ld	r14, Z
    30c6:	f1 2c       	mov	r15, r1
    30c8:	ef 85       	ldd	r30, Y+15	; 0x0f
    30ca:	f8 89       	ldd	r31, Y+16	; 0x10
    30cc:	c0 80       	ld	r12, Z
    30ce:	d1 2c       	mov	r13, r1
    30d0:	e9 89       	ldd	r30, Y+17	; 0x11
    30d2:	fa 89       	ldd	r31, Y+18	; 0x12
    30d4:	a0 80       	ld	r10, Z
    30d6:	b1 2c       	mov	r11, r1
    30d8:	c8 01       	movw	r24, r16
    30da:	8e 0d       	add	r24, r14
    30dc:	9f 1d       	adc	r25, r15
    30de:	8c 0d       	add	r24, r12
    30e0:	9d 1d       	adc	r25, r13
    30e2:	8a 0d       	add	r24, r10
    30e4:	9b 1d       	adc	r25, r11
    30e6:	e9 85       	ldd	r30, Y+9	; 0x09
    30e8:	fa 85       	ldd	r31, Y+10	; 0x0a
    30ea:	91 83       	std	Z+1, r25	; 0x01
    30ec:	80 83       	st	Z, r24
			support.Adjast(getStep(), inertion ,derWheel[1], derWheel[2] ,derWheel[3] ,derWheel[4] );	
    30ee:	ed 89       	ldd	r30, Y+21	; 0x15
    30f0:	fe 89       	ldd	r31, Y+22	; 0x16
    30f2:	40 80       	ld	r4, Z
    30f4:	51 80       	ldd	r5, Z+1	; 0x01
    30f6:	62 80       	ldd	r6, Z+2	; 0x02
    30f8:	73 80       	ldd	r7, Z+3	; 0x03
    30fa:	0f b6       	in	r0, 0x3f	; 63
    30fc:	f8 94       	cli
    30fe:	de bf       	out	0x3e, r29	; 62
    3100:	0f be       	out	0x3f, r0	; 63
    3102:	cd bf       	out	0x3d, r28	; 61
    3104:	89 8d       	ldd	r24, Y+25	; 0x19
    3106:	9a 8d       	ldd	r25, Y+26	; 0x1a
    3108:	0e 94 36 12 	call	0x246c	; 0x246c <_ZN7Carrage7getStepEv>
    310c:	a3 01       	movw	r20, r6
    310e:	92 01       	movw	r18, r4
    3110:	bc 01       	movw	r22, r24
    3112:	8f 89       	ldd	r24, Y+23	; 0x17
    3114:	98 8d       	ldd	r25, Y+24	; 0x18
    3116:	0e 94 91 2a 	call	0x5522	; 0x5522 <_ZN7Support6AdjastEifiiii>

			Wheel_1.stepMinCorricting();
    311a:	89 8d       	ldd	r24, Y+25	; 0x19
    311c:	9a 8d       	ldd	r25, Y+26	; 0x1a
    311e:	0e 94 ab 2c 	call	0x5956	; 0x5956 <_ZN5Wheel17stepMinCorrictingEv>
			Wheel_2.stepMinCorricting();
    3122:	89 81       	ldd	r24, Y+1	; 0x01
    3124:	9a 81       	ldd	r25, Y+2	; 0x02
    3126:	0e 94 ab 2c 	call	0x5956	; 0x5956 <_ZN5Wheel17stepMinCorrictingEv>
			Wheel_3.stepMinCorricting();
    312a:	8b 81       	ldd	r24, Y+3	; 0x03
    312c:	9c 81       	ldd	r25, Y+4	; 0x04
    312e:	0e 94 ab 2c 	call	0x5956	; 0x5956 <_ZN5Wheel17stepMinCorrictingEv>
			Wheel_4.stepMinCorricting();			
    3132:	8d 81       	ldd	r24, Y+5	; 0x05
    3134:	9e 81       	ldd	r25, Y+6	; 0x06
    3136:	0e 94 ab 2c 	call	0x5956	; 0x5956 <_ZN5Wheel17stepMinCorrictingEv>
				
			i++;
    313a:	3f ef       	ldi	r19, 0xFF	; 255
    313c:	83 1a       	sub	r8, r19
    313e:	93 0a       	sbc	r9, r19
			
			if(i==100||i==200||i==300){
    3140:	84 e6       	ldi	r24, 0x64	; 100
    3142:	88 16       	cp	r8, r24
    3144:	91 04       	cpc	r9, r1
    3146:	51 f0       	breq	.+20     	; 0x315c <_ZN7Carrage9AjustmentER5Panel+0x32e>
    3148:	98 ec       	ldi	r25, 0xC8	; 200
    314a:	89 16       	cp	r8, r25
    314c:	91 04       	cpc	r9, r1
    314e:	31 f0       	breq	.+12     	; 0x315c <_ZN7Carrage9AjustmentER5Panel+0x32e>
    3150:	ec e2       	ldi	r30, 0x2C	; 44
    3152:	8e 16       	cp	r8, r30
    3154:	e1 e0       	ldi	r30, 0x01	; 1
    3156:	9e 06       	cpc	r9, r30
    3158:	09 f0       	breq	.+2      	; 0x315c <_ZN7Carrage9AjustmentER5Panel+0x32e>
    315a:	e2 ce       	rjmp	.-572    	; 0x2f20 <_ZN7Carrage9AjustmentER5Panel+0xf2>
				Wheel_1.stepMinReset();
    315c:	89 8d       	ldd	r24, Y+25	; 0x19
    315e:	9a 8d       	ldd	r25, Y+26	; 0x1a
    3160:	0e 94 de 2c 	call	0x59bc	; 0x59bc <_ZN5Wheel12stepMinResetEv>
				Wheel_2.stepMinReset();
    3164:	89 81       	ldd	r24, Y+1	; 0x01
    3166:	9a 81       	ldd	r25, Y+2	; 0x02
    3168:	0e 94 de 2c 	call	0x59bc	; 0x59bc <_ZN5Wheel12stepMinResetEv>
				Wheel_3.stepMinReset();
    316c:	8b 81       	ldd	r24, Y+3	; 0x03
    316e:	9c 81       	ldd	r25, Y+4	; 0x04
    3170:	0e 94 de 2c 	call	0x59bc	; 0x59bc <_ZN5Wheel12stepMinResetEv>
				Wheel_4.stepMinReset();
    3174:	8d 81       	ldd	r24, Y+5	; 0x05
    3176:	9e 81       	ldd	r25, Y+6	; 0x06
    3178:	0e 94 de 2c 	call	0x59bc	; 0x59bc <_ZN5Wheel12stepMinResetEv>
    317c:	d1 ce       	rjmp	.-606    	; 0x2f20 <_ZN7Carrage9AjustmentER5Panel+0xf2>
			
		}
		

	
		if(i>=500){
    317e:	34 ef       	ldi	r19, 0xF4	; 244
    3180:	83 16       	cp	r8, r19
    3182:	31 e0       	ldi	r19, 0x01	; 1
    3184:	93 06       	cpc	r9, r19
    3186:	0c f4       	brge	.+2      	; 0x318a <_ZN7Carrage9AjustmentER5Panel+0x35c>
    3188:	62 c0       	rjmp	.+196    	; 0x324e <_ZN7Carrage9AjustmentER5Panel+0x420>
    318a:	00 c0       	rjmp	.+0      	; 0x318c <_ZN7Carrage9AjustmentER5Panel+0x35e>
			if(derWheel[1]>0){Wheel_1.malfuction = true;Wheel_1.Error = 2;flagNewMalfuction = true;}
    318c:	e9 8d       	ldd	r30, Y+25	; 0x19
    318e:	fa 8d       	ldd	r31, Y+26	; 0x1a
    3190:	e8 50       	subi	r30, 0x08	; 8
    3192:	ff 4f       	sbci	r31, 0xFF	; 255
    3194:	80 81       	ld	r24, Z
    3196:	88 23       	and	r24, r24
    3198:	59 f0       	breq	.+22     	; 0x31b0 <_ZN7Carrage9AjustmentER5Panel+0x382>
    319a:	81 e0       	ldi	r24, 0x01	; 1
    319c:	e9 8d       	ldd	r30, Y+25	; 0x19
    319e:	fa 8d       	ldd	r31, Y+26	; 0x1a
    31a0:	80 a3       	std	Z+32, r24	; 0x20
    31a2:	22 e0       	ldi	r18, 0x02	; 2
    31a4:	30 e0       	ldi	r19, 0x00	; 0
    31a6:	34 a3       	std	Z+36, r19	; 0x24
    31a8:	23 a3       	std	Z+35, r18	; 0x23
    31aa:	e4 51       	subi	r30, 0x14	; 20
    31ac:	ff 4f       	sbci	r31, 0xFF	; 255
    31ae:	80 83       	st	Z, r24
			if(derWheel[2]>0){Wheel_2.malfuction = true;Wheel_2.Error = 2;flagNewMalfuction = true;}
    31b0:	e9 8d       	ldd	r30, Y+25	; 0x19
    31b2:	fa 8d       	ldd	r31, Y+26	; 0x1a
    31b4:	e7 50       	subi	r30, 0x07	; 7
    31b6:	ff 4f       	sbci	r31, 0xFF	; 255
    31b8:	80 81       	ld	r24, Z
    31ba:	88 23       	and	r24, r24
    31bc:	99 f0       	breq	.+38     	; 0x31e4 <_ZN7Carrage9AjustmentER5Panel+0x3b6>
    31be:	81 e0       	ldi	r24, 0x01	; 1
    31c0:	e9 8d       	ldd	r30, Y+25	; 0x19
    31c2:	fa 8d       	ldd	r31, Y+26	; 0x1a
    31c4:	ee 5a       	subi	r30, 0xAE	; 174
    31c6:	ff 4f       	sbci	r31, 0xFF	; 255
    31c8:	80 83       	st	Z, r24
    31ca:	22 e0       	ldi	r18, 0x02	; 2
    31cc:	30 e0       	ldi	r19, 0x00	; 0
    31ce:	e9 8d       	ldd	r30, Y+25	; 0x19
    31d0:	fa 8d       	ldd	r31, Y+26	; 0x1a
    31d2:	eb 5a       	subi	r30, 0xAB	; 171
    31d4:	ff 4f       	sbci	r31, 0xFF	; 255
    31d6:	31 83       	std	Z+1, r19	; 0x01
    31d8:	20 83       	st	Z, r18
    31da:	e9 8d       	ldd	r30, Y+25	; 0x19
    31dc:	fa 8d       	ldd	r31, Y+26	; 0x1a
    31de:	e4 51       	subi	r30, 0x14	; 20
    31e0:	ff 4f       	sbci	r31, 0xFF	; 255
    31e2:	80 83       	st	Z, r24
			if(derWheel[3]>0){Wheel_3.malfuction = true;Wheel_3.Error = 2;flagNewMalfuction = true;}
    31e4:	e9 8d       	ldd	r30, Y+25	; 0x19
    31e6:	fa 8d       	ldd	r31, Y+26	; 0x1a
    31e8:	e6 50       	subi	r30, 0x06	; 6
    31ea:	ff 4f       	sbci	r31, 0xFF	; 255
    31ec:	80 81       	ld	r24, Z
    31ee:	88 23       	and	r24, r24
    31f0:	99 f0       	breq	.+38     	; 0x3218 <_ZN7Carrage9AjustmentER5Panel+0x3ea>
    31f2:	81 e0       	ldi	r24, 0x01	; 1
    31f4:	e9 8d       	ldd	r30, Y+25	; 0x19
    31f6:	fa 8d       	ldd	r31, Y+26	; 0x1a
    31f8:	ec 57       	subi	r30, 0x7C	; 124
    31fa:	ff 4f       	sbci	r31, 0xFF	; 255
    31fc:	80 83       	st	Z, r24
    31fe:	22 e0       	ldi	r18, 0x02	; 2
    3200:	30 e0       	ldi	r19, 0x00	; 0
    3202:	e9 8d       	ldd	r30, Y+25	; 0x19
    3204:	fa 8d       	ldd	r31, Y+26	; 0x1a
    3206:	e9 57       	subi	r30, 0x79	; 121
    3208:	ff 4f       	sbci	r31, 0xFF	; 255
    320a:	31 83       	std	Z+1, r19	; 0x01
    320c:	20 83       	st	Z, r18
    320e:	e9 8d       	ldd	r30, Y+25	; 0x19
    3210:	fa 8d       	ldd	r31, Y+26	; 0x1a
    3212:	e4 51       	subi	r30, 0x14	; 20
    3214:	ff 4f       	sbci	r31, 0xFF	; 255
    3216:	80 83       	st	Z, r24
			if(derWheel[4]>0){Wheel_4.malfuction = true;Wheel_4.Error = 2;flagNewMalfuction = true;}
    3218:	e9 8d       	ldd	r30, Y+25	; 0x19
    321a:	fa 8d       	ldd	r31, Y+26	; 0x1a
    321c:	e5 50       	subi	r30, 0x05	; 5
    321e:	ff 4f       	sbci	r31, 0xFF	; 255
    3220:	80 81       	ld	r24, Z
    3222:	88 23       	and	r24, r24
    3224:	a1 f0       	breq	.+40     	; 0x324e <_ZN7Carrage9AjustmentER5Panel+0x420>
    3226:	e9 8d       	ldd	r30, Y+25	; 0x19
    3228:	fa 8d       	ldd	r31, Y+26	; 0x1a
    322a:	ea 54       	subi	r30, 0x4A	; 74
    322c:	ff 4f       	sbci	r31, 0xFF	; 255
    322e:	81 e0       	ldi	r24, 0x01	; 1
    3230:	80 83       	st	Z, r24
    3232:	e9 8d       	ldd	r30, Y+25	; 0x19
    3234:	fa 8d       	ldd	r31, Y+26	; 0x1a
    3236:	e7 54       	subi	r30, 0x47	; 71
    3238:	ff 4f       	sbci	r31, 0xFF	; 255
    323a:	22 e0       	ldi	r18, 0x02	; 2
    323c:	30 e0       	ldi	r19, 0x00	; 0
    323e:	31 83       	std	Z+1, r19	; 0x01
    3240:	20 83       	st	Z, r18
    3242:	29 8d       	ldd	r18, Y+25	; 0x19
    3244:	3a 8d       	ldd	r19, Y+26	; 0x1a
    3246:	24 51       	subi	r18, 0x14	; 20
    3248:	3f 4f       	sbci	r19, 0xFF	; 255
    324a:	f9 01       	movw	r30, r18
    324c:	80 83       	st	Z, r24
		}
		
		
	}
}
    324e:	6a 96       	adiw	r28, 0x1a	; 26
    3250:	0f b6       	in	r0, 0x3f	; 63
    3252:	f8 94       	cli
    3254:	de bf       	out	0x3e, r29	; 62
    3256:	0f be       	out	0x3f, r0	; 63
    3258:	cd bf       	out	0x3d, r28	; 61
    325a:	df 91       	pop	r29
    325c:	cf 91       	pop	r28
    325e:	1f 91       	pop	r17
    3260:	0f 91       	pop	r16
    3262:	ff 90       	pop	r15
    3264:	ef 90       	pop	r14
    3266:	df 90       	pop	r13
    3268:	cf 90       	pop	r12
    326a:	bf 90       	pop	r11
    326c:	af 90       	pop	r10
    326e:	9f 90       	pop	r9
    3270:	8f 90       	pop	r8
    3272:	7f 90       	pop	r7
    3274:	6f 90       	pop	r6
    3276:	5f 90       	pop	r5
    3278:	4f 90       	pop	r4
    327a:	3f 90       	pop	r3
    327c:	2f 90       	pop	r2
    327e:	08 95       	ret

00003280 <_ZN7Carrage2UpEfR5Panel>:
	Wheel_2.initialHight();
	Wheel_3.initialHight();
	Wheel_4.initialHight();
}

void Carrage::Up(float step, Panel &panel){
    3280:	cf 92       	push	r12
    3282:	df 92       	push	r13
    3284:	ef 92       	push	r14
    3286:	ff 92       	push	r15
    3288:	0f 93       	push	r16
    328a:	1f 93       	push	r17
    328c:	cf 93       	push	r28
    328e:	df 93       	push	r29
    3290:	ec 01       	movw	r28, r24
    3292:	6a 01       	movw	r12, r20
    3294:	7b 01       	movw	r14, r22
    3296:	89 01       	movw	r16, r18
	Wheel_1.Up(step);
    3298:	0e 94 b6 2d 	call	0x5b6c	; 0x5b6c <_ZN5Wheel2UpEf>
	Wheel_2.Up(step);
    329c:	b7 01       	movw	r22, r14
    329e:	a6 01       	movw	r20, r12
    32a0:	ce 01       	movw	r24, r28
    32a2:	c2 96       	adiw	r24, 0x32	; 50
    32a4:	0e 94 b6 2d 	call	0x5b6c	; 0x5b6c <_ZN5Wheel2UpEf>
	Wheel_3.Up(step);
    32a8:	b7 01       	movw	r22, r14
    32aa:	a6 01       	movw	r20, r12
    32ac:	ce 01       	movw	r24, r28
    32ae:	8c 59       	subi	r24, 0x9C	; 156
    32b0:	9f 4f       	sbci	r25, 0xFF	; 255
    32b2:	0e 94 b6 2d 	call	0x5b6c	; 0x5b6c <_ZN5Wheel2UpEf>
	Wheel_4.Up(step);
    32b6:	b7 01       	movw	r22, r14
    32b8:	a6 01       	movw	r20, r12
    32ba:	ce 01       	movw	r24, r28
    32bc:	8a 56       	subi	r24, 0x6A	; 106
    32be:	9f 4f       	sbci	r25, 0xFF	; 255
    32c0:	0e 94 b6 2d 	call	0x5b6c	; 0x5b6c <_ZN5Wheel2UpEf>
	Ajustment(panel);
    32c4:	b8 01       	movw	r22, r16
    32c6:	ce 01       	movw	r24, r28
    32c8:	0e 94 17 17 	call	0x2e2e	; 0x2e2e <_ZN7Carrage9AjustmentER5Panel>
	ChekGetLimitsHight();
    32cc:	ce 01       	movw	r24, r28
    32ce:	0e 94 2e 16 	call	0x2c5c	; 0x2c5c <_ZN7Carrage18ChekGetLimitsHightEv>
	oldHightUpdate();
    32d2:	ce 01       	movw	r24, r28
    32d4:	0e 94 a9 10 	call	0x2152	; 0x2152 <_ZN7Carrage14oldHightUpdateEv>
	
}
    32d8:	df 91       	pop	r29
    32da:	cf 91       	pop	r28
    32dc:	1f 91       	pop	r17
    32de:	0f 91       	pop	r16
    32e0:	ff 90       	pop	r15
    32e2:	ef 90       	pop	r14
    32e4:	df 90       	pop	r13
    32e6:	cf 90       	pop	r12
    32e8:	08 95       	ret

000032ea <_ZN7Carrage4DownEfR5Panel>:

void Carrage::Down(float step, Panel &panel){
    32ea:	cf 92       	push	r12
    32ec:	df 92       	push	r13
    32ee:	ef 92       	push	r14
    32f0:	ff 92       	push	r15
    32f2:	0f 93       	push	r16
    32f4:	1f 93       	push	r17
    32f6:	cf 93       	push	r28
    32f8:	df 93       	push	r29
    32fa:	ec 01       	movw	r28, r24
    32fc:	6a 01       	movw	r12, r20
    32fe:	7b 01       	movw	r14, r22
    3300:	89 01       	movw	r16, r18
	Wheel_1.Down(step);
    3302:	0e 94 e6 2d 	call	0x5bcc	; 0x5bcc <_ZN5Wheel4DownEf>
	Wheel_2.Down(step);
    3306:	b7 01       	movw	r22, r14
    3308:	a6 01       	movw	r20, r12
    330a:	ce 01       	movw	r24, r28
    330c:	c2 96       	adiw	r24, 0x32	; 50
    330e:	0e 94 e6 2d 	call	0x5bcc	; 0x5bcc <_ZN5Wheel4DownEf>
	Wheel_3.Down(step);
    3312:	b7 01       	movw	r22, r14
    3314:	a6 01       	movw	r20, r12
    3316:	ce 01       	movw	r24, r28
    3318:	8c 59       	subi	r24, 0x9C	; 156
    331a:	9f 4f       	sbci	r25, 0xFF	; 255
    331c:	0e 94 e6 2d 	call	0x5bcc	; 0x5bcc <_ZN5Wheel4DownEf>
	Wheel_4.Down(step);
    3320:	b7 01       	movw	r22, r14
    3322:	a6 01       	movw	r20, r12
    3324:	ce 01       	movw	r24, r28
    3326:	8a 56       	subi	r24, 0x6A	; 106
    3328:	9f 4f       	sbci	r25, 0xFF	; 255
    332a:	0e 94 e6 2d 	call	0x5bcc	; 0x5bcc <_ZN5Wheel4DownEf>
	Ajustment(panel);
    332e:	b8 01       	movw	r22, r16
    3330:	ce 01       	movw	r24, r28
    3332:	0e 94 17 17 	call	0x2e2e	; 0x2e2e <_ZN7Carrage9AjustmentER5Panel>
	ChekGetLimitsLow();
    3336:	ce 01       	movw	r24, r28
    3338:	0e 94 86 15 	call	0x2b0c	; 0x2b0c <_ZN7Carrage16ChekGetLimitsLowEv>
	oldHightUpdate();
    333c:	ce 01       	movw	r24, r28
    333e:	0e 94 a9 10 	call	0x2152	; 0x2152 <_ZN7Carrage14oldHightUpdateEv>
}
    3342:	df 91       	pop	r29
    3344:	cf 91       	pop	r28
    3346:	1f 91       	pop	r17
    3348:	0f 91       	pop	r16
    334a:	ff 90       	pop	r15
    334c:	ef 90       	pop	r14
    334e:	df 90       	pop	r13
    3350:	cf 90       	pop	r12
    3352:	08 95       	ret

00003354 <_ZL7LcdSendh10LcdCmdData>:
        if(response == OUT_OF_BORDER)
            return OUT_OF_BORDER;
    }

    return OK;
}
    3354:	2a 98       	cbi	0x05, 2	; 5
    3356:	61 30       	cpi	r22, 0x01	; 1
    3358:	11 f4       	brne	.+4      	; 0x335e <_ZL7LcdSendh10LcdCmdData+0xa>
    335a:	29 9a       	sbi	0x05, 1	; 5
    335c:	01 c0       	rjmp	.+2      	; 0x3360 <_ZL7LcdSendh10LcdCmdData+0xc>
    335e:	29 98       	cbi	0x05, 1	; 5
    3360:	8e bd       	out	0x2e, r24	; 46
    3362:	0d b4       	in	r0, 0x2d	; 45
    3364:	07 fe       	sbrs	r0, 7
    3366:	fd cf       	rjmp	.-6      	; 0x3362 <_ZL7LcdSendh10LcdCmdData+0xe>
    3368:	2a 9a       	sbi	0x05, 2	; 5
    336a:	08 95       	ret

0000336c <_Z5gftoafi>:
    336c:	cf 92       	push	r12
    336e:	df 92       	push	r13
    3370:	ef 92       	push	r14
    3372:	ff 92       	push	r15
    3374:	0f 93       	push	r16
    3376:	1f 93       	push	r17
    3378:	cf 93       	push	r28
    337a:	df 93       	push	r29
    337c:	6b 01       	movw	r12, r22
    337e:	7c 01       	movw	r14, r24
    3380:	ea 01       	movw	r28, r20
    3382:	ca 01       	movw	r24, r20
    3384:	01 97       	sbiw	r24, 0x01	; 1
    3386:	20 97       	sbiw	r28, 0x00	; 0
    3388:	81 f0       	breq	.+32     	; 0x33aa <_Z5gftoafi+0x3e>
    338a:	61 e0       	ldi	r22, 0x01	; 1
    338c:	70 e0       	ldi	r23, 0x00	; 0
    338e:	9b 01       	movw	r18, r22
    3390:	22 0f       	add	r18, r18
    3392:	33 1f       	adc	r19, r19
    3394:	66 0f       	add	r22, r22
    3396:	77 1f       	adc	r23, r23
    3398:	66 0f       	add	r22, r22
    339a:	77 1f       	adc	r23, r23
    339c:	66 0f       	add	r22, r22
    339e:	77 1f       	adc	r23, r23
    33a0:	62 0f       	add	r22, r18
    33a2:	73 1f       	adc	r23, r19
    33a4:	01 97       	sbiw	r24, 0x01	; 1
    33a6:	98 f7       	brcc	.-26     	; 0x338e <_Z5gftoafi+0x22>
    33a8:	02 c0       	rjmp	.+4      	; 0x33ae <_Z5gftoafi+0x42>
    33aa:	61 e0       	ldi	r22, 0x01	; 1
    33ac:	70 e0       	ldi	r23, 0x00	; 0
    33ae:	07 2e       	mov	r0, r23
    33b0:	00 0c       	add	r0, r0
    33b2:	88 0b       	sbc	r24, r24
    33b4:	99 0b       	sbc	r25, r25
    33b6:	0e 94 ae 2f 	call	0x5f5c	; 0x5f5c <__floatsisf>
    33ba:	a7 01       	movw	r20, r14
    33bc:	96 01       	movw	r18, r12
    33be:	0e 94 63 30 	call	0x60c6	; 0x60c6 <__mulsf3>
    33c2:	0e 94 76 2f 	call	0x5eec	; 0x5eec <__fixsfsi>
    33c6:	ab 01       	movw	r20, r22
    33c8:	bc 01       	movw	r22, r24
    33ca:	ca 01       	movw	r24, r20
    33cc:	99 23       	and	r25, r25
    33ce:	1c f0       	brlt	.+6      	; 0x33d6 <_Z5gftoafi+0x6a>
    33d0:	21 e0       	ldi	r18, 0x01	; 1
    33d2:	30 e0       	ldi	r19, 0x00	; 0
    33d4:	02 c0       	rjmp	.+4      	; 0x33da <_Z5gftoafi+0x6e>
    33d6:	2f ef       	ldi	r18, 0xFF	; 255
    33d8:	3f ef       	ldi	r19, 0xFF	; 255
    33da:	24 9f       	mul	r18, r20
    33dc:	c0 01       	movw	r24, r0
    33de:	25 9f       	mul	r18, r21
    33e0:	90 0d       	add	r25, r0
    33e2:	34 9f       	mul	r19, r20
    33e4:	90 0d       	add	r25, r0
    33e6:	11 24       	eor	r1, r1
    33e8:	0f eb       	ldi	r16, 0xBF	; 191
    33ea:	13 e0       	ldi	r17, 0x03	; 3
    33ec:	0f 2e       	mov	r0, r31
    33ee:	fa e0       	ldi	r31, 0x0A	; 10
    33f0:	ef 2e       	mov	r14, r31
    33f2:	f1 2c       	mov	r15, r1
    33f4:	f0 2d       	mov	r31, r0
    33f6:	0f 2e       	mov	r0, r31
    33f8:	fe e2       	ldi	r31, 0x2E	; 46
    33fa:	df 2e       	mov	r13, r31
    33fc:	f0 2d       	mov	r31, r0
    33fe:	02 c0       	rjmp	.+4      	; 0x3404 <_Z5gftoafi+0x98>
    3400:	8f 01       	movw	r16, r30
    3402:	ea 01       	movw	r28, r20
    3404:	f8 01       	movw	r30, r16
    3406:	b7 01       	movw	r22, r14
    3408:	0e 94 d0 30 	call	0x61a0	; 0x61a0 <__divmodhi4>
    340c:	80 5d       	subi	r24, 0xD0	; 208
    340e:	82 93       	st	-Z, r24
    3410:	86 2f       	mov	r24, r22
    3412:	97 2f       	mov	r25, r23
    3414:	ae 01       	movw	r20, r28
    3416:	41 50       	subi	r20, 0x01	; 1
    3418:	51 09       	sbc	r21, r1
    341a:	19 f4       	brne	.+6      	; 0x3422 <_Z5gftoafi+0xb6>
    341c:	f8 01       	movw	r30, r16
    341e:	32 97       	sbiw	r30, 0x02	; 2
    3420:	d0 82       	st	Z, r13
    3422:	00 97       	sbiw	r24, 0x00	; 0
    3424:	69 f7       	brne	.-38     	; 0x3400 <_Z5gftoafi+0x94>
    3426:	14 16       	cp	r1, r20
    3428:	15 06       	cpc	r1, r21
    342a:	d4 f4       	brge	.+52     	; 0x3460 <_Z5gftoafi+0xf4>
    342c:	be 01       	movw	r22, r28
    342e:	62 50       	subi	r22, 0x02	; 2
    3430:	71 09       	sbc	r23, r1
    3432:	df 01       	movw	r26, r30
    3434:	40 e3       	ldi	r20, 0x30	; 48
    3436:	21 97       	sbiw	r28, 0x01	; 1
    3438:	ce 1b       	sub	r28, r30
    343a:	df 0b       	sbc	r29, r31
    343c:	4e 93       	st	-X, r20
    343e:	cd 01       	movw	r24, r26
    3440:	8c 0f       	add	r24, r28
    3442:	9d 1f       	adc	r25, r29
    3444:	18 16       	cp	r1, r24
    3446:	19 06       	cpc	r1, r25
    3448:	cc f3       	brlt	.-14     	; 0x343c <_Z5gftoafi+0xd0>
    344a:	cb 01       	movw	r24, r22
    344c:	99 23       	and	r25, r25
    344e:	14 f4       	brge	.+4      	; 0x3454 <_Z5gftoafi+0xe8>
    3450:	80 e0       	ldi	r24, 0x00	; 0
    3452:	90 e0       	ldi	r25, 0x00	; 0
    3454:	80 95       	com	r24
    3456:	90 95       	com	r25
    3458:	e8 0f       	add	r30, r24
    345a:	f9 1f       	adc	r31, r25
    345c:	8e e2       	ldi	r24, 0x2E	; 46
    345e:	82 93       	st	-Z, r24
    3460:	80 81       	ld	r24, Z
    3462:	8e 32       	cpi	r24, 0x2E	; 46
    3464:	11 f4       	brne	.+4      	; 0x346a <_Z5gftoafi+0xfe>
    3466:	80 e3       	ldi	r24, 0x30	; 48
    3468:	82 93       	st	-Z, r24
    346a:	33 23       	and	r19, r19
    346c:	14 f4       	brge	.+4      	; 0x3472 <_Z5gftoafi+0x106>
    346e:	8d e2       	ldi	r24, 0x2D	; 45
    3470:	82 93       	st	-Z, r24
    3472:	cf 01       	movw	r24, r30
    3474:	df 91       	pop	r29
    3476:	cf 91       	pop	r28
    3478:	1f 91       	pop	r17
    347a:	0f 91       	pop	r16
    347c:	ff 90       	pop	r15
    347e:	ef 90       	pop	r14
    3480:	df 90       	pop	r13
    3482:	cf 90       	pop	r12
    3484:	08 95       	ret

00003486 <_Z8Lcd_inith>:
    3486:	cf 93       	push	r28
    3488:	c8 2f       	mov	r28, r24
    348a:	2c 9a       	sbi	0x05, 4	; 5
    348c:	84 b1       	in	r24, 0x04	; 4
    348e:	8e 63       	ori	r24, 0x3E	; 62
    3490:	84 b9       	out	0x04, r24	; 4
    3492:	2c 98       	cbi	0x05, 4	; 5
    3494:	2c 9a       	sbi	0x05, 4	; 5
    3496:	80 e5       	ldi	r24, 0x50	; 80
    3498:	8c bd       	out	0x2c, r24	; 44
    349a:	2a 9a       	sbi	0x05, 2	; 5
    349c:	60 e0       	ldi	r22, 0x00	; 0
    349e:	81 e2       	ldi	r24, 0x21	; 33
    34a0:	0e 94 aa 19 	call	0x3354	; 0x3354 <_ZL7LcdSendh10LcdCmdData>
    34a4:	60 e0       	ldi	r22, 0x00	; 0
    34a6:	8c 2f       	mov	r24, r28
    34a8:	0e 94 aa 19 	call	0x3354	; 0x3354 <_ZL7LcdSendh10LcdCmdData>
    34ac:	60 e0       	ldi	r22, 0x00	; 0
    34ae:	86 e0       	ldi	r24, 0x06	; 6
    34b0:	0e 94 aa 19 	call	0x3354	; 0x3354 <_ZL7LcdSendh10LcdCmdData>
    34b4:	60 e0       	ldi	r22, 0x00	; 0
    34b6:	83 e1       	ldi	r24, 0x13	; 19
    34b8:	0e 94 aa 19 	call	0x3354	; 0x3354 <_ZL7LcdSendh10LcdCmdData>
    34bc:	60 e0       	ldi	r22, 0x00	; 0
    34be:	80 e2       	ldi	r24, 0x20	; 32
    34c0:	0e 94 aa 19 	call	0x3354	; 0x3354 <_ZL7LcdSendh10LcdCmdData>
    34c4:	60 e0       	ldi	r22, 0x00	; 0
    34c6:	8c e0       	ldi	r24, 0x0C	; 12
    34c8:	0e 94 aa 19 	call	0x3354	; 0x3354 <_ZL7LcdSendh10LcdCmdData>
    34cc:	cf 91       	pop	r28
    34ce:	08 95       	ret

000034d0 <_Z9Lcd_clearv>:
    34d0:	88 ef       	ldi	r24, 0xF8	; 248
    34d2:	91 e0       	ldi	r25, 0x01	; 1
    34d4:	e6 ec       	ldi	r30, 0xC6	; 198
    34d6:	f3 e0       	ldi	r31, 0x03	; 3
    34d8:	df 01       	movw	r26, r30
    34da:	9c 01       	movw	r18, r24
    34dc:	1d 92       	st	X+, r1
    34de:	21 50       	subi	r18, 0x01	; 1
    34e0:	30 40       	sbci	r19, 0x00	; 0
    34e2:	e1 f7       	brne	.-8      	; 0x34dc <_Z9Lcd_clearv+0xc>
    34e4:	10 92 c5 03 	sts	0x03C5, r1	; 0x8003c5 <_ZL11LoWaterMark+0x1>
    34e8:	10 92 c4 03 	sts	0x03C4, r1	; 0x8003c4 <_ZL11LoWaterMark>
    34ec:	87 ef       	ldi	r24, 0xF7	; 247
    34ee:	91 e0       	ldi	r25, 0x01	; 1
    34f0:	90 93 c3 03 	sts	0x03C3, r25	; 0x8003c3 <_ZL11HiWaterMark+0x1>
    34f4:	80 93 c2 03 	sts	0x03C2, r24	; 0x8003c2 <_ZL11HiWaterMark>
    34f8:	08 95       	ret

000034fa <_Z10Lcd_updatev>:
    34fa:	ef 92       	push	r14
    34fc:	ff 92       	push	r15
    34fe:	0f 93       	push	r16
    3500:	1f 93       	push	r17
    3502:	cf 93       	push	r28
    3504:	df 93       	push	r29
    3506:	80 91 c4 03 	lds	r24, 0x03C4	; 0x8003c4 <_ZL11LoWaterMark>
    350a:	90 91 c5 03 	lds	r25, 0x03C5	; 0x8003c5 <_ZL11LoWaterMark+0x1>
    350e:	99 23       	and	r25, r25
    3510:	2c f4       	brge	.+10     	; 0x351c <_Z10Lcd_updatev+0x22>
    3512:	10 92 c5 03 	sts	0x03C5, r1	; 0x8003c5 <_ZL11LoWaterMark+0x1>
    3516:	10 92 c4 03 	sts	0x03C4, r1	; 0x8003c4 <_ZL11LoWaterMark>
    351a:	09 c0       	rjmp	.+18     	; 0x352e <_Z10Lcd_updatev+0x34>
    351c:	88 3f       	cpi	r24, 0xF8	; 248
    351e:	91 40       	sbci	r25, 0x01	; 1
    3520:	34 f0       	brlt	.+12     	; 0x352e <_Z10Lcd_updatev+0x34>
    3522:	87 ef       	ldi	r24, 0xF7	; 247
    3524:	91 e0       	ldi	r25, 0x01	; 1
    3526:	90 93 c5 03 	sts	0x03C5, r25	; 0x8003c5 <_ZL11LoWaterMark+0x1>
    352a:	80 93 c4 03 	sts	0x03C4, r24	; 0x8003c4 <_ZL11LoWaterMark>
    352e:	80 91 c2 03 	lds	r24, 0x03C2	; 0x8003c2 <_ZL11HiWaterMark>
    3532:	90 91 c3 03 	lds	r25, 0x03C3	; 0x8003c3 <_ZL11HiWaterMark+0x1>
    3536:	99 23       	and	r25, r25
    3538:	2c f4       	brge	.+10     	; 0x3544 <_Z10Lcd_updatev+0x4a>
    353a:	10 92 c3 03 	sts	0x03C3, r1	; 0x8003c3 <_ZL11HiWaterMark+0x1>
    353e:	10 92 c2 03 	sts	0x03C2, r1	; 0x8003c2 <_ZL11HiWaterMark>
    3542:	09 c0       	rjmp	.+18     	; 0x3556 <_Z10Lcd_updatev+0x5c>
    3544:	88 3f       	cpi	r24, 0xF8	; 248
    3546:	91 40       	sbci	r25, 0x01	; 1
    3548:	34 f0       	brlt	.+12     	; 0x3556 <_Z10Lcd_updatev+0x5c>
    354a:	87 ef       	ldi	r24, 0xF7	; 247
    354c:	91 e0       	ldi	r25, 0x01	; 1
    354e:	90 93 c3 03 	sts	0x03C3, r25	; 0x8003c3 <_ZL11HiWaterMark+0x1>
    3552:	80 93 c2 03 	sts	0x03C2, r24	; 0x8003c2 <_ZL11HiWaterMark>
    3556:	c0 91 c4 03 	lds	r28, 0x03C4	; 0x8003c4 <_ZL11LoWaterMark>
    355a:	d0 91 c5 03 	lds	r29, 0x03C5	; 0x8003c5 <_ZL11LoWaterMark+0x1>
    355e:	ce 01       	movw	r24, r28
    3560:	64 e5       	ldi	r22, 0x54	; 84
    3562:	70 e0       	ldi	r23, 0x00	; 0
    3564:	0e 94 d0 30 	call	0x61a0	; 0x61a0 <__divmodhi4>
    3568:	16 2f       	mov	r17, r22
    356a:	60 e0       	ldi	r22, 0x00	; 0
    356c:	80 68       	ori	r24, 0x80	; 128
    356e:	0e 94 aa 19 	call	0x3354	; 0x3354 <_ZL7LcdSendh10LcdCmdData>
    3572:	60 e0       	ldi	r22, 0x00	; 0
    3574:	81 2f       	mov	r24, r17
    3576:	80 64       	ori	r24, 0x40	; 64
    3578:	0e 94 aa 19 	call	0x3354	; 0x3354 <_ZL7LcdSendh10LcdCmdData>
    357c:	e0 90 c2 03 	lds	r14, 0x03C2	; 0x8003c2 <_ZL11HiWaterMark>
    3580:	f0 90 c3 03 	lds	r15, 0x03C3	; 0x8003c3 <_ZL11HiWaterMark+0x1>
    3584:	ec 16       	cp	r14, r28
    3586:	fd 06       	cpc	r15, r29
    3588:	6c f0       	brlt	.+26     	; 0x35a4 <_Z10Lcd_updatev+0xaa>
    358a:	8e 01       	movw	r16, r28
    358c:	0a 53       	subi	r16, 0x3A	; 58
    358e:	1c 4f       	sbci	r17, 0xFC	; 252
    3590:	61 e0       	ldi	r22, 0x01	; 1
    3592:	f8 01       	movw	r30, r16
    3594:	81 91       	ld	r24, Z+
    3596:	8f 01       	movw	r16, r30
    3598:	0e 94 aa 19 	call	0x3354	; 0x3354 <_ZL7LcdSendh10LcdCmdData>
    359c:	21 96       	adiw	r28, 0x01	; 1
    359e:	ec 16       	cp	r14, r28
    35a0:	fd 06       	cpc	r15, r29
    35a2:	b4 f7       	brge	.-20     	; 0x3590 <_Z10Lcd_updatev+0x96>
    35a4:	87 ef       	ldi	r24, 0xF7	; 247
    35a6:	91 e0       	ldi	r25, 0x01	; 1
    35a8:	90 93 c5 03 	sts	0x03C5, r25	; 0x8003c5 <_ZL11LoWaterMark+0x1>
    35ac:	80 93 c4 03 	sts	0x03C4, r24	; 0x8003c4 <_ZL11LoWaterMark>
    35b0:	10 92 c3 03 	sts	0x03C3, r1	; 0x8003c3 <_ZL11HiWaterMark+0x1>
    35b4:	10 92 c2 03 	sts	0x03C2, r1	; 0x8003c2 <_ZL11HiWaterMark>
    35b8:	df 91       	pop	r29
    35ba:	cf 91       	pop	r28
    35bc:	1f 91       	pop	r17
    35be:	0f 91       	pop	r16
    35c0:	ff 90       	pop	r15
    35c2:	ef 90       	pop	r14
    35c4:	08 95       	ret

000035c6 <_Z9LcdGotoXYhh>:
    35c6:	8e 30       	cpi	r24, 0x0E	; 14
    35c8:	a8 f4       	brcc	.+42     	; 0x35f4 <_Z9LcdGotoXYhh+0x2e>
    35ca:	66 30       	cpi	r22, 0x06	; 6
    35cc:	a8 f4       	brcc	.+42     	; 0x35f8 <_Z9LcdGotoXYhh+0x32>
    35ce:	90 e0       	ldi	r25, 0x00	; 0
    35d0:	9c 01       	movw	r18, r24
    35d2:	22 0f       	add	r18, r18
    35d4:	33 1f       	adc	r19, r19
    35d6:	82 0f       	add	r24, r18
    35d8:	93 1f       	adc	r25, r19
    35da:	88 0f       	add	r24, r24
    35dc:	99 1f       	adc	r25, r25
    35de:	24 e5       	ldi	r18, 0x54	; 84
    35e0:	62 9f       	mul	r22, r18
    35e2:	80 0d       	add	r24, r0
    35e4:	91 1d       	adc	r25, r1
    35e6:	11 24       	eor	r1, r1
    35e8:	90 93 c1 03 	sts	0x03C1, r25	; 0x8003c1 <_ZL11LcdCacheIdx+0x1>
    35ec:	80 93 c0 03 	sts	0x03C0, r24	; 0x8003c0 <_ZL11LcdCacheIdx>
    35f0:	80 e0       	ldi	r24, 0x00	; 0
    35f2:	08 95       	ret
    35f4:	81 e0       	ldi	r24, 0x01	; 1
    35f6:	08 95       	ret
    35f8:	81 e0       	ldi	r24, 0x01	; 1
    35fa:	08 95       	ret

000035fc <_Z11LcdChr_fullh>:
    35fc:	20 91 c0 03 	lds	r18, 0x03C0	; 0x8003c0 <_ZL11LcdCacheIdx>
    3600:	30 91 c1 03 	lds	r19, 0x03C1	; 0x8003c1 <_ZL11LcdCacheIdx+0x1>
    3604:	80 52       	subi	r24, 0x20	; 32
    3606:	97 e0       	ldi	r25, 0x07	; 7
    3608:	89 9f       	mul	r24, r25
    360a:	f0 01       	movw	r30, r0
    360c:	11 24       	eor	r1, r1
    360e:	e8 5e       	subi	r30, 0xE8	; 232
    3610:	fc 4f       	sbci	r31, 0xFC	; 252
    3612:	d9 01       	movw	r26, r18
    3614:	aa 53       	subi	r26, 0x3A	; 58
    3616:	bc 4f       	sbci	r27, 0xFC	; 252
    3618:	a9 01       	movw	r20, r18
    361a:	44 53       	subi	r20, 0x34	; 52
    361c:	5c 4f       	sbci	r21, 0xFC	; 252
    361e:	84 91       	lpm	r24, Z
    3620:	8d 93       	st	X+, r24
    3622:	31 96       	adiw	r30, 0x01	; 1
    3624:	a4 17       	cp	r26, r20
    3626:	b5 07       	cpc	r27, r21
    3628:	d1 f7       	brne	.-12     	; 0x361e <_Z11LcdChr_fullh+0x22>
    362a:	2a 5f       	subi	r18, 0xFA	; 250
    362c:	3f 4f       	sbci	r19, 0xFF	; 255
    362e:	30 93 c1 03 	sts	0x03C1, r19	; 0x8003c1 <_ZL11LcdCacheIdx+0x1>
    3632:	20 93 c0 03 	sts	0x03C0, r18	; 0x8003c0 <_ZL11LcdCacheIdx>
    3636:	80 91 c2 03 	lds	r24, 0x03C2	; 0x8003c2 <_ZL11HiWaterMark>
    363a:	90 91 c3 03 	lds	r25, 0x03C3	; 0x8003c3 <_ZL11HiWaterMark+0x1>
    363e:	82 17       	cp	r24, r18
    3640:	93 07       	cpc	r25, r19
    3642:	24 f4       	brge	.+8      	; 0x364c <_Z11LcdChr_fullh+0x50>
    3644:	30 93 c3 03 	sts	0x03C3, r19	; 0x8003c3 <_ZL11HiWaterMark+0x1>
    3648:	20 93 c2 03 	sts	0x03C2, r18	; 0x8003c2 <_ZL11HiWaterMark>
    364c:	80 e0       	ldi	r24, 0x00	; 0
    364e:	08 95       	ret

00003650 <_Z12LcdStepLevelh>:
    3650:	40 91 c0 03 	lds	r20, 0x03C0	; 0x8003c0 <_ZL11LcdCacheIdx>
    3654:	50 91 c1 03 	lds	r21, 0x03C1	; 0x8003c1 <_ZL11LcdCacheIdx+0x1>
    3658:	90 e0       	ldi	r25, 0x00	; 0
    365a:	fc 01       	movw	r30, r24
    365c:	ee 0f       	add	r30, r30
    365e:	ff 1f       	adc	r31, r31
    3660:	e8 0f       	add	r30, r24
    3662:	f9 1f       	adc	r31, r25
    3664:	ee 0f       	add	r30, r30
    3666:	ff 1f       	adc	r31, r31
    3668:	ee 0f       	add	r30, r30
    366a:	ff 1f       	adc	r31, r31
    366c:	ee 0f       	add	r30, r30
    366e:	ff 1f       	adc	r31, r31
    3670:	e8 5c       	subi	r30, 0xC8	; 200
    3672:	fe 4f       	sbci	r31, 0xFE	; 254
    3674:	da 01       	movw	r26, r20
    3676:	aa 53       	subi	r26, 0x3A	; 58
    3678:	bc 4f       	sbci	r27, 0xFC	; 252
    367a:	9a 01       	movw	r18, r20
    367c:	22 52       	subi	r18, 0x22	; 34
    367e:	3c 4f       	sbci	r19, 0xFC	; 252
    3680:	84 91       	lpm	r24, Z
    3682:	8d 93       	st	X+, r24
    3684:	31 96       	adiw	r30, 0x01	; 1
    3686:	a2 17       	cp	r26, r18
    3688:	b3 07       	cpc	r27, r19
    368a:	d1 f7       	brne	.-12     	; 0x3680 <_Z12LcdStepLevelh+0x30>
    368c:	48 5e       	subi	r20, 0xE8	; 232
    368e:	5f 4f       	sbci	r21, 0xFF	; 255
    3690:	50 93 c1 03 	sts	0x03C1, r21	; 0x8003c1 <_ZL11LcdCacheIdx+0x1>
    3694:	40 93 c0 03 	sts	0x03C0, r20	; 0x8003c0 <_ZL11LcdCacheIdx>
    3698:	80 e0       	ldi	r24, 0x00	; 0
    369a:	08 95       	ret

0000369c <_Z6LcdChr11LcdFontSizeh>:
    369c:	0f 93       	push	r16
    369e:	1f 93       	push	r17
    36a0:	cf 93       	push	r28
    36a2:	df 93       	push	r29
    36a4:	40 91 c0 03 	lds	r20, 0x03C0	; 0x8003c0 <_ZL11LcdCacheIdx>
    36a8:	50 91 c1 03 	lds	r21, 0x03C1	; 0x8003c1 <_ZL11LcdCacheIdx+0x1>
    36ac:	20 91 c4 03 	lds	r18, 0x03C4	; 0x8003c4 <_ZL11LoWaterMark>
    36b0:	30 91 c5 03 	lds	r19, 0x03C5	; 0x8003c5 <_ZL11LoWaterMark+0x1>
    36b4:	42 17       	cp	r20, r18
    36b6:	53 07       	cpc	r21, r19
    36b8:	24 f4       	brge	.+8      	; 0x36c2 <_Z6LcdChr11LcdFontSizeh+0x26>
    36ba:	50 93 c5 03 	sts	0x03C5, r21	; 0x8003c5 <_ZL11LoWaterMark+0x1>
    36be:	40 93 c4 03 	sts	0x03C4, r20	; 0x8003c4 <_ZL11LoWaterMark>
    36c2:	e0 ee       	ldi	r30, 0xE0	; 224
    36c4:	e6 0f       	add	r30, r22
    36c6:	e0 3a       	cpi	r30, 0xA0	; 160
    36c8:	08 f4       	brcc	.+2      	; 0x36cc <_Z6LcdChr11LcdFontSizeh+0x30>
    36ca:	a0 c0       	rjmp	.+320    	; 0x380c <_Z6LcdChr11LcdFontSizeh+0x170>
    36cc:	60 3c       	cpi	r22, 0xC0	; 192
    36ce:	08 f4       	brcc	.+2      	; 0x36d2 <_Z6LcdChr11LcdFontSizeh+0x36>
    36d0:	9c c0       	rjmp	.+312    	; 0x380a <_Z6LcdChr11LcdFontSizeh+0x16e>
    36d2:	e1 ee       	ldi	r30, 0xE1	; 225
    36d4:	e6 0f       	add	r30, r22
    36d6:	9a c0       	rjmp	.+308    	; 0x380c <_Z6LcdChr11LcdFontSizeh+0x170>
    36d8:	84 91       	lpm	r24, Z
    36da:	88 0f       	add	r24, r24
    36dc:	8d 93       	st	X+, r24
    36de:	31 96       	adiw	r30, 0x01	; 1
    36e0:	a2 17       	cp	r26, r18
    36e2:	b3 07       	cpc	r27, r19
    36e4:	c9 f7       	brne	.-14     	; 0x36d8 <_Z6LcdChr11LcdFontSizeh+0x3c>
    36e6:	4b 5f       	subi	r20, 0xFB	; 251
    36e8:	5f 4f       	sbci	r21, 0xFF	; 255
    36ea:	50 93 c1 03 	sts	0x03C1, r21	; 0x8003c1 <_ZL11LcdCacheIdx+0x1>
    36ee:	40 93 c0 03 	sts	0x03C0, r20	; 0x8003c0 <_ZL11LcdCacheIdx>
    36f2:	65 c0       	rjmp	.+202    	; 0x37be <_Z6LcdChr11LcdFontSizeh+0x122>
    36f4:	82 30       	cpi	r24, 0x02	; 2
    36f6:	09 f0       	breq	.+2      	; 0x36fa <_Z6LcdChr11LcdFontSizeh+0x5e>
    36f8:	62 c0       	rjmp	.+196    	; 0x37be <_Z6LcdChr11LcdFontSizeh+0x122>
    36fa:	ca 01       	movw	r24, r20
    36fc:	84 55       	subi	r24, 0x54	; 84
    36fe:	91 09       	sbc	r25, r1
    3700:	20 91 c4 03 	lds	r18, 0x03C4	; 0x8003c4 <_ZL11LoWaterMark>
    3704:	30 91 c5 03 	lds	r19, 0x03C5	; 0x8003c5 <_ZL11LoWaterMark+0x1>
    3708:	82 17       	cp	r24, r18
    370a:	93 07       	cpc	r25, r19
    370c:	0c f0       	brlt	.+2      	; 0x3710 <_Z6LcdChr11LcdFontSizeh+0x74>
    370e:	8e c0       	rjmp	.+284    	; 0x382c <_Z6LcdChr11LcdFontSizeh+0x190>
    3710:	90 93 c5 03 	sts	0x03C5, r25	; 0x8003c5 <_ZL11LoWaterMark+0x1>
    3714:	80 93 c4 03 	sts	0x03C4, r24	; 0x8003c4 <_ZL11LoWaterMark>
    3718:	89 c0       	rjmp	.+274    	; 0x382c <_Z6LcdChr11LcdFontSizeh+0x190>
    371a:	24 91       	lpm	r18, Z
    371c:	22 0f       	add	r18, r18
    371e:	82 2f       	mov	r24, r18
    3720:	82 70       	andi	r24, 0x02	; 2
    3722:	98 2f       	mov	r25, r24
    3724:	99 0f       	add	r25, r25
    3726:	89 0f       	add	r24, r25
    3728:	98 2f       	mov	r25, r24
    372a:	99 0f       	add	r25, r25
    372c:	82 2f       	mov	r24, r18
    372e:	84 70       	andi	r24, 0x04	; 4
    3730:	38 2f       	mov	r19, r24
    3732:	33 0f       	add	r19, r19
    3734:	83 0f       	add	r24, r19
    3736:	88 0f       	add	r24, r24
    3738:	88 0f       	add	r24, r24
    373a:	89 2b       	or	r24, r25
    373c:	02 2f       	mov	r16, r18
    373e:	08 70       	andi	r16, 0x08	; 8
    3740:	01 9f       	mul	r16, r17
    3742:	00 2d       	mov	r16, r0
    3744:	11 24       	eor	r1, r1
    3746:	08 2b       	or	r16, r24
    3748:	30 e0       	ldi	r19, 0x00	; 0
    374a:	35 95       	asr	r19
    374c:	27 95       	ror	r18
    374e:	35 95       	asr	r19
    3750:	27 95       	ror	r18
    3752:	35 95       	asr	r19
    3754:	27 95       	ror	r18
    3756:	35 95       	asr	r19
    3758:	27 95       	ror	r18
    375a:	82 2f       	mov	r24, r18
    375c:	82 70       	andi	r24, 0x02	; 2
    375e:	38 2f       	mov	r19, r24
    3760:	33 0f       	add	r19, r19
    3762:	83 0f       	add	r24, r19
    3764:	88 0f       	add	r24, r24
    3766:	32 2f       	mov	r19, r18
    3768:	31 70       	andi	r19, 0x01	; 1
    376a:	93 2f       	mov	r25, r19
    376c:	99 0f       	add	r25, r25
    376e:	39 0f       	add	r19, r25
    3770:	83 2b       	or	r24, r19
    3772:	92 2f       	mov	r25, r18
    3774:	94 70       	andi	r25, 0x04	; 4
    3776:	39 2f       	mov	r19, r25
    3778:	33 0f       	add	r19, r19
    377a:	93 0f       	add	r25, r19
    377c:	99 0f       	add	r25, r25
    377e:	99 0f       	add	r25, r25
    3780:	89 2b       	or	r24, r25
    3782:	92 2f       	mov	r25, r18
    3784:	98 70       	andi	r25, 0x08	; 8
    3786:	91 9f       	mul	r25, r17
    3788:	90 2d       	mov	r25, r0
    378a:	11 24       	eor	r1, r1
    378c:	28 2f       	mov	r18, r24
    378e:	29 2b       	or	r18, r25
    3790:	08 83       	st	Y, r16
    3792:	09 83       	std	Y+1, r16	; 0x01
    3794:	2c 93       	st	X, r18
    3796:	11 96       	adiw	r26, 0x01	; 1
    3798:	2c 93       	st	X, r18
    379a:	11 97       	sbiw	r26, 0x01	; 1
    379c:	31 96       	adiw	r30, 0x01	; 1
    379e:	22 96       	adiw	r28, 0x02	; 2
    37a0:	12 96       	adiw	r26, 0x02	; 2
    37a2:	a6 17       	cp	r26, r22
    37a4:	b7 07       	cpc	r27, r23
    37a6:	09 f0       	breq	.+2      	; 0x37aa <_Z6LcdChr11LcdFontSizeh+0x10e>
    37a8:	b8 cf       	rjmp	.-144    	; 0x371a <_Z6LcdChr11LcdFontSizeh+0x7e>
    37aa:	ca 01       	movw	r24, r20
    37ac:	0b 96       	adiw	r24, 0x0b	; 11
    37ae:	68 ef       	ldi	r22, 0xF8	; 248
    37b0:	71 e0       	ldi	r23, 0x01	; 1
    37b2:	0e 94 d0 30 	call	0x61a0	; 0x61a0 <__divmodhi4>
    37b6:	90 93 c1 03 	sts	0x03C1, r25	; 0x8003c1 <_ZL11LcdCacheIdx+0x1>
    37ba:	80 93 c0 03 	sts	0x03C0, r24	; 0x8003c0 <_ZL11LcdCacheIdx>
    37be:	80 91 c0 03 	lds	r24, 0x03C0	; 0x8003c0 <_ZL11LcdCacheIdx>
    37c2:	90 91 c1 03 	lds	r25, 0x03C1	; 0x8003c1 <_ZL11LcdCacheIdx+0x1>
    37c6:	20 91 c2 03 	lds	r18, 0x03C2	; 0x8003c2 <_ZL11HiWaterMark>
    37ca:	30 91 c3 03 	lds	r19, 0x03C3	; 0x8003c3 <_ZL11HiWaterMark+0x1>
    37ce:	28 17       	cp	r18, r24
    37d0:	39 07       	cpc	r19, r25
    37d2:	24 f4       	brge	.+8      	; 0x37dc <_Z6LcdChr11LcdFontSizeh+0x140>
    37d4:	90 93 c3 03 	sts	0x03C3, r25	; 0x8003c3 <_ZL11HiWaterMark+0x1>
    37d8:	80 93 c2 03 	sts	0x03C2, r24	; 0x8003c2 <_ZL11HiWaterMark>
    37dc:	fc 01       	movw	r30, r24
    37de:	ea 53       	subi	r30, 0x3A	; 58
    37e0:	fc 4f       	sbci	r31, 0xFC	; 252
    37e2:	10 82       	st	Z, r1
    37e4:	87 3f       	cpi	r24, 0xF7	; 247
    37e6:	21 e0       	ldi	r18, 0x01	; 1
    37e8:	92 07       	cpc	r25, r18
    37ea:	31 f4       	brne	.+12     	; 0x37f8 <_Z6LcdChr11LcdFontSizeh+0x15c>
    37ec:	10 92 c1 03 	sts	0x03C1, r1	; 0x8003c1 <_ZL11LcdCacheIdx+0x1>
    37f0:	10 92 c0 03 	sts	0x03C0, r1	; 0x8003c0 <_ZL11LcdCacheIdx>
    37f4:	82 e0       	ldi	r24, 0x02	; 2
    37f6:	2d c0       	rjmp	.+90     	; 0x3852 <_Z6LcdChr11LcdFontSizeh+0x1b6>
    37f8:	01 96       	adiw	r24, 0x01	; 1
    37fa:	90 93 c1 03 	sts	0x03C1, r25	; 0x8003c1 <_ZL11LcdCacheIdx+0x1>
    37fe:	80 93 c0 03 	sts	0x03C0, r24	; 0x8003c0 <_ZL11LcdCacheIdx>
    3802:	80 e0       	ldi	r24, 0x00	; 0
    3804:	26 c0       	rjmp	.+76     	; 0x3852 <_Z6LcdChr11LcdFontSizeh+0x1b6>
    3806:	81 e0       	ldi	r24, 0x01	; 1
    3808:	24 c0       	rjmp	.+72     	; 0x3852 <_Z6LcdChr11LcdFontSizeh+0x1b6>
    380a:	ef e5       	ldi	r30, 0x5F	; 95
    380c:	81 30       	cpi	r24, 0x01	; 1
    380e:	09 f0       	breq	.+2      	; 0x3812 <_Z6LcdChr11LcdFontSizeh+0x176>
    3810:	71 cf       	rjmp	.-286    	; 0x36f4 <_Z6LcdChr11LcdFontSizeh+0x58>
    3812:	87 e0       	ldi	r24, 0x07	; 7
    3814:	e8 9f       	mul	r30, r24
    3816:	f0 01       	movw	r30, r0
    3818:	11 24       	eor	r1, r1
    381a:	e8 5e       	subi	r30, 0xE8	; 232
    381c:	fc 4f       	sbci	r31, 0xFC	; 252
    381e:	da 01       	movw	r26, r20
    3820:	aa 53       	subi	r26, 0x3A	; 58
    3822:	bc 4f       	sbci	r27, 0xFC	; 252
    3824:	9a 01       	movw	r18, r20
    3826:	25 53       	subi	r18, 0x35	; 53
    3828:	3c 4f       	sbci	r19, 0xFC	; 252
    382a:	56 cf       	rjmp	.-340    	; 0x36d8 <_Z6LcdChr11LcdFontSizeh+0x3c>
    382c:	99 23       	and	r25, r25
    382e:	5c f3       	brlt	.-42     	; 0x3806 <_Z6LcdChr11LcdFontSizeh+0x16a>
    3830:	27 e0       	ldi	r18, 0x07	; 7
    3832:	e2 9f       	mul	r30, r18
    3834:	f0 01       	movw	r30, r0
    3836:	11 24       	eor	r1, r1
    3838:	e8 5e       	subi	r30, 0xE8	; 232
    383a:	fc 4f       	sbci	r31, 0xFC	; 252
    383c:	ea 01       	movw	r28, r20
    383e:	ce 58       	subi	r28, 0x8E	; 142
    3840:	dc 4f       	sbci	r29, 0xFC	; 252
    3842:	da 01       	movw	r26, r20
    3844:	aa 53       	subi	r26, 0x3A	; 58
    3846:	bc 4f       	sbci	r27, 0xFC	; 252
    3848:	ba 01       	movw	r22, r20
    384a:	60 53       	subi	r22, 0x30	; 48
    384c:	7c 4f       	sbci	r23, 0xFC	; 252
    384e:	18 e1       	ldi	r17, 0x18	; 24
    3850:	64 cf       	rjmp	.-312    	; 0x371a <_Z6LcdChr11LcdFontSizeh+0x7e>
    3852:	df 91       	pop	r29
    3854:	cf 91       	pop	r28
    3856:	1f 91       	pop	r17
    3858:	0f 91       	pop	r16
    385a:	08 95       	ret

0000385c <_Z9Lcd_printhh11LcdFontSizePh>:
    385c:	0f 93       	push	r16
    385e:	1f 93       	push	r17
    3860:	cf 93       	push	r28
    3862:	df 93       	push	r29
    3864:	d4 2f       	mov	r29, r20
    3866:	89 01       	movw	r16, r18
    3868:	0e 94 e3 1a 	call	0x35c6	; 0x35c6 <_Z9LcdGotoXYhh>
    386c:	f8 01       	movw	r30, r16
    386e:	60 81       	ld	r22, Z
    3870:	66 23       	and	r22, r22
    3872:	79 f0       	breq	.+30     	; 0x3892 <_Z9Lcd_printhh11LcdFontSizePh+0x36>
    3874:	c0 e0       	ldi	r28, 0x00	; 0
    3876:	8d 2f       	mov	r24, r29
    3878:	0e 94 4e 1b 	call	0x369c	; 0x369c <_Z6LcdChr11LcdFontSizeh>
    387c:	81 30       	cpi	r24, 0x01	; 1
    387e:	41 f0       	breq	.+16     	; 0x3890 <_Z9Lcd_printhh11LcdFontSizePh+0x34>
    3880:	cf 5f       	subi	r28, 0xFF	; 255
    3882:	f8 01       	movw	r30, r16
    3884:	ec 0f       	add	r30, r28
    3886:	f1 1d       	adc	r31, r1
    3888:	60 81       	ld	r22, Z
    388a:	61 11       	cpse	r22, r1
    388c:	f4 cf       	rjmp	.-24     	; 0x3876 <_Z9Lcd_printhh11LcdFontSizePh+0x1a>
    388e:	01 c0       	rjmp	.+2      	; 0x3892 <_Z9Lcd_printhh11LcdFontSizePh+0x36>
    3890:	61 e0       	ldi	r22, 0x01	; 1
    3892:	86 2f       	mov	r24, r22
    3894:	df 91       	pop	r29
    3896:	cf 91       	pop	r28
    3898:	1f 91       	pop	r17
    389a:	0f 91       	pop	r16
    389c:	08 95       	ret

0000389e <_Z10Lcd_print2hh11LcdFontSizePh>:
    389e:	ff 92       	push	r15
    38a0:	0f 93       	push	r16
    38a2:	1f 93       	push	r17
    38a4:	cf 93       	push	r28
    38a6:	df 93       	push	r29
    38a8:	f4 2e       	mov	r15, r20
    38aa:	89 01       	movw	r16, r18
    38ac:	0e 94 e3 1a 	call	0x35c6	; 0x35c6 <_Z9LcdGotoXYhh>
    38b0:	f8 01       	movw	r30, r16
    38b2:	60 81       	ld	r22, Z
    38b4:	66 23       	and	r22, r22
    38b6:	91 f0       	breq	.+36     	; 0x38dc <_Z10Lcd_print2hh11LcdFontSizePh+0x3e>
    38b8:	c0 e0       	ldi	r28, 0x00	; 0
    38ba:	6e 32       	cpi	r22, 0x2E	; 46
    38bc:	21 f0       	breq	.+8      	; 0x38c6 <_Z10Lcd_print2hh11LcdFontSizePh+0x28>
    38be:	8f 2d       	mov	r24, r15
    38c0:	0e 94 4e 1b 	call	0x369c	; 0x369c <_Z6LcdChr11LcdFontSizeh>
    38c4:	d8 2f       	mov	r29, r24
    38c6:	d1 30       	cpi	r29, 0x01	; 1
    38c8:	41 f0       	breq	.+16     	; 0x38da <_Z10Lcd_print2hh11LcdFontSizePh+0x3c>
    38ca:	cf 5f       	subi	r28, 0xFF	; 255
    38cc:	f8 01       	movw	r30, r16
    38ce:	ec 0f       	add	r30, r28
    38d0:	f1 1d       	adc	r31, r1
    38d2:	60 81       	ld	r22, Z
    38d4:	61 11       	cpse	r22, r1
    38d6:	f1 cf       	rjmp	.-30     	; 0x38ba <_Z10Lcd_print2hh11LcdFontSizePh+0x1c>
    38d8:	01 c0       	rjmp	.+2      	; 0x38dc <_Z10Lcd_print2hh11LcdFontSizePh+0x3e>
    38da:	61 e0       	ldi	r22, 0x01	; 1
    38dc:	86 2f       	mov	r24, r22
    38de:	df 91       	pop	r29
    38e0:	cf 91       	pop	r28
    38e2:	1f 91       	pop	r17
    38e4:	0f 91       	pop	r16
    38e6:	ff 90       	pop	r15
    38e8:	08 95       	ret

000038ea <_Z10Lcd_printfhh11LcdFontSizefi>:
 *   :      n5110lcd.h
 *                 :  LcdFStr(0, 0, FONT_1X, float_var , 2);
 *                          LcdFStr(0, 0, FONT_1X, &name_of_string_as_array);
 */
void Lcd_printf ( byte x, byte y, LcdFontSize size, float data, int accuracy )
{
    38ea:	df 92       	push	r13
    38ec:	ef 92       	push	r14
    38ee:	ff 92       	push	r15
    38f0:	0f 93       	push	r16
    38f2:	1f 93       	push	r17
    38f4:	cf 93       	push	r28
    38f6:	df 93       	push	r29
    38f8:	c8 2f       	mov	r28, r24
    38fa:	d6 2f       	mov	r29, r22
    38fc:	d4 2e       	mov	r13, r20
    38fe:	a7 01       	movw	r20, r14
	Lcd_print(x, y, size, (unsigned char*)gftoa(data, accuracy));
    3900:	c9 01       	movw	r24, r18
    3902:	b8 01       	movw	r22, r16
    3904:	0e 94 b6 19 	call	0x336c	; 0x336c <_Z5gftoafi>
    3908:	9c 01       	movw	r18, r24
    390a:	4d 2d       	mov	r20, r13
    390c:	6d 2f       	mov	r22, r29
    390e:	8c 2f       	mov	r24, r28
    3910:	0e 94 2e 1c 	call	0x385c	; 0x385c <_Z9Lcd_printhh11LcdFontSizePh>
}
    3914:	df 91       	pop	r29
    3916:	cf 91       	pop	r28
    3918:	1f 91       	pop	r17
    391a:	0f 91       	pop	r16
    391c:	ff 90       	pop	r15
    391e:	ef 90       	pop	r14
    3920:	df 90       	pop	r13
    3922:	08 95       	ret

00003924 <_Z11Lcd_printf2hh11LcdFontSizefi>:

void Lcd_printf2 ( byte x, byte y, LcdFontSize size, float data, int accuracy )
{
    3924:	df 92       	push	r13
    3926:	ef 92       	push	r14
    3928:	ff 92       	push	r15
    392a:	0f 93       	push	r16
    392c:	1f 93       	push	r17
    392e:	cf 93       	push	r28
    3930:	df 93       	push	r29
    3932:	c8 2f       	mov	r28, r24
    3934:	d6 2f       	mov	r29, r22
    3936:	d4 2e       	mov	r13, r20
    3938:	a7 01       	movw	r20, r14
	Lcd_print2(x, y, size, (unsigned char*)gftoa(data, accuracy));
    393a:	c9 01       	movw	r24, r18
    393c:	b8 01       	movw	r22, r16
    393e:	0e 94 b6 19 	call	0x336c	; 0x336c <_Z5gftoafi>
    3942:	9c 01       	movw	r18, r24
    3944:	4d 2d       	mov	r20, r13
    3946:	6d 2f       	mov	r22, r29
    3948:	8c 2f       	mov	r24, r28
    394a:	0e 94 4f 1c 	call	0x389e	; 0x389e <_Z10Lcd_print2hh11LcdFontSizePh>
}
    394e:	df 91       	pop	r29
    3950:	cf 91       	pop	r28
    3952:	1f 91       	pop	r17
    3954:	0f 91       	pop	r16
    3956:	ff 90       	pop	r15
    3958:	ef 90       	pop	r14
    395a:	df 90       	pop	r13
    395c:	08 95       	ret

0000395e <_Z14Initialisationv>:


void Initialisation(){


	panel.Init();
    395e:	8d e5       	ldi	r24, 0x5D	; 93
    3960:	96 e0       	ldi	r25, 0x06	; 6
    3962:	0e 94 78 29 	call	0x52f0	; 0x52f0 <_ZN5Panel4InitEv>
	carrage.Init();
    3966:	8e e8       	ldi	r24, 0x8E	; 142
    3968:	96 e0       	ldi	r25, 0x06	; 6
    396a:	0e 94 09 12 	call	0x2412	; 0x2412 <_ZN7Carrage4InitEv>
	activity.Init(carrage);
    396e:	6e e8       	ldi	r22, 0x8E	; 142
    3970:	76 e0       	ldi	r23, 0x06	; 6
    3972:	8e eb       	ldi	r24, 0xBE	; 190
    3974:	95 e0       	ldi	r25, 0x05	; 5
    3976:	0e 94 d0 04 	call	0x9a0	; 0x9a0 <_ZN8Activity4InitER7Carrage>
	
	if(!(eeprom_read_byte(&FierstStart) == 1)){
    397a:	8e e5       	ldi	r24, 0x5E	; 94
    397c:	90 e0       	ldi	r25, 0x00	; 0
    397e:	0e 94 fe 30 	call	0x61fc	; 0x61fc <eeprom_read_byte>
    3982:	81 30       	cpi	r24, 0x01	; 1
    3984:	09 f4       	brne	.+2      	; 0x3988 <_Z14Initialisationv+0x2a>
    3986:	4e c0       	rjmp	.+156    	; 0x3a24 <_Z14Initialisationv+0xc6>
		eeprom_write_float (&Tunning_rate, 0.50);
    3988:	40 e0       	ldi	r20, 0x00	; 0
    398a:	50 e0       	ldi	r21, 0x00	; 0
    398c:	60 e0       	ldi	r22, 0x00	; 0
    398e:	7f e3       	ldi	r23, 0x3F	; 63
    3990:	8a e5       	ldi	r24, 0x5A	; 90
    3992:	90 e0       	ldi	r25, 0x00	; 0
    3994:	0e 94 1a 31 	call	0x6234	; 0x6234 <eeprom_write_dword>
		eeprom_write_float (&Inertion_rate, 50);
    3998:	40 e0       	ldi	r20, 0x00	; 0
    399a:	50 e0       	ldi	r21, 0x00	; 0
    399c:	68 e4       	ldi	r22, 0x48	; 72
    399e:	72 e4       	ldi	r23, 0x42	; 66
    39a0:	86 e5       	ldi	r24, 0x56	; 86
    39a2:	90 e0       	ldi	r25, 0x00	; 0
    39a4:	0e 94 1a 31 	call	0x6234	; 0x6234 <eeprom_write_dword>
		eeprom_write_float (&Step_force_move, 10);
    39a8:	40 e0       	ldi	r20, 0x00	; 0
    39aa:	50 e0       	ldi	r21, 0x00	; 0
    39ac:	60 e2       	ldi	r22, 0x20	; 32
    39ae:	71 e4       	ldi	r23, 0x41	; 65
    39b0:	82 e5       	ldi	r24, 0x52	; 82
    39b2:	90 e0       	ldi	r25, 0x00	; 0
    39b4:	0e 94 1a 31 	call	0x6234	; 0x6234 <eeprom_write_dword>
		eeprom_write_float (&Accuracy, 0);
    39b8:	40 e0       	ldi	r20, 0x00	; 0
    39ba:	50 e0       	ldi	r21, 0x00	; 0
    39bc:	ba 01       	movw	r22, r20
    39be:	8e e4       	ldi	r24, 0x4E	; 78
    39c0:	90 e0       	ldi	r25, 0x00	; 0
    39c2:	0e 94 1a 31 	call	0x6234	; 0x6234 <eeprom_write_dword>
		eeprom_write_float (&CarrajeMin, 0.10);
    39c6:	4d ec       	ldi	r20, 0xCD	; 205
    39c8:	5c ec       	ldi	r21, 0xCC	; 204
    39ca:	6c ec       	ldi	r22, 0xCC	; 204
    39cc:	7d e3       	ldi	r23, 0x3D	; 61
    39ce:	86 e4       	ldi	r24, 0x46	; 70
    39d0:	90 e0       	ldi	r25, 0x00	; 0
    39d2:	0e 94 1a 31 	call	0x6234	; 0x6234 <eeprom_write_dword>
		eeprom_write_float (&CarrajeMax, 4.90);
    39d6:	4d ec       	ldi	r20, 0xCD	; 205
    39d8:	5c ec       	ldi	r21, 0xCC	; 204
    39da:	6c e9       	ldi	r22, 0x9C	; 156
    39dc:	70 e4       	ldi	r23, 0x40	; 64
    39de:	82 e4       	ldi	r24, 0x42	; 66
    39e0:	90 e0       	ldi	r25, 0x00	; 0
    39e2:	0e 94 1a 31 	call	0x6234	; 0x6234 <eeprom_write_dword>
		eeprom_write_float (&countToMalfunctionLimit, 50.0);
    39e6:	40 e0       	ldi	r20, 0x00	; 0
    39e8:	50 e0       	ldi	r21, 0x00	; 0
    39ea:	68 e4       	ldi	r22, 0x48	; 72
    39ec:	72 e4       	ldi	r23, 0x42	; 66
    39ee:	8c e3       	ldi	r24, 0x3C	; 60
    39f0:	90 e0       	ldi	r25, 0x00	; 0
    39f2:	0e 94 1a 31 	call	0x6234	; 0x6234 <eeprom_write_dword>
		eeprom_write_byte(&OnOffMalfunction,true);
    39f6:	61 e0       	ldi	r22, 0x01	; 1
    39f8:	80 e4       	ldi	r24, 0x40	; 64
    39fa:	90 e0       	ldi	r25, 0x00	; 0
    39fc:	0e 94 0c 31 	call	0x6218	; 0x6218 <eeprom_write_byte>
		eeprom_write_float (&SensitivityMove, 0.03);
    3a00:	4f e8       	ldi	r20, 0x8F	; 143
    3a02:	52 ec       	ldi	r21, 0xC2	; 194
    3a04:	65 ef       	ldi	r22, 0xF5	; 245
    3a06:	7c e3       	ldi	r23, 0x3C	; 60
    3a08:	8a e4       	ldi	r24, 0x4A	; 74
    3a0a:	90 e0       	ldi	r25, 0x00	; 0
    3a0c:	0e 94 1a 31 	call	0x6234	; 0x6234 <eeprom_write_dword>
		eeprom_write_byte(&LCD_contrast, 0xBF);
    3a10:	6f eb       	ldi	r22, 0xBF	; 191
    3a12:	81 e4       	ldi	r24, 0x41	; 65
    3a14:	90 e0       	ldi	r25, 0x00	; 0
    3a16:	0e 94 0c 31 	call	0x6218	; 0x6218 <eeprom_write_byte>
		eeprom_write_byte(&FierstStart, 1);
    3a1a:	61 e0       	ldi	r22, 0x01	; 1
    3a1c:	8e e5       	ldi	r24, 0x5E	; 94
    3a1e:	90 e0       	ldi	r25, 0x00	; 0
    3a20:	0e 94 0c 31 	call	0x6218	; 0x6218 <eeprom_write_byte>
	
	//if (!(eeprom_read_float(&CarrajeMax)>=0||eeprom_read_float(&CarrajeMax)<=5)){
		//eeprom_write_float (&CarrajeMax, 5.00);
	//}
	
	carrage.tunning = eeprom_read_float(&Tunning_rate);
    3a24:	8a e5       	ldi	r24, 0x5A	; 90
    3a26:	90 e0       	ldi	r25, 0x00	; 0
    3a28:	0e 94 06 31 	call	0x620c	; 0x620c <eeprom_read_dword>
    3a2c:	60 93 58 07 	sts	0x0758, r22	; 0x800758 <carrage+0xca>
    3a30:	70 93 59 07 	sts	0x0759, r23	; 0x800759 <carrage+0xcb>
    3a34:	80 93 5a 07 	sts	0x075A, r24	; 0x80075a <carrage+0xcc>
    3a38:	90 93 5b 07 	sts	0x075B, r25	; 0x80075b <carrage+0xcd>
	carrage.inertion = eeprom_read_float(&Inertion_rate);
    3a3c:	86 e5       	ldi	r24, 0x56	; 86
    3a3e:	90 e0       	ldi	r25, 0x00	; 0
    3a40:	0e 94 06 31 	call	0x620c	; 0x620c <eeprom_read_dword>
    3a44:	60 93 5c 07 	sts	0x075C, r22	; 0x80075c <carrage+0xce>
    3a48:	70 93 5d 07 	sts	0x075D, r23	; 0x80075d <carrage+0xcf>
    3a4c:	80 93 5e 07 	sts	0x075E, r24	; 0x80075e <carrage+0xd0>
    3a50:	90 93 5f 07 	sts	0x075F, r25	; 0x80075f <carrage+0xd1>
	carrage.step_force_move = eeprom_read_float(&Step_force_move);
    3a54:	82 e5       	ldi	r24, 0x52	; 82
    3a56:	90 e0       	ldi	r25, 0x00	; 0
    3a58:	0e 94 06 31 	call	0x620c	; 0x620c <eeprom_read_dword>
    3a5c:	60 93 60 07 	sts	0x0760, r22	; 0x800760 <carrage+0xd2>
    3a60:	70 93 61 07 	sts	0x0761, r23	; 0x800761 <carrage+0xd3>
    3a64:	80 93 62 07 	sts	0x0762, r24	; 0x800762 <carrage+0xd4>
    3a68:	90 93 63 07 	sts	0x0763, r25	; 0x800763 <carrage+0xd5>
	carrage.accuracy = eeprom_read_float(&Accuracy);
    3a6c:	8e e4       	ldi	r24, 0x4E	; 78
    3a6e:	90 e0       	ldi	r25, 0x00	; 0
    3a70:	0e 94 06 31 	call	0x620c	; 0x620c <eeprom_read_dword>
    3a74:	60 93 64 07 	sts	0x0764, r22	; 0x800764 <carrage+0xd6>
    3a78:	70 93 65 07 	sts	0x0765, r23	; 0x800765 <carrage+0xd7>
    3a7c:	80 93 66 07 	sts	0x0766, r24	; 0x800766 <carrage+0xd8>
    3a80:	90 93 67 07 	sts	0x0767, r25	; 0x800767 <carrage+0xd9>
	carrage.sensitivityMove = eeprom_read_float(&SensitivityMove);
    3a84:	8a e4       	ldi	r24, 0x4A	; 74
    3a86:	90 e0       	ldi	r25, 0x00	; 0
    3a88:	0e 94 06 31 	call	0x620c	; 0x620c <eeprom_read_dword>
    3a8c:	60 93 74 07 	sts	0x0774, r22	; 0x800774 <carrage+0xe6>
    3a90:	70 93 75 07 	sts	0x0775, r23	; 0x800775 <carrage+0xe7>
    3a94:	80 93 76 07 	sts	0x0776, r24	; 0x800776 <carrage+0xe8>
    3a98:	90 93 77 07 	sts	0x0777, r25	; 0x800777 <carrage+0xe9>
	carrage.min =  eeprom_read_float(&CarrajeMin);
    3a9c:	86 e4       	ldi	r24, 0x46	; 70
    3a9e:	90 e0       	ldi	r25, 0x00	; 0
    3aa0:	0e 94 06 31 	call	0x620c	; 0x620c <eeprom_read_dword>
    3aa4:	60 93 68 07 	sts	0x0768, r22	; 0x800768 <carrage+0xda>
    3aa8:	70 93 69 07 	sts	0x0769, r23	; 0x800769 <carrage+0xdb>
    3aac:	80 93 6a 07 	sts	0x076A, r24	; 0x80076a <carrage+0xdc>
    3ab0:	90 93 6b 07 	sts	0x076B, r25	; 0x80076b <carrage+0xdd>
	carrage.max =  eeprom_read_float(&CarrajeMax);
    3ab4:	82 e4       	ldi	r24, 0x42	; 66
    3ab6:	90 e0       	ldi	r25, 0x00	; 0
    3ab8:	0e 94 06 31 	call	0x620c	; 0x620c <eeprom_read_dword>
    3abc:	60 93 6c 07 	sts	0x076C, r22	; 0x80076c <carrage+0xde>
    3ac0:	70 93 6d 07 	sts	0x076D, r23	; 0x80076d <carrage+0xdf>
    3ac4:	80 93 6e 07 	sts	0x076E, r24	; 0x80076e <carrage+0xe0>
    3ac8:	90 93 6f 07 	sts	0x076F, r25	; 0x80076f <carrage+0xe1>
	carrage.LCD_contrast = eeprom_read_byte(&LCD_contrast);
    3acc:	81 e4       	ldi	r24, 0x41	; 65
    3ace:	90 e0       	ldi	r25, 0x00	; 0
    3ad0:	0e 94 fe 30 	call	0x61fc	; 0x61fc <eeprom_read_byte>
    3ad4:	80 93 7c 07 	sts	0x077C, r24	; 0x80077c <carrage+0xee>
	
	carrage.SetLimits();
    3ad8:	8e e8       	ldi	r24, 0x8E	; 142
    3ada:	96 e0       	ldi	r25, 0x06	; 6
    3adc:	0e 94 db 10 	call	0x21b6	; 0x21b6 <_ZN7Carrage9SetLimitsEv>
	
	carrage.countToMalfunctionLimit = eeprom_read_float(&countToMalfunctionLimit);
    3ae0:	8c e3       	ldi	r24, 0x3C	; 60
    3ae2:	90 e0       	ldi	r25, 0x00	; 0
    3ae4:	0e 94 06 31 	call	0x620c	; 0x620c <eeprom_read_dword>
    3ae8:	60 93 70 07 	sts	0x0770, r22	; 0x800770 <carrage+0xe2>
    3aec:	70 93 71 07 	sts	0x0771, r23	; 0x800771 <carrage+0xe3>
    3af0:	80 93 72 07 	sts	0x0772, r24	; 0x800772 <carrage+0xe4>
    3af4:	90 93 73 07 	sts	0x0773, r25	; 0x800773 <carrage+0xe5>
	carrage.OnOffMalfunction = eeprom_read_byte(&OnOffMalfunction);
    3af8:	80 e4       	ldi	r24, 0x40	; 64
    3afa:	90 e0       	ldi	r25, 0x00	; 0
    3afc:	0e 94 fe 30 	call	0x61fc	; 0x61fc <eeprom_read_byte>
    3b00:	91 e0       	ldi	r25, 0x01	; 1
    3b02:	81 11       	cpse	r24, r1
    3b04:	01 c0       	rjmp	.+2      	; 0x3b08 <_Z14Initialisationv+0x1aa>
    3b06:	90 e0       	ldi	r25, 0x00	; 0
    3b08:	90 93 79 07 	sts	0x0779, r25	; 0x800779 <carrage+0xeb>
	
	Lcd_init(carrage.LCD_contrast);
    3b0c:	80 91 7c 07 	lds	r24, 0x077C	; 0x80077c <carrage+0xee>
    3b10:	0e 94 43 1a 	call	0x3486	; 0x3486 <_Z8Lcd_inith>
    3b14:	08 95       	ret

00003b16 <_Z12SettingsSaveb>:




void SettingsSave(bool SettingSave){
	if (SettingSave){
    3b16:	88 23       	and	r24, r24
    3b18:	09 f4       	brne	.+2      	; 0x3b1c <_Z12SettingsSaveb+0x6>
    3b1a:	70 c0       	rjmp	.+224    	; 0x3bfc <_Z12SettingsSaveb+0xe6>
		eeprom_write_float (&Tunning_rate, carrage.tunning);
    3b1c:	40 91 58 07 	lds	r20, 0x0758	; 0x800758 <carrage+0xca>
    3b20:	50 91 59 07 	lds	r21, 0x0759	; 0x800759 <carrage+0xcb>
    3b24:	60 91 5a 07 	lds	r22, 0x075A	; 0x80075a <carrage+0xcc>
    3b28:	70 91 5b 07 	lds	r23, 0x075B	; 0x80075b <carrage+0xcd>
    3b2c:	8a e5       	ldi	r24, 0x5A	; 90
    3b2e:	90 e0       	ldi	r25, 0x00	; 0
    3b30:	0e 94 1a 31 	call	0x6234	; 0x6234 <eeprom_write_dword>
		eeprom_write_float (&Inertion_rate, carrage.inertion);
    3b34:	40 91 5c 07 	lds	r20, 0x075C	; 0x80075c <carrage+0xce>
    3b38:	50 91 5d 07 	lds	r21, 0x075D	; 0x80075d <carrage+0xcf>
    3b3c:	60 91 5e 07 	lds	r22, 0x075E	; 0x80075e <carrage+0xd0>
    3b40:	70 91 5f 07 	lds	r23, 0x075F	; 0x80075f <carrage+0xd1>
    3b44:	86 e5       	ldi	r24, 0x56	; 86
    3b46:	90 e0       	ldi	r25, 0x00	; 0
    3b48:	0e 94 1a 31 	call	0x6234	; 0x6234 <eeprom_write_dword>
		eeprom_write_float (&Step_force_move, carrage.step_force_move);
    3b4c:	40 91 60 07 	lds	r20, 0x0760	; 0x800760 <carrage+0xd2>
    3b50:	50 91 61 07 	lds	r21, 0x0761	; 0x800761 <carrage+0xd3>
    3b54:	60 91 62 07 	lds	r22, 0x0762	; 0x800762 <carrage+0xd4>
    3b58:	70 91 63 07 	lds	r23, 0x0763	; 0x800763 <carrage+0xd5>
    3b5c:	82 e5       	ldi	r24, 0x52	; 82
    3b5e:	90 e0       	ldi	r25, 0x00	; 0
    3b60:	0e 94 1a 31 	call	0x6234	; 0x6234 <eeprom_write_dword>
		eeprom_write_float (&Accuracy, carrage.accuracy);
    3b64:	40 91 64 07 	lds	r20, 0x0764	; 0x800764 <carrage+0xd6>
    3b68:	50 91 65 07 	lds	r21, 0x0765	; 0x800765 <carrage+0xd7>
    3b6c:	60 91 66 07 	lds	r22, 0x0766	; 0x800766 <carrage+0xd8>
    3b70:	70 91 67 07 	lds	r23, 0x0767	; 0x800767 <carrage+0xd9>
    3b74:	8e e4       	ldi	r24, 0x4E	; 78
    3b76:	90 e0       	ldi	r25, 0x00	; 0
    3b78:	0e 94 1a 31 	call	0x6234	; 0x6234 <eeprom_write_dword>
		eeprom_write_float(&CarrajeMin, carrage.min);
    3b7c:	40 91 68 07 	lds	r20, 0x0768	; 0x800768 <carrage+0xda>
    3b80:	50 91 69 07 	lds	r21, 0x0769	; 0x800769 <carrage+0xdb>
    3b84:	60 91 6a 07 	lds	r22, 0x076A	; 0x80076a <carrage+0xdc>
    3b88:	70 91 6b 07 	lds	r23, 0x076B	; 0x80076b <carrage+0xdd>
    3b8c:	86 e4       	ldi	r24, 0x46	; 70
    3b8e:	90 e0       	ldi	r25, 0x00	; 0
    3b90:	0e 94 1a 31 	call	0x6234	; 0x6234 <eeprom_write_dword>
		eeprom_write_float(&CarrajeMax, carrage.max);
    3b94:	40 91 6c 07 	lds	r20, 0x076C	; 0x80076c <carrage+0xde>
    3b98:	50 91 6d 07 	lds	r21, 0x076D	; 0x80076d <carrage+0xdf>
    3b9c:	60 91 6e 07 	lds	r22, 0x076E	; 0x80076e <carrage+0xe0>
    3ba0:	70 91 6f 07 	lds	r23, 0x076F	; 0x80076f <carrage+0xe1>
    3ba4:	82 e4       	ldi	r24, 0x42	; 66
    3ba6:	90 e0       	ldi	r25, 0x00	; 0
    3ba8:	0e 94 1a 31 	call	0x6234	; 0x6234 <eeprom_write_dword>
		eeprom_write_byte(&LCD_contrast, carrage.LCD_contrast);
    3bac:	60 91 7c 07 	lds	r22, 0x077C	; 0x80077c <carrage+0xee>
    3bb0:	81 e4       	ldi	r24, 0x41	; 65
    3bb2:	90 e0       	ldi	r25, 0x00	; 0
    3bb4:	0e 94 0c 31 	call	0x6218	; 0x6218 <eeprom_write_byte>
		carrage.SetLimits();
    3bb8:	8e e8       	ldi	r24, 0x8E	; 142
    3bba:	96 e0       	ldi	r25, 0x06	; 6
    3bbc:	0e 94 db 10 	call	0x21b6	; 0x21b6 <_ZN7Carrage9SetLimitsEv>
		eeprom_write_float (&countToMalfunctionLimit, carrage.countToMalfunctionLimit);
    3bc0:	40 91 70 07 	lds	r20, 0x0770	; 0x800770 <carrage+0xe2>
    3bc4:	50 91 71 07 	lds	r21, 0x0771	; 0x800771 <carrage+0xe3>
    3bc8:	60 91 72 07 	lds	r22, 0x0772	; 0x800772 <carrage+0xe4>
    3bcc:	70 91 73 07 	lds	r23, 0x0773	; 0x800773 <carrage+0xe5>
    3bd0:	8c e3       	ldi	r24, 0x3C	; 60
    3bd2:	90 e0       	ldi	r25, 0x00	; 0
    3bd4:	0e 94 1a 31 	call	0x6234	; 0x6234 <eeprom_write_dword>
		eeprom_write_float (&SensitivityMove, carrage.sensitivityMove);
    3bd8:	40 91 74 07 	lds	r20, 0x0774	; 0x800774 <carrage+0xe6>
    3bdc:	50 91 75 07 	lds	r21, 0x0775	; 0x800775 <carrage+0xe7>
    3be0:	60 91 76 07 	lds	r22, 0x0776	; 0x800776 <carrage+0xe8>
    3be4:	70 91 77 07 	lds	r23, 0x0777	; 0x800777 <carrage+0xe9>
    3be8:	8a e4       	ldi	r24, 0x4A	; 74
    3bea:	90 e0       	ldi	r25, 0x00	; 0
    3bec:	0e 94 1a 31 	call	0x6234	; 0x6234 <eeprom_write_dword>
		eeprom_write_byte(&OnOffMalfunction,carrage.OnOffMalfunction); 
    3bf0:	60 91 79 07 	lds	r22, 0x0779	; 0x800779 <carrage+0xeb>
    3bf4:	80 e4       	ldi	r24, 0x40	; 64
    3bf6:	90 e0       	ldi	r25, 0x00	; 0
    3bf8:	0e 94 0c 31 	call	0x6218	; 0x6218 <eeprom_write_byte>
    3bfc:	08 95       	ret

00003bfe <_Z25IFCarrageSaveStateToEEMEMi>:
	}
}


void IFCarrageSaveStateToEEMEM( int position){
    3bfe:	0f 93       	push	r16
    3c00:	1f 93       	push	r17
    3c02:	cf 93       	push	r28
    3c04:	df 93       	push	r29
	
	if(activity.SaveFlag){
    3c06:	20 91 54 06 	lds	r18, 0x0654	; 0x800654 <activity+0x96>
    3c0a:	22 23       	and	r18, r18
    3c0c:	99 f1       	breq	.+102    	; 0x3c74 <_Z25IFCarrageSaveStateToEEMEMi+0x76>
    3c0e:	ec 01       	movw	r28, r24
		eeprom_write_float (&PositionsStates[position][1], carrage.Wheel_1.get_hight());
    3c10:	8e e8       	ldi	r24, 0x8E	; 142
    3c12:	96 e0       	ldi	r25, 0x06	; 6
    3c14:	0e 94 84 2b 	call	0x5708	; 0x5708 <_ZN5Wheel9get_hightEv>
    3c18:	ab 01       	movw	r20, r22
    3c1a:	bc 01       	movw	r22, r24
    3c1c:	84 e1       	ldi	r24, 0x14	; 20
    3c1e:	8c 9f       	mul	r24, r28
    3c20:	80 01       	movw	r16, r0
    3c22:	8d 9f       	mul	r24, r29
    3c24:	10 0d       	add	r17, r0
    3c26:	11 24       	eor	r1, r1
    3c28:	c8 01       	movw	r24, r16
    3c2a:	8c 5f       	subi	r24, 0xFC	; 252
    3c2c:	9f 4f       	sbci	r25, 0xFF	; 255
    3c2e:	0e 94 1a 31 	call	0x6234	; 0x6234 <eeprom_write_dword>
		eeprom_write_float (&PositionsStates[position][2], carrage.Wheel_2.get_hight());
    3c32:	80 ec       	ldi	r24, 0xC0	; 192
    3c34:	96 e0       	ldi	r25, 0x06	; 6
    3c36:	0e 94 84 2b 	call	0x5708	; 0x5708 <_ZN5Wheel9get_hightEv>
    3c3a:	ab 01       	movw	r20, r22
    3c3c:	bc 01       	movw	r22, r24
    3c3e:	c8 01       	movw	r24, r16
    3c40:	88 5f       	subi	r24, 0xF8	; 248
    3c42:	9f 4f       	sbci	r25, 0xFF	; 255
    3c44:	0e 94 1a 31 	call	0x6234	; 0x6234 <eeprom_write_dword>
		eeprom_write_float (&PositionsStates[position][3], carrage.Wheel_3.get_hight());
    3c48:	82 ef       	ldi	r24, 0xF2	; 242
    3c4a:	96 e0       	ldi	r25, 0x06	; 6
    3c4c:	0e 94 84 2b 	call	0x5708	; 0x5708 <_ZN5Wheel9get_hightEv>
    3c50:	ab 01       	movw	r20, r22
    3c52:	bc 01       	movw	r22, r24
    3c54:	c8 01       	movw	r24, r16
    3c56:	84 5f       	subi	r24, 0xF4	; 244
    3c58:	9f 4f       	sbci	r25, 0xFF	; 255
    3c5a:	0e 94 1a 31 	call	0x6234	; 0x6234 <eeprom_write_dword>
		eeprom_write_float (&PositionsStates[position][4], carrage.Wheel_4.get_hight());
    3c5e:	84 e2       	ldi	r24, 0x24	; 36
    3c60:	97 e0       	ldi	r25, 0x07	; 7
    3c62:	0e 94 84 2b 	call	0x5708	; 0x5708 <_ZN5Wheel9get_hightEv>
    3c66:	ab 01       	movw	r20, r22
    3c68:	bc 01       	movw	r22, r24
    3c6a:	c8 01       	movw	r24, r16
    3c6c:	80 5f       	subi	r24, 0xF0	; 240
    3c6e:	9f 4f       	sbci	r25, 0xFF	; 255
    3c70:	0e 94 1a 31 	call	0x6234	; 0x6234 <eeprom_write_dword>
	}
	activity.SaveFlag = false;
    3c74:	10 92 54 06 	sts	0x0654, r1	; 0x800654 <activity+0x96>
}
    3c78:	df 91       	pop	r29
    3c7a:	cf 91       	pop	r28
    3c7c:	1f 91       	pop	r17
    3c7e:	0f 91       	pop	r16
    3c80:	08 95       	ret

00003c82 <_Z24IFCarrageSetStateToEEMEMi>:

void IFCarrageSetStateToEEMEM( int position){
    3c82:	0f 93       	push	r16
    3c84:	1f 93       	push	r17
    3c86:	cf 93       	push	r28
    3c88:	df 93       	push	r29
	if(activity.SetFlag){
    3c8a:	20 91 55 06 	lds	r18, 0x0655	; 0x800655 <activity+0x97>
    3c8e:	22 23       	and	r18, r18
    3c90:	09 f4       	brne	.+2      	; 0x3c94 <_Z24IFCarrageSetStateToEEMEMi+0x12>
    3c92:	53 c0       	rjmp	.+166    	; 0x3d3a <_Z24IFCarrageSetStateToEEMEMi+0xb8>
    3c94:	ec 01       	movw	r28, r24
		carrage.SelectAllWheel();
    3c96:	8e e8       	ldi	r24, 0x8E	; 142
    3c98:	96 e0       	ldi	r25, 0x06	; 6
    3c9a:	0e 94 1c 15 	call	0x2a38	; 0x2a38 <_ZN7Carrage14SelectAllWheelEv>
		screen.Render(activity, carrage);
    3c9e:	4e e8       	ldi	r20, 0x8E	; 142
    3ca0:	56 e0       	ldi	r21, 0x06	; 6
    3ca2:	6e eb       	ldi	r22, 0xBE	; 190
    3ca4:	75 e0       	ldi	r23, 0x05	; 5
    3ca6:	8b e5       	ldi	r24, 0x5B	; 91
    3ca8:	96 e0       	ldi	r25, 0x06	; 6
    3caa:	0e 94 dd 28 	call	0x51ba	; 0x51ba <_ZN6Screen6RenderER8ActivityR7Carrage>
		carrage.Wheel_1.sethight=eeprom_read_float(&PositionsStates[position][1]);
    3cae:	84 e1       	ldi	r24, 0x14	; 20
    3cb0:	8c 9f       	mul	r24, r28
    3cb2:	80 01       	movw	r16, r0
    3cb4:	8d 9f       	mul	r24, r29
    3cb6:	10 0d       	add	r17, r0
    3cb8:	11 24       	eor	r1, r1
    3cba:	c8 01       	movw	r24, r16
    3cbc:	8c 5f       	subi	r24, 0xFC	; 252
    3cbe:	9f 4f       	sbci	r25, 0xFF	; 255
    3cc0:	0e 94 06 31 	call	0x620c	; 0x620c <eeprom_read_dword>
    3cc4:	60 93 a9 06 	sts	0x06A9, r22	; 0x8006a9 <carrage+0x1b>
    3cc8:	70 93 aa 06 	sts	0x06AA, r23	; 0x8006aa <carrage+0x1c>
    3ccc:	80 93 ab 06 	sts	0x06AB, r24	; 0x8006ab <carrage+0x1d>
    3cd0:	90 93 ac 06 	sts	0x06AC, r25	; 0x8006ac <carrage+0x1e>
		carrage.Wheel_2.sethight=eeprom_read_float(&PositionsStates[position][2]);
    3cd4:	c8 01       	movw	r24, r16
    3cd6:	88 5f       	subi	r24, 0xF8	; 248
    3cd8:	9f 4f       	sbci	r25, 0xFF	; 255
    3cda:	0e 94 06 31 	call	0x620c	; 0x620c <eeprom_read_dword>
    3cde:	60 93 db 06 	sts	0x06DB, r22	; 0x8006db <carrage+0x4d>
    3ce2:	70 93 dc 06 	sts	0x06DC, r23	; 0x8006dc <carrage+0x4e>
    3ce6:	80 93 dd 06 	sts	0x06DD, r24	; 0x8006dd <carrage+0x4f>
    3cea:	90 93 de 06 	sts	0x06DE, r25	; 0x8006de <carrage+0x50>
		carrage.Wheel_3.sethight=eeprom_read_float(&PositionsStates[position][3]);
    3cee:	c8 01       	movw	r24, r16
    3cf0:	84 5f       	subi	r24, 0xF4	; 244
    3cf2:	9f 4f       	sbci	r25, 0xFF	; 255
    3cf4:	0e 94 06 31 	call	0x620c	; 0x620c <eeprom_read_dword>
    3cf8:	60 93 0d 07 	sts	0x070D, r22	; 0x80070d <carrage+0x7f>
    3cfc:	70 93 0e 07 	sts	0x070E, r23	; 0x80070e <carrage+0x80>
    3d00:	80 93 0f 07 	sts	0x070F, r24	; 0x80070f <carrage+0x81>
    3d04:	90 93 10 07 	sts	0x0710, r25	; 0x800710 <carrage+0x82>
		carrage.Wheel_4.sethight=eeprom_read_float(&PositionsStates[position][4]);
    3d08:	c8 01       	movw	r24, r16
    3d0a:	80 5f       	subi	r24, 0xF0	; 240
    3d0c:	9f 4f       	sbci	r25, 0xFF	; 255
    3d0e:	0e 94 06 31 	call	0x620c	; 0x620c <eeprom_read_dword>
    3d12:	60 93 3f 07 	sts	0x073F, r22	; 0x80073f <carrage+0xb1>
    3d16:	70 93 40 07 	sts	0x0740, r23	; 0x800740 <carrage+0xb2>
    3d1a:	80 93 41 07 	sts	0x0741, r24	; 0x800741 <carrage+0xb3>
    3d1e:	90 93 42 07 	sts	0x0742, r25	; 0x800742 <carrage+0xb4>
		carrage.Ajustment(panel);
    3d22:	6d e5       	ldi	r22, 0x5D	; 93
    3d24:	76 e0       	ldi	r23, 0x06	; 6
    3d26:	8e e8       	ldi	r24, 0x8E	; 142
    3d28:	96 e0       	ldi	r25, 0x06	; 6
    3d2a:	0e 94 17 17 	call	0x2e2e	; 0x2e2e <_ZN7Carrage9AjustmentER5Panel>
		//_delay_ms(10);
		//activity.GoToSetPosiions();
		carrage.DiSelectAllWheel();
    3d2e:	8e e8       	ldi	r24, 0x8E	; 142
    3d30:	96 e0       	ldi	r25, 0x06	; 6
    3d32:	0e 94 3e 15 	call	0x2a7c	; 0x2a7c <_ZN7Carrage16DiSelectAllWheelEv>
		activity.Statment = 0;
    3d36:	10 92 be 05 	sts	0x05BE, r1	; 0x8005be <activity>
	}
	activity.SetFlag = false;
    3d3a:	10 92 55 06 	sts	0x0655, r1	; 0x800655 <activity+0x97>
}
    3d3e:	df 91       	pop	r29
    3d40:	cf 91       	pop	r28
    3d42:	1f 91       	pop	r17
    3d44:	0f 91       	pop	r16
    3d46:	08 95       	ret

00003d48 <main>:



int main(void)
{		
	Initialisation();
    3d48:	0e 94 af 1c 	call	0x395e	; 0x395e <_Z14Initialisationv>
    while (1) 
    {		
		activity.Cursor_Action(panel, carrage);
		screen.Render(activity, carrage);
		IFCarrageSaveStateToEEMEM(activity.SavePosition);
    3d4c:	07 e5       	ldi	r16, 0x57	; 87
    3d4e:	16 e0       	ldi	r17, 0x06	; 6
		IFCarrageSetStateToEEMEM(activity.SavePosition);
		SettingsSave(activity.SettingsSaveFlag);
    3d50:	c6 e5       	ldi	r28, 0x56	; 86
    3d52:	d6 e0       	ldi	r29, 0x06	; 6
int main(void)
{		
	Initialisation();
    while (1) 
    {		
		activity.Cursor_Action(panel, carrage);
    3d54:	4e e8       	ldi	r20, 0x8E	; 142
    3d56:	56 e0       	ldi	r21, 0x06	; 6
    3d58:	6d e5       	ldi	r22, 0x5D	; 93
    3d5a:	76 e0       	ldi	r23, 0x06	; 6
    3d5c:	8e eb       	ldi	r24, 0xBE	; 190
    3d5e:	95 e0       	ldi	r25, 0x05	; 5
    3d60:	0e 94 8f 0f 	call	0x1f1e	; 0x1f1e <_ZN8Activity13Cursor_ActionER5PanelR7Carrage>
		screen.Render(activity, carrage);
    3d64:	4e e8       	ldi	r20, 0x8E	; 142
    3d66:	56 e0       	ldi	r21, 0x06	; 6
    3d68:	6e eb       	ldi	r22, 0xBE	; 190
    3d6a:	75 e0       	ldi	r23, 0x05	; 5
    3d6c:	8b e5       	ldi	r24, 0x5B	; 91
    3d6e:	96 e0       	ldi	r25, 0x06	; 6
    3d70:	0e 94 dd 28 	call	0x51ba	; 0x51ba <_ZN6Screen6RenderER8ActivityR7Carrage>
		IFCarrageSaveStateToEEMEM(activity.SavePosition);
    3d74:	f8 01       	movw	r30, r16
    3d76:	80 81       	ld	r24, Z
    3d78:	90 e0       	ldi	r25, 0x00	; 0
    3d7a:	0e 94 ff 1d 	call	0x3bfe	; 0x3bfe <_Z25IFCarrageSaveStateToEEMEMi>
		IFCarrageSetStateToEEMEM(activity.SavePosition);
    3d7e:	f8 01       	movw	r30, r16
    3d80:	80 81       	ld	r24, Z
    3d82:	90 e0       	ldi	r25, 0x00	; 0
    3d84:	0e 94 41 1e 	call	0x3c82	; 0x3c82 <_Z24IFCarrageSetStateToEEMEMi>
		SettingsSave(activity.SettingsSaveFlag);
    3d88:	88 81       	ld	r24, Y
    3d8a:	0e 94 8b 1d 	call	0x3b16	; 0x3b16 <_Z12SettingsSaveb>
		activity.SettingsSaveFlag = false;
    3d8e:	18 82       	st	Y, r1
    3d90:	ff ef       	ldi	r31, 0xFF	; 255
    3d92:	20 e7       	ldi	r18, 0x70	; 112
    3d94:	82 e0       	ldi	r24, 0x02	; 2
    3d96:	f1 50       	subi	r31, 0x01	; 1
    3d98:	20 40       	sbci	r18, 0x00	; 0
    3d9a:	80 40       	sbci	r24, 0x00	; 0
    3d9c:	e1 f7       	brne	.-8      	; 0x3d96 <main+0x4e>
    3d9e:	00 c0       	rjmp	.+0      	; 0x3da0 <main+0x58>
    3da0:	00 00       	nop
    3da2:	d8 cf       	rjmp	.-80     	; 0x3d54 <main+0xc>

00003da4 <_GLOBAL__sub_I__Z14test_out_timer6Button6Output>:
float countToMalfunctionLimit EEMEM;
float PositionsStates[3][5] EEMEM;



Carrage carrage;
    3da4:	8e e8       	ldi	r24, 0x8E	; 142
    3da6:	96 e0       	ldi	r25, 0x06	; 6
    3da8:	0e 94 78 10 	call	0x20f0	; 0x20f0 <_ZN7CarrageC1Ev>
Panel panel;
    3dac:	8d e5       	ldi	r24, 0x5D	; 93
    3dae:	96 e0       	ldi	r25, 0x06	; 6
    3db0:	0e 94 58 29 	call	0x52b0	; 0x52b0 <_ZN5PanelC1Ev>
Screen screen;
    3db4:	8b e5       	ldi	r24, 0x5B	; 91
    3db6:	96 e0       	ldi	r25, 0x06	; 6
    3db8:	0e 94 e3 1e 	call	0x3dc6	; 0x3dc6 <_ZN6ScreenC1Ev>
Activity activity;
    3dbc:	8e eb       	ldi	r24, 0xBE	; 190
    3dbe:	95 e0       	ldi	r25, 0x05	; 5
    3dc0:	0e 94 cb 04 	call	0x996	; 0x996 <_ZN8ActivityC1Ev>
    3dc4:	08 95       	ret

00003dc6 <_ZN6ScreenC1Ev>:
// default constructor
Screen::Screen()
{
} //Main_Screen

void Screen::Init(){
    3dc6:	08 95       	ret

00003dc8 <_ZN6Screen10PrintTitleER8ActivityR7Carrage>:
	}
	Lcd_update();
}

void Screen::PrintTitle(Activity &activity, Carrage &carrage){
	if(activity.Cursor < PARKING_SAVE){
    3dc8:	fb 01       	movw	r30, r22
    3dca:	87 81       	ldd	r24, Z+7	; 0x07
    3dcc:	84 30       	cpi	r24, 0x04	; 4
    3dce:	20 f5       	brcc	.+72     	; 0x3e18 <_ZN6Screen10PrintTitleER8ActivityR7Carrage+0x50>
		Lcd_print(5, 0, FONT_1X,(unsigned char *)"");
    3dd0:	20 e0       	ldi	r18, 0x00	; 0
    3dd2:	31 e0       	ldi	r19, 0x01	; 1
    3dd4:	41 e0       	ldi	r20, 0x01	; 1
    3dd6:	60 e0       	ldi	r22, 0x00	; 0
    3dd8:	85 e0       	ldi	r24, 0x05	; 5
    3dda:	0e 94 2e 1c 	call	0x385c	; 0x385c <_Z9Lcd_printhh11LcdFontSizePh>
		Lcd_print(2, 1, FONT_1X,(unsigned char *)"");
    3dde:	25 e0       	ldi	r18, 0x05	; 5
    3de0:	31 e0       	ldi	r19, 0x01	; 1
    3de2:	41 e0       	ldi	r20, 0x01	; 1
    3de4:	61 e0       	ldi	r22, 0x01	; 1
    3de6:	82 e0       	ldi	r24, 0x02	; 2
    3de8:	0e 94 2e 1c 	call	0x385c	; 0x385c <_Z9Lcd_printhh11LcdFontSizePh>
		Lcd_print(2, 2, FONT_1X,(unsigned char *)"");
    3dec:	20 e1       	ldi	r18, 0x10	; 16
    3dee:	31 e0       	ldi	r19, 0x01	; 1
    3df0:	41 e0       	ldi	r20, 0x01	; 1
    3df2:	62 e0       	ldi	r22, 0x02	; 2
    3df4:	82 e0       	ldi	r24, 0x02	; 2
    3df6:	0e 94 2e 1c 	call	0x385c	; 0x385c <_Z9Lcd_printhh11LcdFontSizePh>
		Lcd_print(2, 3, FONT_1X,(unsigned char *)"");
    3dfa:	2a e1       	ldi	r18, 0x1A	; 26
    3dfc:	31 e0       	ldi	r19, 0x01	; 1
    3dfe:	41 e0       	ldi	r20, 0x01	; 1
    3e00:	63 e0       	ldi	r22, 0x03	; 3
    3e02:	82 e0       	ldi	r24, 0x02	; 2
    3e04:	0e 94 2e 1c 	call	0x385c	; 0x385c <_Z9Lcd_printhh11LcdFontSizePh>
		Lcd_print(2, 4, FONT_1X,(unsigned char *)" .");
    3e08:	24 e2       	ldi	r18, 0x24	; 36
    3e0a:	31 e0       	ldi	r19, 0x01	; 1
    3e0c:	41 e0       	ldi	r20, 0x01	; 1
    3e0e:	64 e0       	ldi	r22, 0x04	; 4
    3e10:	82 e0       	ldi	r24, 0x02	; 2
    3e12:	0e 94 2e 1c 	call	0x385c	; 0x385c <_Z9Lcd_printhh11LcdFontSizePh>
    3e16:	08 95       	ret
		}else if(activity.Cursor < PARKING_SET){
    3e18:	88 30       	cpi	r24, 0x08	; 8
    3e1a:	20 f5       	brcc	.+72     	; 0x3e64 <_ZN6Screen10PrintTitleER8ActivityR7Carrage+0x9c>
		Lcd_print(3, 0, FONT_1X,(unsigned char *)"");
    3e1c:	20 e1       	ldi	r18, 0x10	; 16
    3e1e:	31 e0       	ldi	r19, 0x01	; 1
    3e20:	41 e0       	ldi	r20, 0x01	; 1
    3e22:	60 e0       	ldi	r22, 0x00	; 0
    3e24:	83 e0       	ldi	r24, 0x03	; 3
    3e26:	0e 94 2e 1c 	call	0x385c	; 0x385c <_Z9Lcd_printhh11LcdFontSizePh>
		Lcd_print(2, 1, FONT_1X,(unsigned char *)"");
    3e2a:	20 e3       	ldi	r18, 0x30	; 48
    3e2c:	31 e0       	ldi	r19, 0x01	; 1
    3e2e:	41 e0       	ldi	r20, 0x01	; 1
    3e30:	61 e0       	ldi	r22, 0x01	; 1
    3e32:	82 e0       	ldi	r24, 0x02	; 2
    3e34:	0e 94 2e 1c 	call	0x385c	; 0x385c <_Z9Lcd_printhh11LcdFontSizePh>
		Lcd_print(2, 2, FONT_1X,(unsigned char *)" .");
    3e38:	29 e3       	ldi	r18, 0x39	; 57
    3e3a:	31 e0       	ldi	r19, 0x01	; 1
    3e3c:	41 e0       	ldi	r20, 0x01	; 1
    3e3e:	62 e0       	ldi	r22, 0x02	; 2
    3e40:	82 e0       	ldi	r24, 0x02	; 2
    3e42:	0e 94 2e 1c 	call	0x385c	; 0x385c <_Z9Lcd_printhh11LcdFontSizePh>
		Lcd_print(2, 3, FONT_1X,(unsigned char *)" .");
    3e46:	25 e4       	ldi	r18, 0x45	; 69
    3e48:	31 e0       	ldi	r19, 0x01	; 1
    3e4a:	41 e0       	ldi	r20, 0x01	; 1
    3e4c:	63 e0       	ldi	r22, 0x03	; 3
    3e4e:	82 e0       	ldi	r24, 0x02	; 2
    3e50:	0e 94 2e 1c 	call	0x385c	; 0x385c <_Z9Lcd_printhh11LcdFontSizePh>
		Lcd_print(2, 4, FONT_1X,(unsigned char *)" .");
    3e54:	24 e2       	ldi	r18, 0x24	; 36
    3e56:	31 e0       	ldi	r19, 0x01	; 1
    3e58:	41 e0       	ldi	r20, 0x01	; 1
    3e5a:	64 e0       	ldi	r22, 0x04	; 4
    3e5c:	82 e0       	ldi	r24, 0x02	; 2
    3e5e:	0e 94 2e 1c 	call	0x385c	; 0x385c <_Z9Lcd_printhh11LcdFontSizePh>
    3e62:	08 95       	ret
		}else if (activity.Cursor < SETTINGS_TUNING ){
    3e64:	8c 30       	cpi	r24, 0x0C	; 12
    3e66:	20 f5       	brcc	.+72     	; 0x3eb0 <_ZN6Screen10PrintTitleER8ActivityR7Carrage+0xe8>
		Lcd_print(3, 0, FONT_1X,(unsigned char *)"");
    3e68:	25 e0       	ldi	r18, 0x05	; 5
    3e6a:	31 e0       	ldi	r19, 0x01	; 1
    3e6c:	41 e0       	ldi	r20, 0x01	; 1
    3e6e:	60 e0       	ldi	r22, 0x00	; 0
    3e70:	83 e0       	ldi	r24, 0x03	; 3
    3e72:	0e 94 2e 1c 	call	0x385c	; 0x385c <_Z9Lcd_printhh11LcdFontSizePh>
		Lcd_print(2, 1, FONT_1X,(unsigned char *)"");
    3e76:	20 e3       	ldi	r18, 0x30	; 48
    3e78:	31 e0       	ldi	r19, 0x01	; 1
    3e7a:	41 e0       	ldi	r20, 0x01	; 1
    3e7c:	61 e0       	ldi	r22, 0x01	; 1
    3e7e:	82 e0       	ldi	r24, 0x02	; 2
    3e80:	0e 94 2e 1c 	call	0x385c	; 0x385c <_Z9Lcd_printhh11LcdFontSizePh>
		Lcd_print(2, 2, FONT_1X,(unsigned char *)" .");
    3e84:	22 e5       	ldi	r18, 0x52	; 82
    3e86:	31 e0       	ldi	r19, 0x01	; 1
    3e88:	41 e0       	ldi	r20, 0x01	; 1
    3e8a:	62 e0       	ldi	r22, 0x02	; 2
    3e8c:	82 e0       	ldi	r24, 0x02	; 2
    3e8e:	0e 94 2e 1c 	call	0x385c	; 0x385c <_Z9Lcd_printhh11LcdFontSizePh>
		Lcd_print(2, 3, FONT_1X,(unsigned char *)" .");
    3e92:	25 e4       	ldi	r18, 0x45	; 69
    3e94:	31 e0       	ldi	r19, 0x01	; 1
    3e96:	41 e0       	ldi	r20, 0x01	; 1
    3e98:	63 e0       	ldi	r22, 0x03	; 3
    3e9a:	82 e0       	ldi	r24, 0x02	; 2
    3e9c:	0e 94 2e 1c 	call	0x385c	; 0x385c <_Z9Lcd_printhh11LcdFontSizePh>
		Lcd_print(2, 4, FONT_1X,(unsigned char *)" .");
    3ea0:	24 e2       	ldi	r18, 0x24	; 36
    3ea2:	31 e0       	ldi	r19, 0x01	; 1
    3ea4:	41 e0       	ldi	r20, 0x01	; 1
    3ea6:	64 e0       	ldi	r22, 0x04	; 4
    3ea8:	82 e0       	ldi	r24, 0x02	; 2
    3eaa:	0e 94 2e 1c 	call	0x385c	; 0x385c <_Z9Lcd_printhh11LcdFontSizePh>
    3eae:	08 95       	ret
		}else{
		Lcd_print(3, 0, FONT_1X,(unsigned char *)"");
    3eb0:	2a e1       	ldi	r18, 0x1A	; 26
    3eb2:	31 e0       	ldi	r19, 0x01	; 1
    3eb4:	41 e0       	ldi	r20, 0x01	; 1
    3eb6:	60 e0       	ldi	r22, 0x00	; 0
    3eb8:	83 e0       	ldi	r24, 0x03	; 3
    3eba:	0e 94 2e 1c 	call	0x385c	; 0x385c <_Z9Lcd_printhh11LcdFontSizePh>
		Lcd_print(2, 1, FONT_1X,(unsigned char *)"");
    3ebe:	2e e5       	ldi	r18, 0x5E	; 94
    3ec0:	31 e0       	ldi	r19, 0x01	; 1
    3ec2:	41 e0       	ldi	r20, 0x01	; 1
    3ec4:	61 e0       	ldi	r22, 0x01	; 1
    3ec6:	82 e0       	ldi	r24, 0x02	; 2
    3ec8:	0e 94 2e 1c 	call	0x385c	; 0x385c <_Z9Lcd_printhh11LcdFontSizePh>
		Lcd_print(2, 2, FONT_1X,(unsigned char *)"");
    3ecc:	29 e6       	ldi	r18, 0x69	; 105
    3ece:	31 e0       	ldi	r19, 0x01	; 1
    3ed0:	41 e0       	ldi	r20, 0x01	; 1
    3ed2:	62 e0       	ldi	r22, 0x02	; 2
    3ed4:	82 e0       	ldi	r24, 0x02	; 2
    3ed6:	0e 94 2e 1c 	call	0x385c	; 0x385c <_Z9Lcd_printhh11LcdFontSizePh>
		Lcd_print(2, 3, FONT_1X,(unsigned char *)" ");
    3eda:	25 e7       	ldi	r18, 0x75	; 117
    3edc:	31 e0       	ldi	r19, 0x01	; 1
    3ede:	41 e0       	ldi	r20, 0x01	; 1
    3ee0:	63 e0       	ldi	r22, 0x03	; 3
    3ee2:	82 e0       	ldi	r24, 0x02	; 2
    3ee4:	0e 94 2e 1c 	call	0x385c	; 0x385c <_Z9Lcd_printhh11LcdFontSizePh>
		Lcd_print(2, 4, FONT_1X,(unsigned char *)"");
    3ee8:	20 e8       	ldi	r18, 0x80	; 128
    3eea:	31 e0       	ldi	r19, 0x01	; 1
    3eec:	41 e0       	ldi	r20, 0x01	; 1
    3eee:	64 e0       	ldi	r22, 0x04	; 4
    3ef0:	82 e0       	ldi	r24, 0x02	; 2
    3ef2:	0e 94 2e 1c 	call	0x385c	; 0x385c <_Z9Lcd_printhh11LcdFontSizePh>
		Lcd_print(2, 5, FONT_1X,(unsigned char *)"");
    3ef6:	27 e8       	ldi	r18, 0x87	; 135
    3ef8:	31 e0       	ldi	r19, 0x01	; 1
    3efa:	41 e0       	ldi	r20, 0x01	; 1
    3efc:	65 e0       	ldi	r22, 0x05	; 5
    3efe:	82 e0       	ldi	r24, 0x02	; 2
    3f00:	0e 94 2e 1c 	call	0x385c	; 0x385c <_Z9Lcd_printhh11LcdFontSizePh>
    3f04:	08 95       	ret

00003f06 <_ZN6Screen14Render_tunningER8ActivityR7Carrage>:
void Screen::Render_menu(Activity &activity, Carrage &carrage){
	PrintTitle(activity,carrage);
	Draw_CursorMenuScreen(activity);
}

void Screen::Render_tunning(Activity &activity, Carrage &carrage){
    3f06:	cf 92       	push	r12
    3f08:	df 92       	push	r13
    3f0a:	ef 92       	push	r14
    3f0c:	ff 92       	push	r15
    3f0e:	0f 93       	push	r16
    3f10:	1f 93       	push	r17
    3f12:	cf 93       	push	r28
    3f14:	df 93       	push	r29
    3f16:	6b 01       	movw	r12, r22
    3f18:	ea 01       	movw	r28, r20
	Lcd_print(2, 0, FONT_1X,(unsigned char *)"");
    3f1a:	2e e5       	ldi	r18, 0x5E	; 94
    3f1c:	31 e0       	ldi	r19, 0x01	; 1
    3f1e:	41 e0       	ldi	r20, 0x01	; 1
    3f20:	60 e0       	ldi	r22, 0x00	; 0
    3f22:	82 e0       	ldi	r24, 0x02	; 2
    3f24:	0e 94 2e 1c 	call	0x385c	; 0x385c <_Z9Lcd_printhh11LcdFontSizePh>
	Lcd_print(0, 1, FONT_1X,(unsigned char *)"-");
    3f28:	2f e8       	ldi	r18, 0x8F	; 143
    3f2a:	31 e0       	ldi	r19, 0x01	; 1
    3f2c:	41 e0       	ldi	r20, 0x01	; 1
    3f2e:	61 e0       	ldi	r22, 0x01	; 1
    3f30:	80 e0       	ldi	r24, 0x00	; 0
    3f32:	0e 94 2e 1c 	call	0x385c	; 0x385c <_Z9Lcd_printhh11LcdFontSizePh>
	Lcd_print(0, 2, FONT_1X,(unsigned char *)"-");
    3f36:	27 e9       	ldi	r18, 0x97	; 151
    3f38:	31 e0       	ldi	r19, 0x01	; 1
    3f3a:	41 e0       	ldi	r20, 0x01	; 1
    3f3c:	62 e0       	ldi	r22, 0x02	; 2
    3f3e:	80 e0       	ldi	r24, 0x00	; 0
    3f40:	0e 94 2e 1c 	call	0x385c	; 0x385c <_Z9Lcd_printhh11LcdFontSizePh>
	Lcd_print(0, 3, FONT_1X,(unsigned char *)"-");
    3f44:	2f e9       	ldi	r18, 0x9F	; 159
    3f46:	31 e0       	ldi	r19, 0x01	; 1
    3f48:	41 e0       	ldi	r20, 0x01	; 1
    3f4a:	63 e0       	ldi	r22, 0x03	; 3
    3f4c:	80 e0       	ldi	r24, 0x00	; 0
    3f4e:	0e 94 2e 1c 	call	0x385c	; 0x385c <_Z9Lcd_printhh11LcdFontSizePh>
	Lcd_print(0, 4, FONT_1X,(unsigned char *)"");
    3f52:	28 ea       	ldi	r18, 0xA8	; 168
    3f54:	31 e0       	ldi	r19, 0x01	; 1
    3f56:	41 e0       	ldi	r20, 0x01	; 1
    3f58:	64 e0       	ldi	r22, 0x04	; 4
    3f5a:	80 e0       	ldi	r24, 0x00	; 0
    3f5c:	0e 94 2e 1c 	call	0x385c	; 0x385c <_Z9Lcd_printhh11LcdFontSizePh>
	
	LcdGotoXY(3,5);LcdChr_full(0x9E);LcdChr_full(0x9F);//menu
    3f60:	65 e0       	ldi	r22, 0x05	; 5
    3f62:	83 e0       	ldi	r24, 0x03	; 3
    3f64:	0e 94 e3 1a 	call	0x35c6	; 0x35c6 <_Z9LcdGotoXYhh>
    3f68:	8e e9       	ldi	r24, 0x9E	; 158
    3f6a:	0e 94 fe 1a 	call	0x35fc	; 0x35fc <_Z11LcdChr_fullh>
    3f6e:	8f e9       	ldi	r24, 0x9F	; 159
    3f70:	0e 94 fe 1a 	call	0x35fc	; 0x35fc <_Z11LcdChr_fullh>
	LcdGotoXY(8,5);LcdChr_full(0xAD);LcdChr_full(0xAE);//Panel
    3f74:	65 e0       	ldi	r22, 0x05	; 5
    3f76:	88 e0       	ldi	r24, 0x08	; 8
    3f78:	0e 94 e3 1a 	call	0x35c6	; 0x35c6 <_Z9LcdGotoXYhh>
    3f7c:	8d ea       	ldi	r24, 0xAD	; 173
    3f7e:	0e 94 fe 1a 	call	0x35fc	; 0x35fc <_Z11LcdChr_fullh>
    3f82:	8e ea       	ldi	r24, 0xAE	; 174
    3f84:	0e 94 fe 1a 	call	0x35fc	; 0x35fc <_Z11LcdChr_fullh>
	
	Lcd_printf(9, 1, FONT_1X, carrage.tunning , 2);
    3f88:	fe 01       	movw	r30, r28
    3f8a:	e6 53       	subi	r30, 0x36	; 54
    3f8c:	ff 4f       	sbci	r31, 0xFF	; 255
    3f8e:	00 81       	ld	r16, Z
    3f90:	11 81       	ldd	r17, Z+1	; 0x01
    3f92:	22 81       	ldd	r18, Z+2	; 0x02
    3f94:	33 81       	ldd	r19, Z+3	; 0x03
    3f96:	68 94       	set
    3f98:	ee 24       	eor	r14, r14
    3f9a:	e1 f8       	bld	r14, 1
    3f9c:	f1 2c       	mov	r15, r1
    3f9e:	41 e0       	ldi	r20, 0x01	; 1
    3fa0:	61 e0       	ldi	r22, 0x01	; 1
    3fa2:	89 e0       	ldi	r24, 0x09	; 9
    3fa4:	0e 94 75 1c 	call	0x38ea	; 0x38ea <_Z10Lcd_printfhh11LcdFontSizefi>
	Lcd_printf2(10, 2, FONT_1X, carrage.inertion/100 , 2);
    3fa8:	fe 01       	movw	r30, r28
    3faa:	e2 53       	subi	r30, 0x32	; 50
    3fac:	ff 4f       	sbci	r31, 0xFF	; 255
    3fae:	20 e0       	ldi	r18, 0x00	; 0
    3fb0:	30 e0       	ldi	r19, 0x00	; 0
    3fb2:	48 ec       	ldi	r20, 0xC8	; 200
    3fb4:	52 e4       	ldi	r21, 0x42	; 66
    3fb6:	60 81       	ld	r22, Z
    3fb8:	71 81       	ldd	r23, Z+1	; 0x01
    3fba:	82 81       	ldd	r24, Z+2	; 0x02
    3fbc:	93 81       	ldd	r25, Z+3	; 0x03
    3fbe:	0e 94 04 2f 	call	0x5e08	; 0x5e08 <__divsf3>
    3fc2:	8b 01       	movw	r16, r22
    3fc4:	9c 01       	movw	r18, r24
    3fc6:	41 e0       	ldi	r20, 0x01	; 1
    3fc8:	62 e0       	ldi	r22, 0x02	; 2
    3fca:	8a e0       	ldi	r24, 0x0A	; 10
    3fcc:	0e 94 92 1c 	call	0x3924	; 0x3924 <_Z11Lcd_printf2hh11LcdFontSizefi>
	Lcd_printf(9, 3, FONT_1X, carrage.accuracy , 2);
    3fd0:	fe 01       	movw	r30, r28
    3fd2:	ea 52       	subi	r30, 0x2A	; 42
    3fd4:	ff 4f       	sbci	r31, 0xFF	; 255
    3fd6:	00 81       	ld	r16, Z
    3fd8:	11 81       	ldd	r17, Z+1	; 0x01
    3fda:	22 81       	ldd	r18, Z+2	; 0x02
    3fdc:	33 81       	ldd	r19, Z+3	; 0x03
    3fde:	41 e0       	ldi	r20, 0x01	; 1
    3fe0:	63 e0       	ldi	r22, 0x03	; 3
    3fe2:	89 e0       	ldi	r24, 0x09	; 9
    3fe4:	0e 94 75 1c 	call	0x38ea	; 0x38ea <_Z10Lcd_printfhh11LcdFontSizefi>
	Lcd_printf2(10, 4, FONT_1X, carrage.step_force_move/100 , 2);
    3fe8:	ce 52       	subi	r28, 0x2E	; 46
    3fea:	df 4f       	sbci	r29, 0xFF	; 255
    3fec:	20 e0       	ldi	r18, 0x00	; 0
    3fee:	30 e0       	ldi	r19, 0x00	; 0
    3ff0:	48 ec       	ldi	r20, 0xC8	; 200
    3ff2:	52 e4       	ldi	r21, 0x42	; 66
    3ff4:	68 81       	ld	r22, Y
    3ff6:	79 81       	ldd	r23, Y+1	; 0x01
    3ff8:	8a 81       	ldd	r24, Y+2	; 0x02
    3ffa:	9b 81       	ldd	r25, Y+3	; 0x03
    3ffc:	0e 94 04 2f 	call	0x5e08	; 0x5e08 <__divsf3>
    4000:	8b 01       	movw	r16, r22
    4002:	9c 01       	movw	r18, r24
    4004:	41 e0       	ldi	r20, 0x01	; 1
    4006:	64 e0       	ldi	r22, 0x04	; 4
    4008:	8a e0       	ldi	r24, 0x0A	; 10
    400a:	0e 94 92 1c 	call	0x3924	; 0x3924 <_Z11Lcd_printf2hh11LcdFontSizefi>
	
	
	
	switch(activity.Cursor){
    400e:	f6 01       	movw	r30, r12
    4010:	87 81       	ldd	r24, Z+7	; 0x07
    4012:	8a 3c       	cpi	r24, 0xCA	; 202
    4014:	61 f1       	breq	.+88     	; 0x406e <_ZN6Screen14Render_tunningER8ActivityR7Carrage+0x168>
    4016:	28 f4       	brcc	.+10     	; 0x4022 <_ZN6Screen14Render_tunningER8ActivityR7Carrage+0x11c>
    4018:	88 3c       	cpi	r24, 0xC8	; 200
    401a:	59 f0       	breq	.+22     	; 0x4032 <_ZN6Screen14Render_tunningER8ActivityR7Carrage+0x12c>
    401c:	89 3c       	cpi	r24, 0xC9	; 201
    401e:	c1 f0       	breq	.+48     	; 0x4050 <_ZN6Screen14Render_tunningER8ActivityR7Carrage+0x14a>
    4020:	53 c0       	rjmp	.+166    	; 0x40c8 <_ZN6Screen14Render_tunningER8ActivityR7Carrage+0x1c2>
    4022:	8c 3c       	cpi	r24, 0xCC	; 204
    4024:	09 f4       	brne	.+2      	; 0x4028 <_ZN6Screen14Render_tunningER8ActivityR7Carrage+0x122>
    4026:	41 c0       	rjmp	.+130    	; 0x40aa <_ZN6Screen14Render_tunningER8ActivityR7Carrage+0x1a4>
    4028:	88 f1       	brcs	.+98     	; 0x408c <_ZN6Screen14Render_tunningER8ActivityR7Carrage+0x186>
    402a:	8d 3c       	cpi	r24, 0xCD	; 205
    402c:	09 f4       	brne	.+2      	; 0x4030 <_ZN6Screen14Render_tunningER8ActivityR7Carrage+0x12a>
    402e:	45 c0       	rjmp	.+138    	; 0x40ba <_ZN6Screen14Render_tunningER8ActivityR7Carrage+0x1b4>
    4030:	4b c0       	rjmp	.+150    	; 0x40c8 <_ZN6Screen14Render_tunningER8ActivityR7Carrage+0x1c2>
		case(TUNING):LcdGotoXY(8,1);LcdChr_full(0x9A);LcdGotoXY(13,1);LcdChr_full(0x9B);break;
    4032:	61 e0       	ldi	r22, 0x01	; 1
    4034:	88 e0       	ldi	r24, 0x08	; 8
    4036:	0e 94 e3 1a 	call	0x35c6	; 0x35c6 <_Z9LcdGotoXYhh>
    403a:	8a e9       	ldi	r24, 0x9A	; 154
    403c:	0e 94 fe 1a 	call	0x35fc	; 0x35fc <_Z11LcdChr_fullh>
    4040:	61 e0       	ldi	r22, 0x01	; 1
    4042:	8d e0       	ldi	r24, 0x0D	; 13
    4044:	0e 94 e3 1a 	call	0x35c6	; 0x35c6 <_Z9LcdGotoXYhh>
    4048:	8b e9       	ldi	r24, 0x9B	; 155
    404a:	0e 94 fe 1a 	call	0x35fc	; 0x35fc <_Z11LcdChr_fullh>
    404e:	3c c0       	rjmp	.+120    	; 0x40c8 <_ZN6Screen14Render_tunningER8ActivityR7Carrage+0x1c2>
		case(TUNING_INERT):LcdGotoXY(8,2);LcdChr_full(0x9A);LcdGotoXY(13,2);LcdChr_full(0x9B);break;
    4050:	62 e0       	ldi	r22, 0x02	; 2
    4052:	88 e0       	ldi	r24, 0x08	; 8
    4054:	0e 94 e3 1a 	call	0x35c6	; 0x35c6 <_Z9LcdGotoXYhh>
    4058:	8a e9       	ldi	r24, 0x9A	; 154
    405a:	0e 94 fe 1a 	call	0x35fc	; 0x35fc <_Z11LcdChr_fullh>
    405e:	62 e0       	ldi	r22, 0x02	; 2
    4060:	8d e0       	ldi	r24, 0x0D	; 13
    4062:	0e 94 e3 1a 	call	0x35c6	; 0x35c6 <_Z9LcdGotoXYhh>
    4066:	8b e9       	ldi	r24, 0x9B	; 155
    4068:	0e 94 fe 1a 	call	0x35fc	; 0x35fc <_Z11LcdChr_fullh>
    406c:	2d c0       	rjmp	.+90     	; 0x40c8 <_ZN6Screen14Render_tunningER8ActivityR7Carrage+0x1c2>
		case(TUNING_ACCURACY):LcdGotoXY(8,3);LcdChr_full(0x9A);LcdGotoXY(13,3);LcdChr_full(0x9B);break;
    406e:	63 e0       	ldi	r22, 0x03	; 3
    4070:	88 e0       	ldi	r24, 0x08	; 8
    4072:	0e 94 e3 1a 	call	0x35c6	; 0x35c6 <_Z9LcdGotoXYhh>
    4076:	8a e9       	ldi	r24, 0x9A	; 154
    4078:	0e 94 fe 1a 	call	0x35fc	; 0x35fc <_Z11LcdChr_fullh>
    407c:	63 e0       	ldi	r22, 0x03	; 3
    407e:	8d e0       	ldi	r24, 0x0D	; 13
    4080:	0e 94 e3 1a 	call	0x35c6	; 0x35c6 <_Z9LcdGotoXYhh>
    4084:	8b e9       	ldi	r24, 0x9B	; 155
    4086:	0e 94 fe 1a 	call	0x35fc	; 0x35fc <_Z11LcdChr_fullh>
    408a:	1e c0       	rjmp	.+60     	; 0x40c8 <_ZN6Screen14Render_tunningER8ActivityR7Carrage+0x1c2>
		case(TUNING_STEP):LcdGotoXY(8,4);LcdChr_full(0x9A);LcdGotoXY(13,4);LcdChr_full(0x9B);break;
    408c:	64 e0       	ldi	r22, 0x04	; 4
    408e:	88 e0       	ldi	r24, 0x08	; 8
    4090:	0e 94 e3 1a 	call	0x35c6	; 0x35c6 <_Z9LcdGotoXYhh>
    4094:	8a e9       	ldi	r24, 0x9A	; 154
    4096:	0e 94 fe 1a 	call	0x35fc	; 0x35fc <_Z11LcdChr_fullh>
    409a:	64 e0       	ldi	r22, 0x04	; 4
    409c:	8d e0       	ldi	r24, 0x0D	; 13
    409e:	0e 94 e3 1a 	call	0x35c6	; 0x35c6 <_Z9LcdGotoXYhh>
    40a2:	8b e9       	ldi	r24, 0x9B	; 155
    40a4:	0e 94 fe 1a 	call	0x35fc	; 0x35fc <_Z11LcdChr_fullh>
    40a8:	0f c0       	rjmp	.+30     	; 0x40c8 <_ZN6Screen14Render_tunningER8ActivityR7Carrage+0x1c2>
		case(EXIT_TUNING):LcdGotoXY(2,5);LcdChr_full(0xA2);break;
    40aa:	65 e0       	ldi	r22, 0x05	; 5
    40ac:	82 e0       	ldi	r24, 0x02	; 2
    40ae:	0e 94 e3 1a 	call	0x35c6	; 0x35c6 <_Z9LcdGotoXYhh>
    40b2:	82 ea       	ldi	r24, 0xA2	; 162
    40b4:	0e 94 fe 1a 	call	0x35fc	; 0x35fc <_Z11LcdChr_fullh>
    40b8:	07 c0       	rjmp	.+14     	; 0x40c8 <_ZN6Screen14Render_tunningER8ActivityR7Carrage+0x1c2>
		case(EXIT_TUNING_DISPLAY):LcdGotoXY(7,5);LcdChr_full(0xA2);break;
    40ba:	65 e0       	ldi	r22, 0x05	; 5
    40bc:	87 e0       	ldi	r24, 0x07	; 7
    40be:	0e 94 e3 1a 	call	0x35c6	; 0x35c6 <_Z9LcdGotoXYhh>
    40c2:	82 ea       	ldi	r24, 0xA2	; 162
    40c4:	0e 94 fe 1a 	call	0x35fc	; 0x35fc <_Z11LcdChr_fullh>
	}
}
    40c8:	df 91       	pop	r29
    40ca:	cf 91       	pop	r28
    40cc:	1f 91       	pop	r17
    40ce:	0f 91       	pop	r16
    40d0:	ff 90       	pop	r15
    40d2:	ef 90       	pop	r14
    40d4:	df 90       	pop	r13
    40d6:	cf 90       	pop	r12
    40d8:	08 95       	ret

000040da <_ZN6Screen13Render_limitsER8ActivityR7Carrage>:

void Screen::Render_limits(Activity &activity, Carrage &carrage){
    40da:	cf 92       	push	r12
    40dc:	df 92       	push	r13
    40de:	ef 92       	push	r14
    40e0:	ff 92       	push	r15
    40e2:	0f 93       	push	r16
    40e4:	1f 93       	push	r17
    40e6:	cf 93       	push	r28
    40e8:	df 93       	push	r29
    40ea:	6b 01       	movw	r12, r22
    40ec:	ea 01       	movw	r28, r20
	Lcd_print(2, 0, FONT_1X,(unsigned char *)"");
    40ee:	29 e6       	ldi	r18, 0x69	; 105
    40f0:	31 e0       	ldi	r19, 0x01	; 1
    40f2:	41 e0       	ldi	r20, 0x01	; 1
    40f4:	60 e0       	ldi	r22, 0x00	; 0
    40f6:	82 e0       	ldi	r24, 0x02	; 2
    40f8:	0e 94 2e 1c 	call	0x385c	; 0x385c <_Z9Lcd_printhh11LcdFontSizePh>
	Lcd_print(2, 2, FONT_1X,(unsigned char *)"min");
    40fc:	2c ea       	ldi	r18, 0xAC	; 172
    40fe:	31 e0       	ldi	r19, 0x01	; 1
    4100:	41 e0       	ldi	r20, 0x01	; 1
    4102:	62 e0       	ldi	r22, 0x02	; 2
    4104:	82 e0       	ldi	r24, 0x02	; 2
    4106:	0e 94 2e 1c 	call	0x385c	; 0x385c <_Z9Lcd_printhh11LcdFontSizePh>
	Lcd_printf(8, 2, FONT_1X, carrage.min , 2);
    410a:	fe 01       	movw	r30, r28
    410c:	e6 52       	subi	r30, 0x26	; 38
    410e:	ff 4f       	sbci	r31, 0xFF	; 255
    4110:	00 81       	ld	r16, Z
    4112:	11 81       	ldd	r17, Z+1	; 0x01
    4114:	22 81       	ldd	r18, Z+2	; 0x02
    4116:	33 81       	ldd	r19, Z+3	; 0x03
    4118:	68 94       	set
    411a:	ee 24       	eor	r14, r14
    411c:	e1 f8       	bld	r14, 1
    411e:	f1 2c       	mov	r15, r1
    4120:	41 e0       	ldi	r20, 0x01	; 1
    4122:	62 e0       	ldi	r22, 0x02	; 2
    4124:	88 e0       	ldi	r24, 0x08	; 8
    4126:	0e 94 75 1c 	call	0x38ea	; 0x38ea <_Z10Lcd_printfhh11LcdFontSizefi>
	Lcd_print(2, 3, FONT_1X,(unsigned char *)"max");
    412a:	20 eb       	ldi	r18, 0xB0	; 176
    412c:	31 e0       	ldi	r19, 0x01	; 1
    412e:	41 e0       	ldi	r20, 0x01	; 1
    4130:	63 e0       	ldi	r22, 0x03	; 3
    4132:	82 e0       	ldi	r24, 0x02	; 2
    4134:	0e 94 2e 1c 	call	0x385c	; 0x385c <_Z9Lcd_printhh11LcdFontSizePh>
	Lcd_printf(8, 3, FONT_1X, carrage.max , 2);
    4138:	c2 52       	subi	r28, 0x22	; 34
    413a:	df 4f       	sbci	r29, 0xFF	; 255
    413c:	08 81       	ld	r16, Y
    413e:	19 81       	ldd	r17, Y+1	; 0x01
    4140:	2a 81       	ldd	r18, Y+2	; 0x02
    4142:	3b 81       	ldd	r19, Y+3	; 0x03
    4144:	41 e0       	ldi	r20, 0x01	; 1
    4146:	63 e0       	ldi	r22, 0x03	; 3
    4148:	88 e0       	ldi	r24, 0x08	; 8
    414a:	0e 94 75 1c 	call	0x38ea	; 0x38ea <_Z10Lcd_printfhh11LcdFontSizefi>
	switch(activity.Cursor){
    414e:	f6 01       	movw	r30, r12
    4150:	87 81       	ldd	r24, Z+7	; 0x07
    4152:	83 3d       	cpi	r24, 0xD3	; 211
    4154:	c1 f0       	breq	.+48     	; 0x4186 <_ZN6Screen13Render_limitsER8ActivityR7Carrage+0xac>
    4156:	18 f4       	brcc	.+6      	; 0x415e <_ZN6Screen13Render_limitsER8ActivityR7Carrage+0x84>
    4158:	82 3d       	cpi	r24, 0xD2	; 210
    415a:	31 f0       	breq	.+12     	; 0x4168 <_ZN6Screen13Render_limitsER8ActivityR7Carrage+0x8e>
    415c:	32 c0       	rjmp	.+100    	; 0x41c2 <_ZN6Screen13Render_limitsER8ActivityR7Carrage+0xe8>
    415e:	84 3d       	cpi	r24, 0xD4	; 212
    4160:	09 f1       	breq	.+66     	; 0x41a4 <_ZN6Screen13Render_limitsER8ActivityR7Carrage+0xca>
    4162:	85 3d       	cpi	r24, 0xD5	; 213
    4164:	39 f1       	breq	.+78     	; 0x41b4 <_ZN6Screen13Render_limitsER8ActivityR7Carrage+0xda>
    4166:	2d c0       	rjmp	.+90     	; 0x41c2 <_ZN6Screen13Render_limitsER8ActivityR7Carrage+0xe8>
		case(LIMITS_MIN):LcdGotoXY(7,2);LcdChr_full(0x9A);LcdGotoXY(12,2);LcdChr_full(0xA2);break;
    4168:	62 e0       	ldi	r22, 0x02	; 2
    416a:	87 e0       	ldi	r24, 0x07	; 7
    416c:	0e 94 e3 1a 	call	0x35c6	; 0x35c6 <_Z9LcdGotoXYhh>
    4170:	8a e9       	ldi	r24, 0x9A	; 154
    4172:	0e 94 fe 1a 	call	0x35fc	; 0x35fc <_Z11LcdChr_fullh>
    4176:	62 e0       	ldi	r22, 0x02	; 2
    4178:	8c e0       	ldi	r24, 0x0C	; 12
    417a:	0e 94 e3 1a 	call	0x35c6	; 0x35c6 <_Z9LcdGotoXYhh>
    417e:	82 ea       	ldi	r24, 0xA2	; 162
    4180:	0e 94 fe 1a 	call	0x35fc	; 0x35fc <_Z11LcdChr_fullh>
    4184:	1e c0       	rjmp	.+60     	; 0x41c2 <_ZN6Screen13Render_limitsER8ActivityR7Carrage+0xe8>
		case(LIMITS_MAX):LcdGotoXY(7,3);LcdChr_full(0x9A);LcdGotoXY(12,3);LcdChr_full(0xA2);break;
    4186:	63 e0       	ldi	r22, 0x03	; 3
    4188:	87 e0       	ldi	r24, 0x07	; 7
    418a:	0e 94 e3 1a 	call	0x35c6	; 0x35c6 <_Z9LcdGotoXYhh>
    418e:	8a e9       	ldi	r24, 0x9A	; 154
    4190:	0e 94 fe 1a 	call	0x35fc	; 0x35fc <_Z11LcdChr_fullh>
    4194:	63 e0       	ldi	r22, 0x03	; 3
    4196:	8c e0       	ldi	r24, 0x0C	; 12
    4198:	0e 94 e3 1a 	call	0x35c6	; 0x35c6 <_Z9LcdGotoXYhh>
    419c:	82 ea       	ldi	r24, 0xA2	; 162
    419e:	0e 94 fe 1a 	call	0x35fc	; 0x35fc <_Z11LcdChr_fullh>
    41a2:	0f c0       	rjmp	.+30     	; 0x41c2 <_ZN6Screen13Render_limitsER8ActivityR7Carrage+0xe8>
		case(EXIT_LIMITS):LcdGotoXY(2,5);LcdChr_full(0xA2);break;
    41a4:	65 e0       	ldi	r22, 0x05	; 5
    41a6:	82 e0       	ldi	r24, 0x02	; 2
    41a8:	0e 94 e3 1a 	call	0x35c6	; 0x35c6 <_Z9LcdGotoXYhh>
    41ac:	82 ea       	ldi	r24, 0xA2	; 162
    41ae:	0e 94 fe 1a 	call	0x35fc	; 0x35fc <_Z11LcdChr_fullh>
    41b2:	07 c0       	rjmp	.+14     	; 0x41c2 <_ZN6Screen13Render_limitsER8ActivityR7Carrage+0xe8>
		case(EXIT_LIMITS_DISPLAY):LcdGotoXY(8,5);LcdChr_full(0xA2);break;
    41b4:	65 e0       	ldi	r22, 0x05	; 5
    41b6:	88 e0       	ldi	r24, 0x08	; 8
    41b8:	0e 94 e3 1a 	call	0x35c6	; 0x35c6 <_Z9LcdGotoXYhh>
    41bc:	82 ea       	ldi	r24, 0xA2	; 162
    41be:	0e 94 fe 1a 	call	0x35fc	; 0x35fc <_Z11LcdChr_fullh>
	}
	LcdGotoXY(3,5);LcdChr_full(0x9E);LcdChr_full(0x9F);//menu
    41c2:	65 e0       	ldi	r22, 0x05	; 5
    41c4:	83 e0       	ldi	r24, 0x03	; 3
    41c6:	0e 94 e3 1a 	call	0x35c6	; 0x35c6 <_Z9LcdGotoXYhh>
    41ca:	8e e9       	ldi	r24, 0x9E	; 158
    41cc:	0e 94 fe 1a 	call	0x35fc	; 0x35fc <_Z11LcdChr_fullh>
    41d0:	8f e9       	ldi	r24, 0x9F	; 159
    41d2:	0e 94 fe 1a 	call	0x35fc	; 0x35fc <_Z11LcdChr_fullh>
	LcdGotoXY(9,5);LcdChr_full(0xAD);LcdChr_full(0xAE);//Panel
    41d6:	65 e0       	ldi	r22, 0x05	; 5
    41d8:	89 e0       	ldi	r24, 0x09	; 9
    41da:	0e 94 e3 1a 	call	0x35c6	; 0x35c6 <_Z9LcdGotoXYhh>
    41de:	8d ea       	ldi	r24, 0xAD	; 173
    41e0:	0e 94 fe 1a 	call	0x35fc	; 0x35fc <_Z11LcdChr_fullh>
    41e4:	8e ea       	ldi	r24, 0xAE	; 174
    41e6:	0e 94 fe 1a 	call	0x35fc	; 0x35fc <_Z11LcdChr_fullh>
}
    41ea:	df 91       	pop	r29
    41ec:	cf 91       	pop	r28
    41ee:	1f 91       	pop	r17
    41f0:	0f 91       	pop	r16
    41f2:	ff 90       	pop	r15
    41f4:	ef 90       	pop	r14
    41f6:	df 90       	pop	r13
    41f8:	cf 90       	pop	r12
    41fa:	08 95       	ret

000041fc <_ZN6Screen19Render_maltifactionER8ActivityR7Carrage>:

void Screen::Render_maltifaction(Activity &activity, Carrage &carrage){
    41fc:	cf 92       	push	r12
    41fe:	df 92       	push	r13
    4200:	ef 92       	push	r14
    4202:	ff 92       	push	r15
    4204:	0f 93       	push	r16
    4206:	1f 93       	push	r17
    4208:	cf 93       	push	r28
    420a:	df 93       	push	r29
    420c:	6b 01       	movw	r12, r22
    420e:	ea 01       	movw	r28, r20
	Lcd_print(2, 0, FONT_1X,(unsigned char *)" ");
    4210:	25 e7       	ldi	r18, 0x75	; 117
    4212:	31 e0       	ldi	r19, 0x01	; 1
    4214:	41 e0       	ldi	r20, 0x01	; 1
    4216:	60 e0       	ldi	r22, 0x00	; 0
    4218:	82 e0       	ldi	r24, 0x02	; 2
    421a:	0e 94 2e 1c 	call	0x385c	; 0x385c <_Z9Lcd_printhh11LcdFontSizePh>
	Lcd_print(0, 1, FONT_1X,(unsigned char *)"");
    421e:	24 eb       	ldi	r18, 0xB4	; 180
    4220:	31 e0       	ldi	r19, 0x01	; 1
    4222:	41 e0       	ldi	r20, 0x01	; 1
    4224:	61 e0       	ldi	r22, 0x01	; 1
    4226:	80 e0       	ldi	r24, 0x00	; 0
    4228:	0e 94 2e 1c 	call	0x385c	; 0x385c <_Z9Lcd_printhh11LcdFontSizePh>
	Lcd_print(0, 2, FONT_1X,(unsigned char *)"");
    422c:	21 ec       	ldi	r18, 0xC1	; 193
    422e:	31 e0       	ldi	r19, 0x01	; 1
    4230:	41 e0       	ldi	r20, 0x01	; 1
    4232:	62 e0       	ldi	r22, 0x02	; 2
    4234:	80 e0       	ldi	r24, 0x00	; 0
    4236:	0e 94 2e 1c 	call	0x385c	; 0x385c <_Z9Lcd_printhh11LcdFontSizePh>
	Lcd_print(0, 3, FONT_1X,(unsigned char *)"");
    423a:	27 ec       	ldi	r18, 0xC7	; 199
    423c:	31 e0       	ldi	r19, 0x01	; 1
    423e:	41 e0       	ldi	r20, 0x01	; 1
    4240:	63 e0       	ldi	r22, 0x03	; 3
    4242:	80 e0       	ldi	r24, 0x00	; 0
    4244:	0e 94 2e 1c 	call	0x385c	; 0x385c <_Z9Lcd_printhh11LcdFontSizePh>
	Lcd_print(0, 4, FONT_1X,(unsigned char *)"");
    4248:	2d ec       	ldi	r18, 0xCD	; 205
    424a:	31 e0       	ldi	r19, 0x01	; 1
    424c:	41 e0       	ldi	r20, 0x01	; 1
    424e:	64 e0       	ldi	r22, 0x04	; 4
    4250:	80 e0       	ldi	r24, 0x00	; 0
    4252:	0e 94 2e 1c 	call	0x385c	; 0x385c <_Z9Lcd_printhh11LcdFontSizePh>
	
	Lcd_printf2(10, 2, FONT_1X, carrage.countToMalfunctionLimit/100 , 2);	
    4256:	fe 01       	movw	r30, r28
    4258:	ee 51       	subi	r30, 0x1E	; 30
    425a:	ff 4f       	sbci	r31, 0xFF	; 255
    425c:	20 e0       	ldi	r18, 0x00	; 0
    425e:	30 e0       	ldi	r19, 0x00	; 0
    4260:	48 ec       	ldi	r20, 0xC8	; 200
    4262:	52 e4       	ldi	r21, 0x42	; 66
    4264:	60 81       	ld	r22, Z
    4266:	71 81       	ldd	r23, Z+1	; 0x01
    4268:	82 81       	ldd	r24, Z+2	; 0x02
    426a:	93 81       	ldd	r25, Z+3	; 0x03
    426c:	0e 94 04 2f 	call	0x5e08	; 0x5e08 <__divsf3>
    4270:	8b 01       	movw	r16, r22
    4272:	9c 01       	movw	r18, r24
    4274:	68 94       	set
    4276:	ee 24       	eor	r14, r14
    4278:	e1 f8       	bld	r14, 1
    427a:	f1 2c       	mov	r15, r1
    427c:	41 e0       	ldi	r20, 0x01	; 1
    427e:	62 e0       	ldi	r22, 0x02	; 2
    4280:	8a e0       	ldi	r24, 0x0A	; 10
    4282:	0e 94 92 1c 	call	0x3924	; 0x3924 <_Z11Lcd_printf2hh11LcdFontSizefi>
	Lcd_printf(9, 3, FONT_1X, carrage.sensitivityMove, 2);	
    4286:	fe 01       	movw	r30, r28
    4288:	ea 51       	subi	r30, 0x1A	; 26
    428a:	ff 4f       	sbci	r31, 0xFF	; 255
    428c:	00 81       	ld	r16, Z
    428e:	11 81       	ldd	r17, Z+1	; 0x01
    4290:	22 81       	ldd	r18, Z+2	; 0x02
    4292:	33 81       	ldd	r19, Z+3	; 0x03
    4294:	41 e0       	ldi	r20, 0x01	; 1
    4296:	63 e0       	ldi	r22, 0x03	; 3
    4298:	89 e0       	ldi	r24, 0x09	; 9
    429a:	0e 94 75 1c 	call	0x38ea	; 0x38ea <_Z10Lcd_printfhh11LcdFontSizefi>
	switch(carrage.OnOffMalfunction){
    429e:	c5 51       	subi	r28, 0x15	; 21
    42a0:	df 4f       	sbci	r29, 0xFF	; 255
    42a2:	88 81       	ld	r24, Y
    42a4:	81 30       	cpi	r24, 0x01	; 1
    42a6:	41 f0       	breq	.+16     	; 0x42b8 <_ZN6Screen19Render_maltifactionER8ActivityR7Carrage+0xbc>
		case(false):Lcd_print(10, 4, FONT_1X,(unsigned char *)"");break;
    42a8:	26 ed       	ldi	r18, 0xD6	; 214
    42aa:	31 e0       	ldi	r19, 0x01	; 1
    42ac:	41 e0       	ldi	r20, 0x01	; 1
    42ae:	64 e0       	ldi	r22, 0x04	; 4
    42b0:	8a e0       	ldi	r24, 0x0A	; 10
    42b2:	0e 94 2e 1c 	call	0x385c	; 0x385c <_Z9Lcd_printhh11LcdFontSizePh>
    42b6:	07 c0       	rjmp	.+14     	; 0x42c6 <_ZN6Screen19Render_maltifactionER8ActivityR7Carrage+0xca>
		case(true):Lcd_print(10, 4, FONT_1X,(unsigned char *)"");break;
    42b8:	2a ed       	ldi	r18, 0xDA	; 218
    42ba:	31 e0       	ldi	r19, 0x01	; 1
    42bc:	41 e0       	ldi	r20, 0x01	; 1
    42be:	64 e0       	ldi	r22, 0x04	; 4
    42c0:	8a e0       	ldi	r24, 0x0A	; 10
    42c2:	0e 94 2e 1c 	call	0x385c	; 0x385c <_Z9Lcd_printhh11LcdFontSizePh>
	}
	
	switch(activity.Cursor){
    42c6:	f6 01       	movw	r30, r12
    42c8:	87 81       	ldd	r24, Z+7	; 0x07
    42ca:	8e 3d       	cpi	r24, 0xDE	; 222
    42cc:	59 f0       	breq	.+22     	; 0x42e4 <_ZN6Screen19Render_maltifactionER8ActivityR7Carrage+0xe8>
    42ce:	28 f4       	brcc	.+10     	; 0x42da <_ZN6Screen19Render_maltifactionER8ActivityR7Carrage+0xde>
    42d0:	8c 3d       	cpi	r24, 0xDC	; 220
    42d2:	f9 f0       	breq	.+62     	; 0x4312 <_ZN6Screen19Render_maltifactionER8ActivityR7Carrage+0x116>
    42d4:	8d 3d       	cpi	r24, 0xDD	; 221
    42d6:	71 f0       	breq	.+28     	; 0x42f4 <_ZN6Screen19Render_maltifactionER8ActivityR7Carrage+0xf8>
    42d8:	3a c0       	rjmp	.+116    	; 0x434e <_ZN6Screen19Render_maltifactionER8ActivityR7Carrage+0x152>
    42da:	8f 3d       	cpi	r24, 0xDF	; 223
    42dc:	49 f1       	breq	.+82     	; 0x4330 <_ZN6Screen19Render_maltifactionER8ActivityR7Carrage+0x134>
    42de:	80 3e       	cpi	r24, 0xE0	; 224
    42e0:	79 f1       	breq	.+94     	; 0x4340 <_ZN6Screen19Render_maltifactionER8ActivityR7Carrage+0x144>
    42e2:	35 c0       	rjmp	.+106    	; 0x434e <_ZN6Screen19Render_maltifactionER8ActivityR7Carrage+0x152>
		case(ONOF_MALFACTION):LcdGotoXY(9,4);LcdChr_full(0xA2);break;
    42e4:	64 e0       	ldi	r22, 0x04	; 4
    42e6:	89 e0       	ldi	r24, 0x09	; 9
    42e8:	0e 94 e3 1a 	call	0x35c6	; 0x35c6 <_Z9LcdGotoXYhh>
    42ec:	82 ea       	ldi	r24, 0xA2	; 162
    42ee:	0e 94 fe 1a 	call	0x35fc	; 0x35fc <_Z11LcdChr_fullh>
    42f2:	2d c0       	rjmp	.+90     	; 0x434e <_ZN6Screen19Render_maltifactionER8ActivityR7Carrage+0x152>
		case(SENSITIVE_MALFACTION):LcdGotoXY(8,3);LcdChr_full(0x9A);LcdGotoXY(13,3);LcdChr_full(0x9B);break;
    42f4:	63 e0       	ldi	r22, 0x03	; 3
    42f6:	88 e0       	ldi	r24, 0x08	; 8
    42f8:	0e 94 e3 1a 	call	0x35c6	; 0x35c6 <_Z9LcdGotoXYhh>
    42fc:	8a e9       	ldi	r24, 0x9A	; 154
    42fe:	0e 94 fe 1a 	call	0x35fc	; 0x35fc <_Z11LcdChr_fullh>
    4302:	63 e0       	ldi	r22, 0x03	; 3
    4304:	8d e0       	ldi	r24, 0x0D	; 13
    4306:	0e 94 e3 1a 	call	0x35c6	; 0x35c6 <_Z9LcdGotoXYhh>
    430a:	8b e9       	ldi	r24, 0x9B	; 155
    430c:	0e 94 fe 1a 	call	0x35fc	; 0x35fc <_Z11LcdChr_fullh>
    4310:	1e c0       	rjmp	.+60     	; 0x434e <_ZN6Screen19Render_maltifactionER8ActivityR7Carrage+0x152>
		case(TIME_MALFACTION):LcdGotoXY(8,2);LcdChr_full(0x9A);LcdGotoXY(13,2);LcdChr_full(0x9B);break;
    4312:	62 e0       	ldi	r22, 0x02	; 2
    4314:	88 e0       	ldi	r24, 0x08	; 8
    4316:	0e 94 e3 1a 	call	0x35c6	; 0x35c6 <_Z9LcdGotoXYhh>
    431a:	8a e9       	ldi	r24, 0x9A	; 154
    431c:	0e 94 fe 1a 	call	0x35fc	; 0x35fc <_Z11LcdChr_fullh>
    4320:	62 e0       	ldi	r22, 0x02	; 2
    4322:	8d e0       	ldi	r24, 0x0D	; 13
    4324:	0e 94 e3 1a 	call	0x35c6	; 0x35c6 <_Z9LcdGotoXYhh>
    4328:	8b e9       	ldi	r24, 0x9B	; 155
    432a:	0e 94 fe 1a 	call	0x35fc	; 0x35fc <_Z11LcdChr_fullh>
    432e:	0f c0       	rjmp	.+30     	; 0x434e <_ZN6Screen19Render_maltifactionER8ActivityR7Carrage+0x152>
		case(EXIT_MALFACTION):LcdGotoXY(2,5);LcdChr_full(0xA2);break;
    4330:	65 e0       	ldi	r22, 0x05	; 5
    4332:	82 e0       	ldi	r24, 0x02	; 2
    4334:	0e 94 e3 1a 	call	0x35c6	; 0x35c6 <_Z9LcdGotoXYhh>
    4338:	82 ea       	ldi	r24, 0xA2	; 162
    433a:	0e 94 fe 1a 	call	0x35fc	; 0x35fc <_Z11LcdChr_fullh>
    433e:	07 c0       	rjmp	.+14     	; 0x434e <_ZN6Screen19Render_maltifactionER8ActivityR7Carrage+0x152>
		case(EXIT_MALFACTION_DISPLAY):LcdGotoXY(8,5);LcdChr_full(0xA2);break;
    4340:	65 e0       	ldi	r22, 0x05	; 5
    4342:	88 e0       	ldi	r24, 0x08	; 8
    4344:	0e 94 e3 1a 	call	0x35c6	; 0x35c6 <_Z9LcdGotoXYhh>
    4348:	82 ea       	ldi	r24, 0xA2	; 162
    434a:	0e 94 fe 1a 	call	0x35fc	; 0x35fc <_Z11LcdChr_fullh>
	}
	LcdGotoXY(3,5);LcdChr_full(0x9E);LcdChr_full(0x9F);//menu
    434e:	65 e0       	ldi	r22, 0x05	; 5
    4350:	83 e0       	ldi	r24, 0x03	; 3
    4352:	0e 94 e3 1a 	call	0x35c6	; 0x35c6 <_Z9LcdGotoXYhh>
    4356:	8e e9       	ldi	r24, 0x9E	; 158
    4358:	0e 94 fe 1a 	call	0x35fc	; 0x35fc <_Z11LcdChr_fullh>
    435c:	8f e9       	ldi	r24, 0x9F	; 159
    435e:	0e 94 fe 1a 	call	0x35fc	; 0x35fc <_Z11LcdChr_fullh>
	LcdGotoXY(9,5);LcdChr_full(0xAD);LcdChr_full(0xAE);//Panel
    4362:	65 e0       	ldi	r22, 0x05	; 5
    4364:	89 e0       	ldi	r24, 0x09	; 9
    4366:	0e 94 e3 1a 	call	0x35c6	; 0x35c6 <_Z9LcdGotoXYhh>
    436a:	8d ea       	ldi	r24, 0xAD	; 173
    436c:	0e 94 fe 1a 	call	0x35fc	; 0x35fc <_Z11LcdChr_fullh>
    4370:	8e ea       	ldi	r24, 0xAE	; 174
    4372:	0e 94 fe 1a 	call	0x35fc	; 0x35fc <_Z11LcdChr_fullh>
}
    4376:	df 91       	pop	r29
    4378:	cf 91       	pop	r28
    437a:	1f 91       	pop	r17
    437c:	0f 91       	pop	r16
    437e:	ff 90       	pop	r15
    4380:	ef 90       	pop	r14
    4382:	df 90       	pop	r13
    4384:	cf 90       	pop	r12
    4386:	08 95       	ret

00004388 <_ZN6Screen13Render_ERRORSER8ActivityR7Carrage>:

void Screen::Render_ERRORS(Activity &activity, Carrage &carrage){
    4388:	cf 92       	push	r12
    438a:	df 92       	push	r13
    438c:	ef 92       	push	r14
    438e:	ff 92       	push	r15
    4390:	0f 93       	push	r16
    4392:	1f 93       	push	r17
    4394:	cf 93       	push	r28
    4396:	df 93       	push	r29
    4398:	6b 01       	movw	r12, r22
    439a:	ea 01       	movw	r28, r20
	Lcd_print(2, 0, FONT_1X,(unsigned char *)" ");
    439c:	2e ed       	ldi	r18, 0xDE	; 222
    439e:	31 e0       	ldi	r19, 0x01	; 1
    43a0:	41 e0       	ldi	r20, 0x01	; 1
    43a2:	60 e0       	ldi	r22, 0x00	; 0
    43a4:	82 e0       	ldi	r24, 0x02	; 2
    43a6:	0e 94 2e 1c 	call	0x385c	; 0x385c <_Z9Lcd_printhh11LcdFontSizePh>
	Lcd_print(2, 1, FONT_1X,(unsigned char *)"1.");
    43aa:	2b ee       	ldi	r18, 0xEB	; 235
    43ac:	31 e0       	ldi	r19, 0x01	; 1
    43ae:	41 e0       	ldi	r20, 0x01	; 1
    43b0:	61 e0       	ldi	r22, 0x01	; 1
    43b2:	82 e0       	ldi	r24, 0x02	; 2
    43b4:	0e 94 2e 1c 	call	0x385c	; 0x385c <_Z9Lcd_printhh11LcdFontSizePh>
	Lcd_print(2, 2, FONT_1X,(unsigned char *)"2.");
    43b8:	24 ef       	ldi	r18, 0xF4	; 244
    43ba:	31 e0       	ldi	r19, 0x01	; 1
    43bc:	41 e0       	ldi	r20, 0x01	; 1
    43be:	62 e0       	ldi	r22, 0x02	; 2
    43c0:	82 e0       	ldi	r24, 0x02	; 2
    43c2:	0e 94 2e 1c 	call	0x385c	; 0x385c <_Z9Lcd_printhh11LcdFontSizePh>
	Lcd_print(2, 3, FONT_1X,(unsigned char *)"3.");
    43c6:	2d ef       	ldi	r18, 0xFD	; 253
    43c8:	31 e0       	ldi	r19, 0x01	; 1
    43ca:	41 e0       	ldi	r20, 0x01	; 1
    43cc:	63 e0       	ldi	r22, 0x03	; 3
    43ce:	82 e0       	ldi	r24, 0x02	; 2
    43d0:	0e 94 2e 1c 	call	0x385c	; 0x385c <_Z9Lcd_printhh11LcdFontSizePh>
	Lcd_print(2, 4, FONT_1X,(unsigned char *)"4.");
    43d4:	26 e0       	ldi	r18, 0x06	; 6
    43d6:	32 e0       	ldi	r19, 0x02	; 2
    43d8:	41 e0       	ldi	r20, 0x01	; 1
    43da:	64 e0       	ldi	r22, 0x04	; 4
    43dc:	82 e0       	ldi	r24, 0x02	; 2
    43de:	0e 94 2e 1c 	call	0x385c	; 0x385c <_Z9Lcd_printhh11LcdFontSizePh>
	LcdGotoXY(3,5);LcdChr_full(0x9E);LcdChr_full(0x9F);//menu
    43e2:	65 e0       	ldi	r22, 0x05	; 5
    43e4:	83 e0       	ldi	r24, 0x03	; 3
    43e6:	0e 94 e3 1a 	call	0x35c6	; 0x35c6 <_Z9LcdGotoXYhh>
    43ea:	8e e9       	ldi	r24, 0x9E	; 158
    43ec:	0e 94 fe 1a 	call	0x35fc	; 0x35fc <_Z11LcdChr_fullh>
    43f0:	8f e9       	ldi	r24, 0x9F	; 159
    43f2:	0e 94 fe 1a 	call	0x35fc	; 0x35fc <_Z11LcdChr_fullh>
	LcdGotoXY(9,5);LcdChr_full(0xAD);LcdChr_full(0xAE);//Panel
    43f6:	65 e0       	ldi	r22, 0x05	; 5
    43f8:	89 e0       	ldi	r24, 0x09	; 9
    43fa:	0e 94 e3 1a 	call	0x35c6	; 0x35c6 <_Z9LcdGotoXYhh>
    43fe:	8d ea       	ldi	r24, 0xAD	; 173
    4400:	0e 94 fe 1a 	call	0x35fc	; 0x35fc <_Z11LcdChr_fullh>
    4404:	8e ea       	ldi	r24, 0xAE	; 174
    4406:	0e 94 fe 1a 	call	0x35fc	; 0x35fc <_Z11LcdChr_fullh>
	
	Lcd_print(11, 1, FONT_1X,(unsigned char *)"--");
    440a:	2f e0       	ldi	r18, 0x0F	; 15
    440c:	32 e0       	ldi	r19, 0x02	; 2
    440e:	41 e0       	ldi	r20, 0x01	; 1
    4410:	61 e0       	ldi	r22, 0x01	; 1
    4412:	8b e0       	ldi	r24, 0x0B	; 11
    4414:	0e 94 2e 1c 	call	0x385c	; 0x385c <_Z9Lcd_printhh11LcdFontSizePh>
	Lcd_print(11, 2, FONT_1X,(unsigned char *)"--");
    4418:	2f e0       	ldi	r18, 0x0F	; 15
    441a:	32 e0       	ldi	r19, 0x02	; 2
    441c:	41 e0       	ldi	r20, 0x01	; 1
    441e:	62 e0       	ldi	r22, 0x02	; 2
    4420:	8b e0       	ldi	r24, 0x0B	; 11
    4422:	0e 94 2e 1c 	call	0x385c	; 0x385c <_Z9Lcd_printhh11LcdFontSizePh>
	Lcd_print(11, 3, FONT_1X,(unsigned char *)"--");
    4426:	2f e0       	ldi	r18, 0x0F	; 15
    4428:	32 e0       	ldi	r19, 0x02	; 2
    442a:	41 e0       	ldi	r20, 0x01	; 1
    442c:	63 e0       	ldi	r22, 0x03	; 3
    442e:	8b e0       	ldi	r24, 0x0B	; 11
    4430:	0e 94 2e 1c 	call	0x385c	; 0x385c <_Z9Lcd_printhh11LcdFontSizePh>
	Lcd_print(11, 4, FONT_1X,(unsigned char *)"--");
    4434:	2f e0       	ldi	r18, 0x0F	; 15
    4436:	32 e0       	ldi	r19, 0x02	; 2
    4438:	41 e0       	ldi	r20, 0x01	; 1
    443a:	64 e0       	ldi	r22, 0x04	; 4
    443c:	8b e0       	ldi	r24, 0x0B	; 11
    443e:	0e 94 2e 1c 	call	0x385c	; 0x385c <_Z9Lcd_printhh11LcdFontSizePh>
		
	if(carrage.Wheel_1.Error>0){Lcd_print(11, 1, FONT_1X,(unsigned char *)"E");Lcd_printf(12, 1, FONT_1X, carrage.Wheel_1.Error , 0);}
    4442:	8b a1       	ldd	r24, Y+35	; 0x23
    4444:	9c a1       	ldd	r25, Y+36	; 0x24
    4446:	18 16       	cp	r1, r24
    4448:	19 06       	cpc	r1, r25
    444a:	c4 f4       	brge	.+48     	; 0x447c <_ZN6Screen13Render_ERRORSER8ActivityR7Carrage+0xf4>
    444c:	22 e1       	ldi	r18, 0x12	; 18
    444e:	32 e0       	ldi	r19, 0x02	; 2
    4450:	41 e0       	ldi	r20, 0x01	; 1
    4452:	61 e0       	ldi	r22, 0x01	; 1
    4454:	8b e0       	ldi	r24, 0x0B	; 11
    4456:	0e 94 2e 1c 	call	0x385c	; 0x385c <_Z9Lcd_printhh11LcdFontSizePh>
    445a:	6b a1       	ldd	r22, Y+35	; 0x23
    445c:	7c a1       	ldd	r23, Y+36	; 0x24
    445e:	07 2e       	mov	r0, r23
    4460:	00 0c       	add	r0, r0
    4462:	88 0b       	sbc	r24, r24
    4464:	99 0b       	sbc	r25, r25
    4466:	0e 94 ae 2f 	call	0x5f5c	; 0x5f5c <__floatsisf>
    446a:	8b 01       	movw	r16, r22
    446c:	9c 01       	movw	r18, r24
    446e:	e1 2c       	mov	r14, r1
    4470:	f1 2c       	mov	r15, r1
    4472:	41 e0       	ldi	r20, 0x01	; 1
    4474:	61 e0       	ldi	r22, 0x01	; 1
    4476:	8c e0       	ldi	r24, 0x0C	; 12
    4478:	0e 94 75 1c 	call	0x38ea	; 0x38ea <_Z10Lcd_printfhh11LcdFontSizefi>
	if(carrage.Wheel_2.Error>0){Lcd_print(11, 2, FONT_1X,(unsigned char *)"E");Lcd_printf(12, 2, FONT_1X, carrage.Wheel_2.Error , 0);}
    447c:	fe 01       	movw	r30, r28
    447e:	eb 5a       	subi	r30, 0xAB	; 171
    4480:	ff 4f       	sbci	r31, 0xFF	; 255
    4482:	80 81       	ld	r24, Z
    4484:	91 81       	ldd	r25, Z+1	; 0x01
    4486:	18 16       	cp	r1, r24
    4488:	19 06       	cpc	r1, r25
    448a:	dc f4       	brge	.+54     	; 0x44c2 <_ZN6Screen13Render_ERRORSER8ActivityR7Carrage+0x13a>
    448c:	22 e1       	ldi	r18, 0x12	; 18
    448e:	32 e0       	ldi	r19, 0x02	; 2
    4490:	41 e0       	ldi	r20, 0x01	; 1
    4492:	62 e0       	ldi	r22, 0x02	; 2
    4494:	8b e0       	ldi	r24, 0x0B	; 11
    4496:	0e 94 2e 1c 	call	0x385c	; 0x385c <_Z9Lcd_printhh11LcdFontSizePh>
    449a:	fe 01       	movw	r30, r28
    449c:	eb 5a       	subi	r30, 0xAB	; 171
    449e:	ff 4f       	sbci	r31, 0xFF	; 255
    44a0:	60 81       	ld	r22, Z
    44a2:	71 81       	ldd	r23, Z+1	; 0x01
    44a4:	07 2e       	mov	r0, r23
    44a6:	00 0c       	add	r0, r0
    44a8:	88 0b       	sbc	r24, r24
    44aa:	99 0b       	sbc	r25, r25
    44ac:	0e 94 ae 2f 	call	0x5f5c	; 0x5f5c <__floatsisf>
    44b0:	8b 01       	movw	r16, r22
    44b2:	9c 01       	movw	r18, r24
    44b4:	e1 2c       	mov	r14, r1
    44b6:	f1 2c       	mov	r15, r1
    44b8:	41 e0       	ldi	r20, 0x01	; 1
    44ba:	62 e0       	ldi	r22, 0x02	; 2
    44bc:	8c e0       	ldi	r24, 0x0C	; 12
    44be:	0e 94 75 1c 	call	0x38ea	; 0x38ea <_Z10Lcd_printfhh11LcdFontSizefi>
	if(carrage.Wheel_3.Error>0){Lcd_print(11, 3, FONT_1X,(unsigned char *)"E");Lcd_printf(12, 3, FONT_1X, carrage.Wheel_3.Error , 0);}
    44c2:	fe 01       	movw	r30, r28
    44c4:	e9 57       	subi	r30, 0x79	; 121
    44c6:	ff 4f       	sbci	r31, 0xFF	; 255
    44c8:	80 81       	ld	r24, Z
    44ca:	91 81       	ldd	r25, Z+1	; 0x01
    44cc:	18 16       	cp	r1, r24
    44ce:	19 06       	cpc	r1, r25
    44d0:	dc f4       	brge	.+54     	; 0x4508 <_ZN6Screen13Render_ERRORSER8ActivityR7Carrage+0x180>
    44d2:	22 e1       	ldi	r18, 0x12	; 18
    44d4:	32 e0       	ldi	r19, 0x02	; 2
    44d6:	41 e0       	ldi	r20, 0x01	; 1
    44d8:	63 e0       	ldi	r22, 0x03	; 3
    44da:	8b e0       	ldi	r24, 0x0B	; 11
    44dc:	0e 94 2e 1c 	call	0x385c	; 0x385c <_Z9Lcd_printhh11LcdFontSizePh>
    44e0:	fe 01       	movw	r30, r28
    44e2:	e9 57       	subi	r30, 0x79	; 121
    44e4:	ff 4f       	sbci	r31, 0xFF	; 255
    44e6:	60 81       	ld	r22, Z
    44e8:	71 81       	ldd	r23, Z+1	; 0x01
    44ea:	07 2e       	mov	r0, r23
    44ec:	00 0c       	add	r0, r0
    44ee:	88 0b       	sbc	r24, r24
    44f0:	99 0b       	sbc	r25, r25
    44f2:	0e 94 ae 2f 	call	0x5f5c	; 0x5f5c <__floatsisf>
    44f6:	8b 01       	movw	r16, r22
    44f8:	9c 01       	movw	r18, r24
    44fa:	e1 2c       	mov	r14, r1
    44fc:	f1 2c       	mov	r15, r1
    44fe:	41 e0       	ldi	r20, 0x01	; 1
    4500:	63 e0       	ldi	r22, 0x03	; 3
    4502:	8c e0       	ldi	r24, 0x0C	; 12
    4504:	0e 94 75 1c 	call	0x38ea	; 0x38ea <_Z10Lcd_printfhh11LcdFontSizefi>
	if(carrage.Wheel_4.Error>0){Lcd_print(11, 4, FONT_1X,(unsigned char *)"E");Lcd_printf(12, 4, FONT_1X, carrage.Wheel_4.Error , 0);}
    4508:	fe 01       	movw	r30, r28
    450a:	e7 54       	subi	r30, 0x47	; 71
    450c:	ff 4f       	sbci	r31, 0xFF	; 255
    450e:	80 81       	ld	r24, Z
    4510:	91 81       	ldd	r25, Z+1	; 0x01
    4512:	18 16       	cp	r1, r24
    4514:	19 06       	cpc	r1, r25
    4516:	d4 f4       	brge	.+52     	; 0x454c <_ZN6Screen13Render_ERRORSER8ActivityR7Carrage+0x1c4>
    4518:	22 e1       	ldi	r18, 0x12	; 18
    451a:	32 e0       	ldi	r19, 0x02	; 2
    451c:	41 e0       	ldi	r20, 0x01	; 1
    451e:	64 e0       	ldi	r22, 0x04	; 4
    4520:	8b e0       	ldi	r24, 0x0B	; 11
    4522:	0e 94 2e 1c 	call	0x385c	; 0x385c <_Z9Lcd_printhh11LcdFontSizePh>
    4526:	c7 54       	subi	r28, 0x47	; 71
    4528:	df 4f       	sbci	r29, 0xFF	; 255
    452a:	68 81       	ld	r22, Y
    452c:	79 81       	ldd	r23, Y+1	; 0x01
    452e:	07 2e       	mov	r0, r23
    4530:	00 0c       	add	r0, r0
    4532:	88 0b       	sbc	r24, r24
    4534:	99 0b       	sbc	r25, r25
    4536:	0e 94 ae 2f 	call	0x5f5c	; 0x5f5c <__floatsisf>
    453a:	8b 01       	movw	r16, r22
    453c:	9c 01       	movw	r18, r24
    453e:	e1 2c       	mov	r14, r1
    4540:	f1 2c       	mov	r15, r1
    4542:	41 e0       	ldi	r20, 0x01	; 1
    4544:	64 e0       	ldi	r22, 0x04	; 4
    4546:	8c e0       	ldi	r24, 0x0C	; 12
    4548:	0e 94 75 1c 	call	0x38ea	; 0x38ea <_Z10Lcd_printfhh11LcdFontSizefi>
		
	switch(activity.Cursor){
    454c:	d6 01       	movw	r26, r12
    454e:	17 96       	adiw	r26, 0x07	; 7
    4550:	ec 91       	ld	r30, X
    4552:	8e 2f       	mov	r24, r30
    4554:	90 e0       	ldi	r25, 0x00	; 0
    4556:	fc 01       	movw	r30, r24
    4558:	e6 5e       	subi	r30, 0xE6	; 230
    455a:	f1 09       	sbc	r31, r1
    455c:	e7 30       	cpi	r30, 0x07	; 7
    455e:	f1 05       	cpc	r31, r1
    4560:	d8 f5       	brcc	.+118    	; 0x45d8 <_ZN6Screen13Render_ERRORSER8ActivityR7Carrage+0x250>
    4562:	e6 5b       	subi	r30, 0xB6	; 182
    4564:	ff 4f       	sbci	r31, 0xFF	; 255
    4566:	0c 94 e4 30 	jmp	0x61c8	; 0x61c8 <__tablejump2__>
		case(ERRORS_RESET):LcdGotoXY(0,0);LcdChr_full(0x9B);break;
    456a:	60 e0       	ldi	r22, 0x00	; 0
    456c:	80 e0       	ldi	r24, 0x00	; 0
    456e:	0e 94 e3 1a 	call	0x35c6	; 0x35c6 <_Z9LcdGotoXYhh>
    4572:	8b e9       	ldi	r24, 0x9B	; 155
    4574:	0e 94 fe 1a 	call	0x35fc	; 0x35fc <_Z11LcdChr_fullh>
    4578:	2f c0       	rjmp	.+94     	; 0x45d8 <_ZN6Screen13Render_ERRORSER8ActivityR7Carrage+0x250>
		case(ERRORS_WHEEL1):LcdGotoXY(0,1);LcdChr_full(0x9B);break;
    457a:	61 e0       	ldi	r22, 0x01	; 1
    457c:	80 e0       	ldi	r24, 0x00	; 0
    457e:	0e 94 e3 1a 	call	0x35c6	; 0x35c6 <_Z9LcdGotoXYhh>
    4582:	8b e9       	ldi	r24, 0x9B	; 155
    4584:	0e 94 fe 1a 	call	0x35fc	; 0x35fc <_Z11LcdChr_fullh>
    4588:	27 c0       	rjmp	.+78     	; 0x45d8 <_ZN6Screen13Render_ERRORSER8ActivityR7Carrage+0x250>
		case(ERRORS_WHEEL2):LcdGotoXY(0,2);LcdChr_full(0x9B);break;
    458a:	62 e0       	ldi	r22, 0x02	; 2
    458c:	80 e0       	ldi	r24, 0x00	; 0
    458e:	0e 94 e3 1a 	call	0x35c6	; 0x35c6 <_Z9LcdGotoXYhh>
    4592:	8b e9       	ldi	r24, 0x9B	; 155
    4594:	0e 94 fe 1a 	call	0x35fc	; 0x35fc <_Z11LcdChr_fullh>
    4598:	1f c0       	rjmp	.+62     	; 0x45d8 <_ZN6Screen13Render_ERRORSER8ActivityR7Carrage+0x250>
		case(ERRORS_WHEEL3):LcdGotoXY(0,3);LcdChr_full(0x9B);break;
    459a:	63 e0       	ldi	r22, 0x03	; 3
    459c:	80 e0       	ldi	r24, 0x00	; 0
    459e:	0e 94 e3 1a 	call	0x35c6	; 0x35c6 <_Z9LcdGotoXYhh>
    45a2:	8b e9       	ldi	r24, 0x9B	; 155
    45a4:	0e 94 fe 1a 	call	0x35fc	; 0x35fc <_Z11LcdChr_fullh>
    45a8:	17 c0       	rjmp	.+46     	; 0x45d8 <_ZN6Screen13Render_ERRORSER8ActivityR7Carrage+0x250>
		case(ERRORS_WHEEL4):LcdGotoXY(0,4);LcdChr_full(0x9B);break;
    45aa:	64 e0       	ldi	r22, 0x04	; 4
    45ac:	80 e0       	ldi	r24, 0x00	; 0
    45ae:	0e 94 e3 1a 	call	0x35c6	; 0x35c6 <_Z9LcdGotoXYhh>
    45b2:	8b e9       	ldi	r24, 0x9B	; 155
    45b4:	0e 94 fe 1a 	call	0x35fc	; 0x35fc <_Z11LcdChr_fullh>
    45b8:	0f c0       	rjmp	.+30     	; 0x45d8 <_ZN6Screen13Render_ERRORSER8ActivityR7Carrage+0x250>
		case(ERRORS_EXIT):LcdGotoXY(2,5);LcdChr_full(0xA2);break;
    45ba:	65 e0       	ldi	r22, 0x05	; 5
    45bc:	82 e0       	ldi	r24, 0x02	; 2
    45be:	0e 94 e3 1a 	call	0x35c6	; 0x35c6 <_Z9LcdGotoXYhh>
    45c2:	82 ea       	ldi	r24, 0xA2	; 162
    45c4:	0e 94 fe 1a 	call	0x35fc	; 0x35fc <_Z11LcdChr_fullh>
    45c8:	07 c0       	rjmp	.+14     	; 0x45d8 <_ZN6Screen13Render_ERRORSER8ActivityR7Carrage+0x250>
		case(ERRORS_EXIT_DISPLAY):LcdGotoXY(8,5);LcdChr_full(0xA2);break;
    45ca:	65 e0       	ldi	r22, 0x05	; 5
    45cc:	88 e0       	ldi	r24, 0x08	; 8
    45ce:	0e 94 e3 1a 	call	0x35c6	; 0x35c6 <_Z9LcdGotoXYhh>
    45d2:	82 ea       	ldi	r24, 0xA2	; 162
    45d4:	0e 94 fe 1a 	call	0x35fc	; 0x35fc <_Z11LcdChr_fullh>
	}
}
    45d8:	df 91       	pop	r29
    45da:	cf 91       	pop	r28
    45dc:	1f 91       	pop	r17
    45de:	0f 91       	pop	r16
    45e0:	ff 90       	pop	r15
    45e2:	ef 90       	pop	r14
    45e4:	df 90       	pop	r13
    45e6:	cf 90       	pop	r12
    45e8:	08 95       	ret

000045ea <_ZN6Screen10PrintErrorE5Wheel>:
		case(ERRORS_WHEEL4):Lcd_print(3, 0, FONT_1X,(unsigned char *)"4 ");PrintError(carrage.Wheel_4);break;
	}

}

void Screen::PrintError(Wheel wheel){
    45ea:	cf 92       	push	r12
    45ec:	df 92       	push	r13
    45ee:	ef 92       	push	r14
    45f0:	ff 92       	push	r15
    45f2:	0f 93       	push	r16
    45f4:	1f 93       	push	r17
    45f6:	cf 93       	push	r28
    45f8:	df 93       	push	r29
    45fa:	cd b7       	in	r28, 0x3d	; 61
    45fc:	de b7       	in	r29, 0x3e	; 62
    45fe:	ce a4       	ldd	r12, Y+46	; 0x2e
    4600:	df a4       	ldd	r13, Y+47	; 0x2f
	if(wheel.Error == 0){
    4602:	c1 14       	cp	r12, r1
    4604:	d1 04       	cpc	r13, r1
    4606:	41 f4       	brne	.+16     	; 0x4618 <_ZN6Screen10PrintErrorE5Wheel+0x2e>
		Lcd_print(1, 2, FONT_1X,(unsigned char *)" ");
    4608:	24 e1       	ldi	r18, 0x14	; 20
    460a:	32 e0       	ldi	r19, 0x02	; 2
    460c:	41 e0       	ldi	r20, 0x01	; 1
    460e:	62 e0       	ldi	r22, 0x02	; 2
    4610:	81 e0       	ldi	r24, 0x01	; 1
    4612:	0e 94 2e 1c 	call	0x385c	; 0x385c <_Z9Lcd_printhh11LcdFontSizePh>
    4616:	39 c0       	rjmp	.+114    	; 0x468a <_ZN6Screen10PrintErrorE5Wheel+0xa0>
		}else{
		Lcd_print(1, 1, FONT_1X,(unsigned char *)" ");
    4618:	2f e1       	ldi	r18, 0x1F	; 31
    461a:	32 e0       	ldi	r19, 0x02	; 2
    461c:	41 e0       	ldi	r20, 0x01	; 1
    461e:	61 e0       	ldi	r22, 0x01	; 1
    4620:	81 e0       	ldi	r24, 0x01	; 1
    4622:	0e 94 2e 1c 	call	0x385c	; 0x385c <_Z9Lcd_printhh11LcdFontSizePh>
		Lcd_printf(9, 1, FONT_1X, wheel.Error , 0);
    4626:	b6 01       	movw	r22, r12
    4628:	0d 2c       	mov	r0, r13
    462a:	00 0c       	add	r0, r0
    462c:	88 0b       	sbc	r24, r24
    462e:	99 0b       	sbc	r25, r25
    4630:	0e 94 ae 2f 	call	0x5f5c	; 0x5f5c <__floatsisf>
    4634:	8b 01       	movw	r16, r22
    4636:	9c 01       	movw	r18, r24
    4638:	e1 2c       	mov	r14, r1
    463a:	f1 2c       	mov	r15, r1
    463c:	41 e0       	ldi	r20, 0x01	; 1
    463e:	61 e0       	ldi	r22, 0x01	; 1
    4640:	89 e0       	ldi	r24, 0x09	; 9
    4642:	0e 94 75 1c 	call	0x38ea	; 0x38ea <_Z10Lcd_printfhh11LcdFontSizefi>
		switch(wheel.Error){
    4646:	82 e0       	ldi	r24, 0x02	; 2
    4648:	c8 16       	cp	r12, r24
    464a:	d1 04       	cpc	r13, r1
    464c:	79 f0       	breq	.+30     	; 0x466c <_ZN6Screen10PrintErrorE5Wheel+0x82>
    464e:	83 e0       	ldi	r24, 0x03	; 3
    4650:	c8 16       	cp	r12, r24
    4652:	d1 04       	cpc	r13, r1
    4654:	99 f0       	breq	.+38     	; 0x467c <_ZN6Screen10PrintErrorE5Wheel+0x92>
    4656:	ca 94       	dec	r12
    4658:	cd 28       	or	r12, r13
    465a:	b9 f4       	brne	.+46     	; 0x468a <_ZN6Screen10PrintErrorE5Wheel+0xa0>
			case(1):Lcd_print(0, 2, FONT_1X,(unsigned char *)"       ");break;//"       "
    465c:	28 e2       	ldi	r18, 0x28	; 40
    465e:	32 e0       	ldi	r19, 0x02	; 2
    4660:	41 e0       	ldi	r20, 0x01	; 1
    4662:	62 e0       	ldi	r22, 0x02	; 2
    4664:	80 e0       	ldi	r24, 0x00	; 0
    4666:	0e 94 2e 1c 	call	0x385c	; 0x385c <_Z9Lcd_printhh11LcdFontSizePh>
    466a:	0f c0       	rjmp	.+30     	; 0x468a <_ZN6Screen10PrintErrorE5Wheel+0xa0>
			case(2):Lcd_print(0, 2, FONT_1X,(unsigned char *)"   ");break;//"   "
    466c:	2c e5       	ldi	r18, 0x5C	; 92
    466e:	32 e0       	ldi	r19, 0x02	; 2
    4670:	41 e0       	ldi	r20, 0x01	; 1
    4672:	62 e0       	ldi	r22, 0x02	; 2
    4674:	80 e0       	ldi	r24, 0x00	; 0
    4676:	0e 94 2e 1c 	call	0x385c	; 0x385c <_Z9Lcd_printhh11LcdFontSizePh>
    467a:	07 c0       	rjmp	.+14     	; 0x468a <_ZN6Screen10PrintErrorE5Wheel+0xa0>
			case(3):Lcd_print(0, 2, FONT_1X,(unsigned char *)"     ");break; //"     "
    467c:	25 e8       	ldi	r18, 0x85	; 133
    467e:	32 e0       	ldi	r19, 0x02	; 2
    4680:	41 e0       	ldi	r20, 0x01	; 1
    4682:	62 e0       	ldi	r22, 0x02	; 2
    4684:	80 e0       	ldi	r24, 0x00	; 0
    4686:	0e 94 2e 1c 	call	0x385c	; 0x385c <_Z9Lcd_printhh11LcdFontSizePh>
		}
	}
}
    468a:	df 91       	pop	r29
    468c:	cf 91       	pop	r28
    468e:	1f 91       	pop	r17
    4690:	0f 91       	pop	r16
    4692:	ff 90       	pop	r15
    4694:	ef 90       	pop	r14
    4696:	df 90       	pop	r13
    4698:	cf 90       	pop	r12
    469a:	08 95       	ret

0000469c <_ZN6Screen12Render_ERRORER8ActivityR7Carrage>:
		case(ERRORS_EXIT):LcdGotoXY(2,5);LcdChr_full(0xA2);break;
		case(ERRORS_EXIT_DISPLAY):LcdGotoXY(8,5);LcdChr_full(0xA2);break;
	}
}

void Screen::Render_ERROR(Activity &activity, Carrage &carrage){
    469c:	0f 93       	push	r16
    469e:	1f 93       	push	r17
    46a0:	cf 93       	push	r28
    46a2:	df 93       	push	r29
    46a4:	8c 01       	movw	r16, r24
    46a6:	ea 01       	movw	r28, r20
	switch(activity.Cursor){
    46a8:	fb 01       	movw	r30, r22
    46aa:	87 81       	ldd	r24, Z+7	; 0x07
    46ac:	88 3e       	cpi	r24, 0xE8	; 232
    46ae:	79 f1       	breq	.+94     	; 0x470e <_ZN6Screen12Render_ERRORER8ActivityR7Carrage+0x72>
    46b0:	18 f4       	brcc	.+6      	; 0x46b8 <_ZN6Screen12Render_ERRORER8ActivityR7Carrage+0x1c>
    46b2:	87 3e       	cpi	r24, 0xE7	; 231
    46b4:	41 f0       	breq	.+16     	; 0x46c6 <_ZN6Screen12Render_ERRORER8ActivityR7Carrage+0x2a>
    46b6:	9b c0       	rjmp	.+310    	; 0x47ee <_ZN6Screen12Render_ERRORER8ActivityR7Carrage+0x152>
    46b8:	89 3e       	cpi	r24, 0xE9	; 233
    46ba:	09 f4       	brne	.+2      	; 0x46be <_ZN6Screen12Render_ERRORER8ActivityR7Carrage+0x22>
    46bc:	4d c0       	rjmp	.+154    	; 0x4758 <_ZN6Screen12Render_ERRORER8ActivityR7Carrage+0xbc>
    46be:	8a 3e       	cpi	r24, 0xEA	; 234
    46c0:	09 f4       	brne	.+2      	; 0x46c4 <_ZN6Screen12Render_ERRORER8ActivityR7Carrage+0x28>
    46c2:	70 c0       	rjmp	.+224    	; 0x47a4 <_ZN6Screen12Render_ERRORER8ActivityR7Carrage+0x108>
    46c4:	94 c0       	rjmp	.+296    	; 0x47ee <_ZN6Screen12Render_ERRORER8ActivityR7Carrage+0x152>
		case(ERRORS_WHEEL1):Lcd_print(3, 0, FONT_1X,(unsigned char *)"1 ");PrintError(carrage.Wheel_1);break;
    46c6:	23 eb       	ldi	r18, 0xB3	; 179
    46c8:	32 e0       	ldi	r19, 0x02	; 2
    46ca:	41 e0       	ldi	r20, 0x01	; 1
    46cc:	60 e0       	ldi	r22, 0x00	; 0
    46ce:	83 e0       	ldi	r24, 0x03	; 3
    46d0:	0e 94 2e 1c 	call	0x385c	; 0x385c <_Z9Lcd_printhh11LcdFontSizePh>
    46d4:	8d b7       	in	r24, 0x3d	; 61
    46d6:	9e b7       	in	r25, 0x3e	; 62
    46d8:	c2 97       	sbiw	r24, 0x32	; 50
    46da:	0f b6       	in	r0, 0x3f	; 63
    46dc:	f8 94       	cli
    46de:	9e bf       	out	0x3e, r25	; 62
    46e0:	0f be       	out	0x3f, r0	; 63
    46e2:	8d bf       	out	0x3d, r24	; 61
    46e4:	ad b7       	in	r26, 0x3d	; 61
    46e6:	be b7       	in	r27, 0x3e	; 62
    46e8:	11 96       	adiw	r26, 0x01	; 1
    46ea:	82 e3       	ldi	r24, 0x32	; 50
    46ec:	fe 01       	movw	r30, r28
    46ee:	01 90       	ld	r0, Z+
    46f0:	0d 92       	st	X+, r0
    46f2:	8a 95       	dec	r24
    46f4:	e1 f7       	brne	.-8      	; 0x46ee <_ZN6Screen12Render_ERRORER8ActivityR7Carrage+0x52>
    46f6:	c8 01       	movw	r24, r16
    46f8:	0e 94 f5 22 	call	0x45ea	; 0x45ea <_ZN6Screen10PrintErrorE5Wheel>
    46fc:	ed b7       	in	r30, 0x3d	; 61
    46fe:	fe b7       	in	r31, 0x3e	; 62
    4700:	f2 96       	adiw	r30, 0x32	; 50
    4702:	0f b6       	in	r0, 0x3f	; 63
    4704:	f8 94       	cli
    4706:	fe bf       	out	0x3e, r31	; 62
    4708:	0f be       	out	0x3f, r0	; 63
    470a:	ed bf       	out	0x3d, r30	; 61
    470c:	70 c0       	rjmp	.+224    	; 0x47ee <_ZN6Screen12Render_ERRORER8ActivityR7Carrage+0x152>
		case(ERRORS_WHEEL2):Lcd_print(3, 0, FONT_1X,(unsigned char *)"2 ");PrintError(carrage.Wheel_2);break;
    470e:	2c eb       	ldi	r18, 0xBC	; 188
    4710:	32 e0       	ldi	r19, 0x02	; 2
    4712:	41 e0       	ldi	r20, 0x01	; 1
    4714:	60 e0       	ldi	r22, 0x00	; 0
    4716:	83 e0       	ldi	r24, 0x03	; 3
    4718:	0e 94 2e 1c 	call	0x385c	; 0x385c <_Z9Lcd_printhh11LcdFontSizePh>
    471c:	8d b7       	in	r24, 0x3d	; 61
    471e:	9e b7       	in	r25, 0x3e	; 62
    4720:	c2 97       	sbiw	r24, 0x32	; 50
    4722:	0f b6       	in	r0, 0x3f	; 63
    4724:	f8 94       	cli
    4726:	9e bf       	out	0x3e, r25	; 62
    4728:	0f be       	out	0x3f, r0	; 63
    472a:	8d bf       	out	0x3d, r24	; 61
    472c:	ad b7       	in	r26, 0x3d	; 61
    472e:	be b7       	in	r27, 0x3e	; 62
    4730:	11 96       	adiw	r26, 0x01	; 1
    4732:	82 e3       	ldi	r24, 0x32	; 50
    4734:	fe 01       	movw	r30, r28
    4736:	f2 96       	adiw	r30, 0x32	; 50
    4738:	01 90       	ld	r0, Z+
    473a:	0d 92       	st	X+, r0
    473c:	8a 95       	dec	r24
    473e:	e1 f7       	brne	.-8      	; 0x4738 <_ZN6Screen12Render_ERRORER8ActivityR7Carrage+0x9c>
    4740:	c8 01       	movw	r24, r16
    4742:	0e 94 f5 22 	call	0x45ea	; 0x45ea <_ZN6Screen10PrintErrorE5Wheel>
    4746:	ed b7       	in	r30, 0x3d	; 61
    4748:	fe b7       	in	r31, 0x3e	; 62
    474a:	f2 96       	adiw	r30, 0x32	; 50
    474c:	0f b6       	in	r0, 0x3f	; 63
    474e:	f8 94       	cli
    4750:	fe bf       	out	0x3e, r31	; 62
    4752:	0f be       	out	0x3f, r0	; 63
    4754:	ed bf       	out	0x3d, r30	; 61
    4756:	4b c0       	rjmp	.+150    	; 0x47ee <_ZN6Screen12Render_ERRORER8ActivityR7Carrage+0x152>
		case(ERRORS_WHEEL3):Lcd_print(3, 0, FONT_1X,(unsigned char *)"3 ");PrintError(carrage.Wheel_3);break;
    4758:	25 ec       	ldi	r18, 0xC5	; 197
    475a:	32 e0       	ldi	r19, 0x02	; 2
    475c:	41 e0       	ldi	r20, 0x01	; 1
    475e:	60 e0       	ldi	r22, 0x00	; 0
    4760:	83 e0       	ldi	r24, 0x03	; 3
    4762:	0e 94 2e 1c 	call	0x385c	; 0x385c <_Z9Lcd_printhh11LcdFontSizePh>
    4766:	fe 01       	movw	r30, r28
    4768:	ec 59       	subi	r30, 0x9C	; 156
    476a:	ff 4f       	sbci	r31, 0xFF	; 255
    476c:	8d b7       	in	r24, 0x3d	; 61
    476e:	9e b7       	in	r25, 0x3e	; 62
    4770:	c2 97       	sbiw	r24, 0x32	; 50
    4772:	0f b6       	in	r0, 0x3f	; 63
    4774:	f8 94       	cli
    4776:	9e bf       	out	0x3e, r25	; 62
    4778:	0f be       	out	0x3f, r0	; 63
    477a:	8d bf       	out	0x3d, r24	; 61
    477c:	ad b7       	in	r26, 0x3d	; 61
    477e:	be b7       	in	r27, 0x3e	; 62
    4780:	11 96       	adiw	r26, 0x01	; 1
    4782:	82 e3       	ldi	r24, 0x32	; 50
    4784:	01 90       	ld	r0, Z+
    4786:	0d 92       	st	X+, r0
    4788:	8a 95       	dec	r24
    478a:	e1 f7       	brne	.-8      	; 0x4784 <_ZN6Screen12Render_ERRORER8ActivityR7Carrage+0xe8>
    478c:	c8 01       	movw	r24, r16
    478e:	0e 94 f5 22 	call	0x45ea	; 0x45ea <_ZN6Screen10PrintErrorE5Wheel>
    4792:	ed b7       	in	r30, 0x3d	; 61
    4794:	fe b7       	in	r31, 0x3e	; 62
    4796:	f2 96       	adiw	r30, 0x32	; 50
    4798:	0f b6       	in	r0, 0x3f	; 63
    479a:	f8 94       	cli
    479c:	fe bf       	out	0x3e, r31	; 62
    479e:	0f be       	out	0x3f, r0	; 63
    47a0:	ed bf       	out	0x3d, r30	; 61
    47a2:	25 c0       	rjmp	.+74     	; 0x47ee <_ZN6Screen12Render_ERRORER8ActivityR7Carrage+0x152>
		case(ERRORS_WHEEL4):Lcd_print(3, 0, FONT_1X,(unsigned char *)"4 ");PrintError(carrage.Wheel_4);break;
    47a4:	2e ec       	ldi	r18, 0xCE	; 206
    47a6:	32 e0       	ldi	r19, 0x02	; 2
    47a8:	41 e0       	ldi	r20, 0x01	; 1
    47aa:	60 e0       	ldi	r22, 0x00	; 0
    47ac:	83 e0       	ldi	r24, 0x03	; 3
    47ae:	0e 94 2e 1c 	call	0x385c	; 0x385c <_Z9Lcd_printhh11LcdFontSizePh>
    47b2:	fe 01       	movw	r30, r28
    47b4:	ea 56       	subi	r30, 0x6A	; 106
    47b6:	ff 4f       	sbci	r31, 0xFF	; 255
    47b8:	8d b7       	in	r24, 0x3d	; 61
    47ba:	9e b7       	in	r25, 0x3e	; 62
    47bc:	c2 97       	sbiw	r24, 0x32	; 50
    47be:	0f b6       	in	r0, 0x3f	; 63
    47c0:	f8 94       	cli
    47c2:	9e bf       	out	0x3e, r25	; 62
    47c4:	0f be       	out	0x3f, r0	; 63
    47c6:	8d bf       	out	0x3d, r24	; 61
    47c8:	ad b7       	in	r26, 0x3d	; 61
    47ca:	be b7       	in	r27, 0x3e	; 62
    47cc:	11 96       	adiw	r26, 0x01	; 1
    47ce:	82 e3       	ldi	r24, 0x32	; 50
    47d0:	01 90       	ld	r0, Z+
    47d2:	0d 92       	st	X+, r0
    47d4:	8a 95       	dec	r24
    47d6:	e1 f7       	brne	.-8      	; 0x47d0 <_ZN6Screen12Render_ERRORER8ActivityR7Carrage+0x134>
    47d8:	c8 01       	movw	r24, r16
    47da:	0e 94 f5 22 	call	0x45ea	; 0x45ea <_ZN6Screen10PrintErrorE5Wheel>
    47de:	ed b7       	in	r30, 0x3d	; 61
    47e0:	fe b7       	in	r31, 0x3e	; 62
    47e2:	f2 96       	adiw	r30, 0x32	; 50
    47e4:	0f b6       	in	r0, 0x3f	; 63
    47e6:	f8 94       	cli
    47e8:	fe bf       	out	0x3e, r31	; 62
    47ea:	0f be       	out	0x3f, r0	; 63
    47ec:	ed bf       	out	0x3d, r30	; 61
	}

}
    47ee:	df 91       	pop	r29
    47f0:	cf 91       	pop	r28
    47f2:	1f 91       	pop	r17
    47f4:	0f 91       	pop	r16
    47f6:	08 95       	ret

000047f8 <_ZN6Screen18Render_LCDSettingsER8ActivityR7Carrage>:
			case(3):Lcd_print(0, 2, FONT_1X,(unsigned char *)"     ");break; //"     "
		}
	}
}

void Screen::Render_LCDSettings(Activity &activity, Carrage &carrage){
    47f8:	0f 93       	push	r16
    47fa:	1f 93       	push	r17
    47fc:	cf 93       	push	r28
    47fe:	df 93       	push	r29
    4800:	8b 01       	movw	r16, r22
    4802:	ea 01       	movw	r28, r20
	Lcd_print(3, 0, FONT_1X,(unsigned char *)"");
    4804:	27 e8       	ldi	r18, 0x87	; 135
    4806:	31 e0       	ldi	r19, 0x01	; 1
    4808:	41 e0       	ldi	r20, 0x01	; 1
    480a:	60 e0       	ldi	r22, 0x00	; 0
    480c:	83 e0       	ldi	r24, 0x03	; 3
    480e:	0e 94 2e 1c 	call	0x385c	; 0x385c <_Z9Lcd_printhh11LcdFontSizePh>
	Lcd_print(0, 1, FONT_1X,(unsigned char *)"");
    4812:	27 ed       	ldi	r18, 0xD7	; 215
    4814:	32 e0       	ldi	r19, 0x02	; 2
    4816:	41 e0       	ldi	r20, 0x01	; 1
    4818:	61 e0       	ldi	r22, 0x01	; 1
    481a:	80 e0       	ldi	r24, 0x00	; 0
    481c:	0e 94 2e 1c 	call	0x385c	; 0x385c <_Z9Lcd_printhh11LcdFontSizePh>

	LcdGotoXY(3,5);LcdChr_full(0x9E);LcdChr_full(0x9F);//menu
    4820:	65 e0       	ldi	r22, 0x05	; 5
    4822:	83 e0       	ldi	r24, 0x03	; 3
    4824:	0e 94 e3 1a 	call	0x35c6	; 0x35c6 <_Z9LcdGotoXYhh>
    4828:	8e e9       	ldi	r24, 0x9E	; 158
    482a:	0e 94 fe 1a 	call	0x35fc	; 0x35fc <_Z11LcdChr_fullh>
    482e:	8f e9       	ldi	r24, 0x9F	; 159
    4830:	0e 94 fe 1a 	call	0x35fc	; 0x35fc <_Z11LcdChr_fullh>
	LcdGotoXY(9,5);LcdChr_full(0xAD);LcdChr_full(0xAE);//Panel
    4834:	65 e0       	ldi	r22, 0x05	; 5
    4836:	89 e0       	ldi	r24, 0x09	; 9
    4838:	0e 94 e3 1a 	call	0x35c6	; 0x35c6 <_Z9LcdGotoXYhh>
    483c:	8d ea       	ldi	r24, 0xAD	; 173
    483e:	0e 94 fe 1a 	call	0x35fc	; 0x35fc <_Z11LcdChr_fullh>
    4842:	8e ea       	ldi	r24, 0xAE	; 174
    4844:	0e 94 fe 1a 	call	0x35fc	; 0x35fc <_Z11LcdChr_fullh>
	
	//Lcd_print(6, 3, FONT_1X, carrage.LCD_contrast , 2);
	
		LcdGotoXY(5 , 3 );
    4848:	63 e0       	ldi	r22, 0x03	; 3
    484a:	85 e0       	ldi	r24, 0x05	; 5
    484c:	0e 94 e3 1a 	call	0x35c6	; 0x35c6 <_Z9LcdGotoXYhh>
		LcdStepLevel(carrage.LCD_contrast - 0xB6);
    4850:	c2 51       	subi	r28, 0x12	; 18
    4852:	df 4f       	sbci	r29, 0xFF	; 255
    4854:	88 81       	ld	r24, Y
    4856:	86 5b       	subi	r24, 0xB6	; 182
    4858:	0e 94 28 1b 	call	0x3650	; 0x3650 <_Z12LcdStepLevelh>

	
	
	switch(activity.Cursor){
    485c:	f8 01       	movw	r30, r16
    485e:	87 81       	ldd	r24, Z+7	; 0x07
    4860:	81 3f       	cpi	r24, 0xF1	; 241
    4862:	99 f0       	breq	.+38     	; 0x488a <_ZN6Screen18Render_LCDSettingsER8ActivityR7Carrage+0x92>
    4864:	82 3f       	cpi	r24, 0xF2	; 242
    4866:	c9 f0       	breq	.+50     	; 0x489a <_ZN6Screen18Render_LCDSettingsER8ActivityR7Carrage+0xa2>
    4868:	80 3f       	cpi	r24, 0xF0	; 240
    486a:	f1 f4       	brne	.+60     	; 0x48a8 <_ZN6Screen18Render_LCDSettingsER8ActivityR7Carrage+0xb0>
		case(LCD_SET_CONTRAST):LcdGotoXY(3,3);LcdChr_full(0x9A);LcdGotoXY(10,3);LcdChr_full(0x9B);break;
    486c:	63 e0       	ldi	r22, 0x03	; 3
    486e:	83 e0       	ldi	r24, 0x03	; 3
    4870:	0e 94 e3 1a 	call	0x35c6	; 0x35c6 <_Z9LcdGotoXYhh>
    4874:	8a e9       	ldi	r24, 0x9A	; 154
    4876:	0e 94 fe 1a 	call	0x35fc	; 0x35fc <_Z11LcdChr_fullh>
    487a:	63 e0       	ldi	r22, 0x03	; 3
    487c:	8a e0       	ldi	r24, 0x0A	; 10
    487e:	0e 94 e3 1a 	call	0x35c6	; 0x35c6 <_Z9LcdGotoXYhh>
    4882:	8b e9       	ldi	r24, 0x9B	; 155
    4884:	0e 94 fe 1a 	call	0x35fc	; 0x35fc <_Z11LcdChr_fullh>
    4888:	0f c0       	rjmp	.+30     	; 0x48a8 <_ZN6Screen18Render_LCDSettingsER8ActivityR7Carrage+0xb0>
		case(LCD_EXIT):LcdGotoXY(2,5);LcdChr_full(0xA2);break;
    488a:	65 e0       	ldi	r22, 0x05	; 5
    488c:	82 e0       	ldi	r24, 0x02	; 2
    488e:	0e 94 e3 1a 	call	0x35c6	; 0x35c6 <_Z9LcdGotoXYhh>
    4892:	82 ea       	ldi	r24, 0xA2	; 162
    4894:	0e 94 fe 1a 	call	0x35fc	; 0x35fc <_Z11LcdChr_fullh>
    4898:	07 c0       	rjmp	.+14     	; 0x48a8 <_ZN6Screen18Render_LCDSettingsER8ActivityR7Carrage+0xb0>
		case(LCD_EXIT_DISPLAY):LcdGotoXY(8,5);LcdChr_full(0xA2);break;
    489a:	65 e0       	ldi	r22, 0x05	; 5
    489c:	88 e0       	ldi	r24, 0x08	; 8
    489e:	0e 94 e3 1a 	call	0x35c6	; 0x35c6 <_Z9LcdGotoXYhh>
    48a2:	82 ea       	ldi	r24, 0xA2	; 162
    48a4:	0e 94 fe 1a 	call	0x35fc	; 0x35fc <_Z11LcdChr_fullh>
	}
}
    48a8:	df 91       	pop	r29
    48aa:	cf 91       	pop	r28
    48ac:	1f 91       	pop	r17
    48ae:	0f 91       	pop	r16
    48b0:	08 95       	ret

000048b2 <_ZN6Screen14Draw_icon_menuEv>:
// ******************************************************
//              HELPERS
// ******************************************************

void Screen::Draw_icon_menu(){
	LcdGotoXY(6,0);
    48b2:	60 e0       	ldi	r22, 0x00	; 0
    48b4:	86 e0       	ldi	r24, 0x06	; 6
    48b6:	0e 94 e3 1a 	call	0x35c6	; 0x35c6 <_Z9LcdGotoXYhh>
	LcdChr_full(0x9E);
    48ba:	8e e9       	ldi	r24, 0x9E	; 158
    48bc:	0e 94 fe 1a 	call	0x35fc	; 0x35fc <_Z11LcdChr_fullh>
	LcdGotoXY(7,0);
    48c0:	60 e0       	ldi	r22, 0x00	; 0
    48c2:	87 e0       	ldi	r24, 0x07	; 7
    48c4:	0e 94 e3 1a 	call	0x35c6	; 0x35c6 <_Z9LcdGotoXYhh>
	LcdChr_full(0x9F);
    48c8:	8f e9       	ldi	r24, 0x9F	; 159
    48ca:	0e 94 fe 1a 	call	0x35fc	; 0x35fc <_Z11LcdChr_fullh>
    48ce:	08 95       	ret

000048d0 <_ZN6Screen17Draw_icon_carrageER8Activity>:
}

void Screen::Draw_icon_carrage(Activity &activity){
	if (!(activity.Statment == SCREEN_ADJUST) ){
    48d0:	fb 01       	movw	r30, r22
    48d2:	80 81       	ld	r24, Z
    48d4:	82 30       	cpi	r24, 0x02	; 2
    48d6:	51 f0       	breq	.+20     	; 0x48ec <_ZN6Screen17Draw_icon_carrageER8Activity+0x1c>
		LcdGotoXY(6,5);LcdChr_full(0xA3);LcdChr_full(0xA4);
    48d8:	65 e0       	ldi	r22, 0x05	; 5
    48da:	86 e0       	ldi	r24, 0x06	; 6
    48dc:	0e 94 e3 1a 	call	0x35c6	; 0x35c6 <_Z9LcdGotoXYhh>
    48e0:	83 ea       	ldi	r24, 0xA3	; 163
    48e2:	0e 94 fe 1a 	call	0x35fc	; 0x35fc <_Z11LcdChr_fullh>
    48e6:	84 ea       	ldi	r24, 0xA4	; 164
    48e8:	0e 94 fe 1a 	call	0x35fc	; 0x35fc <_Z11LcdChr_fullh>
    48ec:	08 95       	ret

000048ee <_ZN6Screen10Draw_WheelE5Wheelb>:
	Draw_Wheel(carrage.Wheel_2, carrage.caragemove);
	Draw_Wheel(carrage.Wheel_3, carrage.caragemove);
	Draw_Wheel(carrage.Wheel_4, carrage.caragemove);
}

void Screen::Draw_Wheel(Wheel wheel, bool moving){
    48ee:	af 92       	push	r10
    48f0:	bf 92       	push	r11
    48f2:	cf 92       	push	r12
    48f4:	df 92       	push	r13
    48f6:	ef 92       	push	r14
    48f8:	ff 92       	push	r15
    48fa:	0f 93       	push	r16
    48fc:	1f 93       	push	r17
    48fe:	cf 93       	push	r28
    4900:	df 93       	push	r29
    4902:	cd b7       	in	r28, 0x3d	; 61
    4904:	de b7       	in	r29, 0x3e	; 62
    4906:	2c 97       	sbiw	r28, 0x0c	; 12
    4908:	0f b6       	in	r0, 0x3f	; 63
    490a:	f8 94       	cli
    490c:	de bf       	out	0x3e, r29	; 62
    490e:	0f be       	out	0x3f, r0	; 63
    4910:	cd bf       	out	0x3d, r28	; 61
	int pos_y;
	int hight_pos_x;
	int hight_pos_y;
	int Char_wheel[6];
	//get position
	switch(wheel.number){
    4912:	29 8d       	ldd	r18, Y+25	; 0x19
    4914:	3a 8d       	ldd	r19, Y+26	; 0x1a
    4916:	22 30       	cpi	r18, 0x02	; 2
    4918:	31 05       	cpc	r19, r1
    491a:	a9 f0       	breq	.+42     	; 0x4946 <_ZN6Screen10Draw_WheelE5Wheelb+0x58>
    491c:	24 f4       	brge	.+8      	; 0x4926 <_ZN6Screen10Draw_WheelE5Wheelb+0x38>
    491e:	21 30       	cpi	r18, 0x01	; 1
    4920:	31 05       	cpc	r19, r1
    4922:	41 f0       	breq	.+16     	; 0x4934 <_ZN6Screen10Draw_WheelE5Wheelb+0x46>
    4924:	32 c0       	rjmp	.+100    	; 0x498a <_ZN6Screen10Draw_WheelE5Wheelb+0x9c>
    4926:	23 30       	cpi	r18, 0x03	; 3
    4928:	31 05       	cpc	r19, r1
    492a:	c9 f0       	breq	.+50     	; 0x495e <_ZN6Screen10Draw_WheelE5Wheelb+0x70>
    492c:	24 30       	cpi	r18, 0x04	; 4
    492e:	31 05       	cpc	r19, r1
    4930:	19 f1       	breq	.+70     	; 0x4978 <_ZN6Screen10Draw_WheelE5Wheelb+0x8a>
    4932:	2b c0       	rjmp	.+86     	; 0x498a <_ZN6Screen10Draw_WheelE5Wheelb+0x9c>
		case 1:pos_x  = 3;pos_y = 0; hight_pos_x = 0; hight_pos_y = 1 ; break;
    4934:	cc 24       	eor	r12, r12
    4936:	c3 94       	inc	r12
    4938:	a1 2c       	mov	r10, r1
    493a:	00 e0       	ldi	r16, 0x00	; 0
    493c:	0f 2e       	mov	r0, r31
    493e:	f3 e0       	ldi	r31, 0x03	; 3
    4940:	df 2e       	mov	r13, r31
    4942:	f0 2d       	mov	r31, r0
    4944:	22 c0       	rjmp	.+68     	; 0x498a <_ZN6Screen10Draw_WheelE5Wheelb+0x9c>
		case 2:pos_x  = 9;pos_y = 0; hight_pos_x = 11; hight_pos_y = 1 ;break;
    4946:	cc 24       	eor	r12, r12
    4948:	c3 94       	inc	r12
    494a:	0f 2e       	mov	r0, r31
    494c:	fb e0       	ldi	r31, 0x0B	; 11
    494e:	af 2e       	mov	r10, r31
    4950:	f0 2d       	mov	r31, r0
    4952:	00 e0       	ldi	r16, 0x00	; 0
    4954:	0f 2e       	mov	r0, r31
    4956:	f9 e0       	ldi	r31, 0x09	; 9
    4958:	df 2e       	mov	r13, r31
    495a:	f0 2d       	mov	r31, r0
    495c:	16 c0       	rjmp	.+44     	; 0x498a <_ZN6Screen10Draw_WheelE5Wheelb+0x9c>
		case 3:pos_x  = 9;pos_y = 3; hight_pos_x = 11; hight_pos_y = 4 ;break;
    495e:	68 94       	set
    4960:	cc 24       	eor	r12, r12
    4962:	c2 f8       	bld	r12, 2
    4964:	0f 2e       	mov	r0, r31
    4966:	fb e0       	ldi	r31, 0x0B	; 11
    4968:	af 2e       	mov	r10, r31
    496a:	f0 2d       	mov	r31, r0
    496c:	03 e0       	ldi	r16, 0x03	; 3
    496e:	0f 2e       	mov	r0, r31
    4970:	f9 e0       	ldi	r31, 0x09	; 9
    4972:	df 2e       	mov	r13, r31
    4974:	f0 2d       	mov	r31, r0
    4976:	09 c0       	rjmp	.+18     	; 0x498a <_ZN6Screen10Draw_WheelE5Wheelb+0x9c>
		case 4:pos_x  = 3;pos_y = 3; hight_pos_x = 0; hight_pos_y = 4 ;break;
    4978:	68 94       	set
    497a:	cc 24       	eor	r12, r12
    497c:	c2 f8       	bld	r12, 2
    497e:	a1 2c       	mov	r10, r1
    4980:	03 e0       	ldi	r16, 0x03	; 3
    4982:	0f 2e       	mov	r0, r31
    4984:	f3 e0       	ldi	r31, 0x03	; 3
    4986:	df 2e       	mov	r13, r31
    4988:	f0 2d       	mov	r31, r0
	}
	
	if(moving){
    498a:	2c 96       	adiw	r28, 0x0c	; 12
    498c:	2f ad       	ldd	r18, Y+63	; 0x3f
    498e:	2c 97       	sbiw	r28, 0x0c	; 12
    4990:	22 23       	and	r18, r18
    4992:	09 f4       	brne	.+2      	; 0x4996 <_ZN6Screen10Draw_WheelE5Wheelb+0xa8>
    4994:	7d c0       	rjmp	.+250    	; 0x4a90 <_ZN6Screen10Draw_WheelE5Wheelb+0x1a2>
		//moving
		i_effects++;
    4996:	fc 01       	movw	r30, r24
    4998:	20 81       	ld	r18, Z
    499a:	31 81       	ldd	r19, Z+1	; 0x01
    499c:	2f 5f       	subi	r18, 0xFF	; 255
    499e:	3f 4f       	sbci	r19, 0xFF	; 255
    49a0:	31 83       	std	Z+1, r19	; 0x01
    49a2:	20 83       	st	Z, r18
		if (i_effects>30){i_effects=0;}
    49a4:	2f 31       	cpi	r18, 0x1F	; 31
    49a6:	31 05       	cpc	r19, r1
    49a8:	34 f0       	brlt	.+12     	; 0x49b6 <_ZN6Screen10Draw_WheelE5Wheelb+0xc8>
    49aa:	11 82       	std	Z+1, r1	; 0x01
    49ac:	10 82       	st	Z, r1
		if(wheel.malfuction){
    49ae:	89 ad       	ldd	r24, Y+57	; 0x39
    49b0:	81 11       	cpse	r24, r1
    49b2:	04 c0       	rjmp	.+8      	; 0x49bc <_ZN6Screen10Draw_WheelE5Wheelb+0xce>
    49b4:	1f c0       	rjmp	.+62     	; 0x49f4 <_ZN6Screen10Draw_WheelE5Wheelb+0x106>
    49b6:	89 ad       	ldd	r24, Y+57	; 0x39
    49b8:	88 23       	and	r24, r24
    49ba:	c9 f0       	breq	.+50     	; 0x49ee <_ZN6Screen10Draw_WheelE5Wheelb+0x100>
			Char_wheel[0] = 0x8C;
    49bc:	8c e8       	ldi	r24, 0x8C	; 140
    49be:	90 e0       	ldi	r25, 0x00	; 0
    49c0:	9a 83       	std	Y+2, r25	; 0x02
    49c2:	89 83       	std	Y+1, r24	; 0x01
			Char_wheel[1] = 0x8D;
    49c4:	8d e8       	ldi	r24, 0x8D	; 141
    49c6:	90 e0       	ldi	r25, 0x00	; 0
    49c8:	9c 83       	std	Y+4, r25	; 0x04
    49ca:	8b 83       	std	Y+3, r24	; 0x03
			Char_wheel[2] = 0x8E;
    49cc:	8e e8       	ldi	r24, 0x8E	; 142
    49ce:	90 e0       	ldi	r25, 0x00	; 0
    49d0:	9e 83       	std	Y+6, r25	; 0x06
    49d2:	8d 83       	std	Y+5, r24	; 0x05
			Char_wheel[3] = 0x8F;
    49d4:	8f e8       	ldi	r24, 0x8F	; 143
    49d6:	90 e0       	ldi	r25, 0x00	; 0
    49d8:	98 87       	std	Y+8, r25	; 0x08
    49da:	8f 83       	std	Y+7, r24	; 0x07
			Char_wheel[4] = 0x90;
    49dc:	80 e9       	ldi	r24, 0x90	; 144
    49de:	90 e0       	ldi	r25, 0x00	; 0
    49e0:	9a 87       	std	Y+10, r25	; 0x0a
    49e2:	89 87       	std	Y+9, r24	; 0x09
			Char_wheel[5] = 0x91;
    49e4:	81 e9       	ldi	r24, 0x91	; 145
    49e6:	90 e0       	ldi	r25, 0x00	; 0
    49e8:	9c 87       	std	Y+12, r25	; 0x0c
    49ea:	8b 87       	std	Y+11, r24	; 0x0b
    49ec:	ec c0       	rjmp	.+472    	; 0x4bc6 <_ZN6Screen10Draw_WheelE5Wheelb+0x2d8>
		}else{
			if(i_effects<10){
    49ee:	2a 30       	cpi	r18, 0x0A	; 10
    49f0:	31 05       	cpc	r19, r1
    49f2:	cc f4       	brge	.+50     	; 0x4a26 <_ZN6Screen10Draw_WheelE5Wheelb+0x138>
				Char_wheel[0] = 0xAF;
    49f4:	8f ea       	ldi	r24, 0xAF	; 175
    49f6:	90 e0       	ldi	r25, 0x00	; 0
    49f8:	9a 83       	std	Y+2, r25	; 0x02
    49fa:	89 83       	std	Y+1, r24	; 0x01
				Char_wheel[1] = 0xB0;
    49fc:	80 eb       	ldi	r24, 0xB0	; 176
    49fe:	90 e0       	ldi	r25, 0x00	; 0
    4a00:	9c 83       	std	Y+4, r25	; 0x04
    4a02:	8b 83       	std	Y+3, r24	; 0x03
				Char_wheel[2] = 0xB1;
    4a04:	81 eb       	ldi	r24, 0xB1	; 177
    4a06:	90 e0       	ldi	r25, 0x00	; 0
    4a08:	9e 83       	std	Y+6, r25	; 0x06
    4a0a:	8d 83       	std	Y+5, r24	; 0x05
				Char_wheel[3] = 0xB2;
    4a0c:	82 eb       	ldi	r24, 0xB2	; 178
    4a0e:	90 e0       	ldi	r25, 0x00	; 0
    4a10:	98 87       	std	Y+8, r25	; 0x08
    4a12:	8f 83       	std	Y+7, r24	; 0x07
				Char_wheel[4] = 0xB3;
    4a14:	83 eb       	ldi	r24, 0xB3	; 179
    4a16:	90 e0       	ldi	r25, 0x00	; 0
    4a18:	9a 87       	std	Y+10, r25	; 0x0a
    4a1a:	89 87       	std	Y+9, r24	; 0x09
				Char_wheel[5] = 0xB4;
    4a1c:	84 eb       	ldi	r24, 0xB4	; 180
    4a1e:	90 e0       	ldi	r25, 0x00	; 0
    4a20:	9c 87       	std	Y+12, r25	; 0x0c
    4a22:	8b 87       	std	Y+11, r24	; 0x0b
    4a24:	d0 c0       	rjmp	.+416    	; 0x4bc6 <_ZN6Screen10Draw_WheelE5Wheelb+0x2d8>
			}else if (i_effects<20){
    4a26:	24 31       	cpi	r18, 0x14	; 20
    4a28:	31 05       	cpc	r19, r1
    4a2a:	cc f4       	brge	.+50     	; 0x4a5e <_ZN6Screen10Draw_WheelE5Wheelb+0x170>
				Char_wheel[0] = 0xB5;
    4a2c:	85 eb       	ldi	r24, 0xB5	; 181
    4a2e:	90 e0       	ldi	r25, 0x00	; 0
    4a30:	9a 83       	std	Y+2, r25	; 0x02
    4a32:	89 83       	std	Y+1, r24	; 0x01
				Char_wheel[1] = 0xB6;
    4a34:	86 eb       	ldi	r24, 0xB6	; 182
    4a36:	90 e0       	ldi	r25, 0x00	; 0
    4a38:	9c 83       	std	Y+4, r25	; 0x04
    4a3a:	8b 83       	std	Y+3, r24	; 0x03
				Char_wheel[2] = 0xB7;
    4a3c:	87 eb       	ldi	r24, 0xB7	; 183
    4a3e:	90 e0       	ldi	r25, 0x00	; 0
    4a40:	9e 83       	std	Y+6, r25	; 0x06
    4a42:	8d 83       	std	Y+5, r24	; 0x05
				Char_wheel[3] = 0xB8;
    4a44:	88 eb       	ldi	r24, 0xB8	; 184
    4a46:	90 e0       	ldi	r25, 0x00	; 0
    4a48:	98 87       	std	Y+8, r25	; 0x08
    4a4a:	8f 83       	std	Y+7, r24	; 0x07
				Char_wheel[4] = 0xB9;
    4a4c:	89 eb       	ldi	r24, 0xB9	; 185
    4a4e:	90 e0       	ldi	r25, 0x00	; 0
    4a50:	9a 87       	std	Y+10, r25	; 0x0a
    4a52:	89 87       	std	Y+9, r24	; 0x09
				Char_wheel[5] = 0xBA;
    4a54:	8a eb       	ldi	r24, 0xBA	; 186
    4a56:	90 e0       	ldi	r25, 0x00	; 0
    4a58:	9c 87       	std	Y+12, r25	; 0x0c
    4a5a:	8b 87       	std	Y+11, r24	; 0x0b
    4a5c:	b4 c0       	rjmp	.+360    	; 0x4bc6 <_ZN6Screen10Draw_WheelE5Wheelb+0x2d8>
			}else {
				Char_wheel[0] = 0xBB;
    4a5e:	8b eb       	ldi	r24, 0xBB	; 187
    4a60:	90 e0       	ldi	r25, 0x00	; 0
    4a62:	9a 83       	std	Y+2, r25	; 0x02
    4a64:	89 83       	std	Y+1, r24	; 0x01
				Char_wheel[1] = 0xBC;
    4a66:	8c eb       	ldi	r24, 0xBC	; 188
    4a68:	90 e0       	ldi	r25, 0x00	; 0
    4a6a:	9c 83       	std	Y+4, r25	; 0x04
    4a6c:	8b 83       	std	Y+3, r24	; 0x03
				Char_wheel[2] = 0xBD;
    4a6e:	8d eb       	ldi	r24, 0xBD	; 189
    4a70:	90 e0       	ldi	r25, 0x00	; 0
    4a72:	9e 83       	std	Y+6, r25	; 0x06
    4a74:	8d 83       	std	Y+5, r24	; 0x05
				Char_wheel[3] = 0xBE;
    4a76:	8e eb       	ldi	r24, 0xBE	; 190
    4a78:	90 e0       	ldi	r25, 0x00	; 0
    4a7a:	98 87       	std	Y+8, r25	; 0x08
    4a7c:	8f 83       	std	Y+7, r24	; 0x07
				Char_wheel[4] = 0xBF;
    4a7e:	8f eb       	ldi	r24, 0xBF	; 191
    4a80:	90 e0       	ldi	r25, 0x00	; 0
    4a82:	9a 87       	std	Y+10, r25	; 0x0a
    4a84:	89 87       	std	Y+9, r24	; 0x09
				Char_wheel[5] = 0xC0;
    4a86:	80 ec       	ldi	r24, 0xC0	; 192
    4a88:	90 e0       	ldi	r25, 0x00	; 0
    4a8a:	9c 87       	std	Y+12, r25	; 0x0c
    4a8c:	8b 87       	std	Y+11, r24	; 0x0b
    4a8e:	9b c0       	rjmp	.+310    	; 0x4bc6 <_ZN6Screen10Draw_WheelE5Wheelb+0x2d8>
			
		}
	}else{
	
		//not moving
		if(wheel.malfuction){
    4a90:	89 ad       	ldd	r24, Y+57	; 0x39
    4a92:	88 23       	and	r24, r24
    4a94:	a9 f1       	breq	.+106    	; 0x4b00 <_ZN6Screen10Draw_WheelE5Wheelb+0x212>
			if(wheel.selected){
    4a96:	88 ad       	ldd	r24, Y+56	; 0x38
    4a98:	88 23       	and	r24, r24
    4a9a:	c9 f0       	breq	.+50     	; 0x4ace <_ZN6Screen10Draw_WheelE5Wheelb+0x1e0>
				Char_wheel[0] = 0xA7;
    4a9c:	87 ea       	ldi	r24, 0xA7	; 167
    4a9e:	90 e0       	ldi	r25, 0x00	; 0
    4aa0:	9a 83       	std	Y+2, r25	; 0x02
    4aa2:	89 83       	std	Y+1, r24	; 0x01
				Char_wheel[1] = 0xA8;
    4aa4:	88 ea       	ldi	r24, 0xA8	; 168
    4aa6:	90 e0       	ldi	r25, 0x00	; 0
    4aa8:	9c 83       	std	Y+4, r25	; 0x04
    4aaa:	8b 83       	std	Y+3, r24	; 0x03
				Char_wheel[2] = 0xA9;
    4aac:	89 ea       	ldi	r24, 0xA9	; 169
    4aae:	90 e0       	ldi	r25, 0x00	; 0
    4ab0:	9e 83       	std	Y+6, r25	; 0x06
    4ab2:	8d 83       	std	Y+5, r24	; 0x05
				Char_wheel[3] = 0xAA;
    4ab4:	8a ea       	ldi	r24, 0xAA	; 170
    4ab6:	90 e0       	ldi	r25, 0x00	; 0
    4ab8:	98 87       	std	Y+8, r25	; 0x08
    4aba:	8f 83       	std	Y+7, r24	; 0x07
				Char_wheel[4] = 0xAB;
    4abc:	8b ea       	ldi	r24, 0xAB	; 171
    4abe:	90 e0       	ldi	r25, 0x00	; 0
    4ac0:	9a 87       	std	Y+10, r25	; 0x0a
    4ac2:	89 87       	std	Y+9, r24	; 0x09
				Char_wheel[5] = 0xAC;			
    4ac4:	8c ea       	ldi	r24, 0xAC	; 172
    4ac6:	90 e0       	ldi	r25, 0x00	; 0
    4ac8:	9c 87       	std	Y+12, r25	; 0x0c
    4aca:	8b 87       	std	Y+11, r24	; 0x0b
    4acc:	7c c0       	rjmp	.+248    	; 0x4bc6 <_ZN6Screen10Draw_WheelE5Wheelb+0x2d8>
			}else{
				Char_wheel[0] = 0x8C;
    4ace:	8c e8       	ldi	r24, 0x8C	; 140
    4ad0:	90 e0       	ldi	r25, 0x00	; 0
    4ad2:	9a 83       	std	Y+2, r25	; 0x02
    4ad4:	89 83       	std	Y+1, r24	; 0x01
				Char_wheel[1] = 0x8D;
    4ad6:	8d e8       	ldi	r24, 0x8D	; 141
    4ad8:	90 e0       	ldi	r25, 0x00	; 0
    4ada:	9c 83       	std	Y+4, r25	; 0x04
    4adc:	8b 83       	std	Y+3, r24	; 0x03
				Char_wheel[2] = 0x8E;
    4ade:	8e e8       	ldi	r24, 0x8E	; 142
    4ae0:	90 e0       	ldi	r25, 0x00	; 0
    4ae2:	9e 83       	std	Y+6, r25	; 0x06
    4ae4:	8d 83       	std	Y+5, r24	; 0x05
				Char_wheel[3] = 0x8F;
    4ae6:	8f e8       	ldi	r24, 0x8F	; 143
    4ae8:	90 e0       	ldi	r25, 0x00	; 0
    4aea:	98 87       	std	Y+8, r25	; 0x08
    4aec:	8f 83       	std	Y+7, r24	; 0x07
				Char_wheel[4] = 0x90;
    4aee:	80 e9       	ldi	r24, 0x90	; 144
    4af0:	90 e0       	ldi	r25, 0x00	; 0
    4af2:	9a 87       	std	Y+10, r25	; 0x0a
    4af4:	89 87       	std	Y+9, r24	; 0x09
				Char_wheel[5] = 0x91;
    4af6:	81 e9       	ldi	r24, 0x91	; 145
    4af8:	90 e0       	ldi	r25, 0x00	; 0
    4afa:	9c 87       	std	Y+12, r25	; 0x0c
    4afc:	8b 87       	std	Y+11, r24	; 0x0b
    4afe:	63 c0       	rjmp	.+198    	; 0x4bc6 <_ZN6Screen10Draw_WheelE5Wheelb+0x2d8>
			}
		} else if (wheel.selected){
    4b00:	88 ad       	ldd	r24, Y+56	; 0x38
    4b02:	88 23       	and	r24, r24
    4b04:	c9 f0       	breq	.+50     	; 0x4b38 <_ZN6Screen10Draw_WheelE5Wheelb+0x24a>
				Char_wheel[0] = 0x80;//;
    4b06:	80 e8       	ldi	r24, 0x80	; 128
    4b08:	90 e0       	ldi	r25, 0x00	; 0
    4b0a:	9a 83       	std	Y+2, r25	; 0x02
    4b0c:	89 83       	std	Y+1, r24	; 0x01
				Char_wheel[1] = 0x81;//;
    4b0e:	81 e8       	ldi	r24, 0x81	; 129
    4b10:	90 e0       	ldi	r25, 0x00	; 0
    4b12:	9c 83       	std	Y+4, r25	; 0x04
    4b14:	8b 83       	std	Y+3, r24	; 0x03
				Char_wheel[2] = 0x82;//;
    4b16:	82 e8       	ldi	r24, 0x82	; 130
    4b18:	90 e0       	ldi	r25, 0x00	; 0
    4b1a:	9e 83       	std	Y+6, r25	; 0x06
    4b1c:	8d 83       	std	Y+5, r24	; 0x05
				Char_wheel[3] = 0x83;//;
    4b1e:	83 e8       	ldi	r24, 0x83	; 131
    4b20:	90 e0       	ldi	r25, 0x00	; 0
    4b22:	98 87       	std	Y+8, r25	; 0x08
    4b24:	8f 83       	std	Y+7, r24	; 0x07
				Char_wheel[4] = 0x84;//;
    4b26:	84 e8       	ldi	r24, 0x84	; 132
    4b28:	90 e0       	ldi	r25, 0x00	; 0
    4b2a:	9a 87       	std	Y+10, r25	; 0x0a
    4b2c:	89 87       	std	Y+9, r24	; 0x09
				Char_wheel[5] = 0x85;//;
    4b2e:	85 e8       	ldi	r24, 0x85	; 133
    4b30:	90 e0       	ldi	r25, 0x00	; 0
    4b32:	9c 87       	std	Y+12, r25	; 0x0c
    4b34:	8b 87       	std	Y+11, r24	; 0x0b
    4b36:	47 c0       	rjmp	.+142    	; 0x4bc6 <_ZN6Screen10Draw_WheelE5Wheelb+0x2d8>
		} else {
			Char_wheel[0] = 0x86;
    4b38:	86 e8       	ldi	r24, 0x86	; 134
    4b3a:	90 e0       	ldi	r25, 0x00	; 0
    4b3c:	9a 83       	std	Y+2, r25	; 0x02
    4b3e:	89 83       	std	Y+1, r24	; 0x01
			Char_wheel[1] = 0x87;
    4b40:	87 e8       	ldi	r24, 0x87	; 135
    4b42:	90 e0       	ldi	r25, 0x00	; 0
    4b44:	9c 83       	std	Y+4, r25	; 0x04
    4b46:	8b 83       	std	Y+3, r24	; 0x03
			Char_wheel[2] = 0x88;
    4b48:	88 e8       	ldi	r24, 0x88	; 136
    4b4a:	90 e0       	ldi	r25, 0x00	; 0
    4b4c:	9e 83       	std	Y+6, r25	; 0x06
    4b4e:	8d 83       	std	Y+5, r24	; 0x05
			Char_wheel[3] = 0x89;
    4b50:	89 e8       	ldi	r24, 0x89	; 137
    4b52:	90 e0       	ldi	r25, 0x00	; 0
    4b54:	98 87       	std	Y+8, r25	; 0x08
    4b56:	8f 83       	std	Y+7, r24	; 0x07
			Char_wheel[4] = 0x8A;
    4b58:	8a e8       	ldi	r24, 0x8A	; 138
    4b5a:	90 e0       	ldi	r25, 0x00	; 0
    4b5c:	9a 87       	std	Y+10, r25	; 0x0a
    4b5e:	89 87       	std	Y+9, r24	; 0x09
			Char_wheel[5] = 0x8B;
    4b60:	8b e8       	ldi	r24, 0x8B	; 139
    4b62:	90 e0       	ldi	r25, 0x00	; 0
    4b64:	9c 87       	std	Y+12, r25	; 0x0c
    4b66:	8b 87       	std	Y+11, r24	; 0x0b
    4b68:	2e c0       	rjmp	.+92     	; 0x4bc6 <_ZN6Screen10Draw_WheelE5Wheelb+0x2d8>
		}
	}

	//draw wheel 2 symbols for cycle 
	for ( i = 0; i <= 4; i = i + 2 ){
		LcdGotoXY(pos_x, pos_y);
    4b6a:	61 2f       	mov	r22, r17
    4b6c:	8d 2d       	mov	r24, r13
    4b6e:	0e 94 e3 1a 	call	0x35c6	; 0x35c6 <_Z9LcdGotoXYhh>
		LcdChr_full(Char_wheel[i]);
    4b72:	f7 01       	movw	r30, r14
    4b74:	80 81       	ld	r24, Z
    4b76:	0e 94 fe 1a 	call	0x35fc	; 0x35fc <_Z11LcdChr_fullh>
		LcdGotoXY(pos_x + 1, pos_y);
    4b7a:	61 2f       	mov	r22, r17
    4b7c:	8b 2d       	mov	r24, r11
    4b7e:	0e 94 e3 1a 	call	0x35c6	; 0x35c6 <_Z9LcdGotoXYhh>
		LcdChr_full(Char_wheel[i+1]); 
    4b82:	f7 01       	movw	r30, r14
    4b84:	82 81       	ldd	r24, Z+2	; 0x02
    4b86:	0e 94 fe 1a 	call	0x35fc	; 0x35fc <_Z11LcdChr_fullh>
    4b8a:	1f 5f       	subi	r17, 0xFF	; 255
    4b8c:	f4 e0       	ldi	r31, 0x04	; 4
    4b8e:	ef 0e       	add	r14, r31
    4b90:	f1 1c       	adc	r15, r1
			Char_wheel[5] = 0x8B;
		}
	}

	//draw wheel 2 symbols for cycle 
	for ( i = 0; i <= 4; i = i + 2 ){
    4b92:	10 13       	cpse	r17, r16
    4b94:	ea cf       	rjmp	.-44     	; 0x4b6a <_ZN6Screen10Draw_WheelE5Wheelb+0x27c>
		pos_y ++;
	}
	float hight = wheel.sethight;
	//Lcd_printf2(hight_pos_x, hight_pos_y-1, FONT_1X, hight, 2);
	//print hight wheel	
	hight = wheel.get_hight();	
    4b96:	ce 01       	movw	r24, r28
    4b98:	49 96       	adiw	r24, 0x19	; 25
    4b9a:	0e 94 84 2b 	call	0x5708	; 0x5708 <_ZN5Wheel9get_hightEv>
    4b9e:	8b 01       	movw	r16, r22
    4ba0:	9c 01       	movw	r18, r24
	Lcd_printf2(hight_pos_x, hight_pos_y, FONT_1X, hight, 2);	
    4ba2:	68 94       	set
    4ba4:	ee 24       	eor	r14, r14
    4ba6:	e1 f8       	bld	r14, 1
    4ba8:	f1 2c       	mov	r15, r1
    4baa:	41 e0       	ldi	r20, 0x01	; 1
    4bac:	6c 2d       	mov	r22, r12
    4bae:	8a 2d       	mov	r24, r10
    4bb0:	0e 94 92 1c 	call	0x3924	; 0x3924 <_Z11Lcd_printf2hh11LcdFontSizefi>
	//print point
	LcdGotoXY(hight_pos_x , hight_pos_y + 1 );
    4bb4:	61 e0       	ldi	r22, 0x01	; 1
    4bb6:	6c 0d       	add	r22, r12
    4bb8:	8a 2d       	mov	r24, r10
    4bba:	0e 94 e3 1a 	call	0x35c6	; 0x35c6 <_Z9LcdGotoXYhh>
	LcdChr_full(0xA0);	
    4bbe:	80 ea       	ldi	r24, 0xA0	; 160
    4bc0:	0e 94 fe 1a 	call	0x35fc	; 0x35fc <_Z11LcdChr_fullh>
}
    4bc4:	09 c0       	rjmp	.+18     	; 0x4bd8 <_ZN6Screen10Draw_WheelE5Wheelb+0x2ea>
    4bc6:	10 2f       	mov	r17, r16
    4bc8:	ce 01       	movw	r24, r28
    4bca:	01 96       	adiw	r24, 0x01	; 1
    4bcc:	7c 01       	movw	r14, r24
    4bce:	0d 5f       	subi	r16, 0xFD	; 253

	//draw wheel 2 symbols for cycle 
	for ( i = 0; i <= 4; i = i + 2 ){
		LcdGotoXY(pos_x, pos_y);
		LcdChr_full(Char_wheel[i]);
		LcdGotoXY(pos_x + 1, pos_y);
    4bd0:	bb 24       	eor	r11, r11
    4bd2:	b3 94       	inc	r11
    4bd4:	bd 0c       	add	r11, r13
    4bd6:	c9 cf       	rjmp	.-110    	; 0x4b6a <_ZN6Screen10Draw_WheelE5Wheelb+0x27c>
	hight = wheel.get_hight();	
	Lcd_printf2(hight_pos_x, hight_pos_y, FONT_1X, hight, 2);	
	//print point
	LcdGotoXY(hight_pos_x , hight_pos_y + 1 );
	LcdChr_full(0xA0);	
}
    4bd8:	2c 96       	adiw	r28, 0x0c	; 12
    4bda:	0f b6       	in	r0, 0x3f	; 63
    4bdc:	f8 94       	cli
    4bde:	de bf       	out	0x3e, r29	; 62
    4be0:	0f be       	out	0x3f, r0	; 63
    4be2:	cd bf       	out	0x3d, r28	; 61
    4be4:	df 91       	pop	r29
    4be6:	cf 91       	pop	r28
    4be8:	1f 91       	pop	r17
    4bea:	0f 91       	pop	r16
    4bec:	ff 90       	pop	r15
    4bee:	ef 90       	pop	r14
    4bf0:	df 90       	pop	r13
    4bf2:	cf 90       	pop	r12
    4bf4:	bf 90       	pop	r11
    4bf6:	af 90       	pop	r10
    4bf8:	08 95       	ret

00004bfa <_ZN6Screen12Draw_CarrageER7Carrage>:
	};
}



void Screen::Draw_Carrage(Carrage &carrage){
    4bfa:	ef 92       	push	r14
    4bfc:	ff 92       	push	r15
    4bfe:	0f 93       	push	r16
    4c00:	1f 93       	push	r17
    4c02:	cf 93       	push	r28
    4c04:	df 93       	push	r29
    4c06:	8c 01       	movw	r16, r24
	
	Draw_Wheel(carrage.Wheel_1, carrage.caragemove);
    4c08:	7b 01       	movw	r14, r22
    4c0a:	8a ee       	ldi	r24, 0xEA	; 234
    4c0c:	e8 0e       	add	r14, r24
    4c0e:	f1 1c       	adc	r15, r1
    4c10:	f7 01       	movw	r30, r14
    4c12:	80 81       	ld	r24, Z
    4c14:	8f 93       	push	r24
    4c16:	8d b7       	in	r24, 0x3d	; 61
    4c18:	9e b7       	in	r25, 0x3e	; 62
    4c1a:	c2 97       	sbiw	r24, 0x32	; 50
    4c1c:	0f b6       	in	r0, 0x3f	; 63
    4c1e:	f8 94       	cli
    4c20:	9e bf       	out	0x3e, r25	; 62
    4c22:	0f be       	out	0x3f, r0	; 63
    4c24:	8d bf       	out	0x3d, r24	; 61
    4c26:	ad b7       	in	r26, 0x3d	; 61
    4c28:	be b7       	in	r27, 0x3e	; 62
    4c2a:	11 96       	adiw	r26, 0x01	; 1
    4c2c:	82 e3       	ldi	r24, 0x32	; 50
    4c2e:	fb 01       	movw	r30, r22
    4c30:	01 90       	ld	r0, Z+
    4c32:	0d 92       	st	X+, r0
    4c34:	8a 95       	dec	r24
    4c36:	e1 f7       	brne	.-8      	; 0x4c30 <_ZN6Screen12Draw_CarrageER7Carrage+0x36>
    4c38:	c8 01       	movw	r24, r16
    4c3a:	0e 94 77 24 	call	0x48ee	; 0x48ee <_ZN6Screen10Draw_WheelE5Wheelb>
	Draw_Wheel(carrage.Wheel_2, carrage.caragemove);
    4c3e:	ed b7       	in	r30, 0x3d	; 61
    4c40:	fe b7       	in	r31, 0x3e	; 62
    4c42:	f3 96       	adiw	r30, 0x33	; 51
    4c44:	0f b6       	in	r0, 0x3f	; 63
    4c46:	f8 94       	cli
    4c48:	fe bf       	out	0x3e, r31	; 62
    4c4a:	0f be       	out	0x3f, r0	; 63
    4c4c:	ed bf       	out	0x3d, r30	; 61
    4c4e:	f7 01       	movw	r30, r14
    4c50:	80 81       	ld	r24, Z
    4c52:	8f 93       	push	r24
    4c54:	8d b7       	in	r24, 0x3d	; 61
    4c56:	9e b7       	in	r25, 0x3e	; 62
    4c58:	c2 97       	sbiw	r24, 0x32	; 50
    4c5a:	0f b6       	in	r0, 0x3f	; 63
    4c5c:	f8 94       	cli
    4c5e:	9e bf       	out	0x3e, r25	; 62
    4c60:	0f be       	out	0x3f, r0	; 63
    4c62:	8d bf       	out	0x3d, r24	; 61
    4c64:	ad b7       	in	r26, 0x3d	; 61
    4c66:	be b7       	in	r27, 0x3e	; 62
    4c68:	11 96       	adiw	r26, 0x01	; 1
    4c6a:	82 e3       	ldi	r24, 0x32	; 50
    4c6c:	e8 5b       	subi	r30, 0xB8	; 184
    4c6e:	f1 09       	sbc	r31, r1
    4c70:	01 90       	ld	r0, Z+
    4c72:	0d 92       	st	X+, r0
    4c74:	8a 95       	dec	r24
    4c76:	e1 f7       	brne	.-8      	; 0x4c70 <_ZN6Screen12Draw_CarrageER7Carrage+0x76>
    4c78:	c8 01       	movw	r24, r16
    4c7a:	0e 94 77 24 	call	0x48ee	; 0x48ee <_ZN6Screen10Draw_WheelE5Wheelb>
	Draw_Wheel(carrage.Wheel_3, carrage.caragemove);
    4c7e:	ed b7       	in	r30, 0x3d	; 61
    4c80:	fe b7       	in	r31, 0x3e	; 62
    4c82:	f3 96       	adiw	r30, 0x33	; 51
    4c84:	0f b6       	in	r0, 0x3f	; 63
    4c86:	f8 94       	cli
    4c88:	fe bf       	out	0x3e, r31	; 62
    4c8a:	0f be       	out	0x3f, r0	; 63
    4c8c:	ed bf       	out	0x3d, r30	; 61
    4c8e:	f7 01       	movw	r30, r14
    4c90:	80 81       	ld	r24, Z
    4c92:	8f 93       	push	r24
    4c94:	e6 58       	subi	r30, 0x86	; 134
    4c96:	f1 09       	sbc	r31, r1
    4c98:	8d b7       	in	r24, 0x3d	; 61
    4c9a:	9e b7       	in	r25, 0x3e	; 62
    4c9c:	c2 97       	sbiw	r24, 0x32	; 50
    4c9e:	0f b6       	in	r0, 0x3f	; 63
    4ca0:	f8 94       	cli
    4ca2:	9e bf       	out	0x3e, r25	; 62
    4ca4:	0f be       	out	0x3f, r0	; 63
    4ca6:	8d bf       	out	0x3d, r24	; 61
    4ca8:	ad b7       	in	r26, 0x3d	; 61
    4caa:	be b7       	in	r27, 0x3e	; 62
    4cac:	11 96       	adiw	r26, 0x01	; 1
    4cae:	82 e3       	ldi	r24, 0x32	; 50
    4cb0:	01 90       	ld	r0, Z+
    4cb2:	0d 92       	st	X+, r0
    4cb4:	8a 95       	dec	r24
    4cb6:	e1 f7       	brne	.-8      	; 0x4cb0 <_ZN6Screen12Draw_CarrageER7Carrage+0xb6>
    4cb8:	c8 01       	movw	r24, r16
    4cba:	0e 94 77 24 	call	0x48ee	; 0x48ee <_ZN6Screen10Draw_WheelE5Wheelb>
	Draw_Wheel(carrage.Wheel_4, carrage.caragemove);
    4cbe:	ed b7       	in	r30, 0x3d	; 61
    4cc0:	fe b7       	in	r31, 0x3e	; 62
    4cc2:	f3 96       	adiw	r30, 0x33	; 51
    4cc4:	0f b6       	in	r0, 0x3f	; 63
    4cc6:	f8 94       	cli
    4cc8:	fe bf       	out	0x3e, r31	; 62
    4cca:	0f be       	out	0x3f, r0	; 63
    4ccc:	ed bf       	out	0x3d, r30	; 61
    4cce:	f7 01       	movw	r30, r14
    4cd0:	80 81       	ld	r24, Z
    4cd2:	8f 93       	push	r24
    4cd4:	e4 55       	subi	r30, 0x54	; 84
    4cd6:	f1 09       	sbc	r31, r1
    4cd8:	8d b7       	in	r24, 0x3d	; 61
    4cda:	9e b7       	in	r25, 0x3e	; 62
    4cdc:	c2 97       	sbiw	r24, 0x32	; 50
    4cde:	0f b6       	in	r0, 0x3f	; 63
    4ce0:	f8 94       	cli
    4ce2:	9e bf       	out	0x3e, r25	; 62
    4ce4:	0f be       	out	0x3f, r0	; 63
    4ce6:	8d bf       	out	0x3d, r24	; 61
    4ce8:	ad b7       	in	r26, 0x3d	; 61
    4cea:	be b7       	in	r27, 0x3e	; 62
    4cec:	11 96       	adiw	r26, 0x01	; 1
    4cee:	82 e3       	ldi	r24, 0x32	; 50
    4cf0:	01 90       	ld	r0, Z+
    4cf2:	0d 92       	st	X+, r0
    4cf4:	8a 95       	dec	r24
    4cf6:	e1 f7       	brne	.-8      	; 0x4cf0 <_ZN6Screen12Draw_CarrageER7Carrage+0xf6>
    4cf8:	c8 01       	movw	r24, r16
    4cfa:	0e 94 77 24 	call	0x48ee	; 0x48ee <_ZN6Screen10Draw_WheelE5Wheelb>
}
    4cfe:	ed b7       	in	r30, 0x3d	; 61
    4d00:	fe b7       	in	r31, 0x3e	; 62
    4d02:	f3 96       	adiw	r30, 0x33	; 51
    4d04:	0f b6       	in	r0, 0x3f	; 63
    4d06:	f8 94       	cli
    4d08:	fe bf       	out	0x3e, r31	; 62
    4d0a:	0f be       	out	0x3f, r0	; 63
    4d0c:	ed bf       	out	0x3d, r30	; 61
    4d0e:	df 91       	pop	r29
    4d10:	cf 91       	pop	r28
    4d12:	1f 91       	pop	r17
    4d14:	0f 91       	pop	r16
    4d16:	ff 90       	pop	r15
    4d18:	ef 90       	pop	r14
    4d1a:	08 95       	ret

00004d1c <_ZN6Screen23Draw_adjustment_carrageER8Activity>:
	LcdChr_full(0xA0);	
}

void Screen::Draw_adjustment_carrage(Activity &activity){
	int statment = activity.Statment;
	if (statment == SCREEN_ADJUST){
    4d1c:	fb 01       	movw	r30, r22
    4d1e:	80 81       	ld	r24, Z
    4d20:	82 30       	cpi	r24, 0x02	; 2
    4d22:	e9 f4       	brne	.+58     	; 0x4d5e <_ZN6Screen23Draw_adjustment_carrageER8Activity+0x42>
		LcdGotoXY(6,2);
    4d24:	62 e0       	ldi	r22, 0x02	; 2
    4d26:	86 e0       	ldi	r24, 0x06	; 6
    4d28:	0e 94 e3 1a 	call	0x35c6	; 0x35c6 <_Z9LcdGotoXYhh>
		LcdChr_full(0x96);
    4d2c:	86 e9       	ldi	r24, 0x96	; 150
    4d2e:	0e 94 fe 1a 	call	0x35fc	; 0x35fc <_Z11LcdChr_fullh>
		LcdGotoXY(7,2);
    4d32:	62 e0       	ldi	r22, 0x02	; 2
    4d34:	87 e0       	ldi	r24, 0x07	; 7
    4d36:	0e 94 e3 1a 	call	0x35c6	; 0x35c6 <_Z9LcdGotoXYhh>
		LcdChr_full(0x97);
    4d3a:	87 e9       	ldi	r24, 0x97	; 151
    4d3c:	0e 94 fe 1a 	call	0x35fc	; 0x35fc <_Z11LcdChr_fullh>
		LcdGotoXY(6,3);
    4d40:	63 e0       	ldi	r22, 0x03	; 3
    4d42:	86 e0       	ldi	r24, 0x06	; 6
    4d44:	0e 94 e3 1a 	call	0x35c6	; 0x35c6 <_Z9LcdGotoXYhh>
		LcdChr_full(0x98);
    4d48:	88 e9       	ldi	r24, 0x98	; 152
    4d4a:	0e 94 fe 1a 	call	0x35fc	; 0x35fc <_Z11LcdChr_fullh>
		LcdGotoXY(7,3);
    4d4e:	63 e0       	ldi	r22, 0x03	; 3
    4d50:	87 e0       	ldi	r24, 0x07	; 7
    4d52:	0e 94 e3 1a 	call	0x35c6	; 0x35c6 <_Z9LcdGotoXYhh>
		LcdChr_full(0x99);
    4d56:	89 e9       	ldi	r24, 0x99	; 153
    4d58:	0e 94 fe 1a 	call	0x35fc	; 0x35fc <_Z11LcdChr_fullh>
    4d5c:	08 95       	ret
	} else {
		LcdGotoXY(6,2);
    4d5e:	62 e0       	ldi	r22, 0x02	; 2
    4d60:	86 e0       	ldi	r24, 0x06	; 6
    4d62:	0e 94 e3 1a 	call	0x35c6	; 0x35c6 <_Z9LcdGotoXYhh>
		LcdChr_full(0x92);
    4d66:	82 e9       	ldi	r24, 0x92	; 146
    4d68:	0e 94 fe 1a 	call	0x35fc	; 0x35fc <_Z11LcdChr_fullh>
		LcdGotoXY(7,2);
    4d6c:	62 e0       	ldi	r22, 0x02	; 2
    4d6e:	87 e0       	ldi	r24, 0x07	; 7
    4d70:	0e 94 e3 1a 	call	0x35c6	; 0x35c6 <_Z9LcdGotoXYhh>
		LcdChr_full(0x93);
    4d74:	83 e9       	ldi	r24, 0x93	; 147
    4d76:	0e 94 fe 1a 	call	0x35fc	; 0x35fc <_Z11LcdChr_fullh>
		LcdGotoXY(6,3);
    4d7a:	63 e0       	ldi	r22, 0x03	; 3
    4d7c:	86 e0       	ldi	r24, 0x06	; 6
    4d7e:	0e 94 e3 1a 	call	0x35c6	; 0x35c6 <_Z9LcdGotoXYhh>
		LcdChr_full(0x94);
    4d82:	84 e9       	ldi	r24, 0x94	; 148
    4d84:	0e 94 fe 1a 	call	0x35fc	; 0x35fc <_Z11LcdChr_fullh>
		LcdGotoXY(7,3);
    4d88:	63 e0       	ldi	r22, 0x03	; 3
    4d8a:	87 e0       	ldi	r24, 0x07	; 7
    4d8c:	0e 94 e3 1a 	call	0x35c6	; 0x35c6 <_Z9LcdGotoXYhh>
		LcdChr_full(0x95);
    4d90:	85 e9       	ldi	r24, 0x95	; 149
    4d92:	0e 94 fe 1a 	call	0x35fc	; 0x35fc <_Z11LcdChr_fullh>
    4d96:	08 95       	ret

00004d98 <_ZN6Screen21Draw_CursorMenuScreenER8Activity>:
	
}

void Screen::Draw_CursorMenuScreen(Activity &activity){
	//LcdGotoXY(0,1);LcdChr_full(0x9B);
	switch(activity.Cursor){
    4d98:	db 01       	movw	r26, r22
    4d9a:	17 96       	adiw	r26, 0x07	; 7
    4d9c:	ec 91       	ld	r30, X
    4d9e:	8e 2f       	mov	r24, r30
    4da0:	90 e0       	ldi	r25, 0x00	; 0
    4da2:	81 31       	cpi	r24, 0x11	; 17
    4da4:	91 05       	cpc	r25, r1
    4da6:	08 f0       	brcs	.+2      	; 0x4daa <_ZN6Screen21Draw_CursorMenuScreenER8Activity+0x12>
    4da8:	8c c0       	rjmp	.+280    	; 0x4ec2 <_ZN6Screen21Draw_CursorMenuScreenER8Activity+0x12a>
    4daa:	fc 01       	movw	r30, r24
    4dac:	ef 5a       	subi	r30, 0xAF	; 175
    4dae:	ff 4f       	sbci	r31, 0xFF	; 255
    4db0:	0c 94 e4 30 	jmp	0x61c8	; 0x61c8 <__tablejump2__>
		case(SETPOSITION):LcdGotoXY(0,1);LcdChr_full(0x9B);break;
    4db4:	61 e0       	ldi	r22, 0x01	; 1
    4db6:	80 e0       	ldi	r24, 0x00	; 0
    4db8:	0e 94 e3 1a 	call	0x35c6	; 0x35c6 <_Z9LcdGotoXYhh>
    4dbc:	8b e9       	ldi	r24, 0x9B	; 155
    4dbe:	0e 94 fe 1a 	call	0x35fc	; 0x35fc <_Z11LcdChr_fullh>
    4dc2:	08 95       	ret
		case(SAVE):LcdGotoXY(0,2);LcdChr_full(0x9B);break;
    4dc4:	62 e0       	ldi	r22, 0x02	; 2
    4dc6:	80 e0       	ldi	r24, 0x00	; 0
    4dc8:	0e 94 e3 1a 	call	0x35c6	; 0x35c6 <_Z9LcdGotoXYhh>
    4dcc:	8b e9       	ldi	r24, 0x9B	; 155
    4dce:	0e 94 fe 1a 	call	0x35fc	; 0x35fc <_Z11LcdChr_fullh>
    4dd2:	08 95       	ret
		case(SETTINGS):LcdGotoXY(0,3);LcdChr_full(0x9B);break;
    4dd4:	63 e0       	ldi	r22, 0x03	; 3
    4dd6:	80 e0       	ldi	r24, 0x00	; 0
    4dd8:	0e 94 e3 1a 	call	0x35c6	; 0x35c6 <_Z9LcdGotoXYhh>
    4ddc:	8b e9       	ldi	r24, 0x9B	; 155
    4dde:	0e 94 fe 1a 	call	0x35fc	; 0x35fc <_Z11LcdChr_fullh>
    4de2:	08 95       	ret
		case(EXIT_1):LcdGotoXY(0,4);LcdChr_full(0x9B);break;
    4de4:	64 e0       	ldi	r22, 0x04	; 4
    4de6:	80 e0       	ldi	r24, 0x00	; 0
    4de8:	0e 94 e3 1a 	call	0x35c6	; 0x35c6 <_Z9LcdGotoXYhh>
    4dec:	8b e9       	ldi	r24, 0x9B	; 155
    4dee:	0e 94 fe 1a 	call	0x35fc	; 0x35fc <_Z11LcdChr_fullh>
    4df2:	08 95       	ret
		
		case(PARKING_SAVE):LcdGotoXY(0,1);LcdChr_full(0x9B);break;
    4df4:	61 e0       	ldi	r22, 0x01	; 1
    4df6:	80 e0       	ldi	r24, 0x00	; 0
    4df8:	0e 94 e3 1a 	call	0x35c6	; 0x35c6 <_Z9LcdGotoXYhh>
    4dfc:	8b e9       	ldi	r24, 0x9B	; 155
    4dfe:	0e 94 fe 1a 	call	0x35fc	; 0x35fc <_Z11LcdChr_fullh>
    4e02:	08 95       	ret
		case(HIGHTPOSITION_SAVE):LcdGotoXY(0,2);LcdChr_full(0x9B);break;
    4e04:	62 e0       	ldi	r22, 0x02	; 2
    4e06:	80 e0       	ldi	r24, 0x00	; 0
    4e08:	0e 94 e3 1a 	call	0x35c6	; 0x35c6 <_Z9LcdGotoXYhh>
    4e0c:	8b e9       	ldi	r24, 0x9B	; 155
    4e0e:	0e 94 fe 1a 	call	0x35fc	; 0x35fc <_Z11LcdChr_fullh>
    4e12:	08 95       	ret
		case(EXIT_SAVE):LcdGotoXY(0,4);LcdChr_full(0x9B);break;
    4e14:	64 e0       	ldi	r22, 0x04	; 4
    4e16:	80 e0       	ldi	r24, 0x00	; 0
    4e18:	0e 94 e3 1a 	call	0x35c6	; 0x35c6 <_Z9LcdGotoXYhh>
    4e1c:	8b e9       	ldi	r24, 0x9B	; 155
    4e1e:	0e 94 fe 1a 	call	0x35fc	; 0x35fc <_Z11LcdChr_fullh>
    4e22:	08 95       	ret
		case(LOWPOSITION_SAVE):LcdGotoXY(0,3);LcdChr_full(0x9B);break;
    4e24:	63 e0       	ldi	r22, 0x03	; 3
    4e26:	80 e0       	ldi	r24, 0x00	; 0
    4e28:	0e 94 e3 1a 	call	0x35c6	; 0x35c6 <_Z9LcdGotoXYhh>
    4e2c:	8b e9       	ldi	r24, 0x9B	; 155
    4e2e:	0e 94 fe 1a 	call	0x35fc	; 0x35fc <_Z11LcdChr_fullh>
    4e32:	08 95       	ret
		
		case(PARKING_SET):LcdGotoXY(0,1);LcdChr_full(0x9B);break;
    4e34:	61 e0       	ldi	r22, 0x01	; 1
    4e36:	80 e0       	ldi	r24, 0x00	; 0
    4e38:	0e 94 e3 1a 	call	0x35c6	; 0x35c6 <_Z9LcdGotoXYhh>
    4e3c:	8b e9       	ldi	r24, 0x9B	; 155
    4e3e:	0e 94 fe 1a 	call	0x35fc	; 0x35fc <_Z11LcdChr_fullh>
    4e42:	08 95       	ret
		case(HIGHTPOSITION_SET):LcdGotoXY(0,2);LcdChr_full(0x9B);break;
    4e44:	62 e0       	ldi	r22, 0x02	; 2
    4e46:	80 e0       	ldi	r24, 0x00	; 0
    4e48:	0e 94 e3 1a 	call	0x35c6	; 0x35c6 <_Z9LcdGotoXYhh>
    4e4c:	8b e9       	ldi	r24, 0x9B	; 155
    4e4e:	0e 94 fe 1a 	call	0x35fc	; 0x35fc <_Z11LcdChr_fullh>
    4e52:	08 95       	ret
		case(LOWPOSITION_SET):LcdGotoXY(0,3);LcdChr_full(0x9B);break;
    4e54:	63 e0       	ldi	r22, 0x03	; 3
    4e56:	80 e0       	ldi	r24, 0x00	; 0
    4e58:	0e 94 e3 1a 	call	0x35c6	; 0x35c6 <_Z9LcdGotoXYhh>
    4e5c:	8b e9       	ldi	r24, 0x9B	; 155
    4e5e:	0e 94 fe 1a 	call	0x35fc	; 0x35fc <_Z11LcdChr_fullh>
    4e62:	08 95       	ret
		case(EXIT_SET):LcdGotoXY(0,4);LcdChr_full(0x9B);break;
    4e64:	64 e0       	ldi	r22, 0x04	; 4
    4e66:	80 e0       	ldi	r24, 0x00	; 0
    4e68:	0e 94 e3 1a 	call	0x35c6	; 0x35c6 <_Z9LcdGotoXYhh>
    4e6c:	8b e9       	ldi	r24, 0x9B	; 155
    4e6e:	0e 94 fe 1a 	call	0x35fc	; 0x35fc <_Z11LcdChr_fullh>
    4e72:	08 95       	ret
		
		case(SETTINGS_TUNING):LcdGotoXY(0,1);LcdChr_full(0x9B);break;
    4e74:	61 e0       	ldi	r22, 0x01	; 1
    4e76:	80 e0       	ldi	r24, 0x00	; 0
    4e78:	0e 94 e3 1a 	call	0x35c6	; 0x35c6 <_Z9LcdGotoXYhh>
    4e7c:	8b e9       	ldi	r24, 0x9B	; 155
    4e7e:	0e 94 fe 1a 	call	0x35fc	; 0x35fc <_Z11LcdChr_fullh>
    4e82:	08 95       	ret
		case(SETTINGS_LIMITS):LcdGotoXY(0,2);LcdChr_full(0x9B);break;
    4e84:	62 e0       	ldi	r22, 0x02	; 2
    4e86:	80 e0       	ldi	r24, 0x00	; 0
    4e88:	0e 94 e3 1a 	call	0x35c6	; 0x35c6 <_Z9LcdGotoXYhh>
    4e8c:	8b e9       	ldi	r24, 0x9B	; 155
    4e8e:	0e 94 fe 1a 	call	0x35fc	; 0x35fc <_Z11LcdChr_fullh>
    4e92:	08 95       	ret
		case(SETTINGS_TEST_MALFACTION):LcdGotoXY(0,3);LcdChr_full(0x9B);break;
    4e94:	63 e0       	ldi	r22, 0x03	; 3
    4e96:	80 e0       	ldi	r24, 0x00	; 0
    4e98:	0e 94 e3 1a 	call	0x35c6	; 0x35c6 <_Z9LcdGotoXYhh>
    4e9c:	8b e9       	ldi	r24, 0x9B	; 155
    4e9e:	0e 94 fe 1a 	call	0x35fc	; 0x35fc <_Z11LcdChr_fullh>
    4ea2:	08 95       	ret
		case(SETTINGS_RESET_ERRORS):LcdGotoXY(0,4);LcdChr_full(0x9B);break;
    4ea4:	64 e0       	ldi	r22, 0x04	; 4
    4ea6:	80 e0       	ldi	r24, 0x00	; 0
    4ea8:	0e 94 e3 1a 	call	0x35c6	; 0x35c6 <_Z9LcdGotoXYhh>
    4eac:	8b e9       	ldi	r24, 0x9B	; 155
    4eae:	0e 94 fe 1a 	call	0x35fc	; 0x35fc <_Z11LcdChr_fullh>
    4eb2:	08 95       	ret
		case(SETTINGS_LCD):LcdGotoXY(0,5);LcdChr_full(0x9B);break;
    4eb4:	65 e0       	ldi	r22, 0x05	; 5
    4eb6:	80 e0       	ldi	r24, 0x00	; 0
    4eb8:	0e 94 e3 1a 	call	0x35c6	; 0x35c6 <_Z9LcdGotoXYhh>
    4ebc:	8b e9       	ldi	r24, 0x9B	; 155
    4ebe:	0e 94 fe 1a 	call	0x35fc	; 0x35fc <_Z11LcdChr_fullh>
    4ec2:	08 95       	ret

00004ec4 <_ZN6Screen11Render_menuER8ActivityR7Carrage>:
	Draw_CursorMainScreen(activity);	
	Print_Step_Value(activity);
	
}

void Screen::Render_menu(Activity &activity, Carrage &carrage){
    4ec4:	0f 93       	push	r16
    4ec6:	1f 93       	push	r17
    4ec8:	cf 93       	push	r28
    4eca:	df 93       	push	r29
    4ecc:	ec 01       	movw	r28, r24
    4ece:	8b 01       	movw	r16, r22
	PrintTitle(activity,carrage);
    4ed0:	0e 94 e4 1e 	call	0x3dc8	; 0x3dc8 <_ZN6Screen10PrintTitleER8ActivityR7Carrage>
	Draw_CursorMenuScreen(activity);
    4ed4:	b8 01       	movw	r22, r16
    4ed6:	ce 01       	movw	r24, r28
    4ed8:	0e 94 cc 26 	call	0x4d98	; 0x4d98 <_ZN6Screen21Draw_CursorMenuScreenER8Activity>
}
    4edc:	df 91       	pop	r29
    4ede:	cf 91       	pop	r28
    4ee0:	1f 91       	pop	r17
    4ee2:	0f 91       	pop	r16
    4ee4:	08 95       	ret

00004ee6 <_ZN6Screen16Print_Step_ValueER8Activity>:
		case(SETTINGS_RESET_ERRORS):LcdGotoXY(0,4);LcdChr_full(0x9B);break;
		case(SETTINGS_LCD):LcdGotoXY(0,5);LcdChr_full(0x9B);break;
	}
}

bool Screen::Print_Step_Value(Activity &activity){
    4ee6:	ef 92       	push	r14
    4ee8:	ff 92       	push	r15
    4eea:	0f 93       	push	r16
    4eec:	1f 93       	push	r17
    4eee:	cf 93       	push	r28
    4ef0:	df 93       	push	r29
	if (activity.Statment != SCREEN_ADJUST ){return false;}
    4ef2:	fb 01       	movw	r30, r22
    4ef4:	80 81       	ld	r24, Z
    4ef6:	82 30       	cpi	r24, 0x02	; 2
    4ef8:	11 f0       	breq	.+4      	; 0x4efe <_ZN6Screen16Print_Step_ValueER8Activity+0x18>
    4efa:	80 e0       	ldi	r24, 0x00	; 0
    4efc:	16 c0       	rjmp	.+44     	; 0x4f2a <_ZN6Screen16Print_Step_ValueER8Activity+0x44>
    4efe:	eb 01       	movw	r28, r22
	float step = activity.Get_val_step();
    4f00:	cb 01       	movw	r24, r22
    4f02:	0e 94 15 0d 	call	0x1a2a	; 0x1a2a <_ZN8Activity12Get_val_stepEv>
    4f06:	8b 01       	movw	r16, r22
    4f08:	9c 01       	movw	r18, r24
	Lcd_printf(5, 1, FONT_1X, step , 2);
    4f0a:	68 94       	set
    4f0c:	ee 24       	eor	r14, r14
    4f0e:	e1 f8       	bld	r14, 1
    4f10:	f1 2c       	mov	r15, r1
    4f12:	41 e0       	ldi	r20, 0x01	; 1
    4f14:	61 e0       	ldi	r22, 0x01	; 1
    4f16:	85 e0       	ldi	r24, 0x05	; 5
    4f18:	0e 94 75 1c 	call	0x38ea	; 0x38ea <_Z10Lcd_printfhh11LcdFontSizefi>
	//
	LcdGotoXY(5 , 4 );
    4f1c:	64 e0       	ldi	r22, 0x04	; 4
    4f1e:	85 e0       	ldi	r24, 0x05	; 5
    4f20:	0e 94 e3 1a 	call	0x35c6	; 0x35c6 <_Z9LcdGotoXYhh>
	LcdStepLevel(activity.Step);
    4f24:	89 81       	ldd	r24, Y+1	; 0x01
    4f26:	0e 94 28 1b 	call	0x3650	; 0x3650 <_Z12LcdStepLevelh>
	
}
    4f2a:	df 91       	pop	r29
    4f2c:	cf 91       	pop	r28
    4f2e:	1f 91       	pop	r17
    4f30:	0f 91       	pop	r16
    4f32:	ff 90       	pop	r15
    4f34:	ef 90       	pop	r14
    4f36:	08 95       	ret

00004f38 <_ZN6Screen21Draw_all_cursor_wheelEv>:

bool Screen::Draw_all_cursor_wheel(){
	LcdGotoXY(5,1);LcdChr_full(0x9A);
    4f38:	61 e0       	ldi	r22, 0x01	; 1
    4f3a:	85 e0       	ldi	r24, 0x05	; 5
    4f3c:	0e 94 e3 1a 	call	0x35c6	; 0x35c6 <_Z9LcdGotoXYhh>
    4f40:	8a e9       	ldi	r24, 0x9A	; 154
    4f42:	0e 94 fe 1a 	call	0x35fc	; 0x35fc <_Z11LcdChr_fullh>
	LcdGotoXY(5,4);LcdChr_full(0x9A);
    4f46:	64 e0       	ldi	r22, 0x04	; 4
    4f48:	85 e0       	ldi	r24, 0x05	; 5
    4f4a:	0e 94 e3 1a 	call	0x35c6	; 0x35c6 <_Z9LcdGotoXYhh>
    4f4e:	8a e9       	ldi	r24, 0x9A	; 154
    4f50:	0e 94 fe 1a 	call	0x35fc	; 0x35fc <_Z11LcdChr_fullh>
	LcdGotoXY(8,1);LcdChr_full(0x9B);
    4f54:	61 e0       	ldi	r22, 0x01	; 1
    4f56:	88 e0       	ldi	r24, 0x08	; 8
    4f58:	0e 94 e3 1a 	call	0x35c6	; 0x35c6 <_Z9LcdGotoXYhh>
    4f5c:	8b e9       	ldi	r24, 0x9B	; 155
    4f5e:	0e 94 fe 1a 	call	0x35fc	; 0x35fc <_Z11LcdChr_fullh>
	LcdGotoXY(8,4);LcdChr_full(0x9B);
    4f62:	64 e0       	ldi	r22, 0x04	; 4
    4f64:	88 e0       	ldi	r24, 0x08	; 8
    4f66:	0e 94 e3 1a 	call	0x35c6	; 0x35c6 <_Z9LcdGotoXYhh>
    4f6a:	8b e9       	ldi	r24, 0x9B	; 155
    4f6c:	0e 94 fe 1a 	call	0x35fc	; 0x35fc <_Z11LcdChr_fullh>
}
    4f70:	08 95       	ret

00004f72 <_ZN6Screen21Draw_CursorMainScreenER8Activity>:
		LcdChr_full(0x95);
	}

}	

bool Screen::Draw_CursorMainScreen(Activity &activity){
    4f72:	9c 01       	movw	r18, r24
	
	if (activity.Statment == SCREEN_ADJUST ){return false;};
    4f74:	db 01       	movw	r26, r22
    4f76:	9c 91       	ld	r25, X
    4f78:	92 30       	cpi	r25, 0x02	; 2
    4f7a:	11 f4       	brne	.+4      	; 0x4f80 <_ZN6Screen21Draw_CursorMainScreenER8Activity+0xe>
    4f7c:	80 e0       	ldi	r24, 0x00	; 0
    4f7e:	08 95       	ret
	switch(activity.Cursor){
    4f80:	db 01       	movw	r26, r22
    4f82:	17 96       	adiw	r26, 0x07	; 7
    4f84:	ec 91       	ld	r30, X
    4f86:	4e 2f       	mov	r20, r30
    4f88:	50 e0       	ldi	r21, 0x00	; 0
    4f8a:	48 30       	cpi	r20, 0x08	; 8
    4f8c:	51 05       	cpc	r21, r1
    4f8e:	08 f0       	brcs	.+2      	; 0x4f92 <_ZN6Screen21Draw_CursorMainScreenER8Activity+0x20>
    4f90:	49 c0       	rjmp	.+146    	; 0x5024 <_ZN6Screen21Draw_CursorMainScreenER8Activity+0xb2>
    4f92:	c9 01       	movw	r24, r18
    4f94:	fa 01       	movw	r30, r20
    4f96:	ee 59       	subi	r30, 0x9E	; 158
    4f98:	ff 4f       	sbci	r31, 0xFF	; 255
    4f9a:	0c 94 e4 30 	jmp	0x61c8	; 0x61c8 <__tablejump2__>
		case(MENU):LcdGotoXY(6,1);LcdChr_full(0x9C);LcdChr_full(0x9D);break;
    4f9e:	61 e0       	ldi	r22, 0x01	; 1
    4fa0:	86 e0       	ldi	r24, 0x06	; 6
    4fa2:	0e 94 e3 1a 	call	0x35c6	; 0x35c6 <_Z9LcdGotoXYhh>
    4fa6:	8c e9       	ldi	r24, 0x9C	; 156
    4fa8:	0e 94 fe 1a 	call	0x35fc	; 0x35fc <_Z11LcdChr_fullh>
    4fac:	8d e9       	ldi	r24, 0x9D	; 157
    4fae:	0e 94 fe 1a 	call	0x35fc	; 0x35fc <_Z11LcdChr_fullh>
    4fb2:	38 c0       	rjmp	.+112    	; 0x5024 <_ZN6Screen21Draw_CursorMainScreenER8Activity+0xb2>
		case(ADJUST):LcdGotoXY(6,1);LcdChr_full(0xA5);LcdChr_full(0xA6);break;
    4fb4:	61 e0       	ldi	r22, 0x01	; 1
    4fb6:	86 e0       	ldi	r24, 0x06	; 6
    4fb8:	0e 94 e3 1a 	call	0x35c6	; 0x35c6 <_Z9LcdGotoXYhh>
    4fbc:	85 ea       	ldi	r24, 0xA5	; 165
    4fbe:	0e 94 fe 1a 	call	0x35fc	; 0x35fc <_Z11LcdChr_fullh>
    4fc2:	86 ea       	ldi	r24, 0xA6	; 166
    4fc4:	0e 94 fe 1a 	call	0x35fc	; 0x35fc <_Z11LcdChr_fullh>
    4fc8:	2d c0       	rjmp	.+90     	; 0x5024 <_ZN6Screen21Draw_CursorMainScreenER8Activity+0xb2>
		case(CARRAGE):LcdGotoXY(6,4);LcdChr_full(0xA5);LcdChr_full(0xA6);break;
    4fca:	64 e0       	ldi	r22, 0x04	; 4
    4fcc:	86 e0       	ldi	r24, 0x06	; 6
    4fce:	0e 94 e3 1a 	call	0x35c6	; 0x35c6 <_Z9LcdGotoXYhh>
    4fd2:	85 ea       	ldi	r24, 0xA5	; 165
    4fd4:	0e 94 fe 1a 	call	0x35fc	; 0x35fc <_Z11LcdChr_fullh>
    4fd8:	86 ea       	ldi	r24, 0xA6	; 166
    4fda:	0e 94 fe 1a 	call	0x35fc	; 0x35fc <_Z11LcdChr_fullh>
    4fde:	22 c0       	rjmp	.+68     	; 0x5024 <_ZN6Screen21Draw_CursorMainScreenER8Activity+0xb2>
		case(LEFTUP):LcdGotoXY(5,1);LcdChr_full(0x9A);break;
    4fe0:	61 e0       	ldi	r22, 0x01	; 1
    4fe2:	85 e0       	ldi	r24, 0x05	; 5
    4fe4:	0e 94 e3 1a 	call	0x35c6	; 0x35c6 <_Z9LcdGotoXYhh>
    4fe8:	8a e9       	ldi	r24, 0x9A	; 154
    4fea:	0e 94 fe 1a 	call	0x35fc	; 0x35fc <_Z11LcdChr_fullh>
    4fee:	1a c0       	rjmp	.+52     	; 0x5024 <_ZN6Screen21Draw_CursorMainScreenER8Activity+0xb2>
		case(LEFTDOWN):LcdGotoXY(5,4);LcdChr_full(0x9A);break;
    4ff0:	64 e0       	ldi	r22, 0x04	; 4
    4ff2:	85 e0       	ldi	r24, 0x05	; 5
    4ff4:	0e 94 e3 1a 	call	0x35c6	; 0x35c6 <_Z9LcdGotoXYhh>
    4ff8:	8a e9       	ldi	r24, 0x9A	; 154
    4ffa:	0e 94 fe 1a 	call	0x35fc	; 0x35fc <_Z11LcdChr_fullh>
    4ffe:	12 c0       	rjmp	.+36     	; 0x5024 <_ZN6Screen21Draw_CursorMainScreenER8Activity+0xb2>
		case(RIGHTUP):LcdGotoXY(8,1);LcdChr_full(0x9B);break;
    5000:	61 e0       	ldi	r22, 0x01	; 1
    5002:	88 e0       	ldi	r24, 0x08	; 8
    5004:	0e 94 e3 1a 	call	0x35c6	; 0x35c6 <_Z9LcdGotoXYhh>
    5008:	8b e9       	ldi	r24, 0x9B	; 155
    500a:	0e 94 fe 1a 	call	0x35fc	; 0x35fc <_Z11LcdChr_fullh>
    500e:	0a c0       	rjmp	.+20     	; 0x5024 <_ZN6Screen21Draw_CursorMainScreenER8Activity+0xb2>
		case(RIGHTDOWN):LcdGotoXY(8,4);LcdChr_full(0x9B);break;
    5010:	64 e0       	ldi	r22, 0x04	; 4
    5012:	88 e0       	ldi	r24, 0x08	; 8
    5014:	0e 94 e3 1a 	call	0x35c6	; 0x35c6 <_Z9LcdGotoXYhh>
    5018:	8b e9       	ldi	r24, 0x9B	; 155
    501a:	0e 94 fe 1a 	call	0x35fc	; 0x35fc <_Z11LcdChr_fullh>
    501e:	02 c0       	rjmp	.+4      	; 0x5024 <_ZN6Screen21Draw_CursorMainScreenER8Activity+0xb2>
		case(ALLWHEEL):Draw_all_cursor_wheel();break;
    5020:	0e 94 9c 27 	call	0x4f38	; 0x4f38 <_ZN6Screen21Draw_all_cursor_wheelEv>
	}	
	
}
    5024:	08 95       	ret

00005026 <_ZN6Screen11Render_mainER8ActivityR7Carrage>:
	
	
}


void Screen::Render_main(Activity &activity, Carrage &carrage){	
    5026:	ef 92       	push	r14
    5028:	ff 92       	push	r15
    502a:	0f 93       	push	r16
    502c:	1f 93       	push	r17
    502e:	cf 93       	push	r28
    5030:	df 93       	push	r29
    5032:	ec 01       	movw	r28, r24
    5034:	8b 01       	movw	r16, r22
    5036:	7a 01       	movw	r14, r20
	Draw_icon_menu();
    5038:	0e 94 59 24 	call	0x48b2	; 0x48b2 <_ZN6Screen14Draw_icon_menuEv>
	Draw_icon_carrage(activity);
    503c:	b8 01       	movw	r22, r16
    503e:	ce 01       	movw	r24, r28
    5040:	0e 94 68 24 	call	0x48d0	; 0x48d0 <_ZN6Screen17Draw_icon_carrageER8Activity>
	Draw_Carrage(carrage);
    5044:	b7 01       	movw	r22, r14
    5046:	ce 01       	movw	r24, r28
    5048:	0e 94 fd 25 	call	0x4bfa	; 0x4bfa <_ZN6Screen12Draw_CarrageER7Carrage>
	Draw_adjustment_carrage(activity);
    504c:	b8 01       	movw	r22, r16
    504e:	ce 01       	movw	r24, r28
    5050:	0e 94 8e 26 	call	0x4d1c	; 0x4d1c <_ZN6Screen23Draw_adjustment_carrageER8Activity>
	Draw_CursorMainScreen(activity);	
    5054:	b8 01       	movw	r22, r16
    5056:	ce 01       	movw	r24, r28
    5058:	0e 94 b9 27 	call	0x4f72	; 0x4f72 <_ZN6Screen21Draw_CursorMainScreenER8Activity>
	Print_Step_Value(activity);
    505c:	b8 01       	movw	r22, r16
    505e:	ce 01       	movw	r24, r28
    5060:	0e 94 73 27 	call	0x4ee6	; 0x4ee6 <_ZN6Screen16Print_Step_ValueER8Activity>
	
}
    5064:	df 91       	pop	r29
    5066:	cf 91       	pop	r28
    5068:	1f 91       	pop	r17
    506a:	0f 91       	pop	r16
    506c:	ff 90       	pop	r15
    506e:	ef 90       	pop	r14
    5070:	08 95       	ret

00005072 <_ZN6Screen11MessageSaveEv>:
	}
	
}

void Screen::MessageSave(){
	Lcd_print(2, 2, FONT_1X,(unsigned char *)"...");
    5072:	25 ee       	ldi	r18, 0xE5	; 229
    5074:	32 e0       	ldi	r19, 0x02	; 2
    5076:	41 e0       	ldi	r20, 0x01	; 1
    5078:	62 e0       	ldi	r22, 0x02	; 2
    507a:	82 e0       	ldi	r24, 0x02	; 2
    507c:	0e 94 2e 1c 	call	0x385c	; 0x385c <_Z9Lcd_printhh11LcdFontSizePh>
    5080:	08 95       	ret

00005082 <_ZN6Screen23MessageSelectMalfuctionEv>:
}

void Screen::MessageSelectMalfuction(){
	Lcd_print(3, 0, FONT_1X,(unsigned char *)"");
    5082:	22 ef       	ldi	r18, 0xF2	; 242
    5084:	32 e0       	ldi	r19, 0x02	; 2
    5086:	41 e0       	ldi	r20, 0x01	; 1
    5088:	60 e0       	ldi	r22, 0x00	; 0
    508a:	83 e0       	ldi	r24, 0x03	; 3
    508c:	0e 94 2e 1c 	call	0x385c	; 0x385c <_Z9Lcd_printhh11LcdFontSizePh>
	Lcd_print(1, 1, FONT_1X,(unsigned char *)"() .    .");
    5090:	2b ef       	ldi	r18, 0xFB	; 251
    5092:	32 e0       	ldi	r19, 0x02	; 2
    5094:	41 e0       	ldi	r20, 0x01	; 1
    5096:	61 e0       	ldi	r22, 0x01	; 1
    5098:	81 e0       	ldi	r24, 0x01	; 1
    509a:	0e 94 2e 1c 	call	0x385c	; 0x385c <_Z9Lcd_printhh11LcdFontSizePh>
	Lcd_print(1, 5, FONT_1X,(unsigned char *)" ");
    509e:	20 e3       	ldi	r18, 0x30	; 48
    50a0:	33 e0       	ldi	r19, 0x03	; 3
    50a2:	41 e0       	ldi	r20, 0x01	; 1
    50a4:	65 e0       	ldi	r22, 0x05	; 5
    50a6:	81 e0       	ldi	r24, 0x01	; 1
    50a8:	0e 94 2e 1c 	call	0x385c	; 0x385c <_Z9Lcd_printhh11LcdFontSizePh>
    50ac:	08 95       	ret

000050ae <_ZN6Screen20MessageGetMalfuctionEv>:
}

void Screen::MessageGetMalfuction(){
	Lcd_print(4, 0, FONT_1X,(unsigned char *)"");
    50ae:	2b e3       	ldi	r18, 0x3B	; 59
    50b0:	33 e0       	ldi	r19, 0x03	; 3
    50b2:	41 e0       	ldi	r20, 0x01	; 1
    50b4:	60 e0       	ldi	r22, 0x00	; 0
    50b6:	84 e0       	ldi	r24, 0x04	; 4
    50b8:	0e 94 2e 1c 	call	0x385c	; 0x385c <_Z9Lcd_printhh11LcdFontSizePh>
	Lcd_print(0, 1, FONT_1X,(unsigned char *)" ");
    50bc:	22 e4       	ldi	r18, 0x42	; 66
    50be:	33 e0       	ldi	r19, 0x03	; 3
    50c0:	41 e0       	ldi	r20, 0x01	; 1
    50c2:	61 e0       	ldi	r22, 0x01	; 1
    50c4:	80 e0       	ldi	r24, 0x00	; 0
    50c6:	0e 94 2e 1c 	call	0x385c	; 0x385c <_Z9Lcd_printhh11LcdFontSizePh>
	Lcd_print(0, 2, FONT_1X,(unsigned char *)" ");
    50ca:	2f e4       	ldi	r18, 0x4F	; 79
    50cc:	33 e0       	ldi	r19, 0x03	; 3
    50ce:	41 e0       	ldi	r20, 0x01	; 1
    50d0:	62 e0       	ldi	r22, 0x02	; 2
    50d2:	80 e0       	ldi	r24, 0x00	; 0
    50d4:	0e 94 2e 1c 	call	0x385c	; 0x385c <_Z9Lcd_printhh11LcdFontSizePh>
	Lcd_print(0, 3, FONT_1X,(unsigned char *)"");
    50d8:	2e e5       	ldi	r18, 0x5E	; 94
    50da:	33 e0       	ldi	r19, 0x03	; 3
    50dc:	41 e0       	ldi	r20, 0x01	; 1
    50de:	63 e0       	ldi	r22, 0x03	; 3
    50e0:	80 e0       	ldi	r24, 0x00	; 0
    50e2:	0e 94 2e 1c 	call	0x385c	; 0x385c <_Z9Lcd_printhh11LcdFontSizePh>
	Lcd_print(2, 5, FONT_1X,(unsigned char *)" ");
    50e6:	25 e6       	ldi	r18, 0x65	; 101
    50e8:	33 e0       	ldi	r19, 0x03	; 3
    50ea:	41 e0       	ldi	r20, 0x01	; 1
    50ec:	65 e0       	ldi	r22, 0x05	; 5
    50ee:	82 e0       	ldi	r24, 0x02	; 2
    50f0:	0e 94 2e 1c 	call	0x385c	; 0x385c <_Z9Lcd_printhh11LcdFontSizePh>
    50f4:	08 95       	ret

000050f6 <_ZN6Screen20MessageNoAnySelectedEv>:
}

void Screen::MessageNoAnySelected(){

	Lcd_print(3, 2, FONT_1X,(unsigned char *)"");
    50f6:	20 e7       	ldi	r18, 0x70	; 112
    50f8:	33 e0       	ldi	r19, 0x03	; 3
    50fa:	41 e0       	ldi	r20, 0x01	; 1
    50fc:	62 e0       	ldi	r22, 0x02	; 2
    50fe:	83 e0       	ldi	r24, 0x03	; 3
    5100:	0e 94 2e 1c 	call	0x385c	; 0x385c <_Z9Lcd_printhh11LcdFontSizePh>
	Lcd_print(3, 3, FONT_1X,(unsigned char *)"()");
    5104:	29 e7       	ldi	r18, 0x79	; 121
    5106:	33 e0       	ldi	r19, 0x03	; 3
    5108:	41 e0       	ldi	r20, 0x01	; 1
    510a:	63 e0       	ldi	r22, 0x03	; 3
    510c:	83 e0       	ldi	r24, 0x03	; 3
    510e:	0e 94 2e 1c 	call	0x385c	; 0x385c <_Z9Lcd_printhh11LcdFontSizePh>
    5112:	08 95       	ret

00005114 <_ZN6Screen16MessageGetLimitsEv>:

}

void Screen::MessageGetLimits(){
	Lcd_print(3, 2, FONT_1X,(unsigned char *)"");
    5114:	23 e8       	ldi	r18, 0x83	; 131
    5116:	33 e0       	ldi	r19, 0x03	; 3
    5118:	41 e0       	ldi	r20, 0x01	; 1
    511a:	62 e0       	ldi	r22, 0x02	; 2
    511c:	83 e0       	ldi	r24, 0x03	; 3
    511e:	0e 94 2e 1c 	call	0x385c	; 0x385c <_Z9Lcd_printhh11LcdFontSizePh>
	Lcd_print(2, 3, FONT_1X,(unsigned char *)"");
    5122:	2e e8       	ldi	r18, 0x8E	; 142
    5124:	33 e0       	ldi	r19, 0x03	; 3
    5126:	41 e0       	ldi	r20, 0x01	; 1
    5128:	63 e0       	ldi	r22, 0x03	; 3
    512a:	82 e0       	ldi	r24, 0x02	; 2
    512c:	0e 94 2e 1c 	call	0x385c	; 0x385c <_Z9Lcd_printhh11LcdFontSizePh>
    5130:	08 95       	ret

00005132 <_ZN6Screen18AnableWhileDrivingEv>:
}

void Screen::AnableWhileDriving(){
	Lcd_print(2, 1, FONT_1X,(unsigned char *)"");
    5132:	2a e9       	ldi	r18, 0x9A	; 154
    5134:	33 e0       	ldi	r19, 0x03	; 3
    5136:	41 e0       	ldi	r20, 0x01	; 1
    5138:	61 e0       	ldi	r22, 0x01	; 1
    513a:	82 e0       	ldi	r24, 0x02	; 2
    513c:	0e 94 2e 1c 	call	0x385c	; 0x385c <_Z9Lcd_printhh11LcdFontSizePh>
	Lcd_print(2, 2, FONT_1X,(unsigned char *)"  ");
    5140:	25 ea       	ldi	r18, 0xA5	; 165
    5142:	33 e0       	ldi	r19, 0x03	; 3
    5144:	41 e0       	ldi	r20, 0x01	; 1
    5146:	62 e0       	ldi	r22, 0x02	; 2
    5148:	82 e0       	ldi	r24, 0x02	; 2
    514a:	0e 94 2e 1c 	call	0x385c	; 0x385c <_Z9Lcd_printhh11LcdFontSizePh>
	Lcd_print(2, 3, FONT_1X,(unsigned char *)" ");
    514e:	29 ea       	ldi	r18, 0xA9	; 169
    5150:	32 e0       	ldi	r19, 0x02	; 2
    5152:	41 e0       	ldi	r20, 0x01	; 1
    5154:	63 e0       	ldi	r22, 0x03	; 3
    5156:	82 e0       	ldi	r24, 0x02	; 2
    5158:	0e 94 2e 1c 	call	0x385c	; 0x385c <_Z9Lcd_printhh11LcdFontSizePh>
    515c:	08 95       	ret

0000515e <_ZN6Screen7MessageER8ActivityR7Carrage>:
	LcdGotoXY(8,1);LcdChr_full(0x9B);
	LcdGotoXY(8,4);LcdChr_full(0x9B);
}

bool Screen::Message(Activity &activity, Carrage &carrage){
	switch(activity.TypeMessage){
    515e:	fb 01       	movw	r30, r22
    5160:	e6 56       	subi	r30, 0x66	; 102
    5162:	ff 4f       	sbci	r31, 0xFF	; 255
    5164:	20 81       	ld	r18, Z
    5166:	31 81       	ldd	r19, Z+1	; 0x01
    5168:	22 30       	cpi	r18, 0x02	; 2
    516a:	31 05       	cpc	r19, r1
    516c:	d1 f0       	breq	.+52     	; 0x51a2 <_ZN6Screen7MessageER8ActivityR7Carrage+0x44>
    516e:	3c f4       	brge	.+14     	; 0x517e <_ZN6Screen7MessageER8ActivityR7Carrage+0x20>
    5170:	21 15       	cp	r18, r1
    5172:	31 05       	cpc	r19, r1
    5174:	81 f0       	breq	.+32     	; 0x5196 <_ZN6Screen7MessageER8ActivityR7Carrage+0x38>
    5176:	21 30       	cpi	r18, 0x01	; 1
    5178:	31 05       	cpc	r19, r1
    517a:	81 f0       	breq	.+32     	; 0x519c <_ZN6Screen7MessageER8ActivityR7Carrage+0x3e>
    517c:	08 95       	ret
    517e:	20 39       	cpi	r18, 0x90	; 144
    5180:	41 e0       	ldi	r20, 0x01	; 1
    5182:	34 07       	cpc	r19, r20
    5184:	a1 f0       	breq	.+40     	; 0x51ae <_ZN6Screen7MessageER8ActivityR7Carrage+0x50>
    5186:	21 39       	cpi	r18, 0x91	; 145
    5188:	41 e0       	ldi	r20, 0x01	; 1
    518a:	34 07       	cpc	r19, r20
    518c:	99 f0       	breq	.+38     	; 0x51b4 <_ZN6Screen7MessageER8ActivityR7Carrage+0x56>
    518e:	23 30       	cpi	r18, 0x03	; 3
    5190:	31 05       	cpc	r19, r1
    5192:	91 f4       	brne	.+36     	; 0x51b8 <_ZN6Screen7MessageER8ActivityR7Carrage+0x5a>
    5194:	09 c0       	rjmp	.+18     	; 0x51a8 <_ZN6Screen7MessageER8ActivityR7Carrage+0x4a>
		case(MESSAGE_SAVE):MessageSave();break;
    5196:	0e 94 39 28 	call	0x5072	; 0x5072 <_ZN6Screen11MessageSaveEv>
    519a:	08 95       	ret
		case(MESSAGE_SELECT_MALFUCTION):MessageSelectMalfuction();break;
    519c:	0e 94 41 28 	call	0x5082	; 0x5082 <_ZN6Screen23MessageSelectMalfuctionEv>
    51a0:	08 95       	ret
		case(MESSAGE_GET_MALFUCTION):MessageGetMalfuction();break;
    51a2:	0e 94 57 28 	call	0x50ae	; 0x50ae <_ZN6Screen20MessageGetMalfuctionEv>
    51a6:	08 95       	ret
		case(MESSAGE_NO_ANY_SELECTED):MessageNoAnySelected();break;
    51a8:	0e 94 7b 28 	call	0x50f6	; 0x50f6 <_ZN6Screen20MessageNoAnySelectedEv>
    51ac:	08 95       	ret
		case(MESSAGE_GET_LIMITS):MessageGetLimits();break;
    51ae:	0e 94 8a 28 	call	0x5114	; 0x5114 <_ZN6Screen16MessageGetLimitsEv>
    51b2:	08 95       	ret
		case(MESSAGE_ANEBLE_WHILE_DRIVING):AnableWhileDriving();break;
    51b4:	0e 94 99 28 	call	0x5132	; 0x5132 <_ZN6Screen18AnableWhileDrivingEv>
	}
	
}
    51b8:	08 95       	ret

000051ba <_ZN6Screen6RenderER8ActivityR7Carrage>:

void Screen::Init(){
	 
}

void Screen::Render(Activity &activity, Carrage &carrage){
    51ba:	ef 92       	push	r14
    51bc:	ff 92       	push	r15
    51be:	0f 93       	push	r16
    51c0:	1f 93       	push	r17
    51c2:	cf 93       	push	r28
    51c4:	df 93       	push	r29
    51c6:	7c 01       	movw	r14, r24
    51c8:	eb 01       	movw	r28, r22
    51ca:	8a 01       	movw	r16, r20
	if(carrage.flagNewMalfuction){carrage.flagNewMalfuction=false;activity.Statment=SCREEN_MESSAGE; activity.TypeMessage = MESSAGE_GET_MALFUCTION;}
    51cc:	fa 01       	movw	r30, r20
    51ce:	e4 51       	subi	r30, 0x14	; 20
    51d0:	ff 4f       	sbci	r31, 0xFF	; 255
    51d2:	80 81       	ld	r24, Z
    51d4:	88 23       	and	r24, r24
    51d6:	51 f0       	breq	.+20     	; 0x51ec <_ZN6Screen6RenderER8ActivityR7Carrage+0x32>
    51d8:	10 82       	st	Z, r1
    51da:	88 e0       	ldi	r24, 0x08	; 8
    51dc:	88 83       	st	Y, r24
    51de:	82 e0       	ldi	r24, 0x02	; 2
    51e0:	90 e0       	ldi	r25, 0x00	; 0
    51e2:	fb 01       	movw	r30, r22
    51e4:	e6 56       	subi	r30, 0x66	; 102
    51e6:	ff 4f       	sbci	r31, 0xFF	; 255
    51e8:	91 83       	std	Z+1, r25	; 0x01
    51ea:	80 83       	st	Z, r24
	if(carrage.flagGetLimits){carrage.flagGetLimits=false; activity.Statment=SCREEN_MESSAGE; activity.TypeMessage = MESSAGE_GET_LIMITS;}	
    51ec:	f8 01       	movw	r30, r16
    51ee:	e3 51       	subi	r30, 0x13	; 19
    51f0:	ff 4f       	sbci	r31, 0xFF	; 255
    51f2:	80 81       	ld	r24, Z
    51f4:	88 23       	and	r24, r24
    51f6:	51 f0       	breq	.+20     	; 0x520c <_ZN6Screen6RenderER8ActivityR7Carrage+0x52>
    51f8:	10 82       	st	Z, r1
    51fa:	88 e0       	ldi	r24, 0x08	; 8
    51fc:	88 83       	st	Y, r24
    51fe:	80 e9       	ldi	r24, 0x90	; 144
    5200:	91 e0       	ldi	r25, 0x01	; 1
    5202:	fe 01       	movw	r30, r28
    5204:	e6 56       	subi	r30, 0x66	; 102
    5206:	ff 4f       	sbci	r31, 0xFF	; 255
    5208:	91 83       	std	Z+1, r25	; 0x01
    520a:	80 83       	st	Z, r24
	Lcd_clear();
    520c:	0e 94 68 1a 	call	0x34d0	; 0x34d0 <_Z9Lcd_clearv>
	switch(activity.Statment){
    5210:	e8 81       	ld	r30, Y
    5212:	8e 2f       	mov	r24, r30
    5214:	90 e0       	ldi	r25, 0x00	; 0
    5216:	8a 30       	cpi	r24, 0x0A	; 10
    5218:	91 05       	cpc	r25, r1
    521a:	08 f0       	brcs	.+2      	; 0x521e <_ZN6Screen6RenderER8ActivityR7Carrage+0x64>
    521c:	40 c0       	rjmp	.+128    	; 0x529e <_ZN6Screen6RenderER8ActivityR7Carrage+0xe4>
    521e:	fc 01       	movw	r30, r24
    5220:	e6 59       	subi	r30, 0x96	; 150
    5222:	ff 4f       	sbci	r31, 0xFF	; 255
    5224:	0c 94 e4 30 	jmp	0x61c8	; 0x61c8 <__tablejump2__>
		case(SCREEN_MAIN):Render_main(activity,carrage);break;
    5228:	a8 01       	movw	r20, r16
    522a:	be 01       	movw	r22, r28
    522c:	c7 01       	movw	r24, r14
    522e:	0e 94 13 28 	call	0x5026	; 0x5026 <_ZN6Screen11Render_mainER8ActivityR7Carrage>
    5232:	35 c0       	rjmp	.+106    	; 0x529e <_ZN6Screen6RenderER8ActivityR7Carrage+0xe4>
		case(SCREEN_ADJUST):Render_main(activity,carrage);break;
    5234:	a8 01       	movw	r20, r16
    5236:	be 01       	movw	r22, r28
    5238:	c7 01       	movw	r24, r14
    523a:	0e 94 13 28 	call	0x5026	; 0x5026 <_ZN6Screen11Render_mainER8ActivityR7Carrage>
    523e:	2f c0       	rjmp	.+94     	; 0x529e <_ZN6Screen6RenderER8ActivityR7Carrage+0xe4>
		case(SCREEN_MENU):Render_menu(activity,carrage);break;
    5240:	a8 01       	movw	r20, r16
    5242:	be 01       	movw	r22, r28
    5244:	c7 01       	movw	r24, r14
    5246:	0e 94 62 27 	call	0x4ec4	; 0x4ec4 <_ZN6Screen11Render_menuER8ActivityR7Carrage>
    524a:	29 c0       	rjmp	.+82     	; 0x529e <_ZN6Screen6RenderER8ActivityR7Carrage+0xe4>
		case(SCREEN_TUNNING):Render_tunning(activity,carrage);break;
    524c:	a8 01       	movw	r20, r16
    524e:	be 01       	movw	r22, r28
    5250:	c7 01       	movw	r24, r14
    5252:	0e 94 83 1f 	call	0x3f06	; 0x3f06 <_ZN6Screen14Render_tunningER8ActivityR7Carrage>
    5256:	23 c0       	rjmp	.+70     	; 0x529e <_ZN6Screen6RenderER8ActivityR7Carrage+0xe4>
		case(SCREEN_LIMITS):Render_limits(activity,carrage);break;
    5258:	a8 01       	movw	r20, r16
    525a:	be 01       	movw	r22, r28
    525c:	c7 01       	movw	r24, r14
    525e:	0e 94 6d 20 	call	0x40da	; 0x40da <_ZN6Screen13Render_limitsER8ActivityR7Carrage>
    5262:	1d c0       	rjmp	.+58     	; 0x529e <_ZN6Screen6RenderER8ActivityR7Carrage+0xe4>
		case(SCREEN_SET_MALFACTION):Render_maltifaction(activity,carrage);break;
    5264:	a8 01       	movw	r20, r16
    5266:	be 01       	movw	r22, r28
    5268:	c7 01       	movw	r24, r14
    526a:	0e 94 fe 20 	call	0x41fc	; 0x41fc <_ZN6Screen19Render_maltifactionER8ActivityR7Carrage>
    526e:	17 c0       	rjmp	.+46     	; 0x529e <_ZN6Screen6RenderER8ActivityR7Carrage+0xe4>
		case(SCREEN_SET_ERRORS):Render_ERRORS(activity,carrage);break;
    5270:	a8 01       	movw	r20, r16
    5272:	be 01       	movw	r22, r28
    5274:	c7 01       	movw	r24, r14
    5276:	0e 94 c4 21 	call	0x4388	; 0x4388 <_ZN6Screen13Render_ERRORSER8ActivityR7Carrage>
    527a:	11 c0       	rjmp	.+34     	; 0x529e <_ZN6Screen6RenderER8ActivityR7Carrage+0xe4>
		case(SCREEN_ERROR_WHEEL):Render_ERROR(activity,carrage);break;\
    527c:	a8 01       	movw	r20, r16
    527e:	be 01       	movw	r22, r28
    5280:	c7 01       	movw	r24, r14
    5282:	0e 94 4e 23 	call	0x469c	; 0x469c <_ZN6Screen12Render_ERRORER8ActivityR7Carrage>
    5286:	0b c0       	rjmp	.+22     	; 0x529e <_ZN6Screen6RenderER8ActivityR7Carrage+0xe4>
		case(SCREEN_MESSAGE):Message(activity,carrage);break;
    5288:	a8 01       	movw	r20, r16
    528a:	be 01       	movw	r22, r28
    528c:	c7 01       	movw	r24, r14
    528e:	0e 94 af 28 	call	0x515e	; 0x515e <_ZN6Screen7MessageER8ActivityR7Carrage>
    5292:	05 c0       	rjmp	.+10     	; 0x529e <_ZN6Screen6RenderER8ActivityR7Carrage+0xe4>
		case(SCREEN_LCD_SETTINGS):Render_LCDSettings(activity,carrage);break;
    5294:	a8 01       	movw	r20, r16
    5296:	be 01       	movw	r22, r28
    5298:	c7 01       	movw	r24, r14
    529a:	0e 94 fc 23 	call	0x47f8	; 0x47f8 <_ZN6Screen18Render_LCDSettingsER8ActivityR7Carrage>
	}
	Lcd_update();
    529e:	0e 94 7d 1a 	call	0x34fa	; 0x34fa <_Z10Lcd_updatev>
}
    52a2:	df 91       	pop	r29
    52a4:	cf 91       	pop	r28
    52a6:	1f 91       	pop	r17
    52a8:	0f 91       	pop	r16
    52aa:	ff 90       	pop	r15
    52ac:	ef 90       	pop	r14
    52ae:	08 95       	ret

000052b0 <_ZN5PanelC1Ev>:
const int B_NOTHING = -1;

#include "Panel.h"

// default constructor
Panel::Panel()
    52b0:	cf 93       	push	r28
    52b2:	df 93       	push	r29
    52b4:	ec 01       	movw	r28, r24
    52b6:	0e 94 bd 0f 	call	0x1f7a	; 0x1f7a <_ZN6ButtonC1Ev>
    52ba:	ce 01       	movw	r24, r28
    52bc:	07 96       	adiw	r24, 0x07	; 7
    52be:	0e 94 bd 0f 	call	0x1f7a	; 0x1f7a <_ZN6ButtonC1Ev>
    52c2:	ce 01       	movw	r24, r28
    52c4:	0e 96       	adiw	r24, 0x0e	; 14
    52c6:	0e 94 bd 0f 	call	0x1f7a	; 0x1f7a <_ZN6ButtonC1Ev>
    52ca:	ce 01       	movw	r24, r28
    52cc:	45 96       	adiw	r24, 0x15	; 21
    52ce:	0e 94 bd 0f 	call	0x1f7a	; 0x1f7a <_ZN6ButtonC1Ev>
    52d2:	ce 01       	movw	r24, r28
    52d4:	4c 96       	adiw	r24, 0x1c	; 28
    52d6:	0e 94 bd 0f 	call	0x1f7a	; 0x1f7a <_ZN6ButtonC1Ev>
    52da:	ce 01       	movw	r24, r28
    52dc:	83 96       	adiw	r24, 0x23	; 35
    52de:	0e 94 bd 0f 	call	0x1f7a	; 0x1f7a <_ZN6ButtonC1Ev>
    52e2:	ce 01       	movw	r24, r28
    52e4:	8a 96       	adiw	r24, 0x2a	; 42
    52e6:	0e 94 bd 0f 	call	0x1f7a	; 0x1f7a <_ZN6ButtonC1Ev>
{
} 
    52ea:	df 91       	pop	r29
    52ec:	cf 91       	pop	r28
    52ee:	08 95       	ret

000052f0 <_ZN5Panel4InitEv>:

void Panel::Init(){
    52f0:	cf 93       	push	r28
    52f2:	df 93       	push	r29
    52f4:	ec 01       	movw	r28, r24
	bat_wheel_up.Init('D', 0);
    52f6:	40 e0       	ldi	r20, 0x00	; 0
    52f8:	50 e0       	ldi	r21, 0x00	; 0
    52fa:	64 e4       	ldi	r22, 0x44	; 68
    52fc:	0e 94 be 0f 	call	0x1f7c	; 0x1f7c <_ZN6Button4InitEci>
	bat_wheel_down.Init('D', 1);
    5300:	41 e0       	ldi	r20, 0x01	; 1
    5302:	50 e0       	ldi	r21, 0x00	; 0
    5304:	64 e4       	ldi	r22, 0x44	; 68
    5306:	ce 01       	movw	r24, r28
    5308:	07 96       	adiw	r24, 0x07	; 7
    530a:	0e 94 be 0f 	call	0x1f7c	; 0x1f7c <_ZN6Button4InitEci>
	bat_ok.Init('D', 2);
    530e:	42 e0       	ldi	r20, 0x02	; 2
    5310:	50 e0       	ldi	r21, 0x00	; 0
    5312:	64 e4       	ldi	r22, 0x44	; 68
    5314:	ce 01       	movw	r24, r28
    5316:	0e 96       	adiw	r24, 0x0e	; 14
    5318:	0e 94 be 0f 	call	0x1f7c	; 0x1f7c <_ZN6Button4InitEci>
	bat_up.Init('D', 3);
    531c:	43 e0       	ldi	r20, 0x03	; 3
    531e:	50 e0       	ldi	r21, 0x00	; 0
    5320:	64 e4       	ldi	r22, 0x44	; 68
    5322:	ce 01       	movw	r24, r28
    5324:	45 96       	adiw	r24, 0x15	; 21
    5326:	0e 94 be 0f 	call	0x1f7c	; 0x1f7c <_ZN6Button4InitEci>
	bat_down.Init('D', 4);
    532a:	44 e0       	ldi	r20, 0x04	; 4
    532c:	50 e0       	ldi	r21, 0x00	; 0
    532e:	64 e4       	ldi	r22, 0x44	; 68
    5330:	ce 01       	movw	r24, r28
    5332:	4c 96       	adiw	r24, 0x1c	; 28
    5334:	0e 94 be 0f 	call	0x1f7c	; 0x1f7c <_ZN6Button4InitEci>
	bat_left.Init('D',5);
    5338:	45 e0       	ldi	r20, 0x05	; 5
    533a:	50 e0       	ldi	r21, 0x00	; 0
    533c:	64 e4       	ldi	r22, 0x44	; 68
    533e:	ce 01       	movw	r24, r28
    5340:	83 96       	adiw	r24, 0x23	; 35
    5342:	0e 94 be 0f 	call	0x1f7c	; 0x1f7c <_ZN6Button4InitEci>
	bat_right.Init('D',6);
    5346:	46 e0       	ldi	r20, 0x06	; 6
    5348:	50 e0       	ldi	r21, 0x00	; 0
    534a:	64 e4       	ldi	r22, 0x44	; 68
    534c:	ce 01       	movw	r24, r28
    534e:	8a 96       	adiw	r24, 0x2a	; 42
    5350:	0e 94 be 0f 	call	0x1f7c	; 0x1f7c <_ZN6Button4InitEci>
}
    5354:	df 91       	pop	r29
    5356:	cf 91       	pop	r28
    5358:	08 95       	ret

0000535a <_ZN5Panel7PressedEi>:

int Panel::Pressed(int debounse){
    535a:	0f 93       	push	r16
    535c:	1f 93       	push	r17
    535e:	cf 93       	push	r28
    5360:	df 93       	push	r29
    5362:	ec 01       	movw	r28, r24
    5364:	8b 01       	movw	r16, r22
	if (bat_ok.Pressed(debounse)){return B_OK ;}
    5366:	0e 96       	adiw	r24, 0x0e	; 14
    5368:	0e 94 fc 0f 	call	0x1ff8	; 0x1ff8 <_ZN6Button7PressedEi>
    536c:	81 11       	cpse	r24, r1
    536e:	2c c0       	rjmp	.+88     	; 0x53c8 <_ZN5Panel7PressedEi+0x6e>
	if (bat_up.Pressed(debounse)){return  B_UP;}
    5370:	b8 01       	movw	r22, r16
    5372:	ce 01       	movw	r24, r28
    5374:	45 96       	adiw	r24, 0x15	; 21
    5376:	0e 94 fc 0f 	call	0x1ff8	; 0x1ff8 <_ZN6Button7PressedEi>
    537a:	81 11       	cpse	r24, r1
    537c:	28 c0       	rjmp	.+80     	; 0x53ce <_ZN5Panel7PressedEi+0x74>
	if (bat_down.Pressed(debounse)){return B_DOWN ;}
    537e:	b8 01       	movw	r22, r16
    5380:	ce 01       	movw	r24, r28
    5382:	4c 96       	adiw	r24, 0x1c	; 28
    5384:	0e 94 fc 0f 	call	0x1ff8	; 0x1ff8 <_ZN6Button7PressedEi>
    5388:	81 11       	cpse	r24, r1
    538a:	24 c0       	rjmp	.+72     	; 0x53d4 <_ZN5Panel7PressedEi+0x7a>
	if (bat_right.Pressed(debounse)){return B_RIGHT;}
    538c:	b8 01       	movw	r22, r16
    538e:	ce 01       	movw	r24, r28
    5390:	8a 96       	adiw	r24, 0x2a	; 42
    5392:	0e 94 fc 0f 	call	0x1ff8	; 0x1ff8 <_ZN6Button7PressedEi>
    5396:	81 11       	cpse	r24, r1
    5398:	20 c0       	rjmp	.+64     	; 0x53da <_ZN5Panel7PressedEi+0x80>
	if (bat_left.Pressed(debounse)) {return B_LEFT;}	
    539a:	b8 01       	movw	r22, r16
    539c:	ce 01       	movw	r24, r28
    539e:	83 96       	adiw	r24, 0x23	; 35
    53a0:	0e 94 fc 0f 	call	0x1ff8	; 0x1ff8 <_ZN6Button7PressedEi>
    53a4:	81 11       	cpse	r24, r1
    53a6:	1c c0       	rjmp	.+56     	; 0x53e0 <_ZN5Panel7PressedEi+0x86>
	if (bat_wheel_up.Pressed(debounse)){return B_WHEEL_UP;}
    53a8:	b8 01       	movw	r22, r16
    53aa:	ce 01       	movw	r24, r28
    53ac:	0e 94 fc 0f 	call	0x1ff8	; 0x1ff8 <_ZN6Button7PressedEi>
    53b0:	81 11       	cpse	r24, r1
    53b2:	19 c0       	rjmp	.+50     	; 0x53e6 <_ZN5Panel7PressedEi+0x8c>
	if (bat_wheel_down.Pressed(debounse)) {return B_WHEEL_DOWN;}
    53b4:	b8 01       	movw	r22, r16
    53b6:	ce 01       	movw	r24, r28
    53b8:	07 96       	adiw	r24, 0x07	; 7
    53ba:	0e 94 fc 0f 	call	0x1ff8	; 0x1ff8 <_ZN6Button7PressedEi>
    53be:	81 11       	cpse	r24, r1
    53c0:	15 c0       	rjmp	.+42     	; 0x53ec <_ZN5Panel7PressedEi+0x92>
	return B_NOTHING ;
    53c2:	8f ef       	ldi	r24, 0xFF	; 255
    53c4:	9f ef       	ldi	r25, 0xFF	; 255
    53c6:	14 c0       	rjmp	.+40     	; 0x53f0 <_ZN5Panel7PressedEi+0x96>
	bat_left.Init('D',5);
	bat_right.Init('D',6);
}

int Panel::Pressed(int debounse){
	if (bat_ok.Pressed(debounse)){return B_OK ;}
    53c8:	80 e0       	ldi	r24, 0x00	; 0
    53ca:	90 e0       	ldi	r25, 0x00	; 0
    53cc:	11 c0       	rjmp	.+34     	; 0x53f0 <_ZN5Panel7PressedEi+0x96>
	if (bat_up.Pressed(debounse)){return  B_UP;}
    53ce:	81 e0       	ldi	r24, 0x01	; 1
    53d0:	90 e0       	ldi	r25, 0x00	; 0
    53d2:	0e c0       	rjmp	.+28     	; 0x53f0 <_ZN5Panel7PressedEi+0x96>
	if (bat_down.Pressed(debounse)){return B_DOWN ;}
    53d4:	82 e0       	ldi	r24, 0x02	; 2
    53d6:	90 e0       	ldi	r25, 0x00	; 0
    53d8:	0b c0       	rjmp	.+22     	; 0x53f0 <_ZN5Panel7PressedEi+0x96>
	if (bat_right.Pressed(debounse)){return B_RIGHT;}
    53da:	84 e0       	ldi	r24, 0x04	; 4
    53dc:	90 e0       	ldi	r25, 0x00	; 0
    53de:	08 c0       	rjmp	.+16     	; 0x53f0 <_ZN5Panel7PressedEi+0x96>
	if (bat_left.Pressed(debounse)) {return B_LEFT;}	
    53e0:	83 e0       	ldi	r24, 0x03	; 3
    53e2:	90 e0       	ldi	r25, 0x00	; 0
    53e4:	05 c0       	rjmp	.+10     	; 0x53f0 <_ZN5Panel7PressedEi+0x96>
	if (bat_wheel_up.Pressed(debounse)){return B_WHEEL_UP;}
    53e6:	85 e0       	ldi	r24, 0x05	; 5
    53e8:	90 e0       	ldi	r25, 0x00	; 0
    53ea:	02 c0       	rjmp	.+4      	; 0x53f0 <_ZN5Panel7PressedEi+0x96>
	if (bat_wheel_down.Pressed(debounse)) {return B_WHEEL_DOWN;}
    53ec:	86 e0       	ldi	r24, 0x06	; 6
    53ee:	90 e0       	ldi	r25, 0x00	; 0
	return B_NOTHING ;
    53f0:	df 91       	pop	r29
    53f2:	cf 91       	pop	r28
    53f4:	1f 91       	pop	r17
    53f6:	0f 91       	pop	r16
    53f8:	08 95       	ret

000053fa <_ZN13SensorsWheelsC1Ev>:

#include <util/delay.h>
#include "SensorsWheels.h"

// default constructor
SensorsWheels::SensorsWheels()
    53fa:	08 95       	ret

000053fc <_ZN13SensorsWheels4InitEv>:
{
} //SensorsWheels

void SensorsWheels::Init(){
	ADMUX |=(1<<REFS0)|(1<<MUX0);//AVCC    
    53fc:	ec e7       	ldi	r30, 0x7C	; 124
    53fe:	f0 e0       	ldi	r31, 0x00	; 0
    5400:	80 81       	ld	r24, Z
    5402:	81 64       	ori	r24, 0x41	; 65
    5404:	80 83       	st	Z, r24
	ADCSRA |=(1<<ADEN)|(1<<ADIE)|(1<<ADPS0)|(1<<ADPS1)|(1<<ADPS2);//  ,  ,  
    5406:	ea e7       	ldi	r30, 0x7A	; 122
    5408:	f0 e0       	ldi	r31, 0x00	; 0
    540a:	80 81       	ld	r24, Z
    540c:	8f 68       	ori	r24, 0x8F	; 143
    540e:	80 83       	st	Z, r24
    5410:	08 95       	ret

00005412 <_ZN13SensorsWheels9getParamsEi>:
	//sei ();//   
}

float SensorsWheels::getParams(int Input_number){
    5412:	fc 01       	movw	r30, r24
	ADMUX &= ~ (1<<MUX0);
    5414:	ac e7       	ldi	r26, 0x7C	; 124
    5416:	b0 e0       	ldi	r27, 0x00	; 0
    5418:	8c 91       	ld	r24, X
    541a:	8e 7f       	andi	r24, 0xFE	; 254
    541c:	8c 93       	st	X, r24
	ADMUX &= ~ (1<<MUX1);
    541e:	8c 91       	ld	r24, X
    5420:	8d 7f       	andi	r24, 0xFD	; 253
    5422:	8c 93       	st	X, r24
	ADMUX &= ~ (1<<MUX2);
    5424:	8c 91       	ld	r24, X
    5426:	8b 7f       	andi	r24, 0xFB	; 251
    5428:	8c 93       	st	X, r24
	ADMUX &= ~ (1<<MUX3);
    542a:	8c 91       	ld	r24, X
    542c:	87 7f       	andi	r24, 0xF7	; 247
    542e:	8c 93       	st	X, r24
	switch(Input_number){
    5430:	63 30       	cpi	r22, 0x03	; 3
    5432:	71 05       	cpc	r23, r1
    5434:	51 f0       	breq	.+20     	; 0x544a <_ZN13SensorsWheels9getParamsEi+0x38>
    5436:	64 30       	cpi	r22, 0x04	; 4
    5438:	71 05       	cpc	r23, r1
    543a:	69 f0       	breq	.+26     	; 0x5456 <_ZN13SensorsWheels9getParamsEi+0x44>
    543c:	62 30       	cpi	r22, 0x02	; 2
    543e:	71 05       	cpc	r23, r1
    5440:	79 f4       	brne	.+30     	; 0x5460 <_ZN13SensorsWheels9getParamsEi+0x4e>
		case(1):break;
		case(2):ADMUX |= (1<<MUX0);break;
    5442:	8c 91       	ld	r24, X
    5444:	81 60       	ori	r24, 0x01	; 1
    5446:	8c 93       	st	X, r24
    5448:	0b c0       	rjmp	.+22     	; 0x5460 <_ZN13SensorsWheels9getParamsEi+0x4e>
		case(3):ADMUX |= (1<<MUX1);break;
    544a:	ac e7       	ldi	r26, 0x7C	; 124
    544c:	b0 e0       	ldi	r27, 0x00	; 0
    544e:	8c 91       	ld	r24, X
    5450:	82 60       	ori	r24, 0x02	; 2
    5452:	8c 93       	st	X, r24
    5454:	05 c0       	rjmp	.+10     	; 0x5460 <_ZN13SensorsWheels9getParamsEi+0x4e>
		case(4):ADMUX |= (1<<MUX0)|(1<<MUX1);break;
    5456:	ac e7       	ldi	r26, 0x7C	; 124
    5458:	b0 e0       	ldi	r27, 0x00	; 0
    545a:	8c 91       	ld	r24, X
    545c:	83 60       	ori	r24, 0x03	; 3
    545e:	8c 93       	st	X, r24
	}
	
	
	ADCSRA |=(1<<ADSC);//   	
    5460:	aa e7       	ldi	r26, 0x7A	; 122
    5462:	b0 e0       	ldi	r27, 0x00	; 0
    5464:	8c 91       	ld	r24, X
    5466:	80 64       	ori	r24, 0x40	; 64
    5468:	8c 93       	st	X, r24
	ready = false;
    546a:	10 82       	st	Z, r1
	while( !ready ){
		ready = (ADCSRA & (1 << ADIF));
    546c:	81 e0       	ldi	r24, 0x01	; 1
    546e:	40 e0       	ldi	r20, 0x00	; 0
    5470:	9c 91       	ld	r25, X
    5472:	28 2f       	mov	r18, r24
    5474:	39 2f       	mov	r19, r25
    5476:	30 71       	andi	r19, 0x10	; 16
    5478:	94 ff       	sbrs	r25, 4
    547a:	24 2f       	mov	r18, r20
    547c:	20 83       	st	Z, r18
	}
	
	
	ADCSRA |=(1<<ADSC);//   	
	ready = false;
	while( !ready ){
    547e:	33 23       	and	r19, r19
    5480:	b9 f3       	breq	.-18     	; 0x5470 <_ZN13SensorsWheels9getParamsEi+0x5e>
		ready = (ADCSRA & (1 << ADIF));
	};
	float Value = ADCW*0.00489;
    5482:	60 91 78 00 	lds	r22, 0x0078	; 0x800078 <__TEXT_REGION_LENGTH__+0x7e0078>
    5486:	70 91 79 00 	lds	r23, 0x0079	; 0x800079 <__TEXT_REGION_LENGTH__+0x7e0079>
	return Value;
    548a:	80 e0       	ldi	r24, 0x00	; 0
    548c:	90 e0       	ldi	r25, 0x00	; 0
    548e:	0e 94 ac 2f 	call	0x5f58	; 0x5f58 <__floatunsisf>
    5492:	2b e4       	ldi	r18, 0x4B	; 75
    5494:	3c e3       	ldi	r19, 0x3C	; 60
    5496:	40 ea       	ldi	r20, 0xA0	; 160
    5498:	5b e3       	ldi	r21, 0x3B	; 59
    549a:	0e 94 63 30 	call	0x60c6	; 0x60c6 <__mulsf3>
	
};
    549e:	08 95       	ret

000054a0 <_ZL8send_i2ch>:
void Support::Up(int ms_time, bool support_1, bool support_2, bool support_3, bool support_4 ){
	uint8_t data = (support_1<<0)|(support_2<<2)|(support_3<<4)|(support_4<<6);
	write_i2c((I2C_ADR_PCF8574<<1), data);
	for (i=0;i<ms_time;i++){_delay_ms(1);}
	write_i2c((I2C_ADR_PCF8574<<1), 0x00);
}
    54a0:	80 93 bb 00 	sts	0x00BB, r24	; 0x8000bb <__TEXT_REGION_LENGTH__+0x7e00bb>
    54a4:	84 e8       	ldi	r24, 0x84	; 132
    54a6:	80 93 bc 00 	sts	0x00BC, r24	; 0x8000bc <__TEXT_REGION_LENGTH__+0x7e00bc>
    54aa:	ec eb       	ldi	r30, 0xBC	; 188
    54ac:	f0 e0       	ldi	r31, 0x00	; 0
    54ae:	80 81       	ld	r24, Z
    54b0:	88 23       	and	r24, r24
    54b2:	ec f7       	brge	.-6      	; 0x54ae <_ZL8send_i2ch+0xe>
    54b4:	90 91 b9 00 	lds	r25, 0x00B9	; 0x8000b9 <__TEXT_REGION_LENGTH__+0x7e00b9>
    54b8:	98 7f       	andi	r25, 0xF8	; 248
    54ba:	98 31       	cpi	r25, 0x18	; 24
    54bc:	29 f0       	breq	.+10     	; 0x54c8 <_ZL8send_i2ch+0x28>
    54be:	81 e0       	ldi	r24, 0x01	; 1
    54c0:	98 32       	cpi	r25, 0x28	; 40
    54c2:	19 f4       	brne	.+6      	; 0x54ca <_ZL8send_i2ch+0x2a>
    54c4:	80 e0       	ldi	r24, 0x00	; 0
    54c6:	08 95       	ret
    54c8:	80 e0       	ldi	r24, 0x00	; 0
    54ca:	08 95       	ret

000054cc <_ZL9write_i2chh>:
    54cc:	cf 93       	push	r28
    54ce:	94 ea       	ldi	r25, 0xA4	; 164
    54d0:	90 93 bc 00 	sts	0x00BC, r25	; 0x8000bc <__TEXT_REGION_LENGTH__+0x7e00bc>
    54d4:	ec eb       	ldi	r30, 0xBC	; 188
    54d6:	f0 e0       	ldi	r31, 0x00	; 0
    54d8:	90 81       	ld	r25, Z
    54da:	99 23       	and	r25, r25
    54dc:	ec f7       	brge	.-6      	; 0x54d8 <_ZL9write_i2chh+0xc>
    54de:	90 91 b9 00 	lds	r25, 0x00B9	; 0x8000b9 <__TEXT_REGION_LENGTH__+0x7e00b9>
    54e2:	98 7f       	andi	r25, 0xF8	; 248
    54e4:	98 30       	cpi	r25, 0x08	; 8
    54e6:	11 f0       	breq	.+4      	; 0x54ec <_ZL9write_i2chh+0x20>
    54e8:	90 31       	cpi	r25, 0x10	; 16
    54ea:	61 f4       	brne	.+24     	; 0x5504 <_ZL9write_i2chh+0x38>
    54ec:	c6 2f       	mov	r28, r22
    54ee:	0e 94 50 2a 	call	0x54a0	; 0x54a0 <_ZL8send_i2ch>
    54f2:	81 30       	cpi	r24, 0x01	; 1
    54f4:	39 f0       	breq	.+14     	; 0x5504 <_ZL9write_i2chh+0x38>
    54f6:	8c 2f       	mov	r24, r28
    54f8:	0e 94 50 2a 	call	0x54a0	; 0x54a0 <_ZL8send_i2ch>
    54fc:	94 e9       	ldi	r25, 0x94	; 148
    54fe:	90 93 bc 00 	sts	0x00BC, r25	; 0x8000bc <__TEXT_REGION_LENGTH__+0x7e00bc>
    5502:	04 c0       	rjmp	.+8      	; 0x550c <_ZL9write_i2chh+0x40>
    5504:	84 e9       	ldi	r24, 0x94	; 148
    5506:	80 93 bc 00 	sts	0x00BC, r24	; 0x8000bc <__TEXT_REGION_LENGTH__+0x7e00bc>
    550a:	81 e0       	ldi	r24, 0x01	; 1
    550c:	cf 91       	pop	r28
    550e:	08 95       	ret

00005510 <_ZN7SupportC1Ev>:
    5510:	08 95       	ret

00005512 <_ZN7Support4InitEv>:
    5512:	87 e2       	ldi	r24, 0x27	; 39
    5514:	80 93 b8 00 	sts	0x00B8, r24	; 0x8000b8 <__TEXT_REGION_LENGTH__+0x7e00b8>
    5518:	60 e0       	ldi	r22, 0x00	; 0
    551a:	8e e7       	ldi	r24, 0x7E	; 126
    551c:	0e 94 66 2a 	call	0x54cc	; 0x54cc <_ZL9write_i2chh>
    5520:	08 95       	ret

00005522 <_ZN7Support6AdjastEifiiii>:

void Support::Adjast(int ms_time, float inertion, int DerWheel_1, int DerWheel_2,int DerWheel_3, int DerWheel_4){
    5522:	af 92       	push	r10
    5524:	bf 92       	push	r11
    5526:	cf 92       	push	r12
    5528:	df 92       	push	r13
    552a:	ef 92       	push	r14
    552c:	ff 92       	push	r15
    552e:	0f 93       	push	r16
    5530:	1f 93       	push	r17
    5532:	cf 93       	push	r28
    5534:	df 93       	push	r29
    5536:	ec 01       	movw	r28, r24
	if(ms_time>0){
    5538:	16 16       	cp	r1, r22
    553a:	17 06       	cpc	r1, r23
    553c:	0c f0       	brlt	.+2      	; 0x5540 <_ZN7Support6AdjastEifiiii+0x1e>
    553e:	71 c0       	rjmp	.+226    	; 0x5622 <_ZN7Support6AdjastEifiiii+0x100>
		uint8_t data = 0x00;
    5540:	91 e0       	ldi	r25, 0x01	; 1
    5542:	01 30       	cpi	r16, 0x01	; 1
    5544:	11 05       	cpc	r17, r1
    5546:	09 f0       	breq	.+2      	; 0x554a <_ZN7Support6AdjastEifiiii+0x28>
    5548:	90 e0       	ldi	r25, 0x00	; 0
		if(DerWheel_1 == UP){data |= (1<<0);};
		if(DerWheel_1 == DOWN){data |= (1<<1);};
    554a:	02 30       	cpi	r16, 0x02	; 2
    554c:	11 05       	cpc	r17, r1
    554e:	09 f4       	brne	.+2      	; 0x5552 <_ZN7Support6AdjastEifiiii+0x30>
    5550:	92 60       	ori	r25, 0x02	; 2
		
		if(DerWheel_2 == UP){data |= (1<<2);};
    5552:	81 e0       	ldi	r24, 0x01	; 1
    5554:	e8 16       	cp	r14, r24
    5556:	f1 04       	cpc	r15, r1
    5558:	11 f4       	brne	.+4      	; 0x555e <_ZN7Support6AdjastEifiiii+0x3c>
    555a:	94 60       	ori	r25, 0x04	; 4
    555c:	05 c0       	rjmp	.+10     	; 0x5568 <_ZN7Support6AdjastEifiiii+0x46>
		if(DerWheel_2 == DOWN){data |= (1<<3);};
    555e:	82 e0       	ldi	r24, 0x02	; 2
    5560:	e8 16       	cp	r14, r24
    5562:	f1 04       	cpc	r15, r1
    5564:	09 f4       	brne	.+2      	; 0x5568 <_ZN7Support6AdjastEifiiii+0x46>
    5566:	98 60       	ori	r25, 0x08	; 8
		
		if(DerWheel_3 == UP){data |= (1<<4);};
    5568:	81 e0       	ldi	r24, 0x01	; 1
    556a:	c8 16       	cp	r12, r24
    556c:	d1 04       	cpc	r13, r1
    556e:	11 f4       	brne	.+4      	; 0x5574 <_ZN7Support6AdjastEifiiii+0x52>
    5570:	90 61       	ori	r25, 0x10	; 16
    5572:	05 c0       	rjmp	.+10     	; 0x557e <_ZN7Support6AdjastEifiiii+0x5c>
		if(DerWheel_3 == DOWN){data |= (1<<5);};
    5574:	82 e0       	ldi	r24, 0x02	; 2
    5576:	c8 16       	cp	r12, r24
    5578:	d1 04       	cpc	r13, r1
    557a:	09 f4       	brne	.+2      	; 0x557e <_ZN7Support6AdjastEifiiii+0x5c>
    557c:	90 62       	ori	r25, 0x20	; 32
    557e:	69 01       	movw	r12, r18
    5580:	7a 01       	movw	r14, r20
    5582:	8b 01       	movw	r16, r22
		
		if(DerWheel_4 == UP){data |= (1<<6);};
    5584:	81 e0       	ldi	r24, 0x01	; 1
    5586:	a8 16       	cp	r10, r24
    5588:	b1 04       	cpc	r11, r1
    558a:	19 f4       	brne	.+6      	; 0x5592 <_ZN7Support6AdjastEifiiii+0x70>
    558c:	69 2f       	mov	r22, r25
    558e:	60 64       	ori	r22, 0x40	; 64
    5590:	06 c0       	rjmp	.+12     	; 0x559e <_ZN7Support6AdjastEifiiii+0x7c>
		if(DerWheel_4 == DOWN){data |= (1<<7);};
    5592:	82 e0       	ldi	r24, 0x02	; 2
    5594:	a8 16       	cp	r10, r24
    5596:	b1 04       	cpc	r11, r1
    5598:	e9 f5       	brne	.+122    	; 0x5614 <_ZN7Support6AdjastEifiiii+0xf2>
    559a:	69 2f       	mov	r22, r25
    559c:	60 68       	ori	r22, 0x80	; 128
		
		write_i2c((I2C_ADR_PCF8574<<1), data);
    559e:	8e e7       	ldi	r24, 0x7E	; 126
    55a0:	0e 94 66 2a 	call	0x54cc	; 0x54cc <_ZL9write_i2chh>
		for (i=0;i<ms_time;i++){_delay_ms(1);}
    55a4:	19 82       	std	Y+1, r1	; 0x01
    55a6:	18 82       	st	Y, r1
    55a8:	8f e9       	ldi	r24, 0x9F	; 159
    55aa:	9f e0       	ldi	r25, 0x0F	; 15
    55ac:	01 97       	sbiw	r24, 0x01	; 1
    55ae:	f1 f7       	brne	.-4      	; 0x55ac <_ZN7Support6AdjastEifiiii+0x8a>
    55b0:	00 c0       	rjmp	.+0      	; 0x55b2 <_ZN7Support6AdjastEifiiii+0x90>
    55b2:	00 00       	nop
    55b4:	88 81       	ld	r24, Y
    55b6:	99 81       	ldd	r25, Y+1	; 0x01
    55b8:	01 96       	adiw	r24, 0x01	; 1
    55ba:	99 83       	std	Y+1, r25	; 0x01
    55bc:	88 83       	st	Y, r24
    55be:	80 17       	cp	r24, r16
    55c0:	91 07       	cpc	r25, r17
    55c2:	94 f3       	brlt	.-28     	; 0x55a8 <_ZN7Support6AdjastEifiiii+0x86>
		write_i2c((I2C_ADR_PCF8574<<1), 0x00);
    55c4:	60 e0       	ldi	r22, 0x00	; 0
    55c6:	8e e7       	ldi	r24, 0x7E	; 126
    55c8:	0e 94 66 2a 	call	0x54cc	; 0x54cc <_ZL9write_i2chh>
		for (i=0;i<inertion;i++){_delay_ms(1);}
    55cc:	19 82       	std	Y+1, r1	; 0x01
    55ce:	18 82       	st	Y, r1
    55d0:	20 e0       	ldi	r18, 0x00	; 0
    55d2:	30 e0       	ldi	r19, 0x00	; 0
    55d4:	a9 01       	movw	r20, r18
    55d6:	c7 01       	movw	r24, r14
    55d8:	b6 01       	movw	r22, r12
    55da:	0e 94 5e 30 	call	0x60bc	; 0x60bc <__gesf2>
    55de:	18 16       	cp	r1, r24
    55e0:	04 f5       	brge	.+64     	; 0x5622 <_ZN7Support6AdjastEifiiii+0x100>
    55e2:	8f e9       	ldi	r24, 0x9F	; 159
    55e4:	9f e0       	ldi	r25, 0x0F	; 15
    55e6:	01 97       	sbiw	r24, 0x01	; 1
    55e8:	f1 f7       	brne	.-4      	; 0x55e6 <_ZN7Support6AdjastEifiiii+0xc4>
    55ea:	00 c0       	rjmp	.+0      	; 0x55ec <_ZN7Support6AdjastEifiiii+0xca>
    55ec:	00 00       	nop
    55ee:	68 81       	ld	r22, Y
    55f0:	79 81       	ldd	r23, Y+1	; 0x01
    55f2:	6f 5f       	subi	r22, 0xFF	; 255
    55f4:	7f 4f       	sbci	r23, 0xFF	; 255
    55f6:	79 83       	std	Y+1, r23	; 0x01
    55f8:	68 83       	st	Y, r22
    55fa:	07 2e       	mov	r0, r23
    55fc:	00 0c       	add	r0, r0
    55fe:	88 0b       	sbc	r24, r24
    5600:	99 0b       	sbc	r25, r25
    5602:	0e 94 ae 2f 	call	0x5f5c	; 0x5f5c <__floatsisf>
    5606:	a7 01       	movw	r20, r14
    5608:	96 01       	movw	r18, r12
    560a:	0e 94 ff 2e 	call	0x5dfe	; 0x5dfe <__cmpsf2>
    560e:	88 23       	and	r24, r24
    5610:	44 f3       	brlt	.-48     	; 0x55e2 <_ZN7Support6AdjastEifiiii+0xc0>
    5612:	07 c0       	rjmp	.+14     	; 0x5622 <_ZN7Support6AdjastEifiiii+0x100>
		if(DerWheel_3 == DOWN){data |= (1<<5);};
		
		if(DerWheel_4 == UP){data |= (1<<6);};
		if(DerWheel_4 == DOWN){data |= (1<<7);};
		
		write_i2c((I2C_ADR_PCF8574<<1), data);
    5614:	69 2f       	mov	r22, r25
    5616:	8e e7       	ldi	r24, 0x7E	; 126
    5618:	0e 94 66 2a 	call	0x54cc	; 0x54cc <_ZL9write_i2chh>
		for (i=0;i<ms_time;i++){_delay_ms(1);}
    561c:	19 82       	std	Y+1, r1	; 0x01
    561e:	18 82       	st	Y, r1
    5620:	c3 cf       	rjmp	.-122    	; 0x55a8 <_ZN7Support6AdjastEifiiii+0x86>
		write_i2c((I2C_ADR_PCF8574<<1), 0x00);
		for (i=0;i<inertion;i++){_delay_ms(1);}
	}
	
}
    5622:	df 91       	pop	r29
    5624:	cf 91       	pop	r28
    5626:	1f 91       	pop	r17
    5628:	0f 91       	pop	r16
    562a:	ff 90       	pop	r15
    562c:	ef 90       	pop	r14
    562e:	df 90       	pop	r13
    5630:	cf 90       	pop	r12
    5632:	bf 90       	pop	r11
    5634:	af 90       	pop	r10
    5636:	08 95       	ret

00005638 <_ZN7Support9ForceMoveEiiiii>:

void Support::ForceMove(int ms_time, int DerWheel_1, int DerWheel_2,int DerWheel_3, int DerWheel_4){
    5638:	ef 92       	push	r14
    563a:	ff 92       	push	r15
    563c:	0f 93       	push	r16
    563e:	1f 93       	push	r17
    5640:	cf 93       	push	r28
    5642:	df 93       	push	r29
    5644:	f9 01       	movw	r30, r18
	if(ms_time>0){
    5646:	16 16       	cp	r1, r22
    5648:	17 06       	cpc	r1, r23
    564a:	0c f0       	brlt	.+2      	; 0x564e <_ZN7Support9ForceMoveEiiiii+0x16>
    564c:	52 c0       	rjmp	.+164    	; 0x56f2 <_ZN7Support9ForceMoveEiiiii+0xba>
		uint8_t data = 0x00;
    564e:	31 e0       	ldi	r19, 0x01	; 1
    5650:	41 30       	cpi	r20, 0x01	; 1
    5652:	51 05       	cpc	r21, r1
    5654:	09 f0       	breq	.+2      	; 0x5658 <_ZN7Support9ForceMoveEiiiii+0x20>
    5656:	30 e0       	ldi	r19, 0x00	; 0
		if(DerWheel_1 == UP){data |= (1<<0);};
		if(DerWheel_1 == DOWN){data |= (1<<1);};
    5658:	42 30       	cpi	r20, 0x02	; 2
    565a:	51 05       	cpc	r21, r1
    565c:	09 f4       	brne	.+2      	; 0x5660 <_ZN7Support9ForceMoveEiiiii+0x28>
    565e:	32 60       	ori	r19, 0x02	; 2
		
		if(DerWheel_2 == UP){data |= (1<<2);};
    5660:	e1 30       	cpi	r30, 0x01	; 1
    5662:	f1 05       	cpc	r31, r1
    5664:	11 f4       	brne	.+4      	; 0x566a <_ZN7Support9ForceMoveEiiiii+0x32>
    5666:	34 60       	ori	r19, 0x04	; 4
    5668:	03 c0       	rjmp	.+6      	; 0x5670 <_ZN7Support9ForceMoveEiiiii+0x38>
		if(DerWheel_2 == DOWN){data |= (1<<3);};
    566a:	32 97       	sbiw	r30, 0x02	; 2
    566c:	09 f4       	brne	.+2      	; 0x5670 <_ZN7Support9ForceMoveEiiiii+0x38>
    566e:	38 60       	ori	r19, 0x08	; 8
		
		if(DerWheel_3 == UP){data |= (1<<4);};
    5670:	01 30       	cpi	r16, 0x01	; 1
    5672:	11 05       	cpc	r17, r1
    5674:	11 f4       	brne	.+4      	; 0x567a <_ZN7Support9ForceMoveEiiiii+0x42>
    5676:	30 61       	ori	r19, 0x10	; 16
    5678:	04 c0       	rjmp	.+8      	; 0x5682 <_ZN7Support9ForceMoveEiiiii+0x4a>
		if(DerWheel_3 == DOWN){data |= (1<<5);};
    567a:	02 30       	cpi	r16, 0x02	; 2
    567c:	11 05       	cpc	r17, r1
    567e:	09 f4       	brne	.+2      	; 0x5682 <_ZN7Support9ForceMoveEiiiii+0x4a>
    5680:	30 62       	ori	r19, 0x20	; 32
    5682:	8b 01       	movw	r16, r22
    5684:	ec 01       	movw	r28, r24
		
		if(DerWheel_4 == UP){data |= (1<<6);};
    5686:	21 e0       	ldi	r18, 0x01	; 1
    5688:	e2 16       	cp	r14, r18
    568a:	f1 04       	cpc	r15, r1
    568c:	19 f4       	brne	.+6      	; 0x5694 <_ZN7Support9ForceMoveEiiiii+0x5c>
    568e:	63 2f       	mov	r22, r19
    5690:	60 64       	ori	r22, 0x40	; 64
    5692:	06 c0       	rjmp	.+12     	; 0x56a0 <_ZN7Support9ForceMoveEiiiii+0x68>
		if(DerWheel_4 == DOWN){data |= (1<<7);};
    5694:	82 e0       	ldi	r24, 0x02	; 2
    5696:	e8 16       	cp	r14, r24
    5698:	f1 04       	cpc	r15, r1
    569a:	21 f5       	brne	.+72     	; 0x56e4 <_ZN7Support9ForceMoveEiiiii+0xac>
    569c:	63 2f       	mov	r22, r19
    569e:	60 68       	ori	r22, 0x80	; 128
		
		write_i2c((I2C_ADR_PCF8574<<1), data);
    56a0:	8e e7       	ldi	r24, 0x7E	; 126
    56a2:	0e 94 66 2a 	call	0x54cc	; 0x54cc <_ZL9write_i2chh>
		for (i=0;i<ms_time;i++){_delay_ms(1);}
    56a6:	19 82       	std	Y+1, r1	; 0x01
    56a8:	18 82       	st	Y, r1
    56aa:	8f e9       	ldi	r24, 0x9F	; 159
    56ac:	9f e0       	ldi	r25, 0x0F	; 15
    56ae:	01 97       	sbiw	r24, 0x01	; 1
    56b0:	f1 f7       	brne	.-4      	; 0x56ae <_ZN7Support9ForceMoveEiiiii+0x76>
    56b2:	00 c0       	rjmp	.+0      	; 0x56b4 <_ZN7Support9ForceMoveEiiiii+0x7c>
    56b4:	00 00       	nop
    56b6:	28 81       	ld	r18, Y
    56b8:	39 81       	ldd	r19, Y+1	; 0x01
    56ba:	2f 5f       	subi	r18, 0xFF	; 255
    56bc:	3f 4f       	sbci	r19, 0xFF	; 255
    56be:	39 83       	std	Y+1, r19	; 0x01
    56c0:	28 83       	st	Y, r18
    56c2:	20 17       	cp	r18, r16
    56c4:	31 07       	cpc	r19, r17
    56c6:	8c f3       	brlt	.-30     	; 0x56aa <_ZN7Support9ForceMoveEiiiii+0x72>
		write_i2c((I2C_ADR_PCF8574<<1), 0x00);
    56c8:	60 e0       	ldi	r22, 0x00	; 0
    56ca:	8e e7       	ldi	r24, 0x7E	; 126
    56cc:	0e 94 66 2a 	call	0x54cc	; 0x54cc <_ZL9write_i2chh>
    56d0:	9f ef       	ldi	r25, 0xFF	; 255
    56d2:	20 e7       	ldi	r18, 0x70	; 112
    56d4:	82 e0       	ldi	r24, 0x02	; 2
    56d6:	91 50       	subi	r25, 0x01	; 1
    56d8:	20 40       	sbci	r18, 0x00	; 0
    56da:	80 40       	sbci	r24, 0x00	; 0
    56dc:	e1 f7       	brne	.-8      	; 0x56d6 <_ZN7Support9ForceMoveEiiiii+0x9e>
    56de:	00 c0       	rjmp	.+0      	; 0x56e0 <_ZN7Support9ForceMoveEiiiii+0xa8>
    56e0:	00 00       	nop
		_delay_ms(50);
	}
	
}
    56e2:	07 c0       	rjmp	.+14     	; 0x56f2 <_ZN7Support9ForceMoveEiiiii+0xba>
		if(DerWheel_3 == DOWN){data |= (1<<5);};
		
		if(DerWheel_4 == UP){data |= (1<<6);};
		if(DerWheel_4 == DOWN){data |= (1<<7);};
		
		write_i2c((I2C_ADR_PCF8574<<1), data);
    56e4:	63 2f       	mov	r22, r19
    56e6:	8e e7       	ldi	r24, 0x7E	; 126
    56e8:	0e 94 66 2a 	call	0x54cc	; 0x54cc <_ZL9write_i2chh>
		for (i=0;i<ms_time;i++){_delay_ms(1);}
    56ec:	19 82       	std	Y+1, r1	; 0x01
    56ee:	18 82       	st	Y, r1
    56f0:	dc cf       	rjmp	.-72     	; 0x56aa <_ZN7Support9ForceMoveEiiiii+0x72>
		write_i2c((I2C_ADR_PCF8574<<1), 0x00);
		_delay_ms(50);
	}
	
}
    56f2:	df 91       	pop	r29
    56f4:	cf 91       	pop	r28
    56f6:	1f 91       	pop	r17
    56f8:	0f 91       	pop	r16
    56fa:	ff 90       	pop	r15
    56fc:	ef 90       	pop	r14
    56fe:	08 95       	ret

00005700 <_ZN5WheelC1Ev>:
#include "Wheel.h"



// default constructor
Wheel::Wheel()
    5700:	8b 96       	adiw	r24, 0x2b	; 43
    5702:	0e 94 fd 29 	call	0x53fa	; 0x53fa <_ZN13SensorsWheelsC1Ev>
    5706:	08 95       	ret

00005708 <_ZN5Wheel9get_hightEv>:
	oldHigit = get_hight();
	countToMalfunction = 0;
	Error = 0;
}

float Wheel::get_hight(){
    5708:	cf 93       	push	r28
    570a:	df 93       	push	r29
    570c:	ec 01       	movw	r28, r24
	hight = sensorWheels.getParams(number);
    570e:	68 81       	ld	r22, Y
    5710:	79 81       	ldd	r23, Y+1	; 0x01
    5712:	8b 96       	adiw	r24, 0x2b	; 43
    5714:	0e 94 09 2a 	call	0x5412	; 0x5412 <_ZN13SensorsWheels9getParamsEi>
    5718:	6a 83       	std	Y+2, r22	; 0x02
    571a:	7b 83       	std	Y+3, r23	; 0x03
    571c:	8c 83       	std	Y+4, r24	; 0x04
    571e:	9d 83       	std	Y+5, r25	; 0x05
	return hight;
}
    5720:	df 91       	pop	r29
    5722:	cf 91       	pop	r28
    5724:	08 95       	ret

00005726 <_ZN5Wheel4InitEi>:
// default constructor
Wheel::Wheel()
{
} //Wheel

void Wheel::Init(int _number){
    5726:	0f 93       	push	r16
    5728:	1f 93       	push	r17
    572a:	cf 93       	push	r28
    572c:	df 93       	push	r29
    572e:	ec 01       	movw	r28, r24
    5730:	8b 01       	movw	r16, r22
	sensorWheels.Init();
    5732:	8b 96       	adiw	r24, 0x2b	; 43
    5734:	0e 94 fe 29 	call	0x53fc	; 0x53fc <_ZN13SensorsWheels4InitEv>
	number =  _number;
    5738:	19 83       	std	Y+1, r17	; 0x01
    573a:	08 83       	st	Y, r16
	maxHight = 5.00;
    573c:	80 e0       	ldi	r24, 0x00	; 0
    573e:	90 e0       	ldi	r25, 0x00	; 0
    5740:	a0 ea       	ldi	r26, 0xA0	; 160
    5742:	b0 e4       	ldi	r27, 0x40	; 64
    5744:	8e 83       	std	Y+6, r24	; 0x06
    5746:	9f 83       	std	Y+7, r25	; 0x07
    5748:	a8 87       	std	Y+8, r26	; 0x08
    574a:	b9 87       	std	Y+9, r27	; 0x09
	minHight = 0.01;
    574c:	8a e0       	ldi	r24, 0x0A	; 10
    574e:	97 ed       	ldi	r25, 0xD7	; 215
    5750:	a3 e2       	ldi	r26, 0x23	; 35
    5752:	bc e3       	ldi	r27, 0x3C	; 60
    5754:	8a 87       	std	Y+10, r24	; 0x0a
    5756:	9b 87       	std	Y+11, r25	; 0x0b
    5758:	ac 87       	std	Y+12, r26	; 0x0c
    575a:	bd 87       	std	Y+13, r27	; 0x0d
	oldHigit = get_hight();
    575c:	ce 01       	movw	r24, r28
    575e:	0e 94 84 2b 	call	0x5708	; 0x5708 <_ZN5Wheel9get_hightEv>
    5762:	6b 8b       	std	Y+19, r22	; 0x13
    5764:	7c 8b       	std	Y+20, r23	; 0x14
    5766:	8d 8b       	std	Y+21, r24	; 0x15
    5768:	9e 8b       	std	Y+22, r25	; 0x16
	countToMalfunction = 0;
    576a:	1e a2       	std	Y+38, r1	; 0x26
    576c:	1d a2       	std	Y+37, r1	; 0x25
	Error = 0;
    576e:	1c a2       	std	Y+36, r1	; 0x24
    5770:	1b a2       	std	Y+35, r1	; 0x23
}
    5772:	df 91       	pop	r29
    5774:	cf 91       	pop	r28
    5776:	1f 91       	pop	r17
    5778:	0f 91       	pop	r16
    577a:	08 95       	ret

0000577c <_ZN5Wheel12initialHightEv>:
float Wheel::get_hight(){
	hight = sensorWheels.getParams(number);
	return hight;
}

void Wheel::initialHight(){
    577c:	cf 93       	push	r28
    577e:	df 93       	push	r29
    5780:	ec 01       	movw	r28, r24
	get_hight();
    5782:	0e 94 84 2b 	call	0x5708	; 0x5708 <_ZN5Wheel9get_hightEv>
	sethight = hight;
    5786:	8a 81       	ldd	r24, Y+2	; 0x02
    5788:	9b 81       	ldd	r25, Y+3	; 0x03
    578a:	ac 81       	ldd	r26, Y+4	; 0x04
    578c:	bd 81       	ldd	r27, Y+5	; 0x05
    578e:	8b 8f       	std	Y+27, r24	; 0x1b
    5790:	9c 8f       	std	Y+28, r25	; 0x1c
    5792:	ad 8f       	std	Y+29, r26	; 0x1d
    5794:	be 8f       	std	Y+30, r27	; 0x1e
	step_min = 0;
    5796:	1a a6       	std	Y+42, r1	; 0x2a
    5798:	19 a6       	std	Y+41, r1	; 0x29
}
    579a:	df 91       	pop	r29
    579c:	cf 91       	pop	r28
    579e:	08 95       	ret

000057a0 <_ZN5Wheel21hightBeforeMoveNotingEv>:

bool Wheel::hightBeforeMoveNoting(){
    57a0:	fc 01       	movw	r30, r24
	if (!selected) return false;
    57a2:	87 8d       	ldd	r24, Z+31	; 0x1f
    57a4:	88 23       	and	r24, r24
    57a6:	61 f0       	breq	.+24     	; 0x57c0 <_ZN5Wheel21hightBeforeMoveNotingEv+0x20>
	if (malfuction) return false;
    57a8:	80 a1       	ldd	r24, Z+32	; 0x20
    57aa:	81 11       	cpse	r24, r1
    57ac:	09 c0       	rjmp	.+18     	; 0x57c0 <_ZN5Wheel21hightBeforeMoveNotingEv+0x20>
	hightBeforeMove = hight;
    57ae:	82 81       	ldd	r24, Z+2	; 0x02
    57b0:	93 81       	ldd	r25, Z+3	; 0x03
    57b2:	a4 81       	ldd	r26, Z+4	; 0x04
    57b4:	b5 81       	ldd	r27, Z+5	; 0x05
    57b6:	86 87       	std	Z+14, r24	; 0x0e
    57b8:	97 87       	std	Z+15, r25	; 0x0f
    57ba:	a0 8b       	std	Z+16, r26	; 0x10
    57bc:	b1 8b       	std	Z+17, r27	; 0x11
}
    57be:	08 95       	ret
    57c0:	80 e0       	ldi	r24, 0x00	; 0
    57c2:	08 95       	ret

000057c4 <_ZN5Wheel13takeDerectionEf>:

int Wheel::takeDerection(float accuracy){	
    57c4:	4f 92       	push	r4
    57c6:	5f 92       	push	r5
    57c8:	6f 92       	push	r6
    57ca:	7f 92       	push	r7
    57cc:	8f 92       	push	r8
    57ce:	9f 92       	push	r9
    57d0:	af 92       	push	r10
    57d2:	bf 92       	push	r11
    57d4:	cf 92       	push	r12
    57d6:	df 92       	push	r13
    57d8:	ef 92       	push	r14
    57da:	ff 92       	push	r15
    57dc:	0f 93       	push	r16
    57de:	1f 93       	push	r17
    57e0:	cf 93       	push	r28
    57e2:	df 93       	push	r29
	if (!selected) return NORMAL;
    57e4:	fc 01       	movw	r30, r24
    57e6:	27 8d       	ldd	r18, Z+31	; 0x1f
    57e8:	22 23       	and	r18, r18
    57ea:	09 f4       	brne	.+2      	; 0x57ee <_ZN5Wheel13takeDerectionEf+0x2a>
    57ec:	98 c0       	rjmp	.+304    	; 0x591e <_ZN5Wheel13takeDerectionEf+0x15a>
	if (malfuction) return 0;
    57ee:	20 a1       	ldd	r18, Z+32	; 0x20
    57f0:	21 11       	cpse	r18, r1
    57f2:	98 c0       	rjmp	.+304    	; 0x5924 <_ZN5Wheel13takeDerectionEf+0x160>
    57f4:	6a 01       	movw	r12, r20
    57f6:	7b 01       	movw	r14, r22
    57f8:	ec 01       	movw	r28, r24
	hight = get_hight();
    57fa:	0e 94 84 2b 	call	0x5708	; 0x5708 <_ZN5Wheel9get_hightEv>
    57fe:	4b 01       	movw	r8, r22
    5800:	5c 01       	movw	r10, r24
    5802:	6a 83       	std	Y+2, r22	; 0x02
    5804:	7b 83       	std	Y+3, r23	; 0x03
    5806:	8c 83       	std	Y+4, r24	; 0x04
    5808:	9d 83       	std	Y+5, r25	; 0x05
	if(sethight==0){sethight=0.01;}//correcting
    580a:	20 e0       	ldi	r18, 0x00	; 0
    580c:	30 e0       	ldi	r19, 0x00	; 0
    580e:	a9 01       	movw	r20, r18
    5810:	6b 8d       	ldd	r22, Y+27	; 0x1b
    5812:	7c 8d       	ldd	r23, Y+28	; 0x1c
    5814:	8d 8d       	ldd	r24, Y+29	; 0x1d
    5816:	9e 8d       	ldd	r25, Y+30	; 0x1e
    5818:	0e 94 ff 2e 	call	0x5dfe	; 0x5dfe <__cmpsf2>
    581c:	81 11       	cpse	r24, r1
    581e:	08 c0       	rjmp	.+16     	; 0x5830 <_ZN5Wheel13takeDerectionEf+0x6c>
    5820:	8a e0       	ldi	r24, 0x0A	; 10
    5822:	97 ed       	ldi	r25, 0xD7	; 215
    5824:	a3 e2       	ldi	r26, 0x23	; 35
    5826:	bc e3       	ldi	r27, 0x3C	; 60
    5828:	8b 8f       	std	Y+27, r24	; 0x1b
    582a:	9c 8f       	std	Y+28, r25	; 0x1c
    582c:	ad 8f       	std	Y+29, r26	; 0x1d
    582e:	be 8f       	std	Y+30, r27	; 0x1e
	diff = sethight*300 - hight*300;
    5830:	20 e0       	ldi	r18, 0x00	; 0
    5832:	30 e0       	ldi	r19, 0x00	; 0
    5834:	46 e9       	ldi	r20, 0x96	; 150
    5836:	53 e4       	ldi	r21, 0x43	; 67
    5838:	6b 8d       	ldd	r22, Y+27	; 0x1b
    583a:	7c 8d       	ldd	r23, Y+28	; 0x1c
    583c:	8d 8d       	ldd	r24, Y+29	; 0x1d
    583e:	9e 8d       	ldd	r25, Y+30	; 0x1e
    5840:	0e 94 63 30 	call	0x60c6	; 0x60c6 <__mulsf3>
    5844:	2b 01       	movw	r4, r22
    5846:	3c 01       	movw	r6, r24
    5848:	20 e0       	ldi	r18, 0x00	; 0
    584a:	30 e0       	ldi	r19, 0x00	; 0
    584c:	46 e9       	ldi	r20, 0x96	; 150
    584e:	53 e4       	ldi	r21, 0x43	; 67
    5850:	c5 01       	movw	r24, r10
    5852:	b4 01       	movw	r22, r8
    5854:	0e 94 63 30 	call	0x60c6	; 0x60c6 <__mulsf3>
    5858:	9b 01       	movw	r18, r22
    585a:	ac 01       	movw	r20, r24
    585c:	c3 01       	movw	r24, r6
    585e:	b2 01       	movw	r22, r4
    5860:	0e 94 92 2e 	call	0x5d24	; 0x5d24 <__subsf3>
    5864:	6c a7       	std	Y+44, r22	; 0x2c
    5866:	7d a7       	std	Y+45, r23	; 0x2d
    5868:	8e a7       	std	Y+46, r24	; 0x2e
    586a:	9f a7       	std	Y+47, r25	; 0x2f
	step = diff;
    586c:	0e 94 76 2f 	call	0x5eec	; 0x5eec <__fixsfsi>
    5870:	4b 01       	movw	r8, r22
    5872:	5c 01       	movw	r10, r24
    5874:	78 a7       	std	Y+40, r23	; 0x28
    5876:	6f a3       	std	Y+39, r22	; 0x27
	_diff = diff;
    5878:	79 ab       	std	Y+49, r23	; 0x31
    587a:	68 ab       	std	Y+48, r22	; 0x30
	
	adjusted = false;
    587c:	19 a2       	std	Y+33, r1	; 0x21
	if (_diff < 0 - accuracy*300){ step = (0 - step); if(step<step_min){step=step_min;} ; return DOWN;}
    587e:	07 2e       	mov	r0, r23
    5880:	00 0c       	add	r0, r0
    5882:	88 0b       	sbc	r24, r24
    5884:	99 0b       	sbc	r25, r25
    5886:	0e 94 ae 2f 	call	0x5f5c	; 0x5f5c <__floatsisf>
    588a:	2b 01       	movw	r4, r22
    588c:	3c 01       	movw	r6, r24
    588e:	20 e0       	ldi	r18, 0x00	; 0
    5890:	30 e0       	ldi	r19, 0x00	; 0
    5892:	46 e9       	ldi	r20, 0x96	; 150
    5894:	53 e4       	ldi	r21, 0x43	; 67
    5896:	c7 01       	movw	r24, r14
    5898:	b6 01       	movw	r22, r12
    589a:	0e 94 63 30 	call	0x60c6	; 0x60c6 <__mulsf3>
    589e:	6b 01       	movw	r12, r22
    58a0:	7c 01       	movw	r14, r24
    58a2:	9b 01       	movw	r18, r22
    58a4:	ac 01       	movw	r20, r24
    58a6:	60 e0       	ldi	r22, 0x00	; 0
    58a8:	70 e0       	ldi	r23, 0x00	; 0
    58aa:	cb 01       	movw	r24, r22
    58ac:	0e 94 92 2e 	call	0x5d24	; 0x5d24 <__subsf3>
    58b0:	9b 01       	movw	r18, r22
    58b2:	ac 01       	movw	r20, r24
    58b4:	c3 01       	movw	r24, r6
    58b6:	b2 01       	movw	r22, r4
    58b8:	0e 94 ff 2e 	call	0x5dfe	; 0x5dfe <__cmpsf2>
    58bc:	88 23       	and	r24, r24
    58be:	7c f4       	brge	.+30     	; 0x58de <_ZN5Wheel13takeDerectionEf+0x11a>
    58c0:	91 94       	neg	r9
    58c2:	81 94       	neg	r8
    58c4:	91 08       	sbc	r9, r1
    58c6:	98 a6       	std	Y+40, r9	; 0x28
    58c8:	8f a2       	std	Y+39, r8	; 0x27
    58ca:	89 a5       	ldd	r24, Y+41	; 0x29
    58cc:	9a a5       	ldd	r25, Y+42	; 0x2a
    58ce:	88 16       	cp	r8, r24
    58d0:	99 06       	cpc	r9, r25
    58d2:	5c f5       	brge	.+86     	; 0x592a <_ZN5Wheel13takeDerectionEf+0x166>
    58d4:	98 a7       	std	Y+40, r25	; 0x28
    58d6:	8f a3       	std	Y+39, r24	; 0x27
    58d8:	82 e0       	ldi	r24, 0x02	; 2
    58da:	90 e0       	ldi	r25, 0x00	; 0
    58dc:	2b c0       	rjmp	.+86     	; 0x5934 <_ZN5Wheel13takeDerectionEf+0x170>
	if (_diff > 0 + accuracy*300){ if(step<step_min){step=step_min;}; ; return UP;}
    58de:	20 e0       	ldi	r18, 0x00	; 0
    58e0:	30 e0       	ldi	r19, 0x00	; 0
    58e2:	a9 01       	movw	r20, r18
    58e4:	c7 01       	movw	r24, r14
    58e6:	b6 01       	movw	r22, r12
    58e8:	0e 94 93 2e 	call	0x5d26	; 0x5d26 <__addsf3>
    58ec:	9b 01       	movw	r18, r22
    58ee:	ac 01       	movw	r20, r24
    58f0:	c3 01       	movw	r24, r6
    58f2:	b2 01       	movw	r22, r4
    58f4:	0e 94 5e 30 	call	0x60bc	; 0x60bc <__gesf2>
    58f8:	18 16       	cp	r1, r24
    58fa:	54 f4       	brge	.+20     	; 0x5910 <_ZN5Wheel13takeDerectionEf+0x14c>
    58fc:	89 a5       	ldd	r24, Y+41	; 0x29
    58fe:	9a a5       	ldd	r25, Y+42	; 0x2a
    5900:	88 16       	cp	r8, r24
    5902:	99 06       	cpc	r9, r25
    5904:	ac f4       	brge	.+42     	; 0x5930 <_ZN5Wheel13takeDerectionEf+0x16c>
    5906:	98 a7       	std	Y+40, r25	; 0x28
    5908:	8f a3       	std	Y+39, r24	; 0x27
    590a:	81 e0       	ldi	r24, 0x01	; 1
    590c:	90 e0       	ldi	r25, 0x00	; 0
    590e:	12 c0       	rjmp	.+36     	; 0x5934 <_ZN5Wheel13takeDerectionEf+0x170>
	step = 0;
    5910:	18 a6       	std	Y+40, r1	; 0x28
    5912:	1f a2       	std	Y+39, r1	; 0x27
	adjusted = true;
    5914:	81 e0       	ldi	r24, 0x01	; 1
    5916:	89 a3       	std	Y+33, r24	; 0x21
	return NORMAL;
    5918:	80 e0       	ldi	r24, 0x00	; 0
    591a:	90 e0       	ldi	r25, 0x00	; 0
    591c:	0b c0       	rjmp	.+22     	; 0x5934 <_ZN5Wheel13takeDerectionEf+0x170>
	if (malfuction) return false;
	hightBeforeMove = hight;
}

int Wheel::takeDerection(float accuracy){	
	if (!selected) return NORMAL;
    591e:	80 e0       	ldi	r24, 0x00	; 0
    5920:	90 e0       	ldi	r25, 0x00	; 0
    5922:	08 c0       	rjmp	.+16     	; 0x5934 <_ZN5Wheel13takeDerectionEf+0x170>
	if (malfuction) return 0;
    5924:	80 e0       	ldi	r24, 0x00	; 0
    5926:	90 e0       	ldi	r25, 0x00	; 0
    5928:	05 c0       	rjmp	.+10     	; 0x5934 <_ZN5Wheel13takeDerectionEf+0x170>
	diff = sethight*300 - hight*300;
	step = diff;
	_diff = diff;
	
	adjusted = false;
	if (_diff < 0 - accuracy*300){ step = (0 - step); if(step<step_min){step=step_min;} ; return DOWN;}
    592a:	82 e0       	ldi	r24, 0x02	; 2
    592c:	90 e0       	ldi	r25, 0x00	; 0
    592e:	02 c0       	rjmp	.+4      	; 0x5934 <_ZN5Wheel13takeDerectionEf+0x170>
	if (_diff > 0 + accuracy*300){ if(step<step_min){step=step_min;}; ; return UP;}
    5930:	81 e0       	ldi	r24, 0x01	; 1
    5932:	90 e0       	ldi	r25, 0x00	; 0
	step = 0;
	adjusted = true;
	return NORMAL;
}
    5934:	df 91       	pop	r29
    5936:	cf 91       	pop	r28
    5938:	1f 91       	pop	r17
    593a:	0f 91       	pop	r16
    593c:	ff 90       	pop	r15
    593e:	ef 90       	pop	r14
    5940:	df 90       	pop	r13
    5942:	cf 90       	pop	r12
    5944:	bf 90       	pop	r11
    5946:	af 90       	pop	r10
    5948:	9f 90       	pop	r9
    594a:	8f 90       	pop	r8
    594c:	7f 90       	pop	r7
    594e:	6f 90       	pop	r6
    5950:	5f 90       	pop	r5
    5952:	4f 90       	pop	r4
    5954:	08 95       	ret

00005956 <_ZN5Wheel17stepMinCorrictingEv>:

bool Wheel::stepMinCorricting(){
    5956:	cf 92       	push	r12
    5958:	df 92       	push	r13
    595a:	ef 92       	push	r14
    595c:	ff 92       	push	r15
    595e:	0f 93       	push	r16
    5960:	1f 93       	push	r17
    5962:	cf 93       	push	r28
	if (!selected) return false;
    5964:	fc 01       	movw	r30, r24
    5966:	c7 8d       	ldd	r28, Z+31	; 0x1f
    5968:	cc 23       	and	r28, r28
    596a:	f9 f0       	breq	.+62     	; 0x59aa <_ZN5Wheel17stepMinCorrictingEv+0x54>
	if (malfuction) return false;
    596c:	20 a1       	ldd	r18, Z+32	; 0x20
    596e:	21 11       	cpse	r18, r1
    5970:	19 c0       	rjmp	.+50     	; 0x59a4 <_ZN5Wheel17stepMinCorrictingEv+0x4e>
	if (adjusted) return false;
    5972:	31 a1       	ldd	r19, Z+33	; 0x21
    5974:	31 11       	cpse	r19, r1
    5976:	18 c0       	rjmp	.+48     	; 0x59a8 <_ZN5Wheel17stepMinCorrictingEv+0x52>
    5978:	8c 01       	movw	r16, r24
	if (hightBeforeMove == get_hight()){step_min++;};
    597a:	c6 84       	ldd	r12, Z+14	; 0x0e
    597c:	d7 84       	ldd	r13, Z+15	; 0x0f
    597e:	e0 88       	ldd	r14, Z+16	; 0x10
    5980:	f1 88       	ldd	r15, Z+17	; 0x11
    5982:	0e 94 84 2b 	call	0x5708	; 0x5708 <_ZN5Wheel9get_hightEv>
    5986:	9b 01       	movw	r18, r22
    5988:	ac 01       	movw	r20, r24
    598a:	c7 01       	movw	r24, r14
    598c:	b6 01       	movw	r22, r12
    598e:	0e 94 ff 2e 	call	0x5dfe	; 0x5dfe <__cmpsf2>
    5992:	81 11       	cpse	r24, r1
    5994:	0a c0       	rjmp	.+20     	; 0x59aa <_ZN5Wheel17stepMinCorrictingEv+0x54>
    5996:	f8 01       	movw	r30, r16
    5998:	81 a5       	ldd	r24, Z+41	; 0x29
    599a:	92 a5       	ldd	r25, Z+42	; 0x2a
    599c:	01 96       	adiw	r24, 0x01	; 1
    599e:	92 a7       	std	Z+42, r25	; 0x2a
    59a0:	81 a7       	std	Z+41, r24	; 0x29
    59a2:	03 c0       	rjmp	.+6      	; 0x59aa <_ZN5Wheel17stepMinCorrictingEv+0x54>
	return NORMAL;
}

bool Wheel::stepMinCorricting(){
	if (!selected) return false;
	if (malfuction) return false;
    59a4:	c0 e0       	ldi	r28, 0x00	; 0
    59a6:	01 c0       	rjmp	.+2      	; 0x59aa <_ZN5Wheel17stepMinCorrictingEv+0x54>
	if (adjusted) return false;
    59a8:	c2 2f       	mov	r28, r18
	if (hightBeforeMove == get_hight()){step_min++;};
	return true;
}
    59aa:	8c 2f       	mov	r24, r28
    59ac:	cf 91       	pop	r28
    59ae:	1f 91       	pop	r17
    59b0:	0f 91       	pop	r16
    59b2:	ff 90       	pop	r15
    59b4:	ef 90       	pop	r14
    59b6:	df 90       	pop	r13
    59b8:	cf 90       	pop	r12
    59ba:	08 95       	ret

000059bc <_ZN5Wheel12stepMinResetEv>:

bool Wheel::stepMinReset(){
	step_min = 0;
    59bc:	fc 01       	movw	r30, r24
    59be:	12 a6       	std	Z+42, r1	; 0x2a
    59c0:	11 a6       	std	Z+41, r1	; 0x29
}
    59c2:	08 95       	ret

000059c4 <_ZN5Wheel5CheckEv>:

bool Wheel::Check(){
    59c4:	cf 93       	push	r28
    59c6:	df 93       	push	r29
    59c8:	ec 01       	movw	r28, r24
	checkhight = hight;
    59ca:	8a 81       	ldd	r24, Y+2	; 0x02
    59cc:	9b 81       	ldd	r25, Y+3	; 0x03
    59ce:	ac 81       	ldd	r26, Y+4	; 0x04
    59d0:	bd 81       	ldd	r27, Y+5	; 0x05
    59d2:	8f 8b       	std	Y+23, r24	; 0x17
    59d4:	98 8f       	std	Y+24, r25	; 0x18
    59d6:	a9 8f       	std	Y+25, r26	; 0x19
    59d8:	ba 8f       	std	Y+26, r27	; 0x1a
	hight = get_hight();
    59da:	ce 01       	movw	r24, r28
    59dc:	0e 94 84 2b 	call	0x5708	; 0x5708 <_ZN5Wheel9get_hightEv>
    59e0:	6a 83       	std	Y+2, r22	; 0x02
    59e2:	7b 83       	std	Y+3, r23	; 0x03
    59e4:	8c 83       	std	Y+4, r24	; 0x04
    59e6:	9d 83       	std	Y+5, r25	; 0x05
	if (checkhight == hight){
    59e8:	2f 89       	ldd	r18, Y+23	; 0x17
    59ea:	38 8d       	ldd	r19, Y+24	; 0x18
    59ec:	49 8d       	ldd	r20, Y+25	; 0x19
    59ee:	5a 8d       	ldd	r21, Y+26	; 0x1a
    59f0:	0e 94 ff 2e 	call	0x5dfe	; 0x5dfe <__cmpsf2>
    59f4:	81 11       	cpse	r24, r1
    59f6:	08 c0       	rjmp	.+16     	; 0x5a08 <_ZN5Wheel5CheckEv+0x44>
		malfuction = true;
    59f8:	81 e0       	ldi	r24, 0x01	; 1
    59fa:	88 a3       	std	Y+32, r24	; 0x20
		Error = 1;
    59fc:	81 e0       	ldi	r24, 0x01	; 1
    59fe:	90 e0       	ldi	r25, 0x00	; 0
    5a00:	9c a3       	std	Y+36, r25	; 0x24
    5a02:	8b a3       	std	Y+35, r24	; 0x23
		return false;
    5a04:	80 e0       	ldi	r24, 0x00	; 0
    5a06:	02 c0       	rjmp	.+4      	; 0x5a0c <_ZN5Wheel5CheckEv+0x48>
	} else{
		malfuction = false;
    5a08:	18 a2       	std	Y+32, r1	; 0x20
		return true;
    5a0a:	81 e0       	ldi	r24, 0x01	; 1
	}
}
    5a0c:	df 91       	pop	r29
    5a0e:	cf 91       	pop	r28
    5a10:	08 95       	ret

00005a12 <_ZN5Wheel18ControlMalfinctionEi>:

bool Wheel::ControlMalfinction(int countToMalfunctionLimit ){
    5a12:	fc 01       	movw	r30, r24
	if(!move&&malfuction==false){
    5a14:	82 a1       	ldd	r24, Z+34	; 0x22
    5a16:	81 11       	cpse	r24, r1
    5a18:	14 c0       	rjmp	.+40     	; 0x5a42 <_ZN5Wheel18ControlMalfinctionEi+0x30>
    5a1a:	80 a1       	ldd	r24, Z+32	; 0x20
    5a1c:	81 11       	cpse	r24, r1
    5a1e:	11 c0       	rjmp	.+34     	; 0x5a42 <_ZN5Wheel18ControlMalfinctionEi+0x30>
		countToMalfunction++;
    5a20:	25 a1       	ldd	r18, Z+37	; 0x25
    5a22:	36 a1       	ldd	r19, Z+38	; 0x26
    5a24:	2f 5f       	subi	r18, 0xFF	; 255
    5a26:	3f 4f       	sbci	r19, 0xFF	; 255
    5a28:	36 a3       	std	Z+38, r19	; 0x26
    5a2a:	25 a3       	std	Z+37, r18	; 0x25
		if(countToMalfunction>countToMalfunctionLimit){
    5a2c:	62 17       	cp	r22, r18
    5a2e:	73 07       	cpc	r23, r19
    5a30:	5c f4       	brge	.+22     	; 0x5a48 <_ZN5Wheel18ControlMalfinctionEi+0x36>
			malfuction = true;
    5a32:	81 e0       	ldi	r24, 0x01	; 1
    5a34:	80 a3       	std	Z+32, r24	; 0x20
			Error = 3;
    5a36:	83 e0       	ldi	r24, 0x03	; 3
    5a38:	90 e0       	ldi	r25, 0x00	; 0
    5a3a:	94 a3       	std	Z+36, r25	; 0x24
    5a3c:	83 a3       	std	Z+35, r24	; 0x23
			return true;
    5a3e:	81 e0       	ldi	r24, 0x01	; 1
    5a40:	08 95       	ret
		}
	}else{
		countToMalfunction=0;
    5a42:	16 a2       	std	Z+38, r1	; 0x26
    5a44:	15 a2       	std	Z+37, r1	; 0x25
		return false;
    5a46:	80 e0       	ldi	r24, 0x00	; 0
	}
	return false;
}
    5a48:	08 95       	ret

00005a4a <_ZN5Wheel17SetLimitsSetHightEv>:

void Wheel::SetLimitsSetHight(){
    5a4a:	cf 92       	push	r12
    5a4c:	df 92       	push	r13
    5a4e:	ef 92       	push	r14
    5a50:	ff 92       	push	r15
    5a52:	cf 93       	push	r28
    5a54:	df 93       	push	r29
    5a56:	ec 01       	movw	r28, r24
	if(sethight>=maxHight){sethight=maxHight;}
    5a58:	ce 80       	ldd	r12, Y+6	; 0x06
    5a5a:	df 80       	ldd	r13, Y+7	; 0x07
    5a5c:	e8 84       	ldd	r14, Y+8	; 0x08
    5a5e:	f9 84       	ldd	r15, Y+9	; 0x09
    5a60:	a7 01       	movw	r20, r14
    5a62:	96 01       	movw	r18, r12
    5a64:	6b 8d       	ldd	r22, Y+27	; 0x1b
    5a66:	7c 8d       	ldd	r23, Y+28	; 0x1c
    5a68:	8d 8d       	ldd	r24, Y+29	; 0x1d
    5a6a:	9e 8d       	ldd	r25, Y+30	; 0x1e
    5a6c:	0e 94 5e 30 	call	0x60bc	; 0x60bc <__gesf2>
    5a70:	88 23       	and	r24, r24
    5a72:	24 f0       	brlt	.+8      	; 0x5a7c <_ZN5Wheel17SetLimitsSetHightEv+0x32>
    5a74:	cb 8e       	std	Y+27, r12	; 0x1b
    5a76:	dc 8e       	std	Y+28, r13	; 0x1c
    5a78:	ed 8e       	std	Y+29, r14	; 0x1d
    5a7a:	fe 8e       	std	Y+30, r15	; 0x1e
	if(sethight<=minHight){sethight=minHight;}
    5a7c:	ca 84       	ldd	r12, Y+10	; 0x0a
    5a7e:	db 84       	ldd	r13, Y+11	; 0x0b
    5a80:	ec 84       	ldd	r14, Y+12	; 0x0c
    5a82:	fd 84       	ldd	r15, Y+13	; 0x0d
    5a84:	a7 01       	movw	r20, r14
    5a86:	96 01       	movw	r18, r12
    5a88:	6b 8d       	ldd	r22, Y+27	; 0x1b
    5a8a:	7c 8d       	ldd	r23, Y+28	; 0x1c
    5a8c:	8d 8d       	ldd	r24, Y+29	; 0x1d
    5a8e:	9e 8d       	ldd	r25, Y+30	; 0x1e
    5a90:	0e 94 ff 2e 	call	0x5dfe	; 0x5dfe <__cmpsf2>
    5a94:	18 16       	cp	r1, r24
    5a96:	24 f0       	brlt	.+8      	; 0x5aa0 <_ZN5Wheel17SetLimitsSetHightEv+0x56>
    5a98:	cb 8e       	std	Y+27, r12	; 0x1b
    5a9a:	dc 8e       	std	Y+28, r13	; 0x1c
    5a9c:	ed 8e       	std	Y+29, r14	; 0x1d
    5a9e:	fe 8e       	std	Y+30, r15	; 0x1e
}
    5aa0:	df 91       	pop	r29
    5aa2:	cf 91       	pop	r28
    5aa4:	ff 90       	pop	r15
    5aa6:	ef 90       	pop	r14
    5aa8:	df 90       	pop	r13
    5aaa:	cf 90       	pop	r12
    5aac:	08 95       	ret

00005aae <_ZN5Wheel14oldHightUpdateEv>:

bool Wheel::oldHightUpdate(){
    5aae:	cf 93       	push	r28
    5ab0:	df 93       	push	r29
    5ab2:	ec 01       	movw	r28, r24
	oldHigit = get_hight();
    5ab4:	0e 94 84 2b 	call	0x5708	; 0x5708 <_ZN5Wheel9get_hightEv>
    5ab8:	6b 8b       	std	Y+19, r22	; 0x13
    5aba:	7c 8b       	std	Y+20, r23	; 0x14
    5abc:	8d 8b       	std	Y+21, r24	; 0x15
    5abe:	9e 8b       	std	Y+22, r25	; 0x16
}
    5ac0:	df 91       	pop	r29
    5ac2:	cf 91       	pop	r28
    5ac4:	08 95       	ret

00005ac6 <_ZN5Wheel15IsChanchedHightEf>:

bool Wheel::IsChanchedHight(float sensitive){
    5ac6:	4f 92       	push	r4
    5ac8:	5f 92       	push	r5
    5aca:	6f 92       	push	r6
    5acc:	7f 92       	push	r7
    5ace:	8f 92       	push	r8
    5ad0:	9f 92       	push	r9
    5ad2:	af 92       	push	r10
    5ad4:	bf 92       	push	r11
    5ad6:	cf 92       	push	r12
    5ad8:	df 92       	push	r13
    5ada:	ef 92       	push	r14
    5adc:	ff 92       	push	r15
    5ade:	cf 93       	push	r28
    5ae0:	df 93       	push	r29
    5ae2:	ec 01       	movw	r28, r24
    5ae4:	2a 01       	movw	r4, r20
    5ae6:	3b 01       	movw	r6, r22
	float carren_hight = get_hight();
    5ae8:	0e 94 84 2b 	call	0x5708	; 0x5708 <_ZN5Wheel9get_hightEv>
    5aec:	4b 01       	movw	r8, r22
    5aee:	5c 01       	movw	r10, r24
	if(carren_hight - sensitive > oldHigit || carren_hight + sensitive < oldHigit){
    5af0:	cb 88       	ldd	r12, Y+19	; 0x13
    5af2:	dc 88       	ldd	r13, Y+20	; 0x14
    5af4:	ed 88       	ldd	r14, Y+21	; 0x15
    5af6:	fe 88       	ldd	r15, Y+22	; 0x16
    5af8:	a3 01       	movw	r20, r6
    5afa:	92 01       	movw	r18, r4
    5afc:	0e 94 92 2e 	call	0x5d24	; 0x5d24 <__subsf3>
    5b00:	a7 01       	movw	r20, r14
    5b02:	96 01       	movw	r18, r12
    5b04:	0e 94 5e 30 	call	0x60bc	; 0x60bc <__gesf2>
    5b08:	18 16       	cp	r1, r24
    5b0a:	74 f0       	brlt	.+28     	; 0x5b28 <_ZN5Wheel15IsChanchedHightEf+0x62>
    5b0c:	a3 01       	movw	r20, r6
    5b0e:	92 01       	movw	r18, r4
    5b10:	c5 01       	movw	r24, r10
    5b12:	b4 01       	movw	r22, r8
    5b14:	0e 94 93 2e 	call	0x5d26	; 0x5d26 <__addsf3>
    5b18:	9b 01       	movw	r18, r22
    5b1a:	ac 01       	movw	r20, r24
    5b1c:	c7 01       	movw	r24, r14
    5b1e:	b6 01       	movw	r22, r12
    5b20:	0e 94 5e 30 	call	0x60bc	; 0x60bc <__gesf2>
    5b24:	18 16       	cp	r1, r24
    5b26:	5c f4       	brge	.+22     	; 0x5b3e <_ZN5Wheel15IsChanchedHightEf+0x78>
		oldHigit = hight;
    5b28:	8a 81       	ldd	r24, Y+2	; 0x02
    5b2a:	9b 81       	ldd	r25, Y+3	; 0x03
    5b2c:	ac 81       	ldd	r26, Y+4	; 0x04
    5b2e:	bd 81       	ldd	r27, Y+5	; 0x05
    5b30:	8b 8b       	std	Y+19, r24	; 0x13
    5b32:	9c 8b       	std	Y+20, r25	; 0x14
    5b34:	ad 8b       	std	Y+21, r26	; 0x15
    5b36:	be 8b       	std	Y+22, r27	; 0x16
		move = true;
    5b38:	81 e0       	ldi	r24, 0x01	; 1
    5b3a:	8a a3       	std	Y+34, r24	; 0x22
		return true;
    5b3c:	02 c0       	rjmp	.+4      	; 0x5b42 <_ZN5Wheel15IsChanchedHightEf+0x7c>
	}else{
		move = false;
    5b3e:	1a a2       	std	Y+34, r1	; 0x22
		return false;		
    5b40:	80 e0       	ldi	r24, 0x00	; 0
	}
}
    5b42:	df 91       	pop	r29
    5b44:	cf 91       	pop	r28
    5b46:	ff 90       	pop	r15
    5b48:	ef 90       	pop	r14
    5b4a:	df 90       	pop	r13
    5b4c:	cf 90       	pop	r12
    5b4e:	bf 90       	pop	r11
    5b50:	af 90       	pop	r10
    5b52:	9f 90       	pop	r9
    5b54:	8f 90       	pop	r8
    5b56:	7f 90       	pop	r7
    5b58:	6f 90       	pop	r6
    5b5a:	5f 90       	pop	r5
    5b5c:	4f 90       	pop	r4
    5b5e:	08 95       	ret

00005b60 <_ZN5Wheel6SelectEv>:

void Wheel::Select(){
    5b60:	fc 01       	movw	r30, r24
	selected = !selected;
    5b62:	87 8d       	ldd	r24, Z+31	; 0x1f
    5b64:	91 e0       	ldi	r25, 0x01	; 1
    5b66:	98 27       	eor	r25, r24
    5b68:	97 8f       	std	Z+31, r25	; 0x1f
    5b6a:	08 95       	ret

00005b6c <_ZN5Wheel2UpEf>:
}

bool Wheel::Up(float step){
    5b6c:	cf 92       	push	r12
    5b6e:	df 92       	push	r13
    5b70:	ef 92       	push	r14
    5b72:	ff 92       	push	r15
    5b74:	1f 93       	push	r17
    5b76:	cf 93       	push	r28
    5b78:	df 93       	push	r29
    5b7a:	ec 01       	movw	r28, r24
	if (!selected){return false;}
    5b7c:	1f 8d       	ldd	r17, Y+31	; 0x1f
    5b7e:	11 23       	and	r17, r17
    5b80:	e1 f0       	breq	.+56     	; 0x5bba <_ZN5Wheel2UpEf+0x4e>
    5b82:	cb 01       	movw	r24, r22
    5b84:	ba 01       	movw	r22, r20
	sethight += step;
    5b86:	2b 8d       	ldd	r18, Y+27	; 0x1b
    5b88:	3c 8d       	ldd	r19, Y+28	; 0x1c
    5b8a:	4d 8d       	ldd	r20, Y+29	; 0x1d
    5b8c:	5e 8d       	ldd	r21, Y+30	; 0x1e
    5b8e:	0e 94 93 2e 	call	0x5d26	; 0x5d26 <__addsf3>
    5b92:	6b 8f       	std	Y+27, r22	; 0x1b
    5b94:	7c 8f       	std	Y+28, r23	; 0x1c
    5b96:	8d 8f       	std	Y+29, r24	; 0x1d
    5b98:	9e 8f       	std	Y+30, r25	; 0x1e
	if (sethight > maxHight){sethight = maxHight;flagGetLimits=true;}
    5b9a:	ce 80       	ldd	r12, Y+6	; 0x06
    5b9c:	df 80       	ldd	r13, Y+7	; 0x07
    5b9e:	e8 84       	ldd	r14, Y+8	; 0x08
    5ba0:	f9 84       	ldd	r15, Y+9	; 0x09
    5ba2:	a7 01       	movw	r20, r14
    5ba4:	96 01       	movw	r18, r12
    5ba6:	0e 94 5e 30 	call	0x60bc	; 0x60bc <__gesf2>
    5baa:	18 16       	cp	r1, r24
    5bac:	34 f4       	brge	.+12     	; 0x5bba <_ZN5Wheel2UpEf+0x4e>
    5bae:	cb 8e       	std	Y+27, r12	; 0x1b
    5bb0:	dc 8e       	std	Y+28, r13	; 0x1c
    5bb2:	ed 8e       	std	Y+29, r14	; 0x1d
    5bb4:	fe 8e       	std	Y+30, r15	; 0x1e
    5bb6:	81 e0       	ldi	r24, 0x01	; 1
    5bb8:	8a 8b       	std	Y+18, r24	; 0x12
	return true;
}
    5bba:	81 2f       	mov	r24, r17
    5bbc:	df 91       	pop	r29
    5bbe:	cf 91       	pop	r28
    5bc0:	1f 91       	pop	r17
    5bc2:	ff 90       	pop	r15
    5bc4:	ef 90       	pop	r14
    5bc6:	df 90       	pop	r13
    5bc8:	cf 90       	pop	r12
    5bca:	08 95       	ret

00005bcc <_ZN5Wheel4DownEf>:

bool Wheel::Down(float step){
    5bcc:	cf 92       	push	r12
    5bce:	df 92       	push	r13
    5bd0:	ef 92       	push	r14
    5bd2:	ff 92       	push	r15
    5bd4:	1f 93       	push	r17
    5bd6:	cf 93       	push	r28
    5bd8:	df 93       	push	r29
	if (!selected){return false;}
    5bda:	fc 01       	movw	r30, r24
    5bdc:	17 8d       	ldd	r17, Z+31	; 0x1f
    5bde:	11 23       	and	r17, r17
    5be0:	e9 f0       	breq	.+58     	; 0x5c1c <_ZN5Wheel4DownEf+0x50>
    5be2:	9a 01       	movw	r18, r20
    5be4:	ab 01       	movw	r20, r22
    5be6:	ec 01       	movw	r28, r24
	sethight -= step;
    5be8:	63 8d       	ldd	r22, Z+27	; 0x1b
    5bea:	74 8d       	ldd	r23, Z+28	; 0x1c
    5bec:	85 8d       	ldd	r24, Z+29	; 0x1d
    5bee:	96 8d       	ldd	r25, Z+30	; 0x1e
    5bf0:	0e 94 92 2e 	call	0x5d24	; 0x5d24 <__subsf3>
    5bf4:	6b 8f       	std	Y+27, r22	; 0x1b
    5bf6:	7c 8f       	std	Y+28, r23	; 0x1c
    5bf8:	8d 8f       	std	Y+29, r24	; 0x1d
    5bfa:	9e 8f       	std	Y+30, r25	; 0x1e
	if (sethight < minHight){sethight = minHight;flagGetLimits=true;}
    5bfc:	ca 84       	ldd	r12, Y+10	; 0x0a
    5bfe:	db 84       	ldd	r13, Y+11	; 0x0b
    5c00:	ec 84       	ldd	r14, Y+12	; 0x0c
    5c02:	fd 84       	ldd	r15, Y+13	; 0x0d
    5c04:	a7 01       	movw	r20, r14
    5c06:	96 01       	movw	r18, r12
    5c08:	0e 94 ff 2e 	call	0x5dfe	; 0x5dfe <__cmpsf2>
    5c0c:	88 23       	and	r24, r24
    5c0e:	34 f4       	brge	.+12     	; 0x5c1c <_ZN5Wheel4DownEf+0x50>
    5c10:	cb 8e       	std	Y+27, r12	; 0x1b
    5c12:	dc 8e       	std	Y+28, r13	; 0x1c
    5c14:	ed 8e       	std	Y+29, r14	; 0x1d
    5c16:	fe 8e       	std	Y+30, r15	; 0x1e
    5c18:	81 e0       	ldi	r24, 0x01	; 1
    5c1a:	8a 8b       	std	Y+18, r24	; 0x12
	return true;
}
    5c1c:	81 2f       	mov	r24, r17
    5c1e:	df 91       	pop	r29
    5c20:	cf 91       	pop	r28
    5c22:	1f 91       	pop	r17
    5c24:	ff 90       	pop	r15
    5c26:	ef 90       	pop	r14
    5c28:	df 90       	pop	r13
    5c2a:	cf 90       	pop	r12
    5c2c:	08 95       	ret

00005c2e <_ZN5Wheel20selected_malfinctionEv>:

bool Wheel::selected_malfinction(){
    5c2e:	fc 01       	movw	r30, r24
	if(selected&&malfuction){return true;}
    5c30:	87 8d       	ldd	r24, Z+31	; 0x1f
    5c32:	81 11       	cpse	r24, r1
    5c34:	80 a1       	ldd	r24, Z+32	; 0x20
	else{return false;}
}
    5c36:	08 95       	ret

00005c38 <_ZN5Wheel25MalFunctionAndnotselectedEv>:


bool Wheel::MalFunctionAndnotselected(){
    5c38:	fc 01       	movw	r30, r24
	if(malfuction){return true;}
    5c3a:	80 a1       	ldd	r24, Z+32	; 0x20
    5c3c:	81 11       	cpse	r24, r1
    5c3e:	01 c0       	rjmp	.+2      	; 0x5c42 <_ZN5Wheel25MalFunctionAndnotselectedEv+0xa>
	if(selected){return true;}
    5c40:	87 8d       	ldd	r24, Z+31	; 0x1f
	return false;
}
    5c42:	08 95       	ret

00005c44 <_ZN5Wheel16CheckGetLimitLowEv>:

bool Wheel::CheckGetLimitLow(){
    5c44:	ef 92       	push	r14
    5c46:	ff 92       	push	r15
    5c48:	0f 93       	push	r16
    5c4a:	1f 93       	push	r17
    5c4c:	cf 93       	push	r28
    5c4e:	df 93       	push	r29
	if(malfuction){return false;}
    5c50:	fc 01       	movw	r30, r24
    5c52:	00 a1       	ldd	r16, Z+32	; 0x20
    5c54:	01 11       	cpse	r16, r1
    5c56:	23 c0       	rjmp	.+70     	; 0x5c9e <_ZN5Wheel16CheckGetLimitLowEv+0x5a>
	if(!selected){return false;}
    5c58:	17 8d       	ldd	r17, Z+31	; 0x1f
    5c5a:	11 23       	and	r17, r17
    5c5c:	19 f1       	breq	.+70     	; 0x5ca4 <_ZN5Wheel16CheckGetLimitLowEv+0x60>
    5c5e:	ec 01       	movw	r28, r24
	if((int)(hight*100)<=(int)(minHight*100)){
    5c60:	20 e0       	ldi	r18, 0x00	; 0
    5c62:	30 e0       	ldi	r19, 0x00	; 0
    5c64:	48 ec       	ldi	r20, 0xC8	; 200
    5c66:	52 e4       	ldi	r21, 0x42	; 66
    5c68:	62 81       	ldd	r22, Z+2	; 0x02
    5c6a:	73 81       	ldd	r23, Z+3	; 0x03
    5c6c:	84 81       	ldd	r24, Z+4	; 0x04
    5c6e:	95 81       	ldd	r25, Z+5	; 0x05
    5c70:	0e 94 63 30 	call	0x60c6	; 0x60c6 <__mulsf3>
    5c74:	0e 94 76 2f 	call	0x5eec	; 0x5eec <__fixsfsi>
    5c78:	7b 01       	movw	r14, r22
    5c7a:	20 e0       	ldi	r18, 0x00	; 0
    5c7c:	30 e0       	ldi	r19, 0x00	; 0
    5c7e:	48 ec       	ldi	r20, 0xC8	; 200
    5c80:	52 e4       	ldi	r21, 0x42	; 66
    5c82:	6a 85       	ldd	r22, Y+10	; 0x0a
    5c84:	7b 85       	ldd	r23, Y+11	; 0x0b
    5c86:	8c 85       	ldd	r24, Y+12	; 0x0c
    5c88:	9d 85       	ldd	r25, Y+13	; 0x0d
    5c8a:	0e 94 63 30 	call	0x60c6	; 0x60c6 <__mulsf3>
    5c8e:	0e 94 76 2f 	call	0x5eec	; 0x5eec <__fixsfsi>
    5c92:	6e 15       	cp	r22, r14
    5c94:	7f 05       	cpc	r23, r15
    5c96:	2c f0       	brlt	.+10     	; 0x5ca2 <_ZN5Wheel16CheckGetLimitLowEv+0x5e>
		flagGetLimits=true;
    5c98:	81 e0       	ldi	r24, 0x01	; 1
    5c9a:	8a 8b       	std	Y+18, r24	; 0x12
		return true;
    5c9c:	03 c0       	rjmp	.+6      	; 0x5ca4 <_ZN5Wheel16CheckGetLimitLowEv+0x60>
	if(selected){return true;}
	return false;
}

bool Wheel::CheckGetLimitLow(){
	if(malfuction){return false;}
    5c9e:	10 e0       	ldi	r17, 0x00	; 0
    5ca0:	01 c0       	rjmp	.+2      	; 0x5ca4 <_ZN5Wheel16CheckGetLimitLowEv+0x60>
	if(!selected){return false;}
	if((int)(hight*100)<=(int)(minHight*100)){
		flagGetLimits=true;
		return true;
	}else{return false;}
    5ca2:	10 2f       	mov	r17, r16
}
    5ca4:	81 2f       	mov	r24, r17
    5ca6:	df 91       	pop	r29
    5ca8:	cf 91       	pop	r28
    5caa:	1f 91       	pop	r17
    5cac:	0f 91       	pop	r16
    5cae:	ff 90       	pop	r15
    5cb0:	ef 90       	pop	r14
    5cb2:	08 95       	ret

00005cb4 <_ZN5Wheel18CheckGetLimitHightEv>:

bool Wheel::CheckGetLimitHight(){
    5cb4:	ef 92       	push	r14
    5cb6:	ff 92       	push	r15
    5cb8:	0f 93       	push	r16
    5cba:	1f 93       	push	r17
    5cbc:	cf 93       	push	r28
    5cbe:	df 93       	push	r29
	if(malfuction){return false;}
    5cc0:	fc 01       	movw	r30, r24
    5cc2:	00 a1       	ldd	r16, Z+32	; 0x20
    5cc4:	01 11       	cpse	r16, r1
    5cc6:	23 c0       	rjmp	.+70     	; 0x5d0e <_ZN5Wheel18CheckGetLimitHightEv+0x5a>
	if(!selected){return false;}
    5cc8:	17 8d       	ldd	r17, Z+31	; 0x1f
    5cca:	11 23       	and	r17, r17
    5ccc:	19 f1       	breq	.+70     	; 0x5d14 <_ZN5Wheel18CheckGetLimitHightEv+0x60>
    5cce:	ec 01       	movw	r28, r24
	if((int)(hight*100)>=(int)(maxHight*100)){
    5cd0:	20 e0       	ldi	r18, 0x00	; 0
    5cd2:	30 e0       	ldi	r19, 0x00	; 0
    5cd4:	48 ec       	ldi	r20, 0xC8	; 200
    5cd6:	52 e4       	ldi	r21, 0x42	; 66
    5cd8:	62 81       	ldd	r22, Z+2	; 0x02
    5cda:	73 81       	ldd	r23, Z+3	; 0x03
    5cdc:	84 81       	ldd	r24, Z+4	; 0x04
    5cde:	95 81       	ldd	r25, Z+5	; 0x05
    5ce0:	0e 94 63 30 	call	0x60c6	; 0x60c6 <__mulsf3>
    5ce4:	0e 94 76 2f 	call	0x5eec	; 0x5eec <__fixsfsi>
    5ce8:	7b 01       	movw	r14, r22
    5cea:	20 e0       	ldi	r18, 0x00	; 0
    5cec:	30 e0       	ldi	r19, 0x00	; 0
    5cee:	48 ec       	ldi	r20, 0xC8	; 200
    5cf0:	52 e4       	ldi	r21, 0x42	; 66
    5cf2:	6e 81       	ldd	r22, Y+6	; 0x06
    5cf4:	7f 81       	ldd	r23, Y+7	; 0x07
    5cf6:	88 85       	ldd	r24, Y+8	; 0x08
    5cf8:	99 85       	ldd	r25, Y+9	; 0x09
    5cfa:	0e 94 63 30 	call	0x60c6	; 0x60c6 <__mulsf3>
    5cfe:	0e 94 76 2f 	call	0x5eec	; 0x5eec <__fixsfsi>
    5d02:	e6 16       	cp	r14, r22
    5d04:	f7 06       	cpc	r15, r23
    5d06:	2c f0       	brlt	.+10     	; 0x5d12 <_ZN5Wheel18CheckGetLimitHightEv+0x5e>
		flagGetLimits=true;
    5d08:	81 e0       	ldi	r24, 0x01	; 1
    5d0a:	8a 8b       	std	Y+18, r24	; 0x12
		return true;
    5d0c:	03 c0       	rjmp	.+6      	; 0x5d14 <_ZN5Wheel18CheckGetLimitHightEv+0x60>
		return true;
	}else{return false;}
}

bool Wheel::CheckGetLimitHight(){
	if(malfuction){return false;}
    5d0e:	10 e0       	ldi	r17, 0x00	; 0
    5d10:	01 c0       	rjmp	.+2      	; 0x5d14 <_ZN5Wheel18CheckGetLimitHightEv+0x60>
	if(!selected){return false;}
	if((int)(hight*100)>=(int)(maxHight*100)){
		flagGetLimits=true;
		return true;
		}else{return false;}
    5d12:	10 2f       	mov	r17, r16
    5d14:	81 2f       	mov	r24, r17
    5d16:	df 91       	pop	r29
    5d18:	cf 91       	pop	r28
    5d1a:	1f 91       	pop	r17
    5d1c:	0f 91       	pop	r16
    5d1e:	ff 90       	pop	r15
    5d20:	ef 90       	pop	r14
    5d22:	08 95       	ret

00005d24 <__subsf3>:
    5d24:	50 58       	subi	r21, 0x80	; 128

00005d26 <__addsf3>:
    5d26:	bb 27       	eor	r27, r27
    5d28:	aa 27       	eor	r26, r26
    5d2a:	0e 94 aa 2e 	call	0x5d54	; 0x5d54 <__addsf3x>
    5d2e:	0c 94 24 30 	jmp	0x6048	; 0x6048 <__fp_round>
    5d32:	0e 94 16 30 	call	0x602c	; 0x602c <__fp_pscA>
    5d36:	38 f0       	brcs	.+14     	; 0x5d46 <__addsf3+0x20>
    5d38:	0e 94 1d 30 	call	0x603a	; 0x603a <__fp_pscB>
    5d3c:	20 f0       	brcs	.+8      	; 0x5d46 <__addsf3+0x20>
    5d3e:	39 f4       	brne	.+14     	; 0x5d4e <__addsf3+0x28>
    5d40:	9f 3f       	cpi	r25, 0xFF	; 255
    5d42:	19 f4       	brne	.+6      	; 0x5d4a <__addsf3+0x24>
    5d44:	26 f4       	brtc	.+8      	; 0x5d4e <__addsf3+0x28>
    5d46:	0c 94 13 30 	jmp	0x6026	; 0x6026 <__fp_nan>
    5d4a:	0e f4       	brtc	.+2      	; 0x5d4e <__addsf3+0x28>
    5d4c:	e0 95       	com	r30
    5d4e:	e7 fb       	bst	r30, 7
    5d50:	0c 94 0d 30 	jmp	0x601a	; 0x601a <__fp_inf>

00005d54 <__addsf3x>:
    5d54:	e9 2f       	mov	r30, r25
    5d56:	0e 94 35 30 	call	0x606a	; 0x606a <__fp_split3>
    5d5a:	58 f3       	brcs	.-42     	; 0x5d32 <__addsf3+0xc>
    5d5c:	ba 17       	cp	r27, r26
    5d5e:	62 07       	cpc	r22, r18
    5d60:	73 07       	cpc	r23, r19
    5d62:	84 07       	cpc	r24, r20
    5d64:	95 07       	cpc	r25, r21
    5d66:	20 f0       	brcs	.+8      	; 0x5d70 <__addsf3x+0x1c>
    5d68:	79 f4       	brne	.+30     	; 0x5d88 <__addsf3x+0x34>
    5d6a:	a6 f5       	brtc	.+104    	; 0x5dd4 <__addsf3x+0x80>
    5d6c:	0c 94 57 30 	jmp	0x60ae	; 0x60ae <__fp_zero>
    5d70:	0e f4       	brtc	.+2      	; 0x5d74 <__addsf3x+0x20>
    5d72:	e0 95       	com	r30
    5d74:	0b 2e       	mov	r0, r27
    5d76:	ba 2f       	mov	r27, r26
    5d78:	a0 2d       	mov	r26, r0
    5d7a:	0b 01       	movw	r0, r22
    5d7c:	b9 01       	movw	r22, r18
    5d7e:	90 01       	movw	r18, r0
    5d80:	0c 01       	movw	r0, r24
    5d82:	ca 01       	movw	r24, r20
    5d84:	a0 01       	movw	r20, r0
    5d86:	11 24       	eor	r1, r1
    5d88:	ff 27       	eor	r31, r31
    5d8a:	59 1b       	sub	r21, r25
    5d8c:	99 f0       	breq	.+38     	; 0x5db4 <__addsf3x+0x60>
    5d8e:	59 3f       	cpi	r21, 0xF9	; 249
    5d90:	50 f4       	brcc	.+20     	; 0x5da6 <__addsf3x+0x52>
    5d92:	50 3e       	cpi	r21, 0xE0	; 224
    5d94:	68 f1       	brcs	.+90     	; 0x5df0 <__addsf3x+0x9c>
    5d96:	1a 16       	cp	r1, r26
    5d98:	f0 40       	sbci	r31, 0x00	; 0
    5d9a:	a2 2f       	mov	r26, r18
    5d9c:	23 2f       	mov	r18, r19
    5d9e:	34 2f       	mov	r19, r20
    5da0:	44 27       	eor	r20, r20
    5da2:	58 5f       	subi	r21, 0xF8	; 248
    5da4:	f3 cf       	rjmp	.-26     	; 0x5d8c <__addsf3x+0x38>
    5da6:	46 95       	lsr	r20
    5da8:	37 95       	ror	r19
    5daa:	27 95       	ror	r18
    5dac:	a7 95       	ror	r26
    5dae:	f0 40       	sbci	r31, 0x00	; 0
    5db0:	53 95       	inc	r21
    5db2:	c9 f7       	brne	.-14     	; 0x5da6 <__addsf3x+0x52>
    5db4:	7e f4       	brtc	.+30     	; 0x5dd4 <__addsf3x+0x80>
    5db6:	1f 16       	cp	r1, r31
    5db8:	ba 0b       	sbc	r27, r26
    5dba:	62 0b       	sbc	r22, r18
    5dbc:	73 0b       	sbc	r23, r19
    5dbe:	84 0b       	sbc	r24, r20
    5dc0:	ba f0       	brmi	.+46     	; 0x5df0 <__addsf3x+0x9c>
    5dc2:	91 50       	subi	r25, 0x01	; 1
    5dc4:	a1 f0       	breq	.+40     	; 0x5dee <__addsf3x+0x9a>
    5dc6:	ff 0f       	add	r31, r31
    5dc8:	bb 1f       	adc	r27, r27
    5dca:	66 1f       	adc	r22, r22
    5dcc:	77 1f       	adc	r23, r23
    5dce:	88 1f       	adc	r24, r24
    5dd0:	c2 f7       	brpl	.-16     	; 0x5dc2 <__addsf3x+0x6e>
    5dd2:	0e c0       	rjmp	.+28     	; 0x5df0 <__addsf3x+0x9c>
    5dd4:	ba 0f       	add	r27, r26
    5dd6:	62 1f       	adc	r22, r18
    5dd8:	73 1f       	adc	r23, r19
    5dda:	84 1f       	adc	r24, r20
    5ddc:	48 f4       	brcc	.+18     	; 0x5df0 <__addsf3x+0x9c>
    5dde:	87 95       	ror	r24
    5de0:	77 95       	ror	r23
    5de2:	67 95       	ror	r22
    5de4:	b7 95       	ror	r27
    5de6:	f7 95       	ror	r31
    5de8:	9e 3f       	cpi	r25, 0xFE	; 254
    5dea:	08 f0       	brcs	.+2      	; 0x5dee <__addsf3x+0x9a>
    5dec:	b0 cf       	rjmp	.-160    	; 0x5d4e <__addsf3+0x28>
    5dee:	93 95       	inc	r25
    5df0:	88 0f       	add	r24, r24
    5df2:	08 f0       	brcs	.+2      	; 0x5df6 <__addsf3x+0xa2>
    5df4:	99 27       	eor	r25, r25
    5df6:	ee 0f       	add	r30, r30
    5df8:	97 95       	ror	r25
    5dfa:	87 95       	ror	r24
    5dfc:	08 95       	ret

00005dfe <__cmpsf2>:
    5dfe:	0e 94 e9 2f 	call	0x5fd2	; 0x5fd2 <__fp_cmp>
    5e02:	08 f4       	brcc	.+2      	; 0x5e06 <__cmpsf2+0x8>
    5e04:	81 e0       	ldi	r24, 0x01	; 1
    5e06:	08 95       	ret

00005e08 <__divsf3>:
    5e08:	0e 94 18 2f 	call	0x5e30	; 0x5e30 <__divsf3x>
    5e0c:	0c 94 24 30 	jmp	0x6048	; 0x6048 <__fp_round>
    5e10:	0e 94 1d 30 	call	0x603a	; 0x603a <__fp_pscB>
    5e14:	58 f0       	brcs	.+22     	; 0x5e2c <__divsf3+0x24>
    5e16:	0e 94 16 30 	call	0x602c	; 0x602c <__fp_pscA>
    5e1a:	40 f0       	brcs	.+16     	; 0x5e2c <__divsf3+0x24>
    5e1c:	29 f4       	brne	.+10     	; 0x5e28 <__divsf3+0x20>
    5e1e:	5f 3f       	cpi	r21, 0xFF	; 255
    5e20:	29 f0       	breq	.+10     	; 0x5e2c <__divsf3+0x24>
    5e22:	0c 94 0d 30 	jmp	0x601a	; 0x601a <__fp_inf>
    5e26:	51 11       	cpse	r21, r1
    5e28:	0c 94 58 30 	jmp	0x60b0	; 0x60b0 <__fp_szero>
    5e2c:	0c 94 13 30 	jmp	0x6026	; 0x6026 <__fp_nan>

00005e30 <__divsf3x>:
    5e30:	0e 94 35 30 	call	0x606a	; 0x606a <__fp_split3>
    5e34:	68 f3       	brcs	.-38     	; 0x5e10 <__divsf3+0x8>

00005e36 <__divsf3_pse>:
    5e36:	99 23       	and	r25, r25
    5e38:	b1 f3       	breq	.-20     	; 0x5e26 <__divsf3+0x1e>
    5e3a:	55 23       	and	r21, r21
    5e3c:	91 f3       	breq	.-28     	; 0x5e22 <__divsf3+0x1a>
    5e3e:	95 1b       	sub	r25, r21
    5e40:	55 0b       	sbc	r21, r21
    5e42:	bb 27       	eor	r27, r27
    5e44:	aa 27       	eor	r26, r26
    5e46:	62 17       	cp	r22, r18
    5e48:	73 07       	cpc	r23, r19
    5e4a:	84 07       	cpc	r24, r20
    5e4c:	38 f0       	brcs	.+14     	; 0x5e5c <__divsf3_pse+0x26>
    5e4e:	9f 5f       	subi	r25, 0xFF	; 255
    5e50:	5f 4f       	sbci	r21, 0xFF	; 255
    5e52:	22 0f       	add	r18, r18
    5e54:	33 1f       	adc	r19, r19
    5e56:	44 1f       	adc	r20, r20
    5e58:	aa 1f       	adc	r26, r26
    5e5a:	a9 f3       	breq	.-22     	; 0x5e46 <__divsf3_pse+0x10>
    5e5c:	35 d0       	rcall	.+106    	; 0x5ec8 <__divsf3_pse+0x92>
    5e5e:	0e 2e       	mov	r0, r30
    5e60:	3a f0       	brmi	.+14     	; 0x5e70 <__divsf3_pse+0x3a>
    5e62:	e0 e8       	ldi	r30, 0x80	; 128
    5e64:	32 d0       	rcall	.+100    	; 0x5eca <__divsf3_pse+0x94>
    5e66:	91 50       	subi	r25, 0x01	; 1
    5e68:	50 40       	sbci	r21, 0x00	; 0
    5e6a:	e6 95       	lsr	r30
    5e6c:	00 1c       	adc	r0, r0
    5e6e:	ca f7       	brpl	.-14     	; 0x5e62 <__divsf3_pse+0x2c>
    5e70:	2b d0       	rcall	.+86     	; 0x5ec8 <__divsf3_pse+0x92>
    5e72:	fe 2f       	mov	r31, r30
    5e74:	29 d0       	rcall	.+82     	; 0x5ec8 <__divsf3_pse+0x92>
    5e76:	66 0f       	add	r22, r22
    5e78:	77 1f       	adc	r23, r23
    5e7a:	88 1f       	adc	r24, r24
    5e7c:	bb 1f       	adc	r27, r27
    5e7e:	26 17       	cp	r18, r22
    5e80:	37 07       	cpc	r19, r23
    5e82:	48 07       	cpc	r20, r24
    5e84:	ab 07       	cpc	r26, r27
    5e86:	b0 e8       	ldi	r27, 0x80	; 128
    5e88:	09 f0       	breq	.+2      	; 0x5e8c <__divsf3_pse+0x56>
    5e8a:	bb 0b       	sbc	r27, r27
    5e8c:	80 2d       	mov	r24, r0
    5e8e:	bf 01       	movw	r22, r30
    5e90:	ff 27       	eor	r31, r31
    5e92:	93 58       	subi	r25, 0x83	; 131
    5e94:	5f 4f       	sbci	r21, 0xFF	; 255
    5e96:	3a f0       	brmi	.+14     	; 0x5ea6 <__divsf3_pse+0x70>
    5e98:	9e 3f       	cpi	r25, 0xFE	; 254
    5e9a:	51 05       	cpc	r21, r1
    5e9c:	78 f0       	brcs	.+30     	; 0x5ebc <__divsf3_pse+0x86>
    5e9e:	0c 94 0d 30 	jmp	0x601a	; 0x601a <__fp_inf>
    5ea2:	0c 94 58 30 	jmp	0x60b0	; 0x60b0 <__fp_szero>
    5ea6:	5f 3f       	cpi	r21, 0xFF	; 255
    5ea8:	e4 f3       	brlt	.-8      	; 0x5ea2 <__divsf3_pse+0x6c>
    5eaa:	98 3e       	cpi	r25, 0xE8	; 232
    5eac:	d4 f3       	brlt	.-12     	; 0x5ea2 <__divsf3_pse+0x6c>
    5eae:	86 95       	lsr	r24
    5eb0:	77 95       	ror	r23
    5eb2:	67 95       	ror	r22
    5eb4:	b7 95       	ror	r27
    5eb6:	f7 95       	ror	r31
    5eb8:	9f 5f       	subi	r25, 0xFF	; 255
    5eba:	c9 f7       	brne	.-14     	; 0x5eae <__divsf3_pse+0x78>
    5ebc:	88 0f       	add	r24, r24
    5ebe:	91 1d       	adc	r25, r1
    5ec0:	96 95       	lsr	r25
    5ec2:	87 95       	ror	r24
    5ec4:	97 f9       	bld	r25, 7
    5ec6:	08 95       	ret
    5ec8:	e1 e0       	ldi	r30, 0x01	; 1
    5eca:	66 0f       	add	r22, r22
    5ecc:	77 1f       	adc	r23, r23
    5ece:	88 1f       	adc	r24, r24
    5ed0:	bb 1f       	adc	r27, r27
    5ed2:	62 17       	cp	r22, r18
    5ed4:	73 07       	cpc	r23, r19
    5ed6:	84 07       	cpc	r24, r20
    5ed8:	ba 07       	cpc	r27, r26
    5eda:	20 f0       	brcs	.+8      	; 0x5ee4 <__divsf3_pse+0xae>
    5edc:	62 1b       	sub	r22, r18
    5ede:	73 0b       	sbc	r23, r19
    5ee0:	84 0b       	sbc	r24, r20
    5ee2:	ba 0b       	sbc	r27, r26
    5ee4:	ee 1f       	adc	r30, r30
    5ee6:	88 f7       	brcc	.-30     	; 0x5eca <__divsf3_pse+0x94>
    5ee8:	e0 95       	com	r30
    5eea:	08 95       	ret

00005eec <__fixsfsi>:
    5eec:	0e 94 7d 2f 	call	0x5efa	; 0x5efa <__fixunssfsi>
    5ef0:	68 94       	set
    5ef2:	b1 11       	cpse	r27, r1
    5ef4:	0c 94 58 30 	jmp	0x60b0	; 0x60b0 <__fp_szero>
    5ef8:	08 95       	ret

00005efa <__fixunssfsi>:
    5efa:	0e 94 3d 30 	call	0x607a	; 0x607a <__fp_splitA>
    5efe:	88 f0       	brcs	.+34     	; 0x5f22 <__fixunssfsi+0x28>
    5f00:	9f 57       	subi	r25, 0x7F	; 127
    5f02:	98 f0       	brcs	.+38     	; 0x5f2a <__fixunssfsi+0x30>
    5f04:	b9 2f       	mov	r27, r25
    5f06:	99 27       	eor	r25, r25
    5f08:	b7 51       	subi	r27, 0x17	; 23
    5f0a:	b0 f0       	brcs	.+44     	; 0x5f38 <__fixunssfsi+0x3e>
    5f0c:	e1 f0       	breq	.+56     	; 0x5f46 <__fixunssfsi+0x4c>
    5f0e:	66 0f       	add	r22, r22
    5f10:	77 1f       	adc	r23, r23
    5f12:	88 1f       	adc	r24, r24
    5f14:	99 1f       	adc	r25, r25
    5f16:	1a f0       	brmi	.+6      	; 0x5f1e <__fixunssfsi+0x24>
    5f18:	ba 95       	dec	r27
    5f1a:	c9 f7       	brne	.-14     	; 0x5f0e <__fixunssfsi+0x14>
    5f1c:	14 c0       	rjmp	.+40     	; 0x5f46 <__fixunssfsi+0x4c>
    5f1e:	b1 30       	cpi	r27, 0x01	; 1
    5f20:	91 f0       	breq	.+36     	; 0x5f46 <__fixunssfsi+0x4c>
    5f22:	0e 94 57 30 	call	0x60ae	; 0x60ae <__fp_zero>
    5f26:	b1 e0       	ldi	r27, 0x01	; 1
    5f28:	08 95       	ret
    5f2a:	0c 94 57 30 	jmp	0x60ae	; 0x60ae <__fp_zero>
    5f2e:	67 2f       	mov	r22, r23
    5f30:	78 2f       	mov	r23, r24
    5f32:	88 27       	eor	r24, r24
    5f34:	b8 5f       	subi	r27, 0xF8	; 248
    5f36:	39 f0       	breq	.+14     	; 0x5f46 <__fixunssfsi+0x4c>
    5f38:	b9 3f       	cpi	r27, 0xF9	; 249
    5f3a:	cc f3       	brlt	.-14     	; 0x5f2e <__fixunssfsi+0x34>
    5f3c:	86 95       	lsr	r24
    5f3e:	77 95       	ror	r23
    5f40:	67 95       	ror	r22
    5f42:	b3 95       	inc	r27
    5f44:	d9 f7       	brne	.-10     	; 0x5f3c <__fixunssfsi+0x42>
    5f46:	3e f4       	brtc	.+14     	; 0x5f56 <__fixunssfsi+0x5c>
    5f48:	90 95       	com	r25
    5f4a:	80 95       	com	r24
    5f4c:	70 95       	com	r23
    5f4e:	61 95       	neg	r22
    5f50:	7f 4f       	sbci	r23, 0xFF	; 255
    5f52:	8f 4f       	sbci	r24, 0xFF	; 255
    5f54:	9f 4f       	sbci	r25, 0xFF	; 255
    5f56:	08 95       	ret

00005f58 <__floatunsisf>:
    5f58:	e8 94       	clt
    5f5a:	09 c0       	rjmp	.+18     	; 0x5f6e <__floatsisf+0x12>

00005f5c <__floatsisf>:
    5f5c:	97 fb       	bst	r25, 7
    5f5e:	3e f4       	brtc	.+14     	; 0x5f6e <__floatsisf+0x12>
    5f60:	90 95       	com	r25
    5f62:	80 95       	com	r24
    5f64:	70 95       	com	r23
    5f66:	61 95       	neg	r22
    5f68:	7f 4f       	sbci	r23, 0xFF	; 255
    5f6a:	8f 4f       	sbci	r24, 0xFF	; 255
    5f6c:	9f 4f       	sbci	r25, 0xFF	; 255
    5f6e:	99 23       	and	r25, r25
    5f70:	a9 f0       	breq	.+42     	; 0x5f9c <__floatsisf+0x40>
    5f72:	f9 2f       	mov	r31, r25
    5f74:	96 e9       	ldi	r25, 0x96	; 150
    5f76:	bb 27       	eor	r27, r27
    5f78:	93 95       	inc	r25
    5f7a:	f6 95       	lsr	r31
    5f7c:	87 95       	ror	r24
    5f7e:	77 95       	ror	r23
    5f80:	67 95       	ror	r22
    5f82:	b7 95       	ror	r27
    5f84:	f1 11       	cpse	r31, r1
    5f86:	f8 cf       	rjmp	.-16     	; 0x5f78 <__floatsisf+0x1c>
    5f88:	fa f4       	brpl	.+62     	; 0x5fc8 <__floatsisf+0x6c>
    5f8a:	bb 0f       	add	r27, r27
    5f8c:	11 f4       	brne	.+4      	; 0x5f92 <__floatsisf+0x36>
    5f8e:	60 ff       	sbrs	r22, 0
    5f90:	1b c0       	rjmp	.+54     	; 0x5fc8 <__floatsisf+0x6c>
    5f92:	6f 5f       	subi	r22, 0xFF	; 255
    5f94:	7f 4f       	sbci	r23, 0xFF	; 255
    5f96:	8f 4f       	sbci	r24, 0xFF	; 255
    5f98:	9f 4f       	sbci	r25, 0xFF	; 255
    5f9a:	16 c0       	rjmp	.+44     	; 0x5fc8 <__floatsisf+0x6c>
    5f9c:	88 23       	and	r24, r24
    5f9e:	11 f0       	breq	.+4      	; 0x5fa4 <__floatsisf+0x48>
    5fa0:	96 e9       	ldi	r25, 0x96	; 150
    5fa2:	11 c0       	rjmp	.+34     	; 0x5fc6 <__floatsisf+0x6a>
    5fa4:	77 23       	and	r23, r23
    5fa6:	21 f0       	breq	.+8      	; 0x5fb0 <__floatsisf+0x54>
    5fa8:	9e e8       	ldi	r25, 0x8E	; 142
    5faa:	87 2f       	mov	r24, r23
    5fac:	76 2f       	mov	r23, r22
    5fae:	05 c0       	rjmp	.+10     	; 0x5fba <__floatsisf+0x5e>
    5fb0:	66 23       	and	r22, r22
    5fb2:	71 f0       	breq	.+28     	; 0x5fd0 <__floatsisf+0x74>
    5fb4:	96 e8       	ldi	r25, 0x86	; 134
    5fb6:	86 2f       	mov	r24, r22
    5fb8:	70 e0       	ldi	r23, 0x00	; 0
    5fba:	60 e0       	ldi	r22, 0x00	; 0
    5fbc:	2a f0       	brmi	.+10     	; 0x5fc8 <__floatsisf+0x6c>
    5fbe:	9a 95       	dec	r25
    5fc0:	66 0f       	add	r22, r22
    5fc2:	77 1f       	adc	r23, r23
    5fc4:	88 1f       	adc	r24, r24
    5fc6:	da f7       	brpl	.-10     	; 0x5fbe <__floatsisf+0x62>
    5fc8:	88 0f       	add	r24, r24
    5fca:	96 95       	lsr	r25
    5fcc:	87 95       	ror	r24
    5fce:	97 f9       	bld	r25, 7
    5fd0:	08 95       	ret

00005fd2 <__fp_cmp>:
    5fd2:	99 0f       	add	r25, r25
    5fd4:	00 08       	sbc	r0, r0
    5fd6:	55 0f       	add	r21, r21
    5fd8:	aa 0b       	sbc	r26, r26
    5fda:	e0 e8       	ldi	r30, 0x80	; 128
    5fdc:	fe ef       	ldi	r31, 0xFE	; 254
    5fde:	16 16       	cp	r1, r22
    5fe0:	17 06       	cpc	r1, r23
    5fe2:	e8 07       	cpc	r30, r24
    5fe4:	f9 07       	cpc	r31, r25
    5fe6:	c0 f0       	brcs	.+48     	; 0x6018 <__fp_cmp+0x46>
    5fe8:	12 16       	cp	r1, r18
    5fea:	13 06       	cpc	r1, r19
    5fec:	e4 07       	cpc	r30, r20
    5fee:	f5 07       	cpc	r31, r21
    5ff0:	98 f0       	brcs	.+38     	; 0x6018 <__fp_cmp+0x46>
    5ff2:	62 1b       	sub	r22, r18
    5ff4:	73 0b       	sbc	r23, r19
    5ff6:	84 0b       	sbc	r24, r20
    5ff8:	95 0b       	sbc	r25, r21
    5ffa:	39 f4       	brne	.+14     	; 0x600a <__fp_cmp+0x38>
    5ffc:	0a 26       	eor	r0, r26
    5ffe:	61 f0       	breq	.+24     	; 0x6018 <__fp_cmp+0x46>
    6000:	23 2b       	or	r18, r19
    6002:	24 2b       	or	r18, r20
    6004:	25 2b       	or	r18, r21
    6006:	21 f4       	brne	.+8      	; 0x6010 <__fp_cmp+0x3e>
    6008:	08 95       	ret
    600a:	0a 26       	eor	r0, r26
    600c:	09 f4       	brne	.+2      	; 0x6010 <__fp_cmp+0x3e>
    600e:	a1 40       	sbci	r26, 0x01	; 1
    6010:	a6 95       	lsr	r26
    6012:	8f ef       	ldi	r24, 0xFF	; 255
    6014:	81 1d       	adc	r24, r1
    6016:	81 1d       	adc	r24, r1
    6018:	08 95       	ret

0000601a <__fp_inf>:
    601a:	97 f9       	bld	r25, 7
    601c:	9f 67       	ori	r25, 0x7F	; 127
    601e:	80 e8       	ldi	r24, 0x80	; 128
    6020:	70 e0       	ldi	r23, 0x00	; 0
    6022:	60 e0       	ldi	r22, 0x00	; 0
    6024:	08 95       	ret

00006026 <__fp_nan>:
    6026:	9f ef       	ldi	r25, 0xFF	; 255
    6028:	80 ec       	ldi	r24, 0xC0	; 192
    602a:	08 95       	ret

0000602c <__fp_pscA>:
    602c:	00 24       	eor	r0, r0
    602e:	0a 94       	dec	r0
    6030:	16 16       	cp	r1, r22
    6032:	17 06       	cpc	r1, r23
    6034:	18 06       	cpc	r1, r24
    6036:	09 06       	cpc	r0, r25
    6038:	08 95       	ret

0000603a <__fp_pscB>:
    603a:	00 24       	eor	r0, r0
    603c:	0a 94       	dec	r0
    603e:	12 16       	cp	r1, r18
    6040:	13 06       	cpc	r1, r19
    6042:	14 06       	cpc	r1, r20
    6044:	05 06       	cpc	r0, r21
    6046:	08 95       	ret

00006048 <__fp_round>:
    6048:	09 2e       	mov	r0, r25
    604a:	03 94       	inc	r0
    604c:	00 0c       	add	r0, r0
    604e:	11 f4       	brne	.+4      	; 0x6054 <__fp_round+0xc>
    6050:	88 23       	and	r24, r24
    6052:	52 f0       	brmi	.+20     	; 0x6068 <__fp_round+0x20>
    6054:	bb 0f       	add	r27, r27
    6056:	40 f4       	brcc	.+16     	; 0x6068 <__fp_round+0x20>
    6058:	bf 2b       	or	r27, r31
    605a:	11 f4       	brne	.+4      	; 0x6060 <__fp_round+0x18>
    605c:	60 ff       	sbrs	r22, 0
    605e:	04 c0       	rjmp	.+8      	; 0x6068 <__fp_round+0x20>
    6060:	6f 5f       	subi	r22, 0xFF	; 255
    6062:	7f 4f       	sbci	r23, 0xFF	; 255
    6064:	8f 4f       	sbci	r24, 0xFF	; 255
    6066:	9f 4f       	sbci	r25, 0xFF	; 255
    6068:	08 95       	ret

0000606a <__fp_split3>:
    606a:	57 fd       	sbrc	r21, 7
    606c:	90 58       	subi	r25, 0x80	; 128
    606e:	44 0f       	add	r20, r20
    6070:	55 1f       	adc	r21, r21
    6072:	59 f0       	breq	.+22     	; 0x608a <__fp_splitA+0x10>
    6074:	5f 3f       	cpi	r21, 0xFF	; 255
    6076:	71 f0       	breq	.+28     	; 0x6094 <__fp_splitA+0x1a>
    6078:	47 95       	ror	r20

0000607a <__fp_splitA>:
    607a:	88 0f       	add	r24, r24
    607c:	97 fb       	bst	r25, 7
    607e:	99 1f       	adc	r25, r25
    6080:	61 f0       	breq	.+24     	; 0x609a <__fp_splitA+0x20>
    6082:	9f 3f       	cpi	r25, 0xFF	; 255
    6084:	79 f0       	breq	.+30     	; 0x60a4 <__fp_splitA+0x2a>
    6086:	87 95       	ror	r24
    6088:	08 95       	ret
    608a:	12 16       	cp	r1, r18
    608c:	13 06       	cpc	r1, r19
    608e:	14 06       	cpc	r1, r20
    6090:	55 1f       	adc	r21, r21
    6092:	f2 cf       	rjmp	.-28     	; 0x6078 <__fp_split3+0xe>
    6094:	46 95       	lsr	r20
    6096:	f1 df       	rcall	.-30     	; 0x607a <__fp_splitA>
    6098:	08 c0       	rjmp	.+16     	; 0x60aa <__fp_splitA+0x30>
    609a:	16 16       	cp	r1, r22
    609c:	17 06       	cpc	r1, r23
    609e:	18 06       	cpc	r1, r24
    60a0:	99 1f       	adc	r25, r25
    60a2:	f1 cf       	rjmp	.-30     	; 0x6086 <__fp_splitA+0xc>
    60a4:	86 95       	lsr	r24
    60a6:	71 05       	cpc	r23, r1
    60a8:	61 05       	cpc	r22, r1
    60aa:	08 94       	sec
    60ac:	08 95       	ret

000060ae <__fp_zero>:
    60ae:	e8 94       	clt

000060b0 <__fp_szero>:
    60b0:	bb 27       	eor	r27, r27
    60b2:	66 27       	eor	r22, r22
    60b4:	77 27       	eor	r23, r23
    60b6:	cb 01       	movw	r24, r22
    60b8:	97 f9       	bld	r25, 7
    60ba:	08 95       	ret

000060bc <__gesf2>:
    60bc:	0e 94 e9 2f 	call	0x5fd2	; 0x5fd2 <__fp_cmp>
    60c0:	08 f4       	brcc	.+2      	; 0x60c4 <__gesf2+0x8>
    60c2:	8f ef       	ldi	r24, 0xFF	; 255
    60c4:	08 95       	ret

000060c6 <__mulsf3>:
    60c6:	0e 94 76 30 	call	0x60ec	; 0x60ec <__mulsf3x>
    60ca:	0c 94 24 30 	jmp	0x6048	; 0x6048 <__fp_round>
    60ce:	0e 94 16 30 	call	0x602c	; 0x602c <__fp_pscA>
    60d2:	38 f0       	brcs	.+14     	; 0x60e2 <__mulsf3+0x1c>
    60d4:	0e 94 1d 30 	call	0x603a	; 0x603a <__fp_pscB>
    60d8:	20 f0       	brcs	.+8      	; 0x60e2 <__mulsf3+0x1c>
    60da:	95 23       	and	r25, r21
    60dc:	11 f0       	breq	.+4      	; 0x60e2 <__mulsf3+0x1c>
    60de:	0c 94 0d 30 	jmp	0x601a	; 0x601a <__fp_inf>
    60e2:	0c 94 13 30 	jmp	0x6026	; 0x6026 <__fp_nan>
    60e6:	11 24       	eor	r1, r1
    60e8:	0c 94 58 30 	jmp	0x60b0	; 0x60b0 <__fp_szero>

000060ec <__mulsf3x>:
    60ec:	0e 94 35 30 	call	0x606a	; 0x606a <__fp_split3>
    60f0:	70 f3       	brcs	.-36     	; 0x60ce <__mulsf3+0x8>

000060f2 <__mulsf3_pse>:
    60f2:	95 9f       	mul	r25, r21
    60f4:	c1 f3       	breq	.-16     	; 0x60e6 <__mulsf3+0x20>
    60f6:	95 0f       	add	r25, r21
    60f8:	50 e0       	ldi	r21, 0x00	; 0
    60fa:	55 1f       	adc	r21, r21
    60fc:	62 9f       	mul	r22, r18
    60fe:	f0 01       	movw	r30, r0
    6100:	72 9f       	mul	r23, r18
    6102:	bb 27       	eor	r27, r27
    6104:	f0 0d       	add	r31, r0
    6106:	b1 1d       	adc	r27, r1
    6108:	63 9f       	mul	r22, r19
    610a:	aa 27       	eor	r26, r26
    610c:	f0 0d       	add	r31, r0
    610e:	b1 1d       	adc	r27, r1
    6110:	aa 1f       	adc	r26, r26
    6112:	64 9f       	mul	r22, r20
    6114:	66 27       	eor	r22, r22
    6116:	b0 0d       	add	r27, r0
    6118:	a1 1d       	adc	r26, r1
    611a:	66 1f       	adc	r22, r22
    611c:	82 9f       	mul	r24, r18
    611e:	22 27       	eor	r18, r18
    6120:	b0 0d       	add	r27, r0
    6122:	a1 1d       	adc	r26, r1
    6124:	62 1f       	adc	r22, r18
    6126:	73 9f       	mul	r23, r19
    6128:	b0 0d       	add	r27, r0
    612a:	a1 1d       	adc	r26, r1
    612c:	62 1f       	adc	r22, r18
    612e:	83 9f       	mul	r24, r19
    6130:	a0 0d       	add	r26, r0
    6132:	61 1d       	adc	r22, r1
    6134:	22 1f       	adc	r18, r18
    6136:	74 9f       	mul	r23, r20
    6138:	33 27       	eor	r19, r19
    613a:	a0 0d       	add	r26, r0
    613c:	61 1d       	adc	r22, r1
    613e:	23 1f       	adc	r18, r19
    6140:	84 9f       	mul	r24, r20
    6142:	60 0d       	add	r22, r0
    6144:	21 1d       	adc	r18, r1
    6146:	82 2f       	mov	r24, r18
    6148:	76 2f       	mov	r23, r22
    614a:	6a 2f       	mov	r22, r26
    614c:	11 24       	eor	r1, r1
    614e:	9f 57       	subi	r25, 0x7F	; 127
    6150:	50 40       	sbci	r21, 0x00	; 0
    6152:	9a f0       	brmi	.+38     	; 0x617a <__mulsf3_pse+0x88>
    6154:	f1 f0       	breq	.+60     	; 0x6192 <__mulsf3_pse+0xa0>
    6156:	88 23       	and	r24, r24
    6158:	4a f0       	brmi	.+18     	; 0x616c <__mulsf3_pse+0x7a>
    615a:	ee 0f       	add	r30, r30
    615c:	ff 1f       	adc	r31, r31
    615e:	bb 1f       	adc	r27, r27
    6160:	66 1f       	adc	r22, r22
    6162:	77 1f       	adc	r23, r23
    6164:	88 1f       	adc	r24, r24
    6166:	91 50       	subi	r25, 0x01	; 1
    6168:	50 40       	sbci	r21, 0x00	; 0
    616a:	a9 f7       	brne	.-22     	; 0x6156 <__mulsf3_pse+0x64>
    616c:	9e 3f       	cpi	r25, 0xFE	; 254
    616e:	51 05       	cpc	r21, r1
    6170:	80 f0       	brcs	.+32     	; 0x6192 <__mulsf3_pse+0xa0>
    6172:	0c 94 0d 30 	jmp	0x601a	; 0x601a <__fp_inf>
    6176:	0c 94 58 30 	jmp	0x60b0	; 0x60b0 <__fp_szero>
    617a:	5f 3f       	cpi	r21, 0xFF	; 255
    617c:	e4 f3       	brlt	.-8      	; 0x6176 <__mulsf3_pse+0x84>
    617e:	98 3e       	cpi	r25, 0xE8	; 232
    6180:	d4 f3       	brlt	.-12     	; 0x6176 <__mulsf3_pse+0x84>
    6182:	86 95       	lsr	r24
    6184:	77 95       	ror	r23
    6186:	67 95       	ror	r22
    6188:	b7 95       	ror	r27
    618a:	f7 95       	ror	r31
    618c:	e7 95       	ror	r30
    618e:	9f 5f       	subi	r25, 0xFF	; 255
    6190:	c1 f7       	brne	.-16     	; 0x6182 <__mulsf3_pse+0x90>
    6192:	fe 2b       	or	r31, r30
    6194:	88 0f       	add	r24, r24
    6196:	91 1d       	adc	r25, r1
    6198:	96 95       	lsr	r25
    619a:	87 95       	ror	r24
    619c:	97 f9       	bld	r25, 7
    619e:	08 95       	ret

000061a0 <__divmodhi4>:
    61a0:	97 fb       	bst	r25, 7
    61a2:	07 2e       	mov	r0, r23
    61a4:	16 f4       	brtc	.+4      	; 0x61aa <__divmodhi4+0xa>
    61a6:	00 94       	com	r0
    61a8:	07 d0       	rcall	.+14     	; 0x61b8 <__divmodhi4_neg1>
    61aa:	77 fd       	sbrc	r23, 7
    61ac:	09 d0       	rcall	.+18     	; 0x61c0 <__divmodhi4_neg2>
    61ae:	0e 94 ea 30 	call	0x61d4	; 0x61d4 <__udivmodhi4>
    61b2:	07 fc       	sbrc	r0, 7
    61b4:	05 d0       	rcall	.+10     	; 0x61c0 <__divmodhi4_neg2>
    61b6:	3e f4       	brtc	.+14     	; 0x61c6 <__divmodhi4_exit>

000061b8 <__divmodhi4_neg1>:
    61b8:	90 95       	com	r25
    61ba:	81 95       	neg	r24
    61bc:	9f 4f       	sbci	r25, 0xFF	; 255
    61be:	08 95       	ret

000061c0 <__divmodhi4_neg2>:
    61c0:	70 95       	com	r23
    61c2:	61 95       	neg	r22
    61c4:	7f 4f       	sbci	r23, 0xFF	; 255

000061c6 <__divmodhi4_exit>:
    61c6:	08 95       	ret

000061c8 <__tablejump2__>:
    61c8:	ee 0f       	add	r30, r30
    61ca:	ff 1f       	adc	r31, r31
    61cc:	05 90       	lpm	r0, Z+
    61ce:	f4 91       	lpm	r31, Z
    61d0:	e0 2d       	mov	r30, r0
    61d2:	09 94       	ijmp

000061d4 <__udivmodhi4>:
    61d4:	aa 1b       	sub	r26, r26
    61d6:	bb 1b       	sub	r27, r27
    61d8:	51 e1       	ldi	r21, 0x11	; 17
    61da:	07 c0       	rjmp	.+14     	; 0x61ea <__udivmodhi4_ep>

000061dc <__udivmodhi4_loop>:
    61dc:	aa 1f       	adc	r26, r26
    61de:	bb 1f       	adc	r27, r27
    61e0:	a6 17       	cp	r26, r22
    61e2:	b7 07       	cpc	r27, r23
    61e4:	10 f0       	brcs	.+4      	; 0x61ea <__udivmodhi4_ep>
    61e6:	a6 1b       	sub	r26, r22
    61e8:	b7 0b       	sbc	r27, r23

000061ea <__udivmodhi4_ep>:
    61ea:	88 1f       	adc	r24, r24
    61ec:	99 1f       	adc	r25, r25
    61ee:	5a 95       	dec	r21
    61f0:	a9 f7       	brne	.-22     	; 0x61dc <__udivmodhi4_loop>
    61f2:	80 95       	com	r24
    61f4:	90 95       	com	r25
    61f6:	bc 01       	movw	r22, r24
    61f8:	cd 01       	movw	r24, r26
    61fa:	08 95       	ret

000061fc <eeprom_read_byte>:
    61fc:	f9 99       	sbic	0x1f, 1	; 31
    61fe:	fe cf       	rjmp	.-4      	; 0x61fc <eeprom_read_byte>
    6200:	92 bd       	out	0x22, r25	; 34
    6202:	81 bd       	out	0x21, r24	; 33
    6204:	f8 9a       	sbi	0x1f, 0	; 31
    6206:	99 27       	eor	r25, r25
    6208:	80 b5       	in	r24, 0x20	; 32
    620a:	08 95       	ret

0000620c <eeprom_read_dword>:
    620c:	a6 e1       	ldi	r26, 0x16	; 22
    620e:	b0 e0       	ldi	r27, 0x00	; 0
    6210:	44 e0       	ldi	r20, 0x04	; 4
    6212:	50 e0       	ldi	r21, 0x00	; 0
    6214:	0c 94 29 31 	jmp	0x6252	; 0x6252 <eeprom_read_blraw>

00006218 <eeprom_write_byte>:
    6218:	26 2f       	mov	r18, r22

0000621a <eeprom_write_r18>:
    621a:	f9 99       	sbic	0x1f, 1	; 31
    621c:	fe cf       	rjmp	.-4      	; 0x621a <eeprom_write_r18>
    621e:	1f ba       	out	0x1f, r1	; 31
    6220:	92 bd       	out	0x22, r25	; 34
    6222:	81 bd       	out	0x21, r24	; 33
    6224:	20 bd       	out	0x20, r18	; 32
    6226:	0f b6       	in	r0, 0x3f	; 63
    6228:	f8 94       	cli
    622a:	fa 9a       	sbi	0x1f, 2	; 31
    622c:	f9 9a       	sbi	0x1f, 1	; 31
    622e:	0f be       	out	0x3f, r0	; 63
    6230:	01 96       	adiw	r24, 0x01	; 1
    6232:	08 95       	ret

00006234 <eeprom_write_dword>:
    6234:	24 2f       	mov	r18, r20
    6236:	0e 94 0d 31 	call	0x621a	; 0x621a <eeprom_write_r18>
    623a:	25 2f       	mov	r18, r21
    623c:	0e 94 0d 31 	call	0x621a	; 0x621a <eeprom_write_r18>
    6240:	0c 94 22 31 	jmp	0x6244	; 0x6244 <eeprom_write_word>

00006244 <eeprom_write_word>:
    6244:	0e 94 0c 31 	call	0x6218	; 0x6218 <eeprom_write_byte>
    6248:	27 2f       	mov	r18, r23
    624a:	0c 94 0d 31 	jmp	0x621a	; 0x621a <eeprom_write_r18>

0000624e <eeprom_read_block>:
    624e:	dc 01       	movw	r26, r24
    6250:	cb 01       	movw	r24, r22

00006252 <eeprom_read_blraw>:
    6252:	fc 01       	movw	r30, r24
    6254:	f9 99       	sbic	0x1f, 1	; 31
    6256:	fe cf       	rjmp	.-4      	; 0x6254 <eeprom_read_blraw+0x2>
    6258:	06 c0       	rjmp	.+12     	; 0x6266 <eeprom_read_blraw+0x14>
    625a:	f2 bd       	out	0x22, r31	; 34
    625c:	e1 bd       	out	0x21, r30	; 33
    625e:	f8 9a       	sbi	0x1f, 0	; 31
    6260:	31 96       	adiw	r30, 0x01	; 1
    6262:	00 b4       	in	r0, 0x20	; 32
    6264:	0d 92       	st	X+, r0
    6266:	41 50       	subi	r20, 0x01	; 1
    6268:	50 40       	sbci	r21, 0x00	; 0
    626a:	b8 f7       	brcc	.-18     	; 0x625a <eeprom_read_blraw+0x8>
    626c:	08 95       	ret

0000626e <_exit>:
    626e:	f8 94       	cli

00006270 <__stop_program>:
    6270:	ff cf       	rjmp	.-2      	; 0x6270 <__stop_program>
