
CarSupport.elf:     file format elf32-avr

Sections:
Idx Name          Size      VMA       LMA       File off  Algn
  0 .data         00000084  00800100  00003b60  00003c14  2**0
                  CONTENTS, ALLOC, LOAD, DATA
  1 .text         00003b60  00000000  00000000  000000b4  2**1
                  CONTENTS, ALLOC, LOAD, READONLY, CODE
  2 .bss          000005d8  00800184  00800184  00003c98  2**0
                  ALLOC
  3 .eeprom       00000048  00810000  00810000  00003c98  2**0
                  CONTENTS, ALLOC, LOAD, DATA
  4 .comment      00000030  00000000  00000000  00003ce0  2**0
                  CONTENTS, READONLY
  5 .note.gnu.avr.deviceinfo 0000003c  00000000  00000000  00003d10  2**2
                  CONTENTS, READONLY
  6 .debug_aranges 000004a8  00000000  00000000  00003d50  2**3
                  CONTENTS, READONLY, DEBUGGING
  7 .debug_info   0000b307  00000000  00000000  000041f8  2**0
                  CONTENTS, READONLY, DEBUGGING
  8 .debug_abbrev 00001e71  00000000  00000000  0000f4ff  2**0
                  CONTENTS, READONLY, DEBUGGING
  9 .debug_line   00002ce7  00000000  00000000  00011370  2**0
                  CONTENTS, READONLY, DEBUGGING
 10 .debug_frame  00000dcc  00000000  00000000  00014058  2**2
                  CONTENTS, READONLY, DEBUGGING
 11 .debug_str    000019d5  00000000  00000000  00014e24  2**0
                  CONTENTS, READONLY, DEBUGGING
 12 .debug_loc    00004ac7  00000000  00000000  000167f9  2**0
                  CONTENTS, READONLY, DEBUGGING
 13 .debug_ranges 00000380  00000000  00000000  0001b2c0  2**0
                  CONTENTS, READONLY, DEBUGGING

Disassembly of section .text:

00000000 <__vectors>:
       0:	0c 94 0b 04 	jmp	0x816	; 0x816 <__ctors_end>
       4:	0c 94 33 04 	jmp	0x866	; 0x866 <__bad_interrupt>
       8:	0c 94 33 04 	jmp	0x866	; 0x866 <__bad_interrupt>
       c:	0c 94 33 04 	jmp	0x866	; 0x866 <__bad_interrupt>
      10:	0c 94 33 04 	jmp	0x866	; 0x866 <__bad_interrupt>
      14:	0c 94 33 04 	jmp	0x866	; 0x866 <__bad_interrupt>
      18:	0c 94 33 04 	jmp	0x866	; 0x866 <__bad_interrupt>
      1c:	0c 94 33 04 	jmp	0x866	; 0x866 <__bad_interrupt>
      20:	0c 94 33 04 	jmp	0x866	; 0x866 <__bad_interrupt>
      24:	0c 94 33 04 	jmp	0x866	; 0x866 <__bad_interrupt>
      28:	0c 94 33 04 	jmp	0x866	; 0x866 <__bad_interrupt>
      2c:	0c 94 33 04 	jmp	0x866	; 0x866 <__bad_interrupt>
      30:	0c 94 33 04 	jmp	0x866	; 0x866 <__bad_interrupt>
      34:	0c 94 33 04 	jmp	0x866	; 0x866 <__bad_interrupt>
      38:	0c 94 33 04 	jmp	0x866	; 0x866 <__bad_interrupt>
      3c:	0c 94 33 04 	jmp	0x866	; 0x866 <__bad_interrupt>
      40:	0c 94 33 04 	jmp	0x866	; 0x866 <__bad_interrupt>
      44:	0c 94 33 04 	jmp	0x866	; 0x866 <__bad_interrupt>
      48:	0c 94 33 04 	jmp	0x866	; 0x866 <__bad_interrupt>
      4c:	0c 94 33 04 	jmp	0x866	; 0x866 <__bad_interrupt>
      50:	0c 94 33 04 	jmp	0x866	; 0x866 <__bad_interrupt>
      54:	0c 94 33 04 	jmp	0x866	; 0x866 <__bad_interrupt>
      58:	0c 94 33 04 	jmp	0x866	; 0x866 <__bad_interrupt>
      5c:	0c 94 33 04 	jmp	0x866	; 0x866 <__bad_interrupt>
      60:	0c 94 33 04 	jmp	0x866	; 0x866 <__bad_interrupt>
      64:	0c 94 33 04 	jmp	0x866	; 0x866 <__bad_interrupt>
      68:	a4 05       	cpc	r26, r4
      6a:	aa 05       	cpc	r26, r10
      6c:	af 05       	cpc	r26, r15
      6e:	b4 05       	cpc	r27, r4
      70:	b9 05       	cpc	r27, r9
      72:	be 05       	cpc	r27, r14
      74:	c3 05       	cpc	r28, r3
      76:	c8 05       	cpc	r28, r8
      78:	d2 05       	cpc	r29, r2
      7a:	3e 15       	cp	r19, r14
      7c:	46 15       	cp	r20, r6
      7e:	4e 15       	cp	r20, r14
      80:	56 15       	cp	r21, r6
      82:	5e 15       	cp	r21, r14
      84:	66 15       	cp	r22, r6
      86:	76 15       	cp	r23, r6
      88:	6e 15       	cp	r22, r14
      8a:	7e 15       	cp	r23, r14
      8c:	86 15       	cp	r24, r6
      8e:	8e 15       	cp	r24, r14
      90:	96 15       	cp	r25, r6
      92:	9e 15       	cp	r25, r14
      94:	a6 15       	cp	r26, r6
      96:	ae 15       	cp	r26, r14
      98:	b6 15       	cp	r27, r6
      9a:	be 15       	cp	r27, r14

0000009c <__trampolines_end>:
      9c:	0a d7       	rcall	.+3604   	; 0xeb2 <_ZN8Activity10Limits_setER5PanelR7Carrage+0xa0>
      9e:	23 3c       	cpi	r18, 0xC3	; 195
      a0:	0a d7       	rcall	.+3604   	; 0xeb6 <_ZN8Activity10Limits_setER5PanelR7Carrage+0xa4>
      a2:	a3 3c       	cpi	r26, 0xC3	; 195
      a4:	8f c2       	rjmp	.+1310   	; 0x5c4 <__LOCK_REGION_LENGTH__+0x1c4>
      a6:	f5 3c       	cpi	r31, 0xC5	; 197
      a8:	0a d7       	rcall	.+3604   	; 0xebe <_ZN8Activity10Limits_setER5PanelR7Carrage+0xac>
      aa:	23 3d       	cpi	r18, 0xD3	; 211
      ac:	cd cc       	rjmp	.-1638   	; 0xfffffa48 <__eeprom_end+0xff7efa00>
      ae:	4c 3d       	cpi	r20, 0xDC	; 220
      b0:	8f c2       	rjmp	.+1310   	; 0x5d0 <__LOCK_REGION_LENGTH__+0x1d0>
      b2:	75 3d       	cpi	r23, 0xD5	; 213
      b4:	29 5c       	subi	r18, 0xC9	; 201
      b6:	8f 3d       	cpi	r24, 0xDF	; 223
      b8:	0a d7       	rcall	.+3604   	; 0xece <_ZN8Activity10Limits_setER5PanelR7Carrage+0xbc>
      ba:	a3 3d       	cpi	r26, 0xD3	; 211
      bc:	ec 51       	subi	r30, 0x1C	; 28
      be:	b8 3d       	cpi	r27, 0xD8	; 216
      c0:	cd cc       	rjmp	.-1638   	; 0xfffffa5c <__eeprom_end+0xff7efa14>
      c2:	cc 3d       	cpi	r28, 0xDC	; 220
      c4:	8f c2       	rjmp	.+1310   	; 0x5e4 <__LOCK_REGION_LENGTH__+0x1e4>
      c6:	f5 3d       	cpi	r31, 0xD5	; 213
      c8:	9a 99       	sbic	0x13, 2	; 19
      ca:	19 3e       	cpi	r17, 0xE9	; 233
      cc:	cd cc       	rjmp	.-1638   	; 0xfffffa68 <__eeprom_end+0xff7efa20>
      ce:	4c 3e       	cpi	r20, 0xEC	; 236
      d0:	9a 99       	sbic	0x13, 2	; 19
      d2:	99 3e       	cpi	r25, 0xE9	; 233
      d4:	00 00       	nop
      d6:	00 3f       	cpi	r16, 0xF0	; 240
      d8:	00 00       	nop
      da:	40 3f       	cpi	r20, 0xF0	; 240
      dc:	00 00       	nop
      de:	80 3f       	cpi	r24, 0xF0	; 240
      e0:	00 00       	nop
      e2:	c0 3f       	cpi	r28, 0xF0	; 240
      e4:	00 00       	nop
      e6:	00 40       	sbci	r16, 0x00	; 0
      e8:	00 00       	nop
      ea:	40 40       	sbci	r20, 0x00	; 0

000000ec <_ZL10StepLevels>:
      ec:	c0 c0 e0 a0 a0 a0 90 90 90 90 88 88 88 84 84 84     ................
      fc:	84 82 82 82 82 81 81 ff c0 c0 e0 e0 a0 a0 90 90     ................
     10c:	90 90 88 88 88 84 84 84 84 82 82 82 82 81 81 ff     ................
     11c:	c0 c0 e0 e0 e0 a0 90 90 90 90 88 88 88 84 84 84     ................
     12c:	84 82 82 82 82 81 81 ff c0 c0 e0 e0 e0 e0 f0 90     ................
     13c:	90 90 88 88 88 84 84 84 84 82 82 82 82 81 81 ff     ................
     14c:	c0 c0 e0 e0 e0 e0 f0 f0 90 90 88 88 88 84 84 84     ................
     15c:	84 82 82 82 82 81 81 ff c0 c0 e0 e0 e0 e0 f0 f0     ................
     16c:	f0 90 88 88 88 84 84 84 84 82 82 82 82 81 81 ff     ................
     17c:	c0 c0 e0 e0 e0 e0 f0 f0 f0 f0 88 88 88 84 84 84     ................
     18c:	84 82 82 82 82 81 81 ff c0 c0 e0 e0 e0 e0 f0 f0     ................
     19c:	f0 f0 f8 88 88 84 84 84 84 82 82 82 82 81 81 ff     ................
     1ac:	c0 c0 e0 e0 e0 e0 f0 f0 f0 f0 f8 f8 88 84 84 84     ................
     1bc:	84 82 82 82 82 81 81 ff c0 c0 e0 e0 e0 e0 f0 f0     ................
     1cc:	f0 f0 f8 f8 f8 84 84 84 84 82 82 82 82 81 81 ff     ................
     1dc:	c0 c0 e0 e0 e0 e0 f0 f0 f0 f0 f8 f8 f8 fc 84 84     ................
     1ec:	84 82 82 82 82 81 81 ff c0 c0 e0 e0 e0 e0 f0 f0     ................
     1fc:	f0 f0 f8 f8 f8 fc fc 84 84 82 82 82 82 81 81 ff     ................
     20c:	c0 c0 e0 e0 e0 e0 f0 f0 f0 f0 f8 f8 f8 fc fc fc     ................
     21c:	84 82 82 82 82 81 81 ff c0 c0 e0 e0 e0 e0 f0 f0     ................
     22c:	f0 f0 f8 f8 f8 fc fc fc fc 82 82 82 82 81 81 ff     ................
     23c:	c0 c0 e0 e0 e0 e0 f0 f0 f0 f0 f8 f8 f8 fc fc fc     ................
     24c:	fc fe 82 82 82 81 81 ff c0 c0 e0 e0 e0 e0 f0 f0     ................
     25c:	f0 f0 f8 f8 f8 fc fc fc fc fe fe 82 82 81 81 ff     ................
     26c:	c0 c0 e0 e0 e0 e0 f0 f0 f0 f0 f8 f8 f8 fc fc fc     ................
     27c:	fc fe fe fe 82 81 81 ff c0 c0 e0 e0 e0 e0 f0 f0     ................
     28c:	f0 f0 f8 f8 f8 fc fc fc fc fe fe fe fe 81 81 ff     ................
     29c:	c0 c0 e0 e0 e0 e0 f0 f0 f0 f0 f8 f8 f8 fc fc fc     ................
     2ac:	fc fe fe fe fe ff 81 ff c0 c0 e0 e0 e0 e0 f0 f0     ................
     2bc:	f0 f0 f8 f8 f8 fc fc fc fc fe fe fe fe ff ff ff     ................

000002cc <_ZL10FontLookup>:
	...
     2d4:	00 5f 00 00 00 00 00 07 00 07 00 00 00 14 7f 14     ._..............
     2e4:	7f 14 00 00 24 2a 7f 2a 12 00 00 4c 2c 10 68 64     ....$*.*...L,.hd
     2f4:	00 00 36 49 55 22 50 00 00 00 05 03 00 00 00 00     ..6IU"P.........
     304:	00 1c 22 41 00 00 00 00 41 22 1c 00 00 00 14 08     .."A....A"......
     314:	3e 08 14 00 00 08 08 3e 08 08 00 00 00 00 50 30     >......>......P0
     324:	00 00 00 10 10 10 10 10 00 00 00 60 60 00 00 00     ...........``...
     334:	00 20 10 08 04 02 00 00 3e 51 49 45 3e 00 00 00     . ......>QIE>...
     344:	42 7f 40 00 00 00 42 61 51 49 46 00 00 21 41 45     B.@...BaQIF..!AE
     354:	4b 31 00 00 18 14 12 7f 10 00 00 27 45 45 45 39     K1.........'EEE9
     364:	00 00 3c 4a 49 49 30 00 00 01 71 09 05 03 00 00     ..<JII0...q.....
     374:	36 49 49 49 36 00 00 06 49 49 29 1e 00 00 00 36     6III6...II)....6
     384:	36 00 00 00 00 00 56 36 00 00 00 00 08 14 22 41     6.....V6......"A
     394:	00 00 00 14 14 14 14 14 00 00 00 41 22 14 08 00     ...........A"...
     3a4:	00 02 01 51 09 06 00 00 32 49 79 41 3e 00 00 7e     ...Q....2IyA>..~
     3b4:	11 11 11 7e 00 00 7f 49 49 49 36 00 00 3e 41 41     ...~...III6..>AA
     3c4:	41 22 00 00 7f 41 41 22 1c 00 00 7f 49 49 49 41     A"...AA"....IIIA
     3d4:	00 00 7f 09 09 09 01 00 00 3e 41 49 49 7a 00 00     .........>AIIz..
     3e4:	7f 08 08 08 7f 00 00 00 41 7f 41 00 00 00 20 40     ........A.A... @
     3f4:	41 3f 01 00 00 7f 08 14 22 41 00 00 7f 40 40 40     A?......"A...@@@
     404:	40 00 00 7f 02 0c 02 7f 00 00 7f 04 08 10 7f 00     @...............
     414:	00 3e 41 41 41 3e 00 00 7f 09 09 09 06 00 00 3e     .>AAA>.........>
     424:	41 51 21 5e 00 00 7f 09 19 29 46 00 00 46 49 49     AQ!^.....)F..FII
     434:	49 31 00 00 01 01 7f 01 01 00 00 3f 40 40 40 3f     I1.........?@@@?
     444:	00 00 1f 20 40 20 1f 00 00 3f 40 38 40 3f 00 00     ... @ ...?@8@?..
     454:	63 14 08 14 63 00 00 07 08 70 08 07 00 00 61 51     c...c....p....aQ
     464:	49 45 43 00 00 00 7f 41 41 00 00 00 02 04 08 10     IEC....AA.......
     474:	20 00 00 00 41 41 7f 00 00 00 04 02 01 02 04 00      ...AA..........
     484:	00 40 40 40 40 40 00 00 00 01 02 04 00 00 00 20     .@@@@@......... 
     494:	54 54 54 78 00 00 7f 48 44 44 38 00 00 38 44 44     TTTx...HDD8..8DD
     4a4:	44 20 00 00 38 44 44 48 7f 00 00 38 54 54 54 18     D ..8DDH...8TTT.
     4b4:	00 00 08 7e 09 01 02 00 00 0c 52 52 52 3e 00 00     ...~......RRR>..
     4c4:	7f 08 04 04 78 00 00 00 44 7d 40 00 00 00 20 40     ....x...D}@... @
     4d4:	44 3d 00 00 00 7f 10 28 44 00 00 00 00 41 7f 40     D=.....(D....A.@
     4e4:	00 00 00 7c 04 18 04 78 00 00 7c 08 04 04 78 00     ...|...x..|...x.
     4f4:	00 38 44 44 44 38 00 00 7c 14 14 14 08 00 00 08     .8DDD8..|.......
     504:	14 14 18 7c 00 00 7c 08 04 04 08 00 00 48 54 54     ...|..|......HTT
     514:	54 20 00 00 04 3f 44 40 20 00 00 3c 40 40 20 7c     T ...?D@ ..<@@ |
     524:	00 00 1c 20 40 20 1c 00 00 3c 40 30 40 3c 00 00     ... @ ...<@0@<..
     534:	44 28 10 28 44 00 00 0c 50 50 50 3c 00 00 44 64     D(.(D...PPP<..Dd
     544:	54 4c 44 00 00 00 08 36 41 00 00 00 00 00 7f 00     TLD....6A.......
     554:	00 00 00 00 41 36 08 00 00 00 08 04 08 10 08 00     ....A6..........
     564:	00 ff ff ff ff ff 00 00 00 00 e0 f0 f8 f8 00 f8     ................
     574:	f8 f0 e0 00 00 00 00 00 ff ff ff ff 00 ff ff ff     ................
     584:	ff 00 00 00 00 00 07 0f 1f 1f 00 1f 1f 0f 07 00     ................
     594:	00 00 00 00 e0 10 08 08 00 08 08 10 e0 00 00 00     ................
     5a4:	00 00 ff 00 00 00 00 00 00 00 ff 00 00 00 00 00     ................
     5b4:	07 08 10 10 00 10 10 08 07 00 00 00 40 80 e0 10     ............@...
     5c4:	08 08 00 08 08 10 e0 80 40 00 00 00 ff 42 24 18     ........@....B$.
     5d4:	00 18 24 42 ff 00 00 00 02 01 07 08 10 10 00 10     ..$B............
     5e4:	10 08 07 01 02 00 00 00 60 50 48 44 00 44 48 50     ........`PHD.DHP
     5f4:	60 00 00 00 00 00 06 0a 12 22 00 22 12 0a 06 00     `........"."....
     604:	00 00 00 00 60 70 78 7c 00 7c 78 70 60 00 00 00     ....`px|.|xp`...
     614:	00 00 06 0e 1e 3e 00 3e 1e 0e 06 00 00 00 18 3c     .....>.>.......<
     624:	7e e7 00 00 00 00 00 e7 7e 3c 18 00 00 00 20 30     ~.......~<.... 0
     634:	38 1c 00 1c 38 30 20 00 00 00 00 00 2a 2a 2a 2a     8...80 .....****
     644:	00 2a 2a 2a 2a 2a 00 00 00 00 00 00 00 03 00 7c     .*****.........|
     654:	12 11 12 7c 00 00 7f 49 49 49 31 00 00 7f 49 49     ...|...III1...II
     664:	49 36 00 00 7f 01 01 01 01 00 00 60 3f 21 3f 60     I6.........`?!?`
     674:	00 00 7f 49 49 49 41 00 00 77 08 7f 08 77 00 00     ...IIIA..w...w..
     684:	22 41 49 49 36 00 00 7f 10 08 04 7f 00 00 7e 10     "AII6.........~.
     694:	09 04 7e 00 00 7f 08 14 22 41 00 00 40 3e 01 01     ..~....."A..@>..
     6a4:	7f 00 00 7f 02 0c 02 7f 00 00 7f 08 08 08 7f 00     ................
     6b4:	00 3e 41 41 41 3e 00 00 7f 01 01 01 7f 00 00 7f     .>AAA>..........
     6c4:	09 09 09 06 00 00 3e 41 41 41 22 00 00 01 01 7f     ......>AAA".....
     6d4:	01 01 00 00 07 48 48 48 3f 00 00 0e 11 7f 11 0e     .....HHH?.......
     6e4:	00 00 63 14 08 14 63 00 00 3f 20 20 3f 60 00 00     ..c...c..?  ?`..
     6f4:	07 08 08 08 7f 00 00 7f 40 7e 40 7f 00 00 3f 20     ........@~@...? 
     704:	3f 20 7f 00 00 01 7f 48 48 30 00 00 7f 48 30 00     ? .....HH0...H0.
     714:	7f 00 00 00 7f 48 48 30 00 00 22 41 49 49 3e 00     .....HH0.."AII>.
     724:	00 7f 08 3e 41 3e 00 00 46 29 19 09 7f 00 00 20     ...>A>..F)..... 
     734:	54 54 54 78 00 00 3c 4a 4a 4a 31 00 00 7c 54 54     TTTx..<JJJ1..|TT
     744:	28 00 00 00 7c 04 04 0c 00 00 00 60 3c 24 3c 60     (...|......`<$<`
     754:	00 00 38 54 54 54 18 00 00 6c 10 7c 10 6c 00 00     ..8TTT...l.|.l..
     764:	00 44 54 54 28 00 00 7c 20 10 08 7c 00 00 7c 21     .DTT(..| ..|..|!
     774:	12 09 7c 00 00 7c 10 28 44 00 00 00 40 38 04 04     ..|..|.(D...@8..
     784:	7c 00 00 7c 08 10 08 7c 00 00 7c 10 10 10 7c 00     |..|...|..|...|.
     794:	00 38 44 44 44 38 00 00 7c 04 04 04 7c 00 00 7c     .8DDD8..|...|..|
     7a4:	14 14 14 08 00 00 38 44 44 44 00 00 00 04 04 7c     ......8DDD.....|
     7b4:	04 04 00 00 0c 50 50 50 3c 00 00 08 14 7c 14 08     .....PPP<....|..
     7c4:	00 00 44 28 10 28 44 00 00 3c 20 20 3c 60 00 00     ..D(.(D..<  <`..
     7d4:	0c 10 10 10 7c 00 00 7c 40 7c 40 7c 00 00 3c 20     ....|..|@|@|..< 
     7e4:	3c 20 7c 00 00 04 7c 50 50 20 00 00 7c 50 20 00     < |...|PP ..|P .
     7f4:	7c 00 00 00 7c 50 50 20 00 00 28 44 54 54 38 00     |...|PP ..(DTT8.
     804:	00 7c 10 38 44 38 00 00 48 54 34 14 7c 00 00 00     .|.8D8..HT4.|...

00000814 <__ctors_start>:
     814:	b7 13       	cpse	r27, r23

00000816 <__ctors_end>:
     816:	11 24       	eor	r1, r1
     818:	1f be       	out	0x3f, r1	; 63
     81a:	cf ef       	ldi	r28, 0xFF	; 255
     81c:	d8 e0       	ldi	r29, 0x08	; 8
     81e:	de bf       	out	0x3e, r29	; 62
     820:	cd bf       	out	0x3d, r28	; 61

00000822 <__do_copy_data>:
     822:	11 e0       	ldi	r17, 0x01	; 1
     824:	a0 e0       	ldi	r26, 0x00	; 0
     826:	b1 e0       	ldi	r27, 0x01	; 1
     828:	e0 e6       	ldi	r30, 0x60	; 96
     82a:	fb e3       	ldi	r31, 0x3B	; 59
     82c:	02 c0       	rjmp	.+4      	; 0x832 <__do_copy_data+0x10>
     82e:	05 90       	lpm	r0, Z+
     830:	0d 92       	st	X+, r0
     832:	a4 38       	cpi	r26, 0x84	; 132
     834:	b1 07       	cpc	r27, r17
     836:	d9 f7       	brne	.-10     	; 0x82e <__do_copy_data+0xc>

00000838 <__do_clear_bss>:
     838:	27 e0       	ldi	r18, 0x07	; 7
     83a:	a4 e8       	ldi	r26, 0x84	; 132
     83c:	b1 e0       	ldi	r27, 0x01	; 1
     83e:	01 c0       	rjmp	.+2      	; 0x842 <.do_clear_bss_start>

00000840 <.do_clear_bss_loop>:
     840:	1d 92       	st	X+, r1

00000842 <.do_clear_bss_start>:
     842:	ac 35       	cpi	r26, 0x5C	; 92
     844:	b2 07       	cpc	r27, r18
     846:	e1 f7       	brne	.-8      	; 0x840 <.do_clear_bss_loop>

00000848 <__do_global_ctors>:
     848:	14 e0       	ldi	r17, 0x04	; 4
     84a:	cb e0       	ldi	r28, 0x0B	; 11
     84c:	d4 e0       	ldi	r29, 0x04	; 4
     84e:	04 c0       	rjmp	.+8      	; 0x858 <__do_global_ctors+0x10>
     850:	21 97       	sbiw	r28, 0x01	; 1
     852:	fe 01       	movw	r30, r28
     854:	0e 94 63 1d 	call	0x3ac6	; 0x3ac6 <__tablejump2__>
     858:	ca 30       	cpi	r28, 0x0A	; 10
     85a:	d1 07       	cpc	r29, r17
     85c:	c9 f7       	brne	.-14     	; 0x850 <__do_global_ctors+0x8>
     85e:	0e 94 94 13 	call	0x2728	; 0x2728 <main>
     862:	0c 94 ae 1d 	jmp	0x3b5c	; 0x3b5c <_exit>

00000866 <__bad_interrupt>:
     866:	0c 94 00 00 	jmp	0	; 0x0 <__vectors>

0000086a <_ZN8ActivityC1Ev>:
	0.12, 0.15, 0.20, 0.30, 0.50,
	0.75, 1.00, 1.50, 2.00, 3.00 };


// default constructor
Activity::Activity()
     86a:	08 95       	ret

0000086c <_ZN8Activity4InitEv>:
{
	
} //Activity

void Activity::Init(){
     86c:	cf 93       	push	r28
     86e:	df 93       	push	r29
     870:	fc 01       	movw	r30, r24
	SaveFlag = false;
     872:	dc 01       	movw	r26, r24
     874:	ae 56       	subi	r26, 0x6E	; 110
     876:	bf 4f       	sbci	r27, 0xFF	; 255
     878:	1c 92       	st	X, r1
	SetFlag = false;
     87a:	11 96       	adiw	r26, 0x01	; 1
     87c:	1c 92       	st	X, r1
	Step = 9;	
     87e:	89 e0       	ldi	r24, 0x09	; 9
     880:	90 e0       	ldi	r25, 0x00	; 0
     882:	93 83       	std	Z+3, r25	; 0x03
     884:	82 83       	std	Z+2, r24	; 0x02
	
	Cursor = MENU;
     886:	11 86       	std	Z+9, r1	; 0x09
     888:	10 86       	std	Z+8, r1	; 0x08
	
	Statment = SCREEN_MAIN;
     88a:	11 82       	std	Z+1, r1	; 0x01
     88c:	10 82       	st	Z, r1
	//cursors map
	Main_Screen_cursor_pathes[MENU][B_LEFT_] = LEFTUP;
     88e:	21 e0       	ldi	r18, 0x01	; 1
     890:	25 87       	std	Z+13, r18	; 0x0d
	Main_Screen_cursor_pathes[MENU][B_RIGHT] = RIGHTUP;
     892:	82 e0       	ldi	r24, 0x02	; 2
     894:	86 87       	std	Z+14, r24	; 0x0e
	Main_Screen_cursor_pathes[MENU][B_UP___] = ACTION_MENU;
     896:	96 e6       	ldi	r25, 0x66	; 102
     898:	93 87       	std	Z+11, r25	; 0x0b
	Main_Screen_cursor_pathes[MENU][B_DOWN_] = ADJUST;
     89a:	45 e0       	ldi	r20, 0x05	; 5
     89c:	44 87       	std	Z+12, r20	; 0x0c
	Main_Screen_cursor_pathes[MENU][B_OK___] = ACTION_MENU;
     89e:	92 87       	std	Z+10, r25	; 0x0a
	
	Main_Screen_cursor_pathes[LEFTUP][B_LEFT_] = LEFTUP;
     8a0:	23 8b       	std	Z+19, r18	; 0x13
	Main_Screen_cursor_pathes[LEFTUP][B_RIGHT] = MENU;
     8a2:	14 8a       	std	Z+20, r1	; 0x14
	Main_Screen_cursor_pathes[LEFTUP][B_UP___] = LEFTUP;
     8a4:	21 8b       	std	Z+17, r18	; 0x11
	Main_Screen_cursor_pathes[LEFTUP][B_DOWN_] = LEFTDOWN;
     8a6:	34 e0       	ldi	r19, 0x04	; 4
     8a8:	32 8b       	std	Z+18, r19	; 0x12
	Main_Screen_cursor_pathes[LEFTUP][B_OK___] = ACTION_WHEEL;
     8aa:	94 e6       	ldi	r25, 0x64	; 100
     8ac:	90 8b       	std	Z+16, r25	; 0x10
	
	Main_Screen_cursor_pathes[LEFTDOWN][B_LEFT_] = LEFTDOWN;
     8ae:	35 a3       	std	Z+37, r19	; 0x25
	Main_Screen_cursor_pathes[LEFTDOWN][B_RIGHT] = ADJUST;
     8b0:	46 a3       	std	Z+38, r20	; 0x26
	Main_Screen_cursor_pathes[LEFTDOWN][B_UP___] = LEFTUP;
     8b2:	23 a3       	std	Z+35, r18	; 0x23
	Main_Screen_cursor_pathes[LEFTDOWN][B_DOWN_] = LEFTDOWN;
     8b4:	34 a3       	std	Z+36, r19	; 0x24
	Main_Screen_cursor_pathes[LEFTDOWN][B_OK___] = ACTION_WHEEL;
     8b6:	92 a3       	std	Z+34, r25	; 0x22
	
	Main_Screen_cursor_pathes[ADJUST][B_LEFT_] = LEFTDOWN;
     8b8:	33 a7       	std	Z+43, r19	; 0x2b
	Main_Screen_cursor_pathes[ADJUST][B_RIGHT] = RIGHTDOWN;
     8ba:	53 e0       	ldi	r21, 0x03	; 3
     8bc:	54 a7       	std	Z+44, r21	; 0x2c
	Main_Screen_cursor_pathes[ADJUST][B_UP___] = MENU;
     8be:	11 a6       	std	Z+41, r1	; 0x29
	Main_Screen_cursor_pathes[ADJUST][B_DOWN_] = ADJUST;
     8c0:	42 a7       	std	Z+42, r20	; 0x2a
	Main_Screen_cursor_pathes[ADJUST][B_OK___] = ACTION_ADJUST;
     8c2:	65 e6       	ldi	r22, 0x65	; 101
     8c4:	60 a7       	std	Z+40, r22	; 0x28
	
	Main_Screen_cursor_pathes[RIGHTDOWN][B_LEFT_] = ADJUST;
     8c6:	47 8f       	std	Z+31, r20	; 0x1f
	Main_Screen_cursor_pathes[RIGHTDOWN][B_RIGHT] = RIGHTDOWN;
     8c8:	50 a3       	std	Z+32, r21	; 0x20
	Main_Screen_cursor_pathes[RIGHTDOWN][B_UP___] = RIGHTUP;
     8ca:	85 8f       	std	Z+29, r24	; 0x1d
	Main_Screen_cursor_pathes[RIGHTDOWN][B_DOWN_] = RIGHTDOWN;
     8cc:	56 8f       	std	Z+30, r21	; 0x1e
	Main_Screen_cursor_pathes[RIGHTDOWN][B_OK___] = ACTION_WHEEL;
     8ce:	94 8f       	std	Z+28, r25	; 0x1c
	
	Main_Screen_cursor_pathes[RIGHTUP][B_LEFT_] = MENU;
     8d0:	11 8e       	std	Z+25, r1	; 0x19
	Main_Screen_cursor_pathes[RIGHTUP][B_RIGHT] = RIGHTUP;
     8d2:	82 8f       	std	Z+26, r24	; 0x1a
	Main_Screen_cursor_pathes[RIGHTUP][B_UP___] = RIGHTUP;
     8d4:	87 8b       	std	Z+23, r24	; 0x17
	Main_Screen_cursor_pathes[RIGHTUP][B_DOWN_] = RIGHTDOWN;
     8d6:	50 8f       	std	Z+24, r21	; 0x18
	Main_Screen_cursor_pathes[RIGHTUP][B_OK___] = ACTION_WHEEL;
     8d8:	96 8b       	std	Z+22, r25	; 0x16
	
	//******************************
	//   Menu_Screen_cursor_pathes *
	//   MAIN MENU				   *
	//******************************
	Menu_Screen_cursor_pathes[SAVE][B_LEFT_] = ACTION_MENU_EXIT;
     8da:	97 e6       	ldi	r25, 0x67	; 103
     8dc:	91 ab       	std	Z+49, r25	; 0x31
	Menu_Screen_cursor_pathes[SAVE][B_RIGHT] = PARKING_SAVE;
     8de:	32 ab       	std	Z+50, r19	; 0x32
	Menu_Screen_cursor_pathes[SAVE][B_UP___] = SAVE;
     8e0:	17 a6       	std	Z+47, r1	; 0x2f
	Menu_Screen_cursor_pathes[SAVE][B_DOWN_] = SETPOSITION;
     8e2:	20 ab       	std	Z+48, r18	; 0x30
	Menu_Screen_cursor_pathes[SAVE][B_OK___] = PARKING_SAVE;
     8e4:	36 a7       	std	Z+46, r19	; 0x2e
	
	Menu_Screen_cursor_pathes[SETPOSITION][B_LEFT_] = ACTION_MENU_EXIT;
     8e6:	96 ab       	std	Z+54, r25	; 0x36
	Menu_Screen_cursor_pathes[SETPOSITION][B_RIGHT] = PARKING_SET;
     8e8:	78 e0       	ldi	r23, 0x08	; 8
     8ea:	77 ab       	std	Z+55, r23	; 0x37
	Menu_Screen_cursor_pathes[SETPOSITION][B_UP___] = SAVE;
     8ec:	14 aa       	std	Z+52, r1	; 0x34
	Menu_Screen_cursor_pathes[SETPOSITION][B_DOWN_] = SETTINGS;
     8ee:	85 ab       	std	Z+53, r24	; 0x35
	Menu_Screen_cursor_pathes[SETPOSITION][B_OK___] = PARKING_SET;
     8f0:	73 ab       	std	Z+51, r23	; 0x33
	
	Menu_Screen_cursor_pathes[SETTINGS][B_LEFT_] = ACTION_MENU_EXIT;
     8f2:	93 af       	std	Z+59, r25	; 0x3b
	Menu_Screen_cursor_pathes[SETTINGS][B_RIGHT] = SETTINGS_TUNING;
     8f4:	6c e0       	ldi	r22, 0x0C	; 12
     8f6:	64 af       	std	Z+60, r22	; 0x3c
	Menu_Screen_cursor_pathes[SETTINGS][B_UP___] = SETPOSITION;
     8f8:	21 af       	std	Z+57, r18	; 0x39
	Menu_Screen_cursor_pathes[SETTINGS][B_DOWN_] = EXIT_1;
     8fa:	52 af       	std	Z+58, r21	; 0x3a
	Menu_Screen_cursor_pathes[SETTINGS][B_OK___] = SETTINGS_TUNING;
     8fc:	60 af       	std	Z+56, r22	; 0x38
	
	Menu_Screen_cursor_pathes[EXIT_1][B_LEFT_] = ACTION_MENU_EXIT;
     8fe:	a3 55       	subi	r26, 0x53	; 83
     900:	b1 09       	sbc	r27, r1
     902:	9c 93       	st	X, r25
	Menu_Screen_cursor_pathes[EXIT_1][B_RIGHT] = ACTION_MENU_EXIT;
     904:	11 96       	adiw	r26, 0x01	; 1
     906:	9c 93       	st	X, r25
	Menu_Screen_cursor_pathes[EXIT_1][B_UP___] = SETTINGS;
     908:	86 af       	std	Z+62, r24	; 0x3e
	Menu_Screen_cursor_pathes[EXIT_1][B_DOWN_] = EXIT_1;
     90a:	57 af       	std	Z+63, r21	; 0x3f
	Menu_Screen_cursor_pathes[EXIT_1][B_OK___] = ACTION_MENU_EXIT;
     90c:	95 af       	std	Z+61, r25	; 0x3d
	//*************
	//* SAVE      *
	//*************
	Menu_Screen_cursor_pathes[PARKING_SAVE][B_LEFT_] = SAVE;
     90e:	14 96       	adiw	r26, 0x04	; 4
     910:	1c 92       	st	X, r1
	Menu_Screen_cursor_pathes[PARKING_SAVE][B_RIGHT] = ACTION_PARKING_SAVE;
     912:	11 96       	adiw	r26, 0x01	; 1
     914:	58 e6       	ldi	r21, 0x68	; 104
     916:	5c 93       	st	X, r21
	Menu_Screen_cursor_pathes[PARKING_SAVE][B_UP___] = PARKING_SAVE;
     918:	13 97       	sbiw	r26, 0x03	; 3
     91a:	3c 93       	st	X, r19
	Menu_Screen_cursor_pathes[PARKING_SAVE][B_DOWN_] = HIGHTPOSITION_SAVE;
     91c:	11 96       	adiw	r26, 0x01	; 1
     91e:	4c 93       	st	X, r20
	Menu_Screen_cursor_pathes[PARKING_SAVE][B_OK___] = ACTION_PARKING_SAVE;
     920:	12 97       	sbiw	r26, 0x02	; 2
     922:	5c 93       	st	X, r21
	
	Menu_Screen_cursor_pathes[HIGHTPOSITION_SAVE][B_LEFT_] = SAVE;
     924:	18 96       	adiw	r26, 0x08	; 8
     926:	1c 92       	st	X, r1
	Menu_Screen_cursor_pathes[HIGHTPOSITION_SAVE][B_RIGHT] = ACTION_HIGHTPOSITION_SAVE;
     928:	ef 01       	movw	r28, r30
     92a:	c5 5b       	subi	r28, 0xB5	; 181
     92c:	df 4f       	sbci	r29, 0xFF	; 255
     92e:	a9 e6       	ldi	r26, 0x69	; 105
     930:	a8 83       	st	Y, r26
	Menu_Screen_cursor_pathes[HIGHTPOSITION_SAVE][B_UP___] = PARKING_SAVE;
     932:	23 97       	sbiw	r28, 0x03	; 3
     934:	38 83       	st	Y, r19
	Menu_Screen_cursor_pathes[HIGHTPOSITION_SAVE][B_DOWN_] = LOWPOSITION_SAVE;
     936:	21 96       	adiw	r28, 0x01	; 1
     938:	56 e0       	ldi	r21, 0x06	; 6
     93a:	58 83       	st	Y, r21
	Menu_Screen_cursor_pathes[HIGHTPOSITION_SAVE][B_OK___] = ACTION_HIGHTPOSITION_SAVE;
     93c:	22 97       	sbiw	r28, 0x02	; 2
     93e:	a8 83       	st	Y, r26
	
	Menu_Screen_cursor_pathes[LOWPOSITION_SAVE][B_LEFT_] = SAVE;
     940:	df 01       	movw	r26, r30
     942:	a1 5b       	subi	r26, 0xB1	; 177
     944:	bf 4f       	sbci	r27, 0xFF	; 255
     946:	1c 92       	st	X, r1
	Menu_Screen_cursor_pathes[LOWPOSITION_SAVE][B_RIGHT] = ACTION_LOWPOSITION_SAVE;
     948:	29 96       	adiw	r28, 0x09	; 9
     94a:	aa e6       	ldi	r26, 0x6A	; 106
     94c:	a8 83       	st	Y, r26
	Menu_Screen_cursor_pathes[LOWPOSITION_SAVE][B_UP___] = HIGHTPOSITION_SAVE;
     94e:	23 97       	sbiw	r28, 0x03	; 3
     950:	48 83       	st	Y, r20
	Menu_Screen_cursor_pathes[LOWPOSITION_SAVE][B_DOWN_] = EXIT_SAVE;
     952:	21 96       	adiw	r28, 0x01	; 1
     954:	37 e0       	ldi	r19, 0x07	; 7
     956:	38 83       	st	Y, r19
	Menu_Screen_cursor_pathes[LOWPOSITION_SAVE][B_OK___] = ACTION_LOWPOSITION_SAVE;
     958:	22 97       	sbiw	r28, 0x02	; 2
     95a:	a8 83       	st	Y, r26
	
	Menu_Screen_cursor_pathes[EXIT_SAVE][B_LEFT_] = SAVE;
     95c:	df 01       	movw	r26, r30
     95e:	ac 5a       	subi	r26, 0xAC	; 172
     960:	bf 4f       	sbci	r27, 0xFF	; 255
     962:	1c 92       	st	X, r1
	Menu_Screen_cursor_pathes[EXIT_SAVE][B_RIGHT] = ACTION_MENU_EXIT;
     964:	11 96       	adiw	r26, 0x01	; 1
     966:	9c 93       	st	X, r25
	Menu_Screen_cursor_pathes[EXIT_SAVE][B_UP___] = LOWPOSITION_SAVE;
     968:	13 97       	sbiw	r26, 0x03	; 3
     96a:	5c 93       	st	X, r21
	Menu_Screen_cursor_pathes[EXIT_SAVE][B_DOWN_] = EXIT_SAVE;
     96c:	11 96       	adiw	r26, 0x01	; 1
     96e:	3c 93       	st	X, r19
	Menu_Screen_cursor_pathes[EXIT_SAVE][B_OK___] = ACTION_MENU_EXIT;
     970:	12 97       	sbiw	r26, 0x02	; 2
     972:	9c 93       	st	X, r25
	//*************
	//* SET       *
	//*************
	Menu_Screen_cursor_pathes[PARKING_SET][B_LEFT_] = SETPOSITION;
     974:	18 96       	adiw	r26, 0x08	; 8
     976:	2c 93       	st	X, r18
	Menu_Screen_cursor_pathes[PARKING_SET][B_RIGHT] = ACTION_PARKING_SET;
     978:	11 96       	adiw	r26, 0x01	; 1
     97a:	4b e6       	ldi	r20, 0x6B	; 107
     97c:	4c 93       	st	X, r20
	Menu_Screen_cursor_pathes[PARKING_SET][B_UP___] = PARKING_SET;
     97e:	13 97       	sbiw	r26, 0x03	; 3
     980:	7c 93       	st	X, r23
	Menu_Screen_cursor_pathes[PARKING_SET][B_DOWN_] = HIGHTPOSITION_SET;
     982:	11 96       	adiw	r26, 0x01	; 1
     984:	39 e0       	ldi	r19, 0x09	; 9
     986:	3c 93       	st	X, r19
	Menu_Screen_cursor_pathes[PARKING_SET][B_OK___] = ACTION_PARKING_SET;
     988:	12 97       	sbiw	r26, 0x02	; 2
     98a:	4c 93       	st	X, r20
		
	Menu_Screen_cursor_pathes[HIGHTPOSITION_SET][B_LEFT_] = SETPOSITION;
     98c:	18 96       	adiw	r26, 0x08	; 8
     98e:	2c 93       	st	X, r18
	Menu_Screen_cursor_pathes[HIGHTPOSITION_SET][B_RIGHT] = ACTION_HIGHTPOSITION_SET;
     990:	11 96       	adiw	r26, 0x01	; 1
     992:	5c e6       	ldi	r21, 0x6C	; 108
     994:	5c 93       	st	X, r21
	Menu_Screen_cursor_pathes[HIGHTPOSITION_SET][B_UP___] = PARKING_SET;
     996:	13 97       	sbiw	r26, 0x03	; 3
     998:	7c 93       	st	X, r23
	Menu_Screen_cursor_pathes[HIGHTPOSITION_SET][B_DOWN_] = LOWPOSITION_SET;
     99a:	11 96       	adiw	r26, 0x01	; 1
     99c:	4a e0       	ldi	r20, 0x0A	; 10
     99e:	4c 93       	st	X, r20
	Menu_Screen_cursor_pathes[HIGHTPOSITION_SET][B_OK___] = ACTION_HIGHTPOSITION_SET;
     9a0:	12 97       	sbiw	r26, 0x02	; 2
     9a2:	5c 93       	st	X, r21
		
	Menu_Screen_cursor_pathes[LOWPOSITION_SET][B_LEFT_] = SETPOSITION;
     9a4:	18 96       	adiw	r26, 0x08	; 8
     9a6:	2c 93       	st	X, r18
	Menu_Screen_cursor_pathes[LOWPOSITION_SET][B_RIGHT] = ACTION_LOWPOSITION_SET;
     9a8:	11 96       	adiw	r26, 0x01	; 1
     9aa:	5d e6       	ldi	r21, 0x6D	; 109
     9ac:	5c 93       	st	X, r21
	Menu_Screen_cursor_pathes[LOWPOSITION_SET][B_UP___] = HIGHTPOSITION_SET;
     9ae:	13 97       	sbiw	r26, 0x03	; 3
     9b0:	3c 93       	st	X, r19
	Menu_Screen_cursor_pathes[LOWPOSITION_SET][B_DOWN_] = EXIT_SET;
     9b2:	11 96       	adiw	r26, 0x01	; 1
     9b4:	3b e0       	ldi	r19, 0x0B	; 11
     9b6:	3c 93       	st	X, r19
	Menu_Screen_cursor_pathes[LOWPOSITION_SET][B_OK___] = ACTION_LOWPOSITION_SET;
     9b8:	12 97       	sbiw	r26, 0x02	; 2
     9ba:	5c 93       	st	X, r21
		
	Menu_Screen_cursor_pathes[EXIT_SET][B_LEFT_] = SETPOSITION;
     9bc:	18 96       	adiw	r26, 0x08	; 8
     9be:	2c 93       	st	X, r18
	Menu_Screen_cursor_pathes[EXIT_SET][B_RIGHT] = ACTION_MENU_EXIT;
     9c0:	11 96       	adiw	r26, 0x01	; 1
     9c2:	9c 93       	st	X, r25
	Menu_Screen_cursor_pathes[EXIT_SET][B_UP___] = LOWPOSITION_SET;
     9c4:	13 97       	sbiw	r26, 0x03	; 3
     9c6:	4c 93       	st	X, r20
	Menu_Screen_cursor_pathes[EXIT_SET][B_DOWN_] = EXIT_SET;
     9c8:	11 96       	adiw	r26, 0x01	; 1
     9ca:	3c 93       	st	X, r19
	Menu_Screen_cursor_pathes[EXIT_SET][B_OK___] = ACTION_MENU_EXIT;
     9cc:	12 97       	sbiw	r26, 0x02	; 2
     9ce:	9c 93       	st	X, r25
	//*************
	//* SETTINGS  *
	//*************
	Menu_Screen_cursor_pathes[SETTINGS_TUNING][B_LEFT_] = SETTINGS;
     9d0:	18 96       	adiw	r26, 0x08	; 8
     9d2:	8c 93       	st	X, r24
	Menu_Screen_cursor_pathes[SETTINGS_TUNING][B_RIGHT] = ACTION_TUNING_SET;
     9d4:	11 96       	adiw	r26, 0x01	; 1
     9d6:	9e e6       	ldi	r25, 0x6E	; 110
     9d8:	9c 93       	st	X, r25
	Menu_Screen_cursor_pathes[SETTINGS_TUNING][B_UP___] = SETTINGS_TUNING;
     9da:	13 97       	sbiw	r26, 0x03	; 3
     9dc:	6c 93       	st	X, r22
	Menu_Screen_cursor_pathes[SETTINGS_TUNING][B_DOWN_] = SETTINGS_LIMITS;
     9de:	11 96       	adiw	r26, 0x01	; 1
     9e0:	2d e0       	ldi	r18, 0x0D	; 13
     9e2:	2c 93       	st	X, r18
	Menu_Screen_cursor_pathes[SETTINGS_TUNING][B_OK___] = ACTION_TUNING_SET;	
     9e4:	12 97       	sbiw	r26, 0x02	; 2
     9e6:	9c 93       	st	X, r25
	
	Menu_Screen_cursor_pathes[SETTINGS_LIMITS][B_LEFT_] = SETTINGS;
     9e8:	18 96       	adiw	r26, 0x08	; 8
     9ea:	8c 93       	st	X, r24
	Menu_Screen_cursor_pathes[SETTINGS_LIMITS][B_RIGHT] = ACTION_LIMITS_SET;
     9ec:	11 96       	adiw	r26, 0x01	; 1
     9ee:	9f e6       	ldi	r25, 0x6F	; 111
     9f0:	9c 93       	st	X, r25
	Menu_Screen_cursor_pathes[SETTINGS_LIMITS][B_UP___] = SETTINGS_TUNING;
     9f2:	13 97       	sbiw	r26, 0x03	; 3
     9f4:	6c 93       	st	X, r22
	Menu_Screen_cursor_pathes[SETTINGS_LIMITS][B_DOWN_] = SETTINGS_TEST_MALFACTION;
     9f6:	11 96       	adiw	r26, 0x01	; 1
     9f8:	3e e0       	ldi	r19, 0x0E	; 14
     9fa:	3c 93       	st	X, r19
	Menu_Screen_cursor_pathes[SETTINGS_LIMITS][B_OK___] = ACTION_LIMITS_SET;	
     9fc:	12 97       	sbiw	r26, 0x02	; 2
     9fe:	9c 93       	st	X, r25
	
	Menu_Screen_cursor_pathes[SETTINGS_TEST_MALFACTION][B_LEFT_] = SETTINGS;
     a00:	18 96       	adiw	r26, 0x08	; 8
     a02:	8c 93       	st	X, r24
	Menu_Screen_cursor_pathes[SETTINGS_TEST_MALFACTION][B_RIGHT] = SETTINGS_TEST_MALFACTION;
     a04:	11 96       	adiw	r26, 0x01	; 1
     a06:	3c 93       	st	X, r19
	Menu_Screen_cursor_pathes[SETTINGS_TEST_MALFACTION][B_UP___] = SETTINGS_LIMITS;
     a08:	13 97       	sbiw	r26, 0x03	; 3
     a0a:	2c 93       	st	X, r18
	Menu_Screen_cursor_pathes[SETTINGS_TEST_MALFACTION][B_DOWN_] = SETTINGS_RESET_ERRORS;
     a0c:	11 96       	adiw	r26, 0x01	; 1
     a0e:	9f e0       	ldi	r25, 0x0F	; 15
     a10:	9c 93       	st	X, r25
	Menu_Screen_cursor_pathes[SETTINGS_TEST_MALFACTION][B_OK___] = SETTINGS_TEST_MALFACTION;
     a12:	12 97       	sbiw	r26, 0x02	; 2
     a14:	3c 93       	st	X, r19
	
	Menu_Screen_cursor_pathes[SETTINGS_RESET_ERRORS][B_LEFT_] = SETTINGS;
     a16:	18 96       	adiw	r26, 0x08	; 8
     a18:	8c 93       	st	X, r24
	Menu_Screen_cursor_pathes[SETTINGS_RESET_ERRORS][B_RIGHT] = SETTINGS_RESET_ERRORS;
     a1a:	11 96       	adiw	r26, 0x01	; 1
     a1c:	9c 93       	st	X, r25
	Menu_Screen_cursor_pathes[SETTINGS_RESET_ERRORS][B_UP___] = SETTINGS_LIMITS;
     a1e:	13 97       	sbiw	r26, 0x03	; 3
     a20:	2c 93       	st	X, r18
	Menu_Screen_cursor_pathes[SETTINGS_RESET_ERRORS][B_DOWN_] = SETTINGS_EXIT;
     a22:	11 96       	adiw	r26, 0x01	; 1
     a24:	20 e1       	ldi	r18, 0x10	; 16
     a26:	2c 93       	st	X, r18
	Menu_Screen_cursor_pathes[SETTINGS_RESET_ERRORS][B_OK___] = SETTINGS_RESET_ERRORS;
     a28:	12 97       	sbiw	r26, 0x02	; 2
     a2a:	9c 93       	st	X, r25
	
	Menu_Screen_cursor_pathes[SETTINGS_EXIT][B_LEFT_] = SETTINGS;
     a2c:	18 96       	adiw	r26, 0x08	; 8
     a2e:	8c 93       	st	X, r24
	Menu_Screen_cursor_pathes[SETTINGS_EXIT][B_RIGHT] = SETTINGS;
     a30:	11 96       	adiw	r26, 0x01	; 1
     a32:	8c 93       	st	X, r24
	Menu_Screen_cursor_pathes[SETTINGS_EXIT][B_UP___] = SETTINGS_RESET_ERRORS;
     a34:	13 97       	sbiw	r26, 0x03	; 3
     a36:	9c 93       	st	X, r25
	Menu_Screen_cursor_pathes[SETTINGS_EXIT][B_DOWN_] = SETTINGS_EXIT;
     a38:	11 96       	adiw	r26, 0x01	; 1
     a3a:	2c 93       	st	X, r18
	Menu_Screen_cursor_pathes[SETTINGS_EXIT][B_OK___] = SETTINGS;
     a3c:	e2 58       	subi	r30, 0x82	; 130
     a3e:	ff 4f       	sbci	r31, 0xFF	; 255
     a40:	80 83       	st	Z, r24
}
     a42:	df 91       	pop	r29
     a44:	cf 91       	pop	r28
     a46:	08 95       	ret

00000a48 <_ZN8Activity4SaveEv>:
		}
		return true;
			
}

void Activity::Save(){
     a48:	fc 01       	movw	r30, r24
	SaveFlag = true; //For set position in EEMEM
     a4a:	dc 01       	movw	r26, r24
     a4c:	ae 56       	subi	r26, 0x6E	; 110
     a4e:	bf 4f       	sbci	r27, 0xFF	; 255
     a50:	81 e0       	ldi	r24, 0x01	; 1
     a52:	8c 93       	st	X, r24
	switch(Cursor){
     a54:	80 85       	ldd	r24, Z+8	; 0x08
     a56:	91 85       	ldd	r25, Z+9	; 0x09
     a58:	85 30       	cpi	r24, 0x05	; 5
     a5a:	91 05       	cpc	r25, r1
     a5c:	49 f0       	breq	.+18     	; 0xa70 <_ZN8Activity4SaveEv+0x28>
     a5e:	86 30       	cpi	r24, 0x06	; 6
     a60:	91 05       	cpc	r25, r1
     a62:	71 f0       	breq	.+28     	; 0xa80 <_ZN8Activity4SaveEv+0x38>
     a64:	04 97       	sbiw	r24, 0x04	; 4
     a66:	99 f4       	brne	.+38     	; 0xa8e <_ZN8Activity4SaveEv+0x46>
		case(PARKING_SAVE):SavePosition = 0;break;
     a68:	13 96       	adiw	r26, 0x03	; 3
     a6a:	1d 92       	st	X+, r1
     a6c:	1c 92       	st	X, r1
     a6e:	0f c0       	rjmp	.+30     	; 0xa8e <_ZN8Activity4SaveEv+0x46>
		case(HIGHTPOSITION_SAVE):SavePosition = 1;break;
     a70:	81 e0       	ldi	r24, 0x01	; 1
     a72:	90 e0       	ldi	r25, 0x00	; 0
     a74:	df 01       	movw	r26, r30
     a76:	ab 56       	subi	r26, 0x6B	; 107
     a78:	bf 4f       	sbci	r27, 0xFF	; 255
     a7a:	8d 93       	st	X+, r24
     a7c:	9c 93       	st	X, r25
     a7e:	07 c0       	rjmp	.+14     	; 0xa8e <_ZN8Activity4SaveEv+0x46>
		case(LOWPOSITION_SAVE):SavePosition = 2;break;
     a80:	82 e0       	ldi	r24, 0x02	; 2
     a82:	90 e0       	ldi	r25, 0x00	; 0
     a84:	df 01       	movw	r26, r30
     a86:	ab 56       	subi	r26, 0x6B	; 107
     a88:	bf 4f       	sbci	r27, 0xFF	; 255
     a8a:	8d 93       	st	X+, r24
     a8c:	9c 93       	st	X, r25
	}
	Statment=SCREEN_MAIN;
     a8e:	11 82       	std	Z+1, r1	; 0x01
     a90:	10 82       	st	Z, r1
	Cursor = MENU;
     a92:	11 86       	std	Z+9, r1	; 0x09
     a94:	10 86       	std	Z+8, r1	; 0x08
     a96:	08 95       	ret

00000a98 <_ZN8Activity3SetEv>:
}

void  Activity::Set(){
     a98:	fc 01       	movw	r30, r24
	SetFlag = true; //For set position in EEMEM and start adjastment there.
     a9a:	dc 01       	movw	r26, r24
     a9c:	ad 56       	subi	r26, 0x6D	; 109
     a9e:	bf 4f       	sbci	r27, 0xFF	; 255
     aa0:	81 e0       	ldi	r24, 0x01	; 1
     aa2:	8c 93       	st	X, r24
	switch(Cursor){
     aa4:	80 85       	ldd	r24, Z+8	; 0x08
     aa6:	91 85       	ldd	r25, Z+9	; 0x09
     aa8:	89 30       	cpi	r24, 0x09	; 9
     aaa:	91 05       	cpc	r25, r1
     aac:	49 f0       	breq	.+18     	; 0xac0 <_ZN8Activity3SetEv+0x28>
     aae:	8a 30       	cpi	r24, 0x0A	; 10
     ab0:	91 05       	cpc	r25, r1
     ab2:	71 f0       	breq	.+28     	; 0xad0 <_ZN8Activity3SetEv+0x38>
     ab4:	08 97       	sbiw	r24, 0x08	; 8
     ab6:	99 f4       	brne	.+38     	; 0xade <_ZN8Activity3SetEv+0x46>
		case(PARKING_SET):SavePosition = 0;break;
     ab8:	12 96       	adiw	r26, 0x02	; 2
     aba:	1d 92       	st	X+, r1
     abc:	1c 92       	st	X, r1
     abe:	0f c0       	rjmp	.+30     	; 0xade <_ZN8Activity3SetEv+0x46>
		case(HIGHTPOSITION_SET):SavePosition = 1;break;
     ac0:	81 e0       	ldi	r24, 0x01	; 1
     ac2:	90 e0       	ldi	r25, 0x00	; 0
     ac4:	df 01       	movw	r26, r30
     ac6:	ab 56       	subi	r26, 0x6B	; 107
     ac8:	bf 4f       	sbci	r27, 0xFF	; 255
     aca:	8d 93       	st	X+, r24
     acc:	9c 93       	st	X, r25
     ace:	07 c0       	rjmp	.+14     	; 0xade <_ZN8Activity3SetEv+0x46>
		case(LOWPOSITION_SET):SavePosition = 2;break;
     ad0:	82 e0       	ldi	r24, 0x02	; 2
     ad2:	90 e0       	ldi	r25, 0x00	; 0
     ad4:	df 01       	movw	r26, r30
     ad6:	ab 56       	subi	r26, 0x6B	; 107
     ad8:	bf 4f       	sbci	r27, 0xFF	; 255
     ada:	8d 93       	st	X+, r24
     adc:	9c 93       	st	X, r25
	}
	Statment=SCREEN_ADJUST;
     ade:	82 e0       	ldi	r24, 0x02	; 2
     ae0:	90 e0       	ldi	r25, 0x00	; 0
     ae2:	91 83       	std	Z+1, r25	; 0x01
     ae4:	80 83       	st	Z, r24
	Cursor = MENU;
     ae6:	11 86       	std	Z+9, r1	; 0x09
     ae8:	10 86       	std	Z+8, r1	; 0x08
     aea:	08 95       	ret

00000aec <_ZN8Activity16Menu_Screen_MoveER5PanelR7Carrage>:
		case(SCREEN_TUNNING):Tunning_rate(panel,carrage);break;
		case(SCREEN_LIMITS):Limits_set(panel,carrage);break;
	}
}

bool Activity::Menu_Screen_Move(Panel &panel, Carrage &carrage){
     aec:	0f 93       	push	r16
     aee:	1f 93       	push	r17
     af0:	cf 93       	push	r28
     af2:	df 93       	push	r29
     af4:	ec 01       	movw	r28, r24
     af6:	8b 01       	movw	r16, r22
     af8:	ca 01       	movw	r24, r20
		carrage.ControlMalfinction();
     afa:	0e 94 9a 0e 	call	0x1d34	; 0x1d34 <_ZN7Carrage18ControlMalfinctionEv>
		int move = panel.Pressed(100);
     afe:	64 e6       	ldi	r22, 0x64	; 100
     b00:	70 e0       	ldi	r23, 0x00	; 0
     b02:	c8 01       	movw	r24, r16
     b04:	0e 94 a9 18 	call	0x3152	; 0x3152 <_ZN5Panel7PressedEi>
		int next;
		if (move == B_NOTHING ){return false;}
     b08:	8f 3f       	cpi	r24, 0xFF	; 255
     b0a:	2f ef       	ldi	r18, 0xFF	; 255
     b0c:	92 07       	cpc	r25, r18
     b0e:	09 f4       	brne	.+2      	; 0xb12 <_ZN8Activity16Menu_Screen_MoveER5PanelR7Carrage+0x26>
     b10:	59 c0       	rjmp	.+178    	; 0xbc4 <_ZN8Activity16Menu_Screen_MoveER5PanelR7Carrage+0xd8>
		next = Menu_Screen_cursor_pathes[Cursor][move];
     b12:	28 85       	ldd	r18, Y+8	; 0x08
     b14:	39 85       	ldd	r19, Y+9	; 0x09
     b16:	a9 01       	movw	r20, r18
     b18:	44 0f       	add	r20, r20
     b1a:	55 1f       	adc	r21, r21
     b1c:	44 0f       	add	r20, r20
     b1e:	55 1f       	adc	r21, r21
     b20:	24 0f       	add	r18, r20
     b22:	35 1f       	adc	r19, r21
     b24:	2c 0f       	add	r18, r28
     b26:	3d 1f       	adc	r19, r29
     b28:	f9 01       	movw	r30, r18
     b2a:	e8 0f       	add	r30, r24
     b2c:	f9 1f       	adc	r31, r25
     b2e:	26 a5       	ldd	r18, Z+46	; 0x2e
		switch(next){
     b30:	82 2f       	mov	r24, r18
     b32:	90 e0       	ldi	r25, 0x00	; 0
     b34:	fc 01       	movw	r30, r24
     b36:	e7 56       	subi	r30, 0x67	; 103
     b38:	f1 09       	sbc	r31, r1
     b3a:	e9 30       	cpi	r30, 0x09	; 9
     b3c:	f1 05       	cpc	r31, r1
     b3e:	e0 f5       	brcc	.+120    	; 0xbb8 <_ZN8Activity16Menu_Screen_MoveER5PanelR7Carrage+0xcc>
     b40:	ec 5c       	subi	r30, 0xCC	; 204
     b42:	ff 4f       	sbci	r31, 0xFF	; 255
     b44:	0c 94 63 1d 	jmp	0x3ac6	; 0x3ac6 <__tablejump2__>
			case (ACTION_MENU_EXIT):Statment=SCREEN_MAIN;Cursor = MENU;break;
     b48:	19 82       	std	Y+1, r1	; 0x01
     b4a:	18 82       	st	Y, r1
     b4c:	19 86       	std	Y+9, r1	; 0x09
     b4e:	18 86       	std	Y+8, r1	; 0x08
			case (ACTION_LOWPOSITION_SET):Set();break;
			case (ACTION_TUNING_SET):Statment = SCREEN_TUNNING;Cursor = SETTINGS_TUNING;break;
			case (ACTION_LIMITS_SET):Statment = SCREEN_LIMITS;Cursor = LIMITS_MIN;break;
			default: Cursor = next;break;
		}
		return true;
     b50:	81 e0       	ldi	r24, 0x01	; 1
		int move = panel.Pressed(100);
		int next;
		if (move == B_NOTHING ){return false;}
		next = Menu_Screen_cursor_pathes[Cursor][move];
		switch(next){
			case (ACTION_MENU_EXIT):Statment=SCREEN_MAIN;Cursor = MENU;break;
     b52:	39 c0       	rjmp	.+114    	; 0xbc6 <_ZN8Activity16Menu_Screen_MoveER5PanelR7Carrage+0xda>
			case (ACTION_PARKING_SAVE):Save();break;
     b54:	ce 01       	movw	r24, r28
     b56:	0e 94 24 05 	call	0xa48	; 0xa48 <_ZN8Activity4SaveEv>
			case (ACTION_LOWPOSITION_SET):Set();break;
			case (ACTION_TUNING_SET):Statment = SCREEN_TUNNING;Cursor = SETTINGS_TUNING;break;
			case (ACTION_LIMITS_SET):Statment = SCREEN_LIMITS;Cursor = LIMITS_MIN;break;
			default: Cursor = next;break;
		}
		return true;
     b5a:	81 e0       	ldi	r24, 0x01	; 1
		int next;
		if (move == B_NOTHING ){return false;}
		next = Menu_Screen_cursor_pathes[Cursor][move];
		switch(next){
			case (ACTION_MENU_EXIT):Statment=SCREEN_MAIN;Cursor = MENU;break;
			case (ACTION_PARKING_SAVE):Save();break;
     b5c:	34 c0       	rjmp	.+104    	; 0xbc6 <_ZN8Activity16Menu_Screen_MoveER5PanelR7Carrage+0xda>
			case (ACTION_HIGHTPOSITION_SAVE):Save();break;
     b5e:	ce 01       	movw	r24, r28
     b60:	0e 94 24 05 	call	0xa48	; 0xa48 <_ZN8Activity4SaveEv>
			case (ACTION_LOWPOSITION_SET):Set();break;
			case (ACTION_TUNING_SET):Statment = SCREEN_TUNNING;Cursor = SETTINGS_TUNING;break;
			case (ACTION_LIMITS_SET):Statment = SCREEN_LIMITS;Cursor = LIMITS_MIN;break;
			default: Cursor = next;break;
		}
		return true;
     b64:	81 e0       	ldi	r24, 0x01	; 1
		if (move == B_NOTHING ){return false;}
		next = Menu_Screen_cursor_pathes[Cursor][move];
		switch(next){
			case (ACTION_MENU_EXIT):Statment=SCREEN_MAIN;Cursor = MENU;break;
			case (ACTION_PARKING_SAVE):Save();break;
			case (ACTION_HIGHTPOSITION_SAVE):Save();break;
     b66:	2f c0       	rjmp	.+94     	; 0xbc6 <_ZN8Activity16Menu_Screen_MoveER5PanelR7Carrage+0xda>
			case (ACTION_LOWPOSITION_SAVE):Save();break;
     b68:	ce 01       	movw	r24, r28
     b6a:	0e 94 24 05 	call	0xa48	; 0xa48 <_ZN8Activity4SaveEv>
			case (ACTION_LOWPOSITION_SET):Set();break;
			case (ACTION_TUNING_SET):Statment = SCREEN_TUNNING;Cursor = SETTINGS_TUNING;break;
			case (ACTION_LIMITS_SET):Statment = SCREEN_LIMITS;Cursor = LIMITS_MIN;break;
			default: Cursor = next;break;
		}
		return true;
     b6e:	81 e0       	ldi	r24, 0x01	; 1
		next = Menu_Screen_cursor_pathes[Cursor][move];
		switch(next){
			case (ACTION_MENU_EXIT):Statment=SCREEN_MAIN;Cursor = MENU;break;
			case (ACTION_PARKING_SAVE):Save();break;
			case (ACTION_HIGHTPOSITION_SAVE):Save();break;
			case (ACTION_LOWPOSITION_SAVE):Save();break;
     b70:	2a c0       	rjmp	.+84     	; 0xbc6 <_ZN8Activity16Menu_Screen_MoveER5PanelR7Carrage+0xda>
			case (ACTION_PARKING_SET):Set();break;
     b72:	ce 01       	movw	r24, r28
     b74:	0e 94 4c 05 	call	0xa98	; 0xa98 <_ZN8Activity3SetEv>
			case (ACTION_LOWPOSITION_SET):Set();break;
			case (ACTION_TUNING_SET):Statment = SCREEN_TUNNING;Cursor = SETTINGS_TUNING;break;
			case (ACTION_LIMITS_SET):Statment = SCREEN_LIMITS;Cursor = LIMITS_MIN;break;
			default: Cursor = next;break;
		}
		return true;
     b78:	81 e0       	ldi	r24, 0x01	; 1
		switch(next){
			case (ACTION_MENU_EXIT):Statment=SCREEN_MAIN;Cursor = MENU;break;
			case (ACTION_PARKING_SAVE):Save();break;
			case (ACTION_HIGHTPOSITION_SAVE):Save();break;
			case (ACTION_LOWPOSITION_SAVE):Save();break;
			case (ACTION_PARKING_SET):Set();break;
     b7a:	25 c0       	rjmp	.+74     	; 0xbc6 <_ZN8Activity16Menu_Screen_MoveER5PanelR7Carrage+0xda>
			case (ACTION_HIGHTPOSITION_SET):Set();break;
     b7c:	ce 01       	movw	r24, r28
     b7e:	0e 94 4c 05 	call	0xa98	; 0xa98 <_ZN8Activity3SetEv>
			case (ACTION_LOWPOSITION_SET):Set();break;
			case (ACTION_TUNING_SET):Statment = SCREEN_TUNNING;Cursor = SETTINGS_TUNING;break;
			case (ACTION_LIMITS_SET):Statment = SCREEN_LIMITS;Cursor = LIMITS_MIN;break;
			default: Cursor = next;break;
		}
		return true;
     b82:	81 e0       	ldi	r24, 0x01	; 1
			case (ACTION_MENU_EXIT):Statment=SCREEN_MAIN;Cursor = MENU;break;
			case (ACTION_PARKING_SAVE):Save();break;
			case (ACTION_HIGHTPOSITION_SAVE):Save();break;
			case (ACTION_LOWPOSITION_SAVE):Save();break;
			case (ACTION_PARKING_SET):Set();break;
			case (ACTION_HIGHTPOSITION_SET):Set();break;
     b84:	20 c0       	rjmp	.+64     	; 0xbc6 <_ZN8Activity16Menu_Screen_MoveER5PanelR7Carrage+0xda>
			case (ACTION_LOWPOSITION_SET):Set();break;
     b86:	ce 01       	movw	r24, r28
     b88:	0e 94 4c 05 	call	0xa98	; 0xa98 <_ZN8Activity3SetEv>
			case (ACTION_TUNING_SET):Statment = SCREEN_TUNNING;Cursor = SETTINGS_TUNING;break;
			case (ACTION_LIMITS_SET):Statment = SCREEN_LIMITS;Cursor = LIMITS_MIN;break;
			default: Cursor = next;break;
		}
		return true;
     b8c:	81 e0       	ldi	r24, 0x01	; 1
			case (ACTION_PARKING_SAVE):Save();break;
			case (ACTION_HIGHTPOSITION_SAVE):Save();break;
			case (ACTION_LOWPOSITION_SAVE):Save();break;
			case (ACTION_PARKING_SET):Set();break;
			case (ACTION_HIGHTPOSITION_SET):Set();break;
			case (ACTION_LOWPOSITION_SET):Set();break;
     b8e:	1b c0       	rjmp	.+54     	; 0xbc6 <_ZN8Activity16Menu_Screen_MoveER5PanelR7Carrage+0xda>
			case (ACTION_TUNING_SET):Statment = SCREEN_TUNNING;Cursor = SETTINGS_TUNING;break;
     b90:	83 e0       	ldi	r24, 0x03	; 3
     b92:	90 e0       	ldi	r25, 0x00	; 0
     b94:	99 83       	std	Y+1, r25	; 0x01
     b96:	88 83       	st	Y, r24
     b98:	8c e0       	ldi	r24, 0x0C	; 12
     b9a:	90 e0       	ldi	r25, 0x00	; 0
     b9c:	99 87       	std	Y+9, r25	; 0x09
     b9e:	88 87       	std	Y+8, r24	; 0x08
			case (ACTION_LIMITS_SET):Statment = SCREEN_LIMITS;Cursor = LIMITS_MIN;break;
			default: Cursor = next;break;
		}
		return true;
     ba0:	81 e0       	ldi	r24, 0x01	; 1
			case (ACTION_HIGHTPOSITION_SAVE):Save();break;
			case (ACTION_LOWPOSITION_SAVE):Save();break;
			case (ACTION_PARKING_SET):Set();break;
			case (ACTION_HIGHTPOSITION_SET):Set();break;
			case (ACTION_LOWPOSITION_SET):Set();break;
			case (ACTION_TUNING_SET):Statment = SCREEN_TUNNING;Cursor = SETTINGS_TUNING;break;
     ba2:	11 c0       	rjmp	.+34     	; 0xbc6 <_ZN8Activity16Menu_Screen_MoveER5PanelR7Carrage+0xda>
			case (ACTION_LIMITS_SET):Statment = SCREEN_LIMITS;Cursor = LIMITS_MIN;break;
     ba4:	84 e0       	ldi	r24, 0x04	; 4
     ba6:	90 e0       	ldi	r25, 0x00	; 0
     ba8:	99 83       	std	Y+1, r25	; 0x01
     baa:	88 83       	st	Y, r24
     bac:	82 e1       	ldi	r24, 0x12	; 18
     bae:	90 e0       	ldi	r25, 0x00	; 0
     bb0:	99 87       	std	Y+9, r25	; 0x09
     bb2:	88 87       	std	Y+8, r24	; 0x08
			default: Cursor = next;break;
		}
		return true;
     bb4:	81 e0       	ldi	r24, 0x01	; 1
			case (ACTION_LOWPOSITION_SAVE):Save();break;
			case (ACTION_PARKING_SET):Set();break;
			case (ACTION_HIGHTPOSITION_SET):Set();break;
			case (ACTION_LOWPOSITION_SET):Set();break;
			case (ACTION_TUNING_SET):Statment = SCREEN_TUNNING;Cursor = SETTINGS_TUNING;break;
			case (ACTION_LIMITS_SET):Statment = SCREEN_LIMITS;Cursor = LIMITS_MIN;break;
     bb6:	07 c0       	rjmp	.+14     	; 0xbc6 <_ZN8Activity16Menu_Screen_MoveER5PanelR7Carrage+0xda>
			default: Cursor = next;break;
     bb8:	82 2f       	mov	r24, r18
     bba:	90 e0       	ldi	r25, 0x00	; 0
     bbc:	99 87       	std	Y+9, r25	; 0x09
     bbe:	88 87       	std	Y+8, r24	; 0x08
		}
		return true;
     bc0:	81 e0       	ldi	r24, 0x01	; 1
			case (ACTION_PARKING_SET):Set();break;
			case (ACTION_HIGHTPOSITION_SET):Set();break;
			case (ACTION_LOWPOSITION_SET):Set();break;
			case (ACTION_TUNING_SET):Statment = SCREEN_TUNNING;Cursor = SETTINGS_TUNING;break;
			case (ACTION_LIMITS_SET):Statment = SCREEN_LIMITS;Cursor = LIMITS_MIN;break;
			default: Cursor = next;break;
     bc2:	01 c0       	rjmp	.+2      	; 0xbc6 <_ZN8Activity16Menu_Screen_MoveER5PanelR7Carrage+0xda>

bool Activity::Menu_Screen_Move(Panel &panel, Carrage &carrage){
		carrage.ControlMalfinction();
		int move = panel.Pressed(100);
		int next;
		if (move == B_NOTHING ){return false;}
     bc4:	80 e0       	ldi	r24, 0x00	; 0
			case (ACTION_LIMITS_SET):Statment = SCREEN_LIMITS;Cursor = LIMITS_MIN;break;
			default: Cursor = next;break;
		}
		return true;
			
}
     bc6:	df 91       	pop	r29
     bc8:	cf 91       	pop	r28
     bca:	1f 91       	pop	r17
     bcc:	0f 91       	pop	r16
     bce:	08 95       	ret

00000bd0 <_ZN8Activity11SelectWheelER7Carrage>:
		return true;
}


void Activity::SelectWheel(Carrage &carrage){
	switch(Cursor){
     bd0:	fc 01       	movw	r30, r24
     bd2:	80 85       	ldd	r24, Z+8	; 0x08
     bd4:	91 85       	ldd	r25, Z+9	; 0x09
     bd6:	82 30       	cpi	r24, 0x02	; 2
     bd8:	91 05       	cpc	r25, r1
     bda:	71 f0       	breq	.+28     	; 0xbf8 <_ZN8Activity11SelectWheelER7Carrage+0x28>
     bdc:	1c f4       	brge	.+6      	; 0xbe4 <_ZN8Activity11SelectWheelER7Carrage+0x14>
     bde:	01 97       	sbiw	r24, 0x01	; 1
     be0:	39 f0       	breq	.+14     	; 0xbf0 <_ZN8Activity11SelectWheelER7Carrage+0x20>
     be2:	08 95       	ret
     be4:	83 30       	cpi	r24, 0x03	; 3
     be6:	91 05       	cpc	r25, r1
     be8:	61 f0       	breq	.+24     	; 0xc02 <_ZN8Activity11SelectWheelER7Carrage+0x32>
     bea:	04 97       	sbiw	r24, 0x04	; 4
     bec:	81 f0       	breq	.+32     	; 0xc0e <_ZN8Activity11SelectWheelER7Carrage+0x3e>
     bee:	08 95       	ret
		case(LEFTUP): carrage.Wheel_1.Select(); break;
     bf0:	cb 01       	movw	r24, r22
     bf2:	0e 94 20 1b 	call	0x3640	; 0x3640 <_ZN5Wheel6SelectEv>
     bf6:	08 95       	ret
		case(RIGHTUP): carrage.Wheel_2.Select(); break;
     bf8:	cb 01       	movw	r24, r22
     bfa:	8b 96       	adiw	r24, 0x2b	; 43
     bfc:	0e 94 20 1b 	call	0x3640	; 0x3640 <_ZN5Wheel6SelectEv>
     c00:	08 95       	ret
		case(RIGHTDOWN): carrage.Wheel_3.Select(); break;
     c02:	cb 01       	movw	r24, r22
     c04:	8a 5a       	subi	r24, 0xAA	; 170
     c06:	9f 4f       	sbci	r25, 0xFF	; 255
     c08:	0e 94 20 1b 	call	0x3640	; 0x3640 <_ZN5Wheel6SelectEv>
     c0c:	08 95       	ret
		case(LEFTDOWN): carrage.Wheel_4.Select(); break;	
     c0e:	cb 01       	movw	r24, r22
     c10:	8f 57       	subi	r24, 0x7F	; 127
     c12:	9f 4f       	sbci	r25, 0xFF	; 255
     c14:	0e 94 20 1b 	call	0x3640	; 0x3640 <_ZN5Wheel6SelectEv>
     c18:	08 95       	ret

00000c1a <_ZN8Activity16Main_Screen_MoveER5PanelR7Carrage>:
	}
	Statment=SCREEN_ADJUST;
	Cursor = MENU;
}

bool Activity::Main_Screen_Move(Panel &panel, Carrage &carrage){
     c1a:	ef 92       	push	r14
     c1c:	ff 92       	push	r15
     c1e:	0f 93       	push	r16
     c20:	1f 93       	push	r17
     c22:	cf 93       	push	r28
     c24:	df 93       	push	r29
     c26:	ec 01       	movw	r28, r24
     c28:	7b 01       	movw	r14, r22
     c2a:	8a 01       	movw	r16, r20
		carrage.ControlMalfinction();
     c2c:	ca 01       	movw	r24, r20
     c2e:	0e 94 9a 0e 	call	0x1d34	; 0x1d34 <_ZN7Carrage18ControlMalfinctionEv>
		int move = panel.Pressed(100);
     c32:	64 e6       	ldi	r22, 0x64	; 100
     c34:	70 e0       	ldi	r23, 0x00	; 0
     c36:	c7 01       	movw	r24, r14
     c38:	0e 94 a9 18 	call	0x3152	; 0x3152 <_ZN5Panel7PressedEi>
		int next;
		
		if (move == B_NOTHING ){return false;}		
     c3c:	8f 3f       	cpi	r24, 0xFF	; 255
     c3e:	2f ef       	ldi	r18, 0xFF	; 255
     c40:	92 07       	cpc	r25, r18
     c42:	81 f1       	breq	.+96     	; 0xca4 <_ZN8Activity16Main_Screen_MoveER5PanelR7Carrage+0x8a>
		next = Main_Screen_cursor_pathes[Cursor][move];
     c44:	28 85       	ldd	r18, Y+8	; 0x08
     c46:	39 85       	ldd	r19, Y+9	; 0x09
     c48:	a9 01       	movw	r20, r18
     c4a:	44 0f       	add	r20, r20
     c4c:	55 1f       	adc	r21, r21
     c4e:	24 0f       	add	r18, r20
     c50:	35 1f       	adc	r19, r21
     c52:	22 0f       	add	r18, r18
     c54:	33 1f       	adc	r19, r19
     c56:	2c 0f       	add	r18, r28
     c58:	3d 1f       	adc	r19, r29
     c5a:	f9 01       	movw	r30, r18
     c5c:	e8 0f       	add	r30, r24
     c5e:	f9 1f       	adc	r31, r25
     c60:	82 85       	ldd	r24, Z+10	; 0x0a
		switch(next){
     c62:	85 36       	cpi	r24, 0x65	; 101
     c64:	51 f0       	breq	.+20     	; 0xc7a <_ZN8Activity16Main_Screen_MoveER5PanelR7Carrage+0x60>
     c66:	86 36       	cpi	r24, 0x66	; 102
     c68:	89 f0       	breq	.+34     	; 0xc8c <_ZN8Activity16Main_Screen_MoveER5PanelR7Carrage+0x72>
     c6a:	84 36       	cpi	r24, 0x64	; 100
     c6c:	b1 f4       	brne	.+44     	; 0xc9a <_ZN8Activity16Main_Screen_MoveER5PanelR7Carrage+0x80>
			case (ACTION_WHEEL):SelectWheel(carrage);break;
     c6e:	b8 01       	movw	r22, r16
     c70:	ce 01       	movw	r24, r28
     c72:	0e 94 e8 05 	call	0xbd0	; 0xbd0 <_ZN8Activity11SelectWheelER7Carrage>
			case (ACTION_ADJUST):Statment = SCREEN_ADJUST; carrage.beforeAdjast() ;break;
			case (ACTION_MENU):Statment = SCREEN_MENU;Cursor = SAVE;break;
			default: Cursor = next;break;
		}
		return true;
     c76:	81 e0       	ldi	r24, 0x01	; 1
		int next;
		
		if (move == B_NOTHING ){return false;}		
		next = Main_Screen_cursor_pathes[Cursor][move];
		switch(next){
			case (ACTION_WHEEL):SelectWheel(carrage);break;
     c78:	16 c0       	rjmp	.+44     	; 0xca6 <_ZN8Activity16Main_Screen_MoveER5PanelR7Carrage+0x8c>
			case (ACTION_ADJUST):Statment = SCREEN_ADJUST; carrage.beforeAdjast() ;break;
     c7a:	82 e0       	ldi	r24, 0x02	; 2
     c7c:	90 e0       	ldi	r25, 0x00	; 0
     c7e:	99 83       	std	Y+1, r25	; 0x01
     c80:	88 83       	st	Y, r24
     c82:	c8 01       	movw	r24, r16
     c84:	0e 94 ad 09 	call	0x135a	; 0x135a <_ZN7Carrage12beforeAdjastEv>
			case (ACTION_MENU):Statment = SCREEN_MENU;Cursor = SAVE;break;
			default: Cursor = next;break;
		}
		return true;
     c88:	81 e0       	ldi	r24, 0x01	; 1
		
		if (move == B_NOTHING ){return false;}		
		next = Main_Screen_cursor_pathes[Cursor][move];
		switch(next){
			case (ACTION_WHEEL):SelectWheel(carrage);break;
			case (ACTION_ADJUST):Statment = SCREEN_ADJUST; carrage.beforeAdjast() ;break;
     c8a:	0d c0       	rjmp	.+26     	; 0xca6 <_ZN8Activity16Main_Screen_MoveER5PanelR7Carrage+0x8c>
			case (ACTION_MENU):Statment = SCREEN_MENU;Cursor = SAVE;break;
     c8c:	81 e0       	ldi	r24, 0x01	; 1
     c8e:	90 e0       	ldi	r25, 0x00	; 0
     c90:	99 83       	std	Y+1, r25	; 0x01
     c92:	88 83       	st	Y, r24
     c94:	19 86       	std	Y+9, r1	; 0x09
     c96:	18 86       	std	Y+8, r1	; 0x08
     c98:	06 c0       	rjmp	.+12     	; 0xca6 <_ZN8Activity16Main_Screen_MoveER5PanelR7Carrage+0x8c>
			default: Cursor = next;break;
     c9a:	90 e0       	ldi	r25, 0x00	; 0
     c9c:	99 87       	std	Y+9, r25	; 0x09
     c9e:	88 87       	std	Y+8, r24	; 0x08
		}
		return true;
     ca0:	81 e0       	ldi	r24, 0x01	; 1
		next = Main_Screen_cursor_pathes[Cursor][move];
		switch(next){
			case (ACTION_WHEEL):SelectWheel(carrage);break;
			case (ACTION_ADJUST):Statment = SCREEN_ADJUST; carrage.beforeAdjast() ;break;
			case (ACTION_MENU):Statment = SCREEN_MENU;Cursor = SAVE;break;
			default: Cursor = next;break;
     ca2:	01 c0       	rjmp	.+2      	; 0xca6 <_ZN8Activity16Main_Screen_MoveER5PanelR7Carrage+0x8c>
bool Activity::Main_Screen_Move(Panel &panel, Carrage &carrage){
		carrage.ControlMalfinction();
		int move = panel.Pressed(100);
		int next;
		
		if (move == B_NOTHING ){return false;}		
     ca4:	80 e0       	ldi	r24, 0x00	; 0
			case (ACTION_ADJUST):Statment = SCREEN_ADJUST; carrage.beforeAdjast() ;break;
			case (ACTION_MENU):Statment = SCREEN_MENU;Cursor = SAVE;break;
			default: Cursor = next;break;
		}
		return true;
}
     ca6:	df 91       	pop	r29
     ca8:	cf 91       	pop	r28
     caa:	1f 91       	pop	r17
     cac:	0f 91       	pop	r16
     cae:	ff 90       	pop	r15
     cb0:	ef 90       	pop	r14
     cb2:	08 95       	ret

00000cb4 <_ZN8Activity12Tunning_rateER5PanelR7Carrage>:
		}
		if (Step <= 0){Step=0;}
		if (Step >= 19){Step=19;}
}

bool Activity::Tunning_rate(Panel &panel, Carrage &carrage){
     cb4:	cf 92       	push	r12
     cb6:	df 92       	push	r13
     cb8:	ef 92       	push	r14
     cba:	ff 92       	push	r15
     cbc:	0f 93       	push	r16
     cbe:	1f 93       	push	r17
     cc0:	cf 93       	push	r28
     cc2:	df 93       	push	r29
     cc4:	8c 01       	movw	r16, r24
     cc6:	cb 01       	movw	r24, r22
     cc8:	ea 01       	movw	r28, r20
	int pressed = panel.Pressed(100);
     cca:	64 e6       	ldi	r22, 0x64	; 100
     ccc:	70 e0       	ldi	r23, 0x00	; 0
     cce:	0e 94 a9 18 	call	0x3152	; 0x3152 <_ZN5Panel7PressedEi>
	if (pressed == B_NOTHING ){button_step=0;return false;}
     cd2:	8f 3f       	cpi	r24, 0xFF	; 255
     cd4:	2f ef       	ldi	r18, 0xFF	; 255
     cd6:	92 07       	cpc	r25, r18
     cd8:	39 f4       	brne	.+14     	; 0xce8 <_ZN8Activity12Tunning_rateER5PanelR7Carrage+0x34>
     cda:	f8 01       	movw	r30, r16
     cdc:	14 82       	std	Z+4, r1	; 0x04
     cde:	15 82       	std	Z+5, r1	; 0x05
     ce0:	16 82       	std	Z+6, r1	; 0x06
     ce2:	17 82       	std	Z+7, r1	; 0x07
     ce4:	80 e0       	ldi	r24, 0x00	; 0
     ce6:	8c c0       	rjmp	.+280    	; 0xe00 <_ZN8Activity12Tunning_rateER5PanelR7Carrage+0x14c>
	switch(pressed){
     ce8:	83 30       	cpi	r24, 0x03	; 3
     cea:	91 05       	cpc	r25, r1
     cec:	79 f0       	breq	.+30     	; 0xd0c <_ZN8Activity12Tunning_rateER5PanelR7Carrage+0x58>
     cee:	84 30       	cpi	r24, 0x04	; 4
     cf0:	91 05       	cpc	r25, r1
     cf2:	99 f1       	breq	.+102    	; 0xd5a <_ZN8Activity12Tunning_rateER5PanelR7Carrage+0xa6>
     cf4:	89 2b       	or	r24, r25
     cf6:	09 f0       	breq	.+2      	; 0xcfa <_ZN8Activity12Tunning_rateER5PanelR7Carrage+0x46>
     cf8:	54 c0       	rjmp	.+168    	; 0xda2 <_ZN8Activity12Tunning_rateER5PanelR7Carrage+0xee>
		case(B_OK___):Statment = SCREEN_MENU;SettingsSaveFlag = true; break;
     cfa:	81 e0       	ldi	r24, 0x01	; 1
     cfc:	90 e0       	ldi	r25, 0x00	; 0
     cfe:	f8 01       	movw	r30, r16
     d00:	91 83       	std	Z+1, r25	; 0x01
     d02:	80 83       	st	Z, r24
     d04:	ec 56       	subi	r30, 0x6C	; 108
     d06:	ff 4f       	sbci	r31, 0xFF	; 255
     d08:	80 83       	st	Z, r24
     d0a:	4b c0       	rjmp	.+150    	; 0xda2 <_ZN8Activity12Tunning_rateER5PanelR7Carrage+0xee>
		case(B_LEFT_):carrage.tunning-=(0.01+button_step);button_step=0.1; break;
     d0c:	7e 01       	movw	r14, r28
     d0e:	fe ea       	ldi	r31, 0xAE	; 174
     d10:	ef 0e       	add	r14, r31
     d12:	f1 1c       	adc	r15, r1
     d14:	2a e0       	ldi	r18, 0x0A	; 10
     d16:	37 ed       	ldi	r19, 0xD7	; 215
     d18:	43 e2       	ldi	r20, 0x23	; 35
     d1a:	5c e3       	ldi	r21, 0x3C	; 60
     d1c:	f8 01       	movw	r30, r16
     d1e:	64 81       	ldd	r22, Z+4	; 0x04
     d20:	75 81       	ldd	r23, Z+5	; 0x05
     d22:	86 81       	ldd	r24, Z+6	; 0x06
     d24:	97 81       	ldd	r25, Z+7	; 0x07
     d26:	0e 94 84 1b 	call	0x3708	; 0x3708 <__addsf3>
     d2a:	9b 01       	movw	r18, r22
     d2c:	ac 01       	movw	r20, r24
     d2e:	f7 01       	movw	r30, r14
     d30:	60 81       	ld	r22, Z
     d32:	71 81       	ldd	r23, Z+1	; 0x01
     d34:	82 81       	ldd	r24, Z+2	; 0x02
     d36:	93 81       	ldd	r25, Z+3	; 0x03
     d38:	0e 94 83 1b 	call	0x3706	; 0x3706 <__subsf3>
     d3c:	f7 01       	movw	r30, r14
     d3e:	60 83       	st	Z, r22
     d40:	71 83       	std	Z+1, r23	; 0x01
     d42:	82 83       	std	Z+2, r24	; 0x02
     d44:	93 83       	std	Z+3, r25	; 0x03
     d46:	8d ec       	ldi	r24, 0xCD	; 205
     d48:	9c ec       	ldi	r25, 0xCC	; 204
     d4a:	ac ec       	ldi	r26, 0xCC	; 204
     d4c:	bd e3       	ldi	r27, 0x3D	; 61
     d4e:	f8 01       	movw	r30, r16
     d50:	84 83       	std	Z+4, r24	; 0x04
     d52:	95 83       	std	Z+5, r25	; 0x05
     d54:	a6 83       	std	Z+6, r26	; 0x06
     d56:	b7 83       	std	Z+7, r27	; 0x07
     d58:	24 c0       	rjmp	.+72     	; 0xda2 <_ZN8Activity12Tunning_rateER5PanelR7Carrage+0xee>
		case(B_RIGHT):carrage.tunning+=(0.01+button_step);button_step=0.1; break;
     d5a:	7e 01       	movw	r14, r28
     d5c:	fe ea       	ldi	r31, 0xAE	; 174
     d5e:	ef 0e       	add	r14, r31
     d60:	f1 1c       	adc	r15, r1
     d62:	2a e0       	ldi	r18, 0x0A	; 10
     d64:	37 ed       	ldi	r19, 0xD7	; 215
     d66:	43 e2       	ldi	r20, 0x23	; 35
     d68:	5c e3       	ldi	r21, 0x3C	; 60
     d6a:	f8 01       	movw	r30, r16
     d6c:	64 81       	ldd	r22, Z+4	; 0x04
     d6e:	75 81       	ldd	r23, Z+5	; 0x05
     d70:	86 81       	ldd	r24, Z+6	; 0x06
     d72:	97 81       	ldd	r25, Z+7	; 0x07
     d74:	0e 94 84 1b 	call	0x3708	; 0x3708 <__addsf3>
     d78:	f7 01       	movw	r30, r14
     d7a:	20 81       	ld	r18, Z
     d7c:	31 81       	ldd	r19, Z+1	; 0x01
     d7e:	42 81       	ldd	r20, Z+2	; 0x02
     d80:	53 81       	ldd	r21, Z+3	; 0x03
     d82:	0e 94 84 1b 	call	0x3708	; 0x3708 <__addsf3>
     d86:	f7 01       	movw	r30, r14
     d88:	60 83       	st	Z, r22
     d8a:	71 83       	std	Z+1, r23	; 0x01
     d8c:	82 83       	std	Z+2, r24	; 0x02
     d8e:	93 83       	std	Z+3, r25	; 0x03
     d90:	8d ec       	ldi	r24, 0xCD	; 205
     d92:	9c ec       	ldi	r25, 0xCC	; 204
     d94:	ac ec       	ldi	r26, 0xCC	; 204
     d96:	bd e3       	ldi	r27, 0x3D	; 61
     d98:	f8 01       	movw	r30, r16
     d9a:	84 83       	std	Z+4, r24	; 0x04
     d9c:	95 83       	std	Z+5, r25	; 0x05
     d9e:	a6 83       	std	Z+6, r26	; 0x06
     da0:	b7 83       	std	Z+7, r27	; 0x07
	}
	if (carrage.tunning <= 0){carrage.tunning = 0.01;}
     da2:	fe 01       	movw	r30, r28
     da4:	e2 55       	subi	r30, 0x52	; 82
     da6:	ff 4f       	sbci	r31, 0xFF	; 255
     da8:	c0 80       	ld	r12, Z
     daa:	d1 80       	ldd	r13, Z+1	; 0x01
     dac:	e2 80       	ldd	r14, Z+2	; 0x02
     dae:	f3 80       	ldd	r15, Z+3	; 0x03
     db0:	20 e0       	ldi	r18, 0x00	; 0
     db2:	30 e0       	ldi	r19, 0x00	; 0
     db4:	a9 01       	movw	r20, r18
     db6:	c7 01       	movw	r24, r14
     db8:	b6 01       	movw	r22, r12
     dba:	0e 94 f0 1b 	call	0x37e0	; 0x37e0 <__cmpsf2>
     dbe:	18 16       	cp	r1, r24
     dc0:	5c f0       	brlt	.+22     	; 0xdd8 <_ZN8Activity12Tunning_rateER5PanelR7Carrage+0x124>
     dc2:	c2 55       	subi	r28, 0x52	; 82
     dc4:	df 4f       	sbci	r29, 0xFF	; 255
     dc6:	8a e0       	ldi	r24, 0x0A	; 10
     dc8:	97 ed       	ldi	r25, 0xD7	; 215
     dca:	a3 e2       	ldi	r26, 0x23	; 35
     dcc:	bc e3       	ldi	r27, 0x3C	; 60
     dce:	88 83       	st	Y, r24
     dd0:	99 83       	std	Y+1, r25	; 0x01
     dd2:	aa 83       	std	Y+2, r26	; 0x02
     dd4:	bb 83       	std	Y+3, r27	; 0x03
     dd6:	14 c0       	rjmp	.+40     	; 0xe00 <_ZN8Activity12Tunning_rateER5PanelR7Carrage+0x14c>
	if (carrage.tunning >= 3){carrage.tunning = 3.00;}
     dd8:	20 e0       	ldi	r18, 0x00	; 0
     dda:	30 e0       	ldi	r19, 0x00	; 0
     ddc:	40 e4       	ldi	r20, 0x40	; 64
     dde:	50 e4       	ldi	r21, 0x40	; 64
     de0:	c7 01       	movw	r24, r14
     de2:	b6 01       	movw	r22, r12
     de4:	0e 94 dd 1c 	call	0x39ba	; 0x39ba <__gesf2>
     de8:	88 23       	and	r24, r24
     dea:	54 f0       	brlt	.+20     	; 0xe00 <_ZN8Activity12Tunning_rateER5PanelR7Carrage+0x14c>
     dec:	c2 55       	subi	r28, 0x52	; 82
     dee:	df 4f       	sbci	r29, 0xFF	; 255
     df0:	80 e0       	ldi	r24, 0x00	; 0
     df2:	90 e0       	ldi	r25, 0x00	; 0
     df4:	a0 e4       	ldi	r26, 0x40	; 64
     df6:	b0 e4       	ldi	r27, 0x40	; 64
     df8:	88 83       	st	Y, r24
     dfa:	99 83       	std	Y+1, r25	; 0x01
     dfc:	aa 83       	std	Y+2, r26	; 0x02
     dfe:	bb 83       	std	Y+3, r27	; 0x03
}
     e00:	df 91       	pop	r29
     e02:	cf 91       	pop	r28
     e04:	1f 91       	pop	r17
     e06:	0f 91       	pop	r16
     e08:	ff 90       	pop	r15
     e0a:	ef 90       	pop	r14
     e0c:	df 90       	pop	r13
     e0e:	cf 90       	pop	r12
     e10:	08 95       	ret

00000e12 <_ZN8Activity10Limits_setER5PanelR7Carrage>:


bool Activity::Limits_set(Panel &panel, Carrage &carrage){
     e12:	cf 92       	push	r12
     e14:	df 92       	push	r13
     e16:	ef 92       	push	r14
     e18:	ff 92       	push	r15
     e1a:	0f 93       	push	r16
     e1c:	1f 93       	push	r17
     e1e:	cf 93       	push	r28
     e20:	df 93       	push	r29
     e22:	8c 01       	movw	r16, r24
     e24:	cb 01       	movw	r24, r22
     e26:	ea 01       	movw	r28, r20
	int pressed = panel.Pressed(100);
     e28:	64 e6       	ldi	r22, 0x64	; 100
     e2a:	70 e0       	ldi	r23, 0x00	; 0
     e2c:	0e 94 a9 18 	call	0x3152	; 0x3152 <_ZN5Panel7PressedEi>
	if (pressed == B_NOTHING ){button_step=0;return false;}
     e30:	8f 3f       	cpi	r24, 0xFF	; 255
     e32:	2f ef       	ldi	r18, 0xFF	; 255
     e34:	92 07       	cpc	r25, r18
     e36:	39 f4       	brne	.+14     	; 0xe46 <_ZN8Activity10Limits_setER5PanelR7Carrage+0x34>
     e38:	f8 01       	movw	r30, r16
     e3a:	14 82       	std	Z+4, r1	; 0x04
     e3c:	15 82       	std	Z+5, r1	; 0x05
     e3e:	16 82       	std	Z+6, r1	; 0x06
     e40:	17 82       	std	Z+7, r1	; 0x07
     e42:	80 e0       	ldi	r24, 0x00	; 0
     e44:	24 c1       	rjmp	.+584    	; 0x108e <_ZN8Activity10Limits_setER5PanelR7Carrage+0x27c>
	switch(pressed){
     e46:	82 30       	cpi	r24, 0x02	; 2
     e48:	91 05       	cpc	r25, r1
     e4a:	09 f4       	brne	.+2      	; 0xe4e <_ZN8Activity10Limits_setER5PanelR7Carrage+0x3c>
     e4c:	ac c0       	rjmp	.+344    	; 0xfa6 <_ZN8Activity10Limits_setER5PanelR7Carrage+0x194>
     e4e:	34 f4       	brge	.+12     	; 0xe5c <_ZN8Activity10Limits_setER5PanelR7Carrage+0x4a>
     e50:	00 97       	sbiw	r24, 0x00	; 0
     e52:	59 f0       	breq	.+22     	; 0xe6a <_ZN8Activity10Limits_setER5PanelR7Carrage+0x58>
     e54:	01 97       	sbiw	r24, 0x01	; 1
     e56:	09 f4       	brne	.+2      	; 0xe5a <_ZN8Activity10Limits_setER5PanelR7Carrage+0x48>
     e58:	ac c0       	rjmp	.+344    	; 0xfb2 <_ZN8Activity10Limits_setER5PanelR7Carrage+0x1a0>
     e5a:	b0 c0       	rjmp	.+352    	; 0xfbc <_ZN8Activity10Limits_setER5PanelR7Carrage+0x1aa>
     e5c:	83 30       	cpi	r24, 0x03	; 3
     e5e:	91 05       	cpc	r25, r1
     e60:	91 f0       	breq	.+36     	; 0xe86 <_ZN8Activity10Limits_setER5PanelR7Carrage+0x74>
     e62:	04 97       	sbiw	r24, 0x04	; 4
     e64:	09 f4       	brne	.+2      	; 0xe68 <_ZN8Activity10Limits_setER5PanelR7Carrage+0x56>
     e66:	59 c0       	rjmp	.+178    	; 0xf1a <_ZN8Activity10Limits_setER5PanelR7Carrage+0x108>
     e68:	a9 c0       	rjmp	.+338    	; 0xfbc <_ZN8Activity10Limits_setER5PanelR7Carrage+0x1aa>
		case(B_OK___):Statment = SCREEN_MENU;Cursor=SETTINGS_LIMITS;SettingsSaveFlag = true; break;
     e6a:	81 e0       	ldi	r24, 0x01	; 1
     e6c:	90 e0       	ldi	r25, 0x00	; 0
     e6e:	f8 01       	movw	r30, r16
     e70:	91 83       	std	Z+1, r25	; 0x01
     e72:	80 83       	st	Z, r24
     e74:	8d e0       	ldi	r24, 0x0D	; 13
     e76:	90 e0       	ldi	r25, 0x00	; 0
     e78:	91 87       	std	Z+9, r25	; 0x09
     e7a:	80 87       	std	Z+8, r24	; 0x08
     e7c:	81 e0       	ldi	r24, 0x01	; 1
     e7e:	ec 56       	subi	r30, 0x6C	; 108
     e80:	ff 4f       	sbci	r31, 0xFF	; 255
     e82:	80 83       	st	Z, r24
     e84:	9b c0       	rjmp	.+310    	; 0xfbc <_ZN8Activity10Limits_setER5PanelR7Carrage+0x1aa>
		case(B_LEFT_):if(Cursor==LIMITS_MIN){carrage.min-=(0.01+button_step);}else{carrage.max-=(0.01+button_step);};button_step=0.1; break;
     e86:	f8 01       	movw	r30, r16
     e88:	80 85       	ldd	r24, Z+8	; 0x08
     e8a:	91 85       	ldd	r25, Z+9	; 0x09
     e8c:	42 97       	sbiw	r24, 0x12	; 18
     e8e:	f1 f4       	brne	.+60     	; 0xecc <_ZN8Activity10Limits_setER5PanelR7Carrage+0xba>
     e90:	7e 01       	movw	r14, r28
     e92:	f2 eb       	ldi	r31, 0xB2	; 178
     e94:	ef 0e       	add	r14, r31
     e96:	f1 1c       	adc	r15, r1
     e98:	2a e0       	ldi	r18, 0x0A	; 10
     e9a:	37 ed       	ldi	r19, 0xD7	; 215
     e9c:	43 e2       	ldi	r20, 0x23	; 35
     e9e:	5c e3       	ldi	r21, 0x3C	; 60
     ea0:	f8 01       	movw	r30, r16
     ea2:	64 81       	ldd	r22, Z+4	; 0x04
     ea4:	75 81       	ldd	r23, Z+5	; 0x05
     ea6:	86 81       	ldd	r24, Z+6	; 0x06
     ea8:	97 81       	ldd	r25, Z+7	; 0x07
     eaa:	0e 94 84 1b 	call	0x3708	; 0x3708 <__addsf3>
     eae:	9b 01       	movw	r18, r22
     eb0:	ac 01       	movw	r20, r24
     eb2:	f7 01       	movw	r30, r14
     eb4:	60 81       	ld	r22, Z
     eb6:	71 81       	ldd	r23, Z+1	; 0x01
     eb8:	82 81       	ldd	r24, Z+2	; 0x02
     eba:	93 81       	ldd	r25, Z+3	; 0x03
     ebc:	0e 94 83 1b 	call	0x3706	; 0x3706 <__subsf3>
     ec0:	f7 01       	movw	r30, r14
     ec2:	60 83       	st	Z, r22
     ec4:	71 83       	std	Z+1, r23	; 0x01
     ec6:	82 83       	std	Z+2, r24	; 0x02
     ec8:	93 83       	std	Z+3, r25	; 0x03
     eca:	1d c0       	rjmp	.+58     	; 0xf06 <_ZN8Activity10Limits_setER5PanelR7Carrage+0xf4>
     ecc:	7e 01       	movw	r14, r28
     ece:	f6 eb       	ldi	r31, 0xB6	; 182
     ed0:	ef 0e       	add	r14, r31
     ed2:	f1 1c       	adc	r15, r1
     ed4:	2a e0       	ldi	r18, 0x0A	; 10
     ed6:	37 ed       	ldi	r19, 0xD7	; 215
     ed8:	43 e2       	ldi	r20, 0x23	; 35
     eda:	5c e3       	ldi	r21, 0x3C	; 60
     edc:	f8 01       	movw	r30, r16
     ede:	64 81       	ldd	r22, Z+4	; 0x04
     ee0:	75 81       	ldd	r23, Z+5	; 0x05
     ee2:	86 81       	ldd	r24, Z+6	; 0x06
     ee4:	97 81       	ldd	r25, Z+7	; 0x07
     ee6:	0e 94 84 1b 	call	0x3708	; 0x3708 <__addsf3>
     eea:	9b 01       	movw	r18, r22
     eec:	ac 01       	movw	r20, r24
     eee:	f7 01       	movw	r30, r14
     ef0:	60 81       	ld	r22, Z
     ef2:	71 81       	ldd	r23, Z+1	; 0x01
     ef4:	82 81       	ldd	r24, Z+2	; 0x02
     ef6:	93 81       	ldd	r25, Z+3	; 0x03
     ef8:	0e 94 83 1b 	call	0x3706	; 0x3706 <__subsf3>
     efc:	f7 01       	movw	r30, r14
     efe:	60 83       	st	Z, r22
     f00:	71 83       	std	Z+1, r23	; 0x01
     f02:	82 83       	std	Z+2, r24	; 0x02
     f04:	93 83       	std	Z+3, r25	; 0x03
     f06:	8d ec       	ldi	r24, 0xCD	; 205
     f08:	9c ec       	ldi	r25, 0xCC	; 204
     f0a:	ac ec       	ldi	r26, 0xCC	; 204
     f0c:	bd e3       	ldi	r27, 0x3D	; 61
     f0e:	f8 01       	movw	r30, r16
     f10:	84 83       	std	Z+4, r24	; 0x04
     f12:	95 83       	std	Z+5, r25	; 0x05
     f14:	a6 83       	std	Z+6, r26	; 0x06
     f16:	b7 83       	std	Z+7, r27	; 0x07
     f18:	51 c0       	rjmp	.+162    	; 0xfbc <_ZN8Activity10Limits_setER5PanelR7Carrage+0x1aa>
		case(B_RIGHT):if(Cursor==LIMITS_MIN){carrage.min+=(0.01+button_step);}else{carrage.max+=(0.01+button_step);};button_step=0.1; break;
     f1a:	f8 01       	movw	r30, r16
     f1c:	80 85       	ldd	r24, Z+8	; 0x08
     f1e:	91 85       	ldd	r25, Z+9	; 0x09
     f20:	42 97       	sbiw	r24, 0x12	; 18
     f22:	e1 f4       	brne	.+56     	; 0xf5c <_ZN8Activity10Limits_setER5PanelR7Carrage+0x14a>
     f24:	7e 01       	movw	r14, r28
     f26:	f2 eb       	ldi	r31, 0xB2	; 178
     f28:	ef 0e       	add	r14, r31
     f2a:	f1 1c       	adc	r15, r1
     f2c:	2a e0       	ldi	r18, 0x0A	; 10
     f2e:	37 ed       	ldi	r19, 0xD7	; 215
     f30:	43 e2       	ldi	r20, 0x23	; 35
     f32:	5c e3       	ldi	r21, 0x3C	; 60
     f34:	f8 01       	movw	r30, r16
     f36:	64 81       	ldd	r22, Z+4	; 0x04
     f38:	75 81       	ldd	r23, Z+5	; 0x05
     f3a:	86 81       	ldd	r24, Z+6	; 0x06
     f3c:	97 81       	ldd	r25, Z+7	; 0x07
     f3e:	0e 94 84 1b 	call	0x3708	; 0x3708 <__addsf3>
     f42:	f7 01       	movw	r30, r14
     f44:	20 81       	ld	r18, Z
     f46:	31 81       	ldd	r19, Z+1	; 0x01
     f48:	42 81       	ldd	r20, Z+2	; 0x02
     f4a:	53 81       	ldd	r21, Z+3	; 0x03
     f4c:	0e 94 84 1b 	call	0x3708	; 0x3708 <__addsf3>
     f50:	f7 01       	movw	r30, r14
     f52:	60 83       	st	Z, r22
     f54:	71 83       	std	Z+1, r23	; 0x01
     f56:	82 83       	std	Z+2, r24	; 0x02
     f58:	93 83       	std	Z+3, r25	; 0x03
     f5a:	1b c0       	rjmp	.+54     	; 0xf92 <_ZN8Activity10Limits_setER5PanelR7Carrage+0x180>
     f5c:	7e 01       	movw	r14, r28
     f5e:	f6 eb       	ldi	r31, 0xB6	; 182
     f60:	ef 0e       	add	r14, r31
     f62:	f1 1c       	adc	r15, r1
     f64:	2a e0       	ldi	r18, 0x0A	; 10
     f66:	37 ed       	ldi	r19, 0xD7	; 215
     f68:	43 e2       	ldi	r20, 0x23	; 35
     f6a:	5c e3       	ldi	r21, 0x3C	; 60
     f6c:	f8 01       	movw	r30, r16
     f6e:	64 81       	ldd	r22, Z+4	; 0x04
     f70:	75 81       	ldd	r23, Z+5	; 0x05
     f72:	86 81       	ldd	r24, Z+6	; 0x06
     f74:	97 81       	ldd	r25, Z+7	; 0x07
     f76:	0e 94 84 1b 	call	0x3708	; 0x3708 <__addsf3>
     f7a:	f7 01       	movw	r30, r14
     f7c:	20 81       	ld	r18, Z
     f7e:	31 81       	ldd	r19, Z+1	; 0x01
     f80:	42 81       	ldd	r20, Z+2	; 0x02
     f82:	53 81       	ldd	r21, Z+3	; 0x03
     f84:	0e 94 84 1b 	call	0x3708	; 0x3708 <__addsf3>
     f88:	f7 01       	movw	r30, r14
     f8a:	60 83       	st	Z, r22
     f8c:	71 83       	std	Z+1, r23	; 0x01
     f8e:	82 83       	std	Z+2, r24	; 0x02
     f90:	93 83       	std	Z+3, r25	; 0x03
     f92:	8d ec       	ldi	r24, 0xCD	; 205
     f94:	9c ec       	ldi	r25, 0xCC	; 204
     f96:	ac ec       	ldi	r26, 0xCC	; 204
     f98:	bd e3       	ldi	r27, 0x3D	; 61
     f9a:	f8 01       	movw	r30, r16
     f9c:	84 83       	std	Z+4, r24	; 0x04
     f9e:	95 83       	std	Z+5, r25	; 0x05
     fa0:	a6 83       	std	Z+6, r26	; 0x06
     fa2:	b7 83       	std	Z+7, r27	; 0x07
     fa4:	0b c0       	rjmp	.+22     	; 0xfbc <_ZN8Activity10Limits_setER5PanelR7Carrage+0x1aa>
		case(B_DOWN_):Cursor = LIMITS_MAX;break;
     fa6:	83 e1       	ldi	r24, 0x13	; 19
     fa8:	90 e0       	ldi	r25, 0x00	; 0
     faa:	f8 01       	movw	r30, r16
     fac:	91 87       	std	Z+9, r25	; 0x09
     fae:	80 87       	std	Z+8, r24	; 0x08
     fb0:	05 c0       	rjmp	.+10     	; 0xfbc <_ZN8Activity10Limits_setER5PanelR7Carrage+0x1aa>
		case(B_UP___):Cursor = LIMITS_MIN;break;
     fb2:	82 e1       	ldi	r24, 0x12	; 18
     fb4:	90 e0       	ldi	r25, 0x00	; 0
     fb6:	f8 01       	movw	r30, r16
     fb8:	91 87       	std	Z+9, r25	; 0x09
     fba:	80 87       	std	Z+8, r24	; 0x08
	}
	if (carrage.min <= 0){carrage.min = 0.00;}
     fbc:	20 e0       	ldi	r18, 0x00	; 0
     fbe:	30 e0       	ldi	r19, 0x00	; 0
     fc0:	a9 01       	movw	r20, r18
     fc2:	fe 01       	movw	r30, r28
     fc4:	ee 54       	subi	r30, 0x4E	; 78
     fc6:	ff 4f       	sbci	r31, 0xFF	; 255
     fc8:	60 81       	ld	r22, Z
     fca:	71 81       	ldd	r23, Z+1	; 0x01
     fcc:	82 81       	ldd	r24, Z+2	; 0x02
     fce:	93 81       	ldd	r25, Z+3	; 0x03
     fd0:	0e 94 f0 1b 	call	0x37e0	; 0x37e0 <__cmpsf2>
     fd4:	18 16       	cp	r1, r24
     fd6:	3c f0       	brlt	.+14     	; 0xfe6 <_ZN8Activity10Limits_setER5PanelR7Carrage+0x1d4>
     fd8:	fe 01       	movw	r30, r28
     fda:	ee 54       	subi	r30, 0x4E	; 78
     fdc:	ff 4f       	sbci	r31, 0xFF	; 255
     fde:	10 82       	st	Z, r1
     fe0:	11 82       	std	Z+1, r1	; 0x01
     fe2:	12 82       	std	Z+2, r1	; 0x02
     fe4:	13 82       	std	Z+3, r1	; 0x03
	if (carrage.max >= 5){carrage.max = 5.00;}
     fe6:	20 e0       	ldi	r18, 0x00	; 0
     fe8:	30 e0       	ldi	r19, 0x00	; 0
     fea:	40 ea       	ldi	r20, 0xA0	; 160
     fec:	50 e4       	ldi	r21, 0x40	; 64
     fee:	fe 01       	movw	r30, r28
     ff0:	ea 54       	subi	r30, 0x4A	; 74
     ff2:	ff 4f       	sbci	r31, 0xFF	; 255
     ff4:	60 81       	ld	r22, Z
     ff6:	71 81       	ldd	r23, Z+1	; 0x01
     ff8:	82 81       	ldd	r24, Z+2	; 0x02
     ffa:	93 81       	ldd	r25, Z+3	; 0x03
     ffc:	0e 94 dd 1c 	call	0x39ba	; 0x39ba <__gesf2>
    1000:	88 23       	and	r24, r24
    1002:	5c f0       	brlt	.+22     	; 0x101a <_ZN8Activity10Limits_setER5PanelR7Carrage+0x208>
    1004:	80 e0       	ldi	r24, 0x00	; 0
    1006:	90 e0       	ldi	r25, 0x00	; 0
    1008:	a0 ea       	ldi	r26, 0xA0	; 160
    100a:	b0 e4       	ldi	r27, 0x40	; 64
    100c:	fe 01       	movw	r30, r28
    100e:	ea 54       	subi	r30, 0x4A	; 74
    1010:	ff 4f       	sbci	r31, 0xFF	; 255
    1012:	80 83       	st	Z, r24
    1014:	91 83       	std	Z+1, r25	; 0x01
    1016:	a2 83       	std	Z+2, r26	; 0x02
    1018:	b3 83       	std	Z+3, r27	; 0x03
	switch(Cursor){
    101a:	f8 01       	movw	r30, r16
    101c:	80 85       	ldd	r24, Z+8	; 0x08
    101e:	91 85       	ldd	r25, Z+9	; 0x09
    1020:	82 31       	cpi	r24, 0x12	; 18
    1022:	91 05       	cpc	r25, r1
    1024:	19 f0       	breq	.+6      	; 0x102c <_ZN8Activity10Limits_setER5PanelR7Carrage+0x21a>
    1026:	43 97       	sbiw	r24, 0x13	; 19
    1028:	d1 f0       	breq	.+52     	; 0x105e <_ZN8Activity10Limits_setER5PanelR7Carrage+0x24c>
    102a:	31 c0       	rjmp	.+98     	; 0x108e <_ZN8Activity10Limits_setER5PanelR7Carrage+0x27c>
		case(LIMITS_MIN):if (carrage.min >= carrage.max){carrage.min = carrage.max;};break;
    102c:	fe 01       	movw	r30, r28
    102e:	ea 54       	subi	r30, 0x4A	; 74
    1030:	ff 4f       	sbci	r31, 0xFF	; 255
    1032:	c0 80       	ld	r12, Z
    1034:	d1 80       	ldd	r13, Z+1	; 0x01
    1036:	e2 80       	ldd	r14, Z+2	; 0x02
    1038:	f3 80       	ldd	r15, Z+3	; 0x03
    103a:	a7 01       	movw	r20, r14
    103c:	96 01       	movw	r18, r12
    103e:	34 97       	sbiw	r30, 0x04	; 4
    1040:	60 81       	ld	r22, Z
    1042:	71 81       	ldd	r23, Z+1	; 0x01
    1044:	82 81       	ldd	r24, Z+2	; 0x02
    1046:	93 81       	ldd	r25, Z+3	; 0x03
    1048:	0e 94 dd 1c 	call	0x39ba	; 0x39ba <__gesf2>
    104c:	88 23       	and	r24, r24
    104e:	fc f0       	brlt	.+62     	; 0x108e <_ZN8Activity10Limits_setER5PanelR7Carrage+0x27c>
    1050:	ce 54       	subi	r28, 0x4E	; 78
    1052:	df 4f       	sbci	r29, 0xFF	; 255
    1054:	c8 82       	st	Y, r12
    1056:	d9 82       	std	Y+1, r13	; 0x01
    1058:	ea 82       	std	Y+2, r14	; 0x02
    105a:	fb 82       	std	Y+3, r15	; 0x03
    105c:	18 c0       	rjmp	.+48     	; 0x108e <_ZN8Activity10Limits_setER5PanelR7Carrage+0x27c>
		case(LIMITS_MAX):if (carrage.max <= carrage.min){carrage.max = carrage.min;};break;
    105e:	fe 01       	movw	r30, r28
    1060:	ee 54       	subi	r30, 0x4E	; 78
    1062:	ff 4f       	sbci	r31, 0xFF	; 255
    1064:	c0 80       	ld	r12, Z
    1066:	d1 80       	ldd	r13, Z+1	; 0x01
    1068:	e2 80       	ldd	r14, Z+2	; 0x02
    106a:	f3 80       	ldd	r15, Z+3	; 0x03
    106c:	a7 01       	movw	r20, r14
    106e:	96 01       	movw	r18, r12
    1070:	34 96       	adiw	r30, 0x04	; 4
    1072:	60 81       	ld	r22, Z
    1074:	71 81       	ldd	r23, Z+1	; 0x01
    1076:	82 81       	ldd	r24, Z+2	; 0x02
    1078:	93 81       	ldd	r25, Z+3	; 0x03
    107a:	0e 94 f0 1b 	call	0x37e0	; 0x37e0 <__cmpsf2>
    107e:	18 16       	cp	r1, r24
    1080:	34 f0       	brlt	.+12     	; 0x108e <_ZN8Activity10Limits_setER5PanelR7Carrage+0x27c>
    1082:	ca 54       	subi	r28, 0x4A	; 74
    1084:	df 4f       	sbci	r29, 0xFF	; 255
    1086:	c8 82       	st	Y, r12
    1088:	d9 82       	std	Y+1, r13	; 0x01
    108a:	ea 82       	std	Y+2, r14	; 0x02
    108c:	fb 82       	std	Y+3, r15	; 0x03
	}

}
    108e:	df 91       	pop	r29
    1090:	cf 91       	pop	r28
    1092:	1f 91       	pop	r17
    1094:	0f 91       	pop	r16
    1096:	ff 90       	pop	r15
    1098:	ef 90       	pop	r14
    109a:	df 90       	pop	r13
    109c:	cf 90       	pop	r12
    109e:	08 95       	ret

000010a0 <_ZN8Activity12get_val_stepEv>:

float Activity::get_val_step(){
	return pgm_read_float (&(Steps[Step]));
    10a0:	dc 01       	movw	r26, r24
    10a2:	12 96       	adiw	r26, 0x02	; 2
    10a4:	ed 91       	ld	r30, X+
    10a6:	fc 91       	ld	r31, X
    10a8:	13 97       	sbiw	r26, 0x03	; 3
    10aa:	ee 0f       	add	r30, r30
    10ac:	ff 1f       	adc	r31, r31
    10ae:	ee 0f       	add	r30, r30
    10b0:	ff 1f       	adc	r31, r31
    10b2:	e4 56       	subi	r30, 0x64	; 100
    10b4:	ff 4f       	sbci	r31, 0xFF	; 255
    10b6:	65 91       	lpm	r22, Z+
    10b8:	75 91       	lpm	r23, Z+
    10ba:	85 91       	lpm	r24, Z+
    10bc:	94 91       	lpm	r25, Z
    10be:	08 95       	ret

000010c0 <_ZN8Activity17Adjusting_CarrageER5PanelR7Carrage>:
		case(RIGHTDOWN): carrage.Wheel_3.Select(); break;
		case(LEFTDOWN): carrage.Wheel_4.Select(); break;	
	}
}

bool Activity::Adjusting_Carrage(Panel &panel, Carrage &carrage){
    10c0:	0f 93       	push	r16
    10c2:	1f 93       	push	r17
    10c4:	cf 93       	push	r28
    10c6:	df 93       	push	r29
    10c8:	ec 01       	movw	r28, r24
    10ca:	cb 01       	movw	r24, r22
    10cc:	8a 01       	movw	r16, r20
		int pressed = panel.Pressed(100);
    10ce:	64 e6       	ldi	r22, 0x64	; 100
    10d0:	70 e0       	ldi	r23, 0x00	; 0
    10d2:	0e 94 a9 18 	call	0x3152	; 0x3152 <_ZN5Panel7PressedEi>
		if (pressed == B_NOTHING ){return false;}
    10d6:	8f 3f       	cpi	r24, 0xFF	; 255
    10d8:	2f ef       	ldi	r18, 0xFF	; 255
    10da:	92 07       	cpc	r25, r18
    10dc:	11 f4       	brne	.+4      	; 0x10e2 <_ZN8Activity17Adjusting_CarrageER5PanelR7Carrage+0x22>
    10de:	80 e0       	ldi	r24, 0x00	; 0
    10e0:	3d c0       	rjmp	.+122    	; 0x115c <_ZN8Activity17Adjusting_CarrageER5PanelR7Carrage+0x9c>
		switch(pressed){
    10e2:	82 30       	cpi	r24, 0x02	; 2
    10e4:	91 05       	cpc	r25, r1
    10e6:	c1 f0       	breq	.+48     	; 0x1118 <_ZN8Activity17Adjusting_CarrageER5PanelR7Carrage+0x58>
    10e8:	2c f4       	brge	.+10     	; 0x10f4 <_ZN8Activity17Adjusting_CarrageER5PanelR7Carrage+0x34>
    10ea:	00 97       	sbiw	r24, 0x00	; 0
    10ec:	49 f0       	breq	.+18     	; 0x1100 <_ZN8Activity17Adjusting_CarrageER5PanelR7Carrage+0x40>
    10ee:	01 97       	sbiw	r24, 0x01	; 1
    10f0:	51 f0       	breq	.+20     	; 0x1106 <_ZN8Activity17Adjusting_CarrageER5PanelR7Carrage+0x46>
    10f2:	26 c0       	rjmp	.+76     	; 0x1140 <_ZN8Activity17Adjusting_CarrageER5PanelR7Carrage+0x80>
    10f4:	83 30       	cpi	r24, 0x03	; 3
    10f6:	91 05       	cpc	r25, r1
    10f8:	c1 f0       	breq	.+48     	; 0x112a <_ZN8Activity17Adjusting_CarrageER5PanelR7Carrage+0x6a>
    10fa:	04 97       	sbiw	r24, 0x04	; 4
    10fc:	e1 f0       	breq	.+56     	; 0x1136 <_ZN8Activity17Adjusting_CarrageER5PanelR7Carrage+0x76>
    10fe:	20 c0       	rjmp	.+64     	; 0x1140 <_ZN8Activity17Adjusting_CarrageER5PanelR7Carrage+0x80>
			case(B_OK___):Statment = SCREEN_MAIN; break;
    1100:	19 82       	std	Y+1, r1	; 0x01
    1102:	18 82       	st	Y, r1
    1104:	1d c0       	rjmp	.+58     	; 0x1140 <_ZN8Activity17Adjusting_CarrageER5PanelR7Carrage+0x80>
			case(B_UP___):carrage.Up(get_val_step()); break;
    1106:	ce 01       	movw	r24, r28
    1108:	0e 94 50 08 	call	0x10a0	; 0x10a0 <_ZN8Activity12get_val_stepEv>
    110c:	ab 01       	movw	r20, r22
    110e:	bc 01       	movw	r22, r24
    1110:	c8 01       	movw	r24, r16
    1112:	0e 94 48 0e 	call	0x1c90	; 0x1c90 <_ZN7Carrage2UpEf>
    1116:	14 c0       	rjmp	.+40     	; 0x1140 <_ZN8Activity17Adjusting_CarrageER5PanelR7Carrage+0x80>
			case(B_DOWN_):carrage.Down(get_val_step()); break;
    1118:	ce 01       	movw	r24, r28
    111a:	0e 94 50 08 	call	0x10a0	; 0x10a0 <_ZN8Activity12get_val_stepEv>
    111e:	ab 01       	movw	r20, r22
    1120:	bc 01       	movw	r22, r24
    1122:	c8 01       	movw	r24, r16
    1124:	0e 94 71 0e 	call	0x1ce2	; 0x1ce2 <_ZN7Carrage4DownEf>
    1128:	0b c0       	rjmp	.+22     	; 0x1140 <_ZN8Activity17Adjusting_CarrageER5PanelR7Carrage+0x80>
			case(B_LEFT_):Step--; break;
    112a:	8a 81       	ldd	r24, Y+2	; 0x02
    112c:	9b 81       	ldd	r25, Y+3	; 0x03
    112e:	01 97       	sbiw	r24, 0x01	; 1
    1130:	9b 83       	std	Y+3, r25	; 0x03
    1132:	8a 83       	std	Y+2, r24	; 0x02
    1134:	05 c0       	rjmp	.+10     	; 0x1140 <_ZN8Activity17Adjusting_CarrageER5PanelR7Carrage+0x80>
			case(B_RIGHT):Step++; break;
    1136:	8a 81       	ldd	r24, Y+2	; 0x02
    1138:	9b 81       	ldd	r25, Y+3	; 0x03
    113a:	01 96       	adiw	r24, 0x01	; 1
    113c:	9b 83       	std	Y+3, r25	; 0x03
    113e:	8a 83       	std	Y+2, r24	; 0x02
		}
		if (Step <= 0){Step=0;}
    1140:	8a 81       	ldd	r24, Y+2	; 0x02
    1142:	9b 81       	ldd	r25, Y+3	; 0x03
    1144:	18 16       	cp	r1, r24
    1146:	19 06       	cpc	r1, r25
    1148:	1c f0       	brlt	.+6      	; 0x1150 <_ZN8Activity17Adjusting_CarrageER5PanelR7Carrage+0x90>
    114a:	1b 82       	std	Y+3, r1	; 0x03
    114c:	1a 82       	std	Y+2, r1	; 0x02
    114e:	06 c0       	rjmp	.+12     	; 0x115c <_ZN8Activity17Adjusting_CarrageER5PanelR7Carrage+0x9c>
		if (Step >= 19){Step=19;}
    1150:	43 97       	sbiw	r24, 0x13	; 19
    1152:	24 f0       	brlt	.+8      	; 0x115c <_ZN8Activity17Adjusting_CarrageER5PanelR7Carrage+0x9c>
    1154:	83 e1       	ldi	r24, 0x13	; 19
    1156:	90 e0       	ldi	r25, 0x00	; 0
    1158:	9b 83       	std	Y+3, r25	; 0x03
    115a:	8a 83       	std	Y+2, r24	; 0x02
}
    115c:	df 91       	pop	r29
    115e:	cf 91       	pop	r28
    1160:	1f 91       	pop	r17
    1162:	0f 91       	pop	r16
    1164:	08 95       	ret

00001166 <_ZN8Activity13Cursor_ActionER5PanelR7Carrage>:
	Menu_Screen_cursor_pathes[SETTINGS_EXIT][B_DOWN_] = SETTINGS_EXIT;
	Menu_Screen_cursor_pathes[SETTINGS_EXIT][B_OK___] = SETTINGS;
}

bool Activity::Cursor_Action(Panel &panel, Carrage &carrage){
	switch(Statment){
    1166:	fc 01       	movw	r30, r24
    1168:	20 81       	ld	r18, Z
    116a:	31 81       	ldd	r19, Z+1	; 0x01
    116c:	22 30       	cpi	r18, 0x02	; 2
    116e:	31 05       	cpc	r19, r1
    1170:	a9 f0       	breq	.+42     	; 0x119c <_ZN8Activity13Cursor_ActionER5PanelR7Carrage+0x36>
    1172:	3c f4       	brge	.+14     	; 0x1182 <_ZN8Activity13Cursor_ActionER5PanelR7Carrage+0x1c>
    1174:	21 15       	cp	r18, r1
    1176:	31 05       	cpc	r19, r1
    1178:	59 f0       	breq	.+22     	; 0x1190 <_ZN8Activity13Cursor_ActionER5PanelR7Carrage+0x2a>
    117a:	21 30       	cpi	r18, 0x01	; 1
    117c:	31 05       	cpc	r19, r1
    117e:	59 f0       	breq	.+22     	; 0x1196 <_ZN8Activity13Cursor_ActionER5PanelR7Carrage+0x30>
    1180:	08 95       	ret
    1182:	23 30       	cpi	r18, 0x03	; 3
    1184:	31 05       	cpc	r19, r1
    1186:	69 f0       	breq	.+26     	; 0x11a2 <_ZN8Activity13Cursor_ActionER5PanelR7Carrage+0x3c>
    1188:	24 30       	cpi	r18, 0x04	; 4
    118a:	31 05       	cpc	r19, r1
    118c:	69 f0       	breq	.+26     	; 0x11a8 <_ZN8Activity13Cursor_ActionER5PanelR7Carrage+0x42>
    118e:	08 95       	ret
		case(SCREEN_MAIN):Main_Screen_Move(panel,carrage);break;
    1190:	0e 94 0d 06 	call	0xc1a	; 0xc1a <_ZN8Activity16Main_Screen_MoveER5PanelR7Carrage>
    1194:	08 95       	ret
		case(SCREEN_MENU):Menu_Screen_Move(panel,carrage);break;
    1196:	0e 94 76 05 	call	0xaec	; 0xaec <_ZN8Activity16Menu_Screen_MoveER5PanelR7Carrage>
    119a:	08 95       	ret
		case(SCREEN_ADJUST):Adjusting_Carrage(panel,carrage);break;
    119c:	0e 94 60 08 	call	0x10c0	; 0x10c0 <_ZN8Activity17Adjusting_CarrageER5PanelR7Carrage>
    11a0:	08 95       	ret
		case(SCREEN_TUNNING):Tunning_rate(panel,carrage);break;
    11a2:	0e 94 5a 06 	call	0xcb4	; 0xcb4 <_ZN8Activity12Tunning_rateER5PanelR7Carrage>
    11a6:	08 95       	ret
		case(SCREEN_LIMITS):Limits_set(panel,carrage);break;
    11a8:	0e 94 09 07 	call	0xe12	; 0xe12 <_ZN8Activity10Limits_setER5PanelR7Carrage>
	}
}
    11ac:	08 95       	ret

000011ae <_ZN6ButtonC1Ev>:
#include "Button.h"
#include <avr/io.h>
#include <util/delay.h>

// default constructor
Button::Button(){
    11ae:	08 95       	ret

000011b0 <_ZN6Button4InitEci>:
	
}

void Button::Init(char port, int pin)
{
    11b0:	fc 01       	movw	r30, r24
	_port = port;
    11b2:	60 83       	st	Z, r22
	_pin = pin;
    11b4:	41 83       	std	Z+1, r20	; 0x01
    11b6:	52 83       	std	Z+2, r21	; 0x02
	slice_limit = 1000;
    11b8:	88 ee       	ldi	r24, 0xE8	; 232
    11ba:	93 e0       	ldi	r25, 0x03	; 3
    11bc:	96 83       	std	Z+6, r25	; 0x06
    11be:	85 83       	std	Z+5, r24	; 0x05
	switch (_port){
    11c0:	63 34       	cpi	r22, 0x43	; 67
    11c2:	a1 f0       	breq	.+40     	; 0x11ec <_ZN6Button4InitEci+0x3c>
    11c4:	64 34       	cpi	r22, 0x44	; 68
    11c6:	11 f1       	breq	.+68     	; 0x120c <_ZN6Button4InitEci+0x5c>
    11c8:	62 34       	cpi	r22, 0x42	; 66
    11ca:	79 f5       	brne	.+94     	; 0x122a <_ZN6Button4InitEci+0x7a>
		case 'B': DDRB &= ~(1<<(pin)); PORTB |= (1<<(pin)); break;
    11cc:	24 b1       	in	r18, 0x04	; 4
    11ce:	81 e0       	ldi	r24, 0x01	; 1
    11d0:	90 e0       	ldi	r25, 0x00	; 0
    11d2:	02 c0       	rjmp	.+4      	; 0x11d8 <_ZN6Button4InitEci+0x28>
    11d4:	88 0f       	add	r24, r24
    11d6:	99 1f       	adc	r25, r25
    11d8:	4a 95       	dec	r20
    11da:	e2 f7       	brpl	.-8      	; 0x11d4 <_ZN6Button4InitEci+0x24>
    11dc:	98 2f       	mov	r25, r24
    11de:	90 95       	com	r25
    11e0:	92 23       	and	r25, r18
    11e2:	94 b9       	out	0x04, r25	; 4
    11e4:	95 b1       	in	r25, 0x05	; 5
    11e6:	89 2b       	or	r24, r25
    11e8:	85 b9       	out	0x05, r24	; 5
    11ea:	08 95       	ret
		case 'C': DDRC &= ~(1<<(pin)); PORTC |= (1<<(pin)); break;
    11ec:	27 b1       	in	r18, 0x07	; 7
    11ee:	81 e0       	ldi	r24, 0x01	; 1
    11f0:	90 e0       	ldi	r25, 0x00	; 0
    11f2:	02 c0       	rjmp	.+4      	; 0x11f8 <_ZN6Button4InitEci+0x48>
    11f4:	88 0f       	add	r24, r24
    11f6:	99 1f       	adc	r25, r25
    11f8:	4a 95       	dec	r20
    11fa:	e2 f7       	brpl	.-8      	; 0x11f4 <_ZN6Button4InitEci+0x44>
    11fc:	98 2f       	mov	r25, r24
    11fe:	90 95       	com	r25
    1200:	92 23       	and	r25, r18
    1202:	97 b9       	out	0x07, r25	; 7
    1204:	98 b1       	in	r25, 0x08	; 8
    1206:	89 2b       	or	r24, r25
    1208:	88 b9       	out	0x08, r24	; 8
    120a:	08 95       	ret
		case 'D': DDRD &= ~(1<<(pin)); PORTD |= (1<<(pin)); break;
    120c:	2a b1       	in	r18, 0x0a	; 10
    120e:	81 e0       	ldi	r24, 0x01	; 1
    1210:	90 e0       	ldi	r25, 0x00	; 0
    1212:	02 c0       	rjmp	.+4      	; 0x1218 <_ZN6Button4InitEci+0x68>
    1214:	88 0f       	add	r24, r24
    1216:	99 1f       	adc	r25, r25
    1218:	4a 95       	dec	r20
    121a:	e2 f7       	brpl	.-8      	; 0x1214 <_ZN6Button4InitEci+0x64>
    121c:	98 2f       	mov	r25, r24
    121e:	90 95       	com	r25
    1220:	92 23       	and	r25, r18
    1222:	9a b9       	out	0x0a, r25	; 10
    1224:	9b b1       	in	r25, 0x0b	; 11
    1226:	89 2b       	or	r24, r25
    1228:	8b b9       	out	0x0b, r24	; 11
    122a:	08 95       	ret

0000122c <_ZN6Button7PressedEi>:
	}
	
}

bool Button::Pressed(int debounce){
    122c:	fc 01       	movw	r30, r24
	//debounce   
	bool read_pin;
	int i;
	
	if (debounce >= 0){
    122e:	77 23       	and	r23, r23
    1230:	74 f1       	brlt	.+92     	; 0x128e <_ZN6Button7PressedEi+0x62>
		switch (_port){
    1232:	80 81       	ld	r24, Z
    1234:	83 34       	cpi	r24, 0x43	; 67
    1236:	79 f0       	breq	.+30     	; 0x1256 <_ZN6Button7PressedEi+0x2a>
    1238:	84 34       	cpi	r24, 0x44	; 68
    123a:	b9 f0       	breq	.+46     	; 0x126a <_ZN6Button7PressedEi+0x3e>
    123c:	82 34       	cpi	r24, 0x42	; 66
    123e:	09 f0       	breq	.+2      	; 0x1242 <_ZN6Button7PressedEi+0x16>
    1240:	6a c0       	rjmp	.+212    	; 0x1316 <_ZN6Button7PressedEi+0xea>
			case 'B': read_pin = ((1 << _pin) & PINB); break;
    1242:	83 b1       	in	r24, 0x03	; 3
    1244:	90 e0       	ldi	r25, 0x00	; 0
    1246:	01 80       	ldd	r0, Z+1	; 0x01
    1248:	02 c0       	rjmp	.+4      	; 0x124e <_ZN6Button7PressedEi+0x22>
    124a:	95 95       	asr	r25
    124c:	87 95       	ror	r24
    124e:	0a 94       	dec	r0
    1250:	e2 f7       	brpl	.-8      	; 0x124a <_ZN6Button7PressedEi+0x1e>
    1252:	81 70       	andi	r24, 0x01	; 1
    1254:	13 c0       	rjmp	.+38     	; 0x127c <_ZN6Button7PressedEi+0x50>
			case 'C': read_pin = ((1 << _pin) & PINC); break;
    1256:	86 b1       	in	r24, 0x06	; 6
    1258:	90 e0       	ldi	r25, 0x00	; 0
    125a:	01 80       	ldd	r0, Z+1	; 0x01
    125c:	02 c0       	rjmp	.+4      	; 0x1262 <_ZN6Button7PressedEi+0x36>
    125e:	95 95       	asr	r25
    1260:	87 95       	ror	r24
    1262:	0a 94       	dec	r0
    1264:	e2 f7       	brpl	.-8      	; 0x125e <_ZN6Button7PressedEi+0x32>
    1266:	81 70       	andi	r24, 0x01	; 1
    1268:	09 c0       	rjmp	.+18     	; 0x127c <_ZN6Button7PressedEi+0x50>
			case 'D': read_pin = ((1 << _pin) & PIND); break;
    126a:	89 b1       	in	r24, 0x09	; 9
    126c:	90 e0       	ldi	r25, 0x00	; 0
    126e:	01 80       	ldd	r0, Z+1	; 0x01
    1270:	02 c0       	rjmp	.+4      	; 0x1276 <_ZN6Button7PressedEi+0x4a>
    1272:	95 95       	asr	r25
    1274:	87 95       	ror	r24
    1276:	0a 94       	dec	r0
    1278:	e2 f7       	brpl	.-8      	; 0x1272 <_ZN6Button7PressedEi+0x46>
    127a:	81 70       	andi	r24, 0x01	; 1
			default: return false;
		}
		
		if (read_pin){
    127c:	88 23       	and	r24, r24
    127e:	09 f4       	brne	.+2      	; 0x1282 <_ZN6Button7PressedEi+0x56>
    1280:	4e c0       	rjmp	.+156    	; 0x131e <_ZN6Button7PressedEi+0xf2>
			slice_limit = 1000;
    1282:	88 ee       	ldi	r24, 0xE8	; 232
    1284:	93 e0       	ldi	r25, 0x03	; 3
    1286:	96 83       	std	Z+6, r25	; 0x06
    1288:	85 83       	std	Z+5, r24	; 0x05
			return false;
    128a:	80 e0       	ldi	r24, 0x00	; 0
    128c:	08 95       	ret
			}else{
			debounce--;
		};
	};
	//button anti slice
	slice = 0;
    128e:	14 82       	std	Z+4, r1	; 0x04
    1290:	13 82       	std	Z+3, r1	; 0x03
	while((!read_pin)&&(slice<slice_limit)){
    1292:	85 81       	ldd	r24, Z+5	; 0x05
    1294:	96 81       	ldd	r25, Z+6	; 0x06
    1296:	18 16       	cp	r1, r24
    1298:	19 06       	cpc	r1, r25
    129a:	34 f0       	brlt	.+12     	; 0x12a8 <_ZN6Button7PressedEi+0x7c>
    129c:	36 c0       	rjmp	.+108    	; 0x130a <_ZN6Button7PressedEi+0xde>
    129e:	25 81       	ldd	r18, Z+5	; 0x05
    12a0:	36 81       	ldd	r19, Z+6	; 0x06
    12a2:	82 17       	cp	r24, r18
    12a4:	93 07       	cpc	r25, r19
    12a6:	8c f5       	brge	.+98     	; 0x130a <_ZN6Button7PressedEi+0xde>
		switch (_port){
    12a8:	80 81       	ld	r24, Z
    12aa:	83 34       	cpi	r24, 0x43	; 67
    12ac:	71 f0       	breq	.+28     	; 0x12ca <_ZN6Button7PressedEi+0x9e>
    12ae:	84 34       	cpi	r24, 0x44	; 68
    12b0:	b1 f0       	breq	.+44     	; 0x12de <_ZN6Button7PressedEi+0xb2>
    12b2:	82 34       	cpi	r24, 0x42	; 66
    12b4:	91 f5       	brne	.+100    	; 0x131a <_ZN6Button7PressedEi+0xee>
			case 'B': read_pin = ((1 << _pin) & PINB); break;
    12b6:	23 b1       	in	r18, 0x03	; 3
    12b8:	30 e0       	ldi	r19, 0x00	; 0
    12ba:	01 80       	ldd	r0, Z+1	; 0x01
    12bc:	02 c0       	rjmp	.+4      	; 0x12c2 <_ZN6Button7PressedEi+0x96>
    12be:	35 95       	asr	r19
    12c0:	27 95       	ror	r18
    12c2:	0a 94       	dec	r0
    12c4:	e2 f7       	brpl	.-8      	; 0x12be <_ZN6Button7PressedEi+0x92>
    12c6:	21 70       	andi	r18, 0x01	; 1
    12c8:	13 c0       	rjmp	.+38     	; 0x12f0 <_ZN6Button7PressedEi+0xc4>
			case 'C': read_pin = ((1 << _pin) & PINC); break;
    12ca:	26 b1       	in	r18, 0x06	; 6
    12cc:	30 e0       	ldi	r19, 0x00	; 0
    12ce:	01 80       	ldd	r0, Z+1	; 0x01
    12d0:	02 c0       	rjmp	.+4      	; 0x12d6 <_ZN6Button7PressedEi+0xaa>
    12d2:	35 95       	asr	r19
    12d4:	27 95       	ror	r18
    12d6:	0a 94       	dec	r0
    12d8:	e2 f7       	brpl	.-8      	; 0x12d2 <_ZN6Button7PressedEi+0xa6>
    12da:	21 70       	andi	r18, 0x01	; 1
    12dc:	09 c0       	rjmp	.+18     	; 0x12f0 <_ZN6Button7PressedEi+0xc4>
			case 'D': read_pin = ((1 << _pin) & PIND); break;
    12de:	29 b1       	in	r18, 0x09	; 9
    12e0:	30 e0       	ldi	r19, 0x00	; 0
    12e2:	01 80       	ldd	r0, Z+1	; 0x01
    12e4:	02 c0       	rjmp	.+4      	; 0x12ea <_ZN6Button7PressedEi+0xbe>
    12e6:	35 95       	asr	r19
    12e8:	27 95       	ror	r18
    12ea:	0a 94       	dec	r0
    12ec:	e2 f7       	brpl	.-8      	; 0x12e6 <_ZN6Button7PressedEi+0xba>
    12ee:	21 70       	andi	r18, 0x01	; 1
	#else
		//round up by default
		__ticks_dc = (uint32_t)(ceil(fabs(__tmp)));
	#endif

	__builtin_avr_delay_cycles(__ticks_dc);
    12f0:	89 ef       	ldi	r24, 0xF9	; 249
    12f2:	90 e0       	ldi	r25, 0x00	; 0
    12f4:	01 97       	sbiw	r24, 0x01	; 1
    12f6:	f1 f7       	brne	.-4      	; 0x12f4 <_ZN6Button7PressedEi+0xc8>
    12f8:	00 c0       	rjmp	.+0      	; 0x12fa <_ZN6Button7PressedEi+0xce>
    12fa:	00 00       	nop
			default: return false;
		}
		_delay_ms(1);
		slice++;
    12fc:	83 81       	ldd	r24, Z+3	; 0x03
    12fe:	94 81       	ldd	r25, Z+4	; 0x04
    1300:	01 96       	adiw	r24, 0x01	; 1
    1302:	94 83       	std	Z+4, r25	; 0x04
    1304:	83 83       	std	Z+3, r24	; 0x03
			debounce--;
		};
	};
	//button anti slice
	slice = 0;
	while((!read_pin)&&(slice<slice_limit)){
    1306:	22 23       	and	r18, r18
    1308:	51 f2       	breq	.-108    	; 0x129e <_ZN6Button7PressedEi+0x72>
			default: return false;
		}
		_delay_ms(1);
		slice++;
	}
	slice_limit=100;
    130a:	84 e6       	ldi	r24, 0x64	; 100
    130c:	90 e0       	ldi	r25, 0x00	; 0
    130e:	96 83       	std	Z+6, r25	; 0x06
    1310:	85 83       	std	Z+5, r24	; 0x05
	return true;
    1312:	81 e0       	ldi	r24, 0x01	; 1
    1314:	08 95       	ret
	if (debounce >= 0){
		switch (_port){
			case 'B': read_pin = ((1 << _pin) & PINB); break;
			case 'C': read_pin = ((1 << _pin) & PINC); break;
			case 'D': read_pin = ((1 << _pin) & PIND); break;
			default: return false;
    1316:	80 e0       	ldi	r24, 0x00	; 0
    1318:	08 95       	ret
	while((!read_pin)&&(slice<slice_limit)){
		switch (_port){
			case 'B': read_pin = ((1 << _pin) & PINB); break;
			case 'C': read_pin = ((1 << _pin) & PINC); break;
			case 'D': read_pin = ((1 << _pin) & PIND); break;
			default: return false;
    131a:	80 e0       	ldi	r24, 0x00	; 0
    131c:	08 95       	ret
			}else{
			debounce--;
		};
	};
	//button anti slice
	slice = 0;
    131e:	14 82       	std	Z+4, r1	; 0x04
    1320:	13 82       	std	Z+3, r1	; 0x03
    1322:	b7 cf       	rjmp	.-146    	; 0x1292 <_ZN6Button7PressedEi+0x66>

00001324 <_ZN7CarrageC1Ev>:
const int PARKING = 0;
const int HIGHTPOSITION = 1;
const int LOWPOSITION = 2;

// default constructor
Carrage::Carrage()
    1324:	cf 93       	push	r28
    1326:	df 93       	push	r29
    1328:	ec 01       	movw	r28, r24
    132a:	0e 94 d7 19 	call	0x33ae	; 0x33ae <_ZN5WheelC1Ev>
    132e:	ce 01       	movw	r24, r28
    1330:	8b 96       	adiw	r24, 0x2b	; 43
    1332:	0e 94 d7 19 	call	0x33ae	; 0x33ae <_ZN5WheelC1Ev>
    1336:	ce 01       	movw	r24, r28
    1338:	8a 5a       	subi	r24, 0xAA	; 170
    133a:	9f 4f       	sbci	r25, 0xFF	; 255
    133c:	0e 94 d7 19 	call	0x33ae	; 0x33ae <_ZN5WheelC1Ev>
    1340:	ce 01       	movw	r24, r28
    1342:	8f 57       	subi	r24, 0x7F	; 127
    1344:	9f 4f       	sbci	r25, 0xFF	; 255
    1346:	0e 94 d7 19 	call	0x33ae	; 0x33ae <_ZN5WheelC1Ev>
    134a:	ce 01       	movw	r24, r28
    134c:	84 55       	subi	r24, 0x54	; 84
    134e:	9f 4f       	sbci	r25, 0xFF	; 255
    1350:	0e 94 70 19 	call	0x32e0	; 0x32e0 <_ZN7SupportC1Ev>
{
} //Carrage
    1354:	df 91       	pop	r29
    1356:	cf 91       	pop	r28
    1358:	08 95       	ret

0000135a <_ZN7Carrage12beforeAdjastEv>:
	support.Init();
	_step =1;
	chechAll();
}

void Carrage::beforeAdjast(){
    135a:	cf 93       	push	r28
    135c:	df 93       	push	r29
    135e:	ec 01       	movw	r28, r24
	Wheel_1.initialHight();
    1360:	0e 94 17 1a 	call	0x342e	; 0x342e <_ZN5Wheel12initialHightEv>
	Wheel_2.initialHight();
    1364:	ce 01       	movw	r24, r28
    1366:	8b 96       	adiw	r24, 0x2b	; 43
    1368:	0e 94 17 1a 	call	0x342e	; 0x342e <_ZN5Wheel12initialHightEv>
	Wheel_3.initialHight();
    136c:	ce 01       	movw	r24, r28
    136e:	8a 5a       	subi	r24, 0xAA	; 170
    1370:	9f 4f       	sbci	r25, 0xFF	; 255
    1372:	0e 94 17 1a 	call	0x342e	; 0x342e <_ZN5Wheel12initialHightEv>
	Wheel_4.initialHight();
    1376:	ce 01       	movw	r24, r28
    1378:	8f 57       	subi	r24, 0x7F	; 127
    137a:	9f 4f       	sbci	r25, 0xFF	; 255
    137c:	0e 94 17 1a 	call	0x342e	; 0x342e <_ZN5Wheel12initialHightEv>
}
    1380:	df 91       	pop	r29
    1382:	cf 91       	pop	r28
    1384:	08 95       	ret

00001386 <_ZN7Carrage9SetLimitsEv>:
	Wheel_3.Down(step);
	Wheel_4.Down(step);
	Ajustment();
}

void Carrage::SetLimits(){
    1386:	cf 93       	push	r28
    1388:	df 93       	push	r29
    138a:	fc 01       	movw	r30, r24
	Wheel_1.maxHight = max;
    138c:	dc 01       	movw	r26, r24
    138e:	aa 54       	subi	r26, 0x4A	; 74
    1390:	bf 4f       	sbci	r27, 0xFF	; 255
    1392:	8d 91       	ld	r24, X+
    1394:	9d 91       	ld	r25, X+
    1396:	0d 90       	ld	r0, X+
    1398:	bc 91       	ld	r27, X
    139a:	a0 2d       	mov	r26, r0
    139c:	86 83       	std	Z+6, r24	; 0x06
    139e:	97 83       	std	Z+7, r25	; 0x07
    13a0:	a0 87       	std	Z+8, r26	; 0x08
    13a2:	b1 87       	std	Z+9, r27	; 0x09
	Wheel_2.maxHight = max;
    13a4:	81 ab       	std	Z+49, r24	; 0x31
    13a6:	92 ab       	std	Z+50, r25	; 0x32
    13a8:	a3 ab       	std	Z+51, r26	; 0x33
    13aa:	b4 ab       	std	Z+52, r27	; 0x34
	Wheel_3.maxHight = max;
    13ac:	ef 01       	movw	r28, r30
    13ae:	c4 5a       	subi	r28, 0xA4	; 164
    13b0:	df 4f       	sbci	r29, 0xFF	; 255
    13b2:	88 83       	st	Y, r24
    13b4:	99 83       	std	Y+1, r25	; 0x01
    13b6:	aa 83       	std	Y+2, r26	; 0x02
    13b8:	bb 83       	std	Y+3, r27	; 0x03
	Wheel_4.maxHight = max;
    13ba:	ab 96       	adiw	r28, 0x2b	; 43
    13bc:	88 83       	st	Y, r24
    13be:	99 83       	std	Y+1, r25	; 0x01
    13c0:	aa 83       	std	Y+2, r26	; 0x02
    13c2:	bb 83       	std	Y+3, r27	; 0x03
	
	Wheel_1.minHight = min;
    13c4:	df 01       	movw	r26, r30
    13c6:	ae 54       	subi	r26, 0x4E	; 78
    13c8:	bf 4f       	sbci	r27, 0xFF	; 255
    13ca:	8d 91       	ld	r24, X+
    13cc:	9d 91       	ld	r25, X+
    13ce:	0d 90       	ld	r0, X+
    13d0:	bc 91       	ld	r27, X
    13d2:	a0 2d       	mov	r26, r0
    13d4:	82 87       	std	Z+10, r24	; 0x0a
    13d6:	93 87       	std	Z+11, r25	; 0x0b
    13d8:	a4 87       	std	Z+12, r26	; 0x0c
    13da:	b5 87       	std	Z+13, r27	; 0x0d
	Wheel_2.minHight = min;
    13dc:	85 ab       	std	Z+53, r24	; 0x35
    13de:	96 ab       	std	Z+54, r25	; 0x36
    13e0:	a7 ab       	std	Z+55, r26	; 0x37
    13e2:	b0 af       	std	Z+56, r27	; 0x38
	Wheel_3.minHight = min;
    13e4:	a7 97       	sbiw	r28, 0x27	; 39
    13e6:	88 83       	st	Y, r24
    13e8:	99 83       	std	Y+1, r25	; 0x01
    13ea:	aa 83       	std	Y+2, r26	; 0x02
    13ec:	bb 83       	std	Y+3, r27	; 0x03
	Wheel_4.minHight = min;
    13ee:	e5 57       	subi	r30, 0x75	; 117
    13f0:	ff 4f       	sbci	r31, 0xFF	; 255
    13f2:	80 83       	st	Z, r24
    13f4:	91 83       	std	Z+1, r25	; 0x01
    13f6:	a2 83       	std	Z+2, r26	; 0x02
    13f8:	b3 83       	std	Z+3, r27	; 0x03
}
    13fa:	df 91       	pop	r29
    13fc:	cf 91       	pop	r28
    13fe:	08 95       	ret

00001400 <_ZN7Carrage19CheckLimitsSetHightEv>:

void Carrage::CheckLimitsSetHight(){
    1400:	cf 93       	push	r28
    1402:	df 93       	push	r29
    1404:	ec 01       	movw	r28, r24
	Wheel_1.SetLimitsSetHight();
    1406:	0e 94 c5 1a 	call	0x358a	; 0x358a <_ZN5Wheel17SetLimitsSetHightEv>
	Wheel_2.SetLimitsSetHight();
    140a:	ce 01       	movw	r24, r28
    140c:	8b 96       	adiw	r24, 0x2b	; 43
    140e:	0e 94 c5 1a 	call	0x358a	; 0x358a <_ZN5Wheel17SetLimitsSetHightEv>
	Wheel_3.SetLimitsSetHight();
    1412:	ce 01       	movw	r24, r28
    1414:	8a 5a       	subi	r24, 0xAA	; 170
    1416:	9f 4f       	sbci	r25, 0xFF	; 255
    1418:	0e 94 c5 1a 	call	0x358a	; 0x358a <_ZN5Wheel17SetLimitsSetHightEv>
	Wheel_4.SetLimitsSetHight();
    141c:	ce 01       	movw	r24, r28
    141e:	8f 57       	subi	r24, 0x7F	; 127
    1420:	9f 4f       	sbci	r25, 0xFF	; 255
    1422:	0e 94 c5 1a 	call	0x358a	; 0x358a <_ZN5Wheel17SetLimitsSetHightEv>
}
    1426:	df 91       	pop	r29
    1428:	cf 91       	pop	r28
    142a:	08 95       	ret

0000142c <_ZN7Carrage8chechAllEv>:
		if	(derWheel[3]>0){checked[3]=Wheel_3.Check();}else{checked[3]=true;}
		if	(derWheel[4]>0){checked[4]=Wheel_4.Check();}else{checked[4]=true;}	
		if  (checked[1]&&checked[2]&&checked[3]&&checked[4]){return true;}else{return false;}					
}

bool Carrage::chechAll(){
    142c:	4f 92       	push	r4
    142e:	5f 92       	push	r5
    1430:	6f 92       	push	r6
    1432:	7f 92       	push	r7
    1434:	8f 92       	push	r8
    1436:	9f 92       	push	r9
    1438:	af 92       	push	r10
    143a:	bf 92       	push	r11
    143c:	cf 92       	push	r12
    143e:	df 92       	push	r13
    1440:	ef 92       	push	r14
    1442:	ff 92       	push	r15
    1444:	0f 93       	push	r16
    1446:	1f 93       	push	r17
    1448:	cf 93       	push	r28
    144a:	df 93       	push	r29
    144c:	ec 01       	movw	r28, r24
	Wheel_1.get_hight();
    144e:	0e 94 db 19 	call	0x33b6	; 0x33b6 <_ZN5Wheel9get_hightEv>
	Wheel_2.get_hight();
    1452:	4e 01       	movw	r8, r28
    1454:	8b e2       	ldi	r24, 0x2B	; 43
    1456:	88 0e       	add	r8, r24
    1458:	91 1c       	adc	r9, r1
    145a:	c4 01       	movw	r24, r8
    145c:	0e 94 db 19 	call	0x33b6	; 0x33b6 <_ZN5Wheel9get_hightEv>
	Wheel_3.get_hight();
    1460:	5e 01       	movw	r10, r28
    1462:	96 e5       	ldi	r25, 0x56	; 86
    1464:	a9 0e       	add	r10, r25
    1466:	b1 1c       	adc	r11, r1
    1468:	c5 01       	movw	r24, r10
    146a:	0e 94 db 19 	call	0x33b6	; 0x33b6 <_ZN5Wheel9get_hightEv>
	Wheel_4.get_hight();
    146e:	6e 01       	movw	r12, r28
    1470:	e1 e8       	ldi	r30, 0x81	; 129
    1472:	ce 0e       	add	r12, r30
    1474:	d1 1c       	adc	r13, r1
    1476:	c6 01       	movw	r24, r12
    1478:	0e 94 db 19 	call	0x33b6	; 0x33b6 <_ZN5Wheel9get_hightEv>
	support.Adjast(10 ,1, 1 ,1 ,1 );
    147c:	3e 01       	movw	r6, r28
    147e:	fc ea       	ldi	r31, 0xAC	; 172
    1480:	6f 0e       	add	r6, r31
    1482:	71 1c       	adc	r7, r1
    1484:	ee 24       	eor	r14, r14
    1486:	e3 94       	inc	r14
    1488:	f1 2c       	mov	r15, r1
    148a:	01 e0       	ldi	r16, 0x01	; 1
    148c:	10 e0       	ldi	r17, 0x00	; 0
    148e:	21 e0       	ldi	r18, 0x01	; 1
    1490:	30 e0       	ldi	r19, 0x00	; 0
    1492:	41 e0       	ldi	r20, 0x01	; 1
    1494:	50 e0       	ldi	r21, 0x00	; 0
    1496:	6a e0       	ldi	r22, 0x0A	; 10
    1498:	70 e0       	ldi	r23, 0x00	; 0
    149a:	c3 01       	movw	r24, r6
    149c:	0e 94 76 19 	call	0x32ec	; 0x32ec <_ZN7Support6AdjastEiiiii>
	checked[1]=Wheel_1.Check();	
    14a0:	ce 01       	movw	r24, r28
    14a2:	0e 94 8e 1a 	call	0x351c	; 0x351c <_ZN5Wheel5CheckEv>
    14a6:	2e 01       	movw	r4, r28
    14a8:	99 ec       	ldi	r25, 0xC9	; 201
    14aa:	49 0e       	add	r4, r25
    14ac:	51 1c       	adc	r5, r1
    14ae:	90 e0       	ldi	r25, 0x00	; 0
    14b0:	f2 01       	movw	r30, r4
    14b2:	91 83       	std	Z+1, r25	; 0x01
    14b4:	80 83       	st	Z, r24
	checked[2]=Wheel_2.Check();
    14b6:	c4 01       	movw	r24, r8
    14b8:	0e 94 8e 1a 	call	0x351c	; 0x351c <_ZN5Wheel5CheckEv>
    14bc:	fe 01       	movw	r30, r28
    14be:	e5 53       	subi	r30, 0x35	; 53
    14c0:	ff 4f       	sbci	r31, 0xFF	; 255
    14c2:	90 e0       	ldi	r25, 0x00	; 0
    14c4:	91 83       	std	Z+1, r25	; 0x01
    14c6:	80 83       	st	Z, r24
	checked[3]=Wheel_3.Check();
    14c8:	c5 01       	movw	r24, r10
    14ca:	0e 94 8e 1a 	call	0x351c	; 0x351c <_ZN5Wheel5CheckEv>
    14ce:	fe 01       	movw	r30, r28
    14d0:	e3 53       	subi	r30, 0x33	; 51
    14d2:	ff 4f       	sbci	r31, 0xFF	; 255
    14d4:	90 e0       	ldi	r25, 0x00	; 0
    14d6:	91 83       	std	Z+1, r25	; 0x01
    14d8:	80 83       	st	Z, r24
	checked[4]=Wheel_4.Check();
    14da:	c6 01       	movw	r24, r12
    14dc:	0e 94 8e 1a 	call	0x351c	; 0x351c <_ZN5Wheel5CheckEv>
    14e0:	fe 01       	movw	r30, r28
    14e2:	e1 53       	subi	r30, 0x31	; 49
    14e4:	ff 4f       	sbci	r31, 0xFF	; 255
    14e6:	90 e0       	ldi	r25, 0x00	; 0
    14e8:	91 83       	std	Z+1, r25	; 0x01
    14ea:	80 83       	st	Z, r24
	support.Adjast(10 ,2, 2 ,2 ,2 );
    14ec:	68 94       	set
    14ee:	ee 24       	eor	r14, r14
    14f0:	e1 f8       	bld	r14, 1
    14f2:	f1 2c       	mov	r15, r1
    14f4:	02 e0       	ldi	r16, 0x02	; 2
    14f6:	10 e0       	ldi	r17, 0x00	; 0
    14f8:	22 e0       	ldi	r18, 0x02	; 2
    14fa:	30 e0       	ldi	r19, 0x00	; 0
    14fc:	42 e0       	ldi	r20, 0x02	; 2
    14fe:	50 e0       	ldi	r21, 0x00	; 0
    1500:	6a e0       	ldi	r22, 0x0A	; 10
    1502:	70 e0       	ldi	r23, 0x00	; 0
    1504:	c3 01       	movw	r24, r6
    1506:	0e 94 76 19 	call	0x32ec	; 0x32ec <_ZN7Support6AdjastEiiiii>
	if  (checked[1]&&checked[2]&&checked[3]&&checked[4]){return true;}else{return false;}
    150a:	f2 01       	movw	r30, r4
    150c:	80 81       	ld	r24, Z
    150e:	91 81       	ldd	r25, Z+1	; 0x01
    1510:	89 2b       	or	r24, r25
    1512:	99 f0       	breq	.+38     	; 0x153a <_ZN7Carrage8chechAllEv+0x10e>
    1514:	32 96       	adiw	r30, 0x02	; 2
    1516:	80 81       	ld	r24, Z
    1518:	91 81       	ldd	r25, Z+1	; 0x01
    151a:	89 2b       	or	r24, r25
    151c:	81 f0       	breq	.+32     	; 0x153e <_ZN7Carrage8chechAllEv+0x112>
    151e:	32 96       	adiw	r30, 0x02	; 2
    1520:	80 81       	ld	r24, Z
    1522:	91 81       	ldd	r25, Z+1	; 0x01
    1524:	89 2b       	or	r24, r25
    1526:	69 f0       	breq	.+26     	; 0x1542 <_ZN7Carrage8chechAllEv+0x116>
    1528:	c1 53       	subi	r28, 0x31	; 49
    152a:	df 4f       	sbci	r29, 0xFF	; 255
    152c:	81 e0       	ldi	r24, 0x01	; 1
    152e:	28 81       	ld	r18, Y
    1530:	39 81       	ldd	r19, Y+1	; 0x01
    1532:	23 2b       	or	r18, r19
    1534:	39 f4       	brne	.+14     	; 0x1544 <_ZN7Carrage8chechAllEv+0x118>
    1536:	80 e0       	ldi	r24, 0x00	; 0
    1538:	05 c0       	rjmp	.+10     	; 0x1544 <_ZN7Carrage8chechAllEv+0x118>
    153a:	80 e0       	ldi	r24, 0x00	; 0
    153c:	03 c0       	rjmp	.+6      	; 0x1544 <_ZN7Carrage8chechAllEv+0x118>
    153e:	80 e0       	ldi	r24, 0x00	; 0
    1540:	01 c0       	rjmp	.+2      	; 0x1544 <_ZN7Carrage8chechAllEv+0x118>
    1542:	80 e0       	ldi	r24, 0x00	; 0
	
}
    1544:	df 91       	pop	r29
    1546:	cf 91       	pop	r28
    1548:	1f 91       	pop	r17
    154a:	0f 91       	pop	r16
    154c:	ff 90       	pop	r15
    154e:	ef 90       	pop	r14
    1550:	df 90       	pop	r13
    1552:	cf 90       	pop	r12
    1554:	bf 90       	pop	r11
    1556:	af 90       	pop	r10
    1558:	9f 90       	pop	r9
    155a:	8f 90       	pop	r8
    155c:	7f 90       	pop	r7
    155e:	6f 90       	pop	r6
    1560:	5f 90       	pop	r5
    1562:	4f 90       	pop	r4
    1564:	08 95       	ret

00001566 <_ZN7Carrage4InitER5WheelS1_S1_S1_>:
// default constructor
Carrage::Carrage()
{
} //Carrage

void Carrage::Init(Wheel &_Wheel_1, Wheel &_Wheel_2, Wheel &_Wheel_3, Wheel &_Wheel_4){
    1566:	0f 93       	push	r16
    1568:	1f 93       	push	r17
    156a:	cf 93       	push	r28
    156c:	df 93       	push	r29
    156e:	ec 01       	movw	r28, r24
	Wheel_1 = _Wheel_1;
    1570:	8b e2       	ldi	r24, 0x2B	; 43
    1572:	fb 01       	movw	r30, r22
    1574:	de 01       	movw	r26, r28
    1576:	01 90       	ld	r0, Z+
    1578:	0d 92       	st	X+, r0
    157a:	8a 95       	dec	r24
    157c:	e1 f7       	brne	.-8      	; 0x1576 <_ZN7Carrage4InitER5WheelS1_S1_S1_+0x10>
	Wheel_2 = _Wheel_2;
    157e:	8b e2       	ldi	r24, 0x2B	; 43
    1580:	fa 01       	movw	r30, r20
    1582:	de 01       	movw	r26, r28
    1584:	9b 96       	adiw	r26, 0x2b	; 43
    1586:	01 90       	ld	r0, Z+
    1588:	0d 92       	st	X+, r0
    158a:	8a 95       	dec	r24
    158c:	e1 f7       	brne	.-8      	; 0x1586 <_ZN7Carrage4InitER5WheelS1_S1_S1_+0x20>
	Wheel_3 = _Wheel_3;
    158e:	de 01       	movw	r26, r28
    1590:	aa 5a       	subi	r26, 0xAA	; 170
    1592:	bf 4f       	sbci	r27, 0xFF	; 255
    1594:	8b e2       	ldi	r24, 0x2B	; 43
    1596:	f9 01       	movw	r30, r18
    1598:	01 90       	ld	r0, Z+
    159a:	0d 92       	st	X+, r0
    159c:	8a 95       	dec	r24
    159e:	e1 f7       	brne	.-8      	; 0x1598 <_ZN7Carrage4InitER5WheelS1_S1_S1_+0x32>
	Wheel_4 = _Wheel_4;
    15a0:	de 01       	movw	r26, r28
    15a2:	af 57       	subi	r26, 0x7F	; 127
    15a4:	bf 4f       	sbci	r27, 0xFF	; 255
    15a6:	8b e2       	ldi	r24, 0x2B	; 43
    15a8:	f8 01       	movw	r30, r16
    15aa:	01 90       	ld	r0, Z+
    15ac:	0d 92       	st	X+, r0
    15ae:	8a 95       	dec	r24
    15b0:	e1 f7       	brne	.-8      	; 0x15aa <_ZN7Carrage4InitER5WheelS1_S1_S1_+0x44>
	support.Init();
    15b2:	ce 01       	movw	r24, r28
    15b4:	84 55       	subi	r24, 0x54	; 84
    15b6:	9f 4f       	sbci	r25, 0xFF	; 255
    15b8:	0e 94 71 19 	call	0x32e2	; 0x32e2 <_ZN7Support4InitEv>
	_step =1;
    15bc:	fe 01       	movw	r30, r28
    15be:	ed 52       	subi	r30, 0x2D	; 45
    15c0:	ff 4f       	sbci	r31, 0xFF	; 255
    15c2:	81 e0       	ldi	r24, 0x01	; 1
    15c4:	90 e0       	ldi	r25, 0x00	; 0
    15c6:	91 83       	std	Z+1, r25	; 0x01
    15c8:	80 83       	st	Z, r24
	chechAll();
    15ca:	ce 01       	movw	r24, r28
    15cc:	0e 94 16 0a 	call	0x142c	; 0x142c <_ZN7Carrage8chechAllEv>
}
    15d0:	df 91       	pop	r29
    15d2:	cf 91       	pop	r28
    15d4:	1f 91       	pop	r17
    15d6:	0f 91       	pop	r16
    15d8:	08 95       	ret

000015da <_ZN7Carrage7getStepEv>:
	support.Adjast(10 ,2, 2 ,2 ,2 );
	if  (checked[1]&&checked[2]&&checked[3]&&checked[4]){return true;}else{return false;}
	
}

int Carrage::getStep(){
    15da:	cf 93       	push	r28
    15dc:	df 93       	push	r29
	int step = 0;
	int i;
	sort_array[0] = Wheel_1.step;
    15de:	fc 01       	movw	r30, r24
    15e0:	e6 54       	subi	r30, 0x46	; 70
    15e2:	ff 4f       	sbci	r31, 0xFF	; 255
    15e4:	dc 01       	movw	r26, r24
    15e6:	92 96       	adiw	r26, 0x22	; 34
    15e8:	2d 91       	ld	r18, X+
    15ea:	3c 91       	ld	r19, X
    15ec:	93 97       	sbiw	r26, 0x23	; 35
    15ee:	31 83       	std	Z+1, r19	; 0x01
    15f0:	20 83       	st	Z, r18
	sort_array[1] = Wheel_2.step;
    15f2:	a4 54       	subi	r26, 0x44	; 68
    15f4:	bf 4f       	sbci	r27, 0xFF	; 255
    15f6:	ec 01       	movw	r28, r24
    15f8:	c3 5b       	subi	r28, 0xB3	; 179
    15fa:	df 4f       	sbci	r29, 0xFF	; 255
    15fc:	28 81       	ld	r18, Y
    15fe:	39 81       	ldd	r19, Y+1	; 0x01
    1600:	11 96       	adiw	r26, 0x01	; 1
    1602:	3c 93       	st	X, r19
    1604:	2e 93       	st	-X, r18
	sort_array[2] = Wheel_3.step;
    1606:	12 96       	adiw	r26, 0x02	; 2
    1608:	ab 96       	adiw	r28, 0x2b	; 43
    160a:	28 81       	ld	r18, Y
    160c:	39 81       	ldd	r19, Y+1	; 0x01
    160e:	11 96       	adiw	r26, 0x01	; 1
    1610:	3c 93       	st	X, r19
    1612:	2e 93       	st	-X, r18
	sort_array[3] = Wheel_4.step;
    1614:	12 96       	adiw	r26, 0x02	; 2
    1616:	ab 96       	adiw	r28, 0x2b	; 43
    1618:	28 81       	ld	r18, Y
    161a:	39 81       	ldd	r19, Y+1	; 0x01
    161c:	2d 93       	st	X+, r18
    161e:	3c 93       	st	X, r19
    1620:	df 01       	movw	r26, r30
    1622:	8e 53       	subi	r24, 0x3E	; 62
    1624:	9f 4f       	sbci	r25, 0xFF	; 255
	i = 0;
	while(i<4){
		if (sort_array[i]>0){step = sort_array[i];i=5;}
    1626:	21 91       	ld	r18, Z+
    1628:	31 91       	ld	r19, Z+
    162a:	12 16       	cp	r1, r18
    162c:	13 06       	cpc	r1, r19
    162e:	24 f0       	brlt	.+8      	; 0x1638 <_ZN7Carrage7getStepEv+0x5e>
	sort_array[0] = Wheel_1.step;
	sort_array[1] = Wheel_2.step;
	sort_array[2] = Wheel_3.step;
	sort_array[3] = Wheel_4.step;
	i = 0;
	while(i<4){
    1630:	e8 17       	cp	r30, r24
    1632:	f9 07       	cpc	r31, r25
    1634:	c1 f7       	brne	.-16     	; 0x1626 <_ZN7Carrage7getStepEv+0x4c>
    1636:	16 c0       	rjmp	.+44     	; 0x1664 <_ZN7Carrage7getStepEv+0x8a>
		if (sort_array[i]>0){step = sort_array[i];i=5;}
		i++;
	};
	
	if (step == 0){return 0;};
    1638:	21 15       	cp	r18, r1
    163a:	31 05       	cpc	r19, r1
    163c:	b1 f0       	breq	.+44     	; 0x166a <_ZN7Carrage7getStepEv+0x90>
		
	i = 0;	
	while(i<4){
		if ( sort_array[i] > 0){
    163e:	4d 91       	ld	r20, X+
    1640:	5d 91       	ld	r21, X+
    1642:	14 16       	cp	r1, r20
    1644:	15 06       	cpc	r1, r21
    1646:	24 f4       	brge	.+8      	; 0x1650 <_ZN7Carrage7getStepEv+0x76>
    1648:	42 17       	cp	r20, r18
    164a:	53 07       	cpc	r21, r19
    164c:	0c f4       	brge	.+2      	; 0x1650 <_ZN7Carrage7getStepEv+0x76>
    164e:	9a 01       	movw	r18, r20
	};
	
	if (step == 0){return 0;};
		
	i = 0;	
	while(i<4){
    1650:	a8 17       	cp	r26, r24
    1652:	b9 07       	cpc	r27, r25
    1654:	a1 f7       	brne	.-24     	; 0x163e <_ZN7Carrage7getStepEv+0x64>
    1656:	c9 01       	movw	r24, r18
    1658:	23 33       	cpi	r18, 0x33	; 51
    165a:	31 05       	cpc	r19, r1
    165c:	44 f0       	brlt	.+16     	; 0x166e <_ZN7Carrage7getStepEv+0x94>
    165e:	82 e3       	ldi	r24, 0x32	; 50
    1660:	90 e0       	ldi	r25, 0x00	; 0
    1662:	05 c0       	rjmp	.+10     	; 0x166e <_ZN7Carrage7getStepEv+0x94>
	while(i<4){
		if (sort_array[i]>0){step = sort_array[i];i=5;}
		i++;
	};
	
	if (step == 0){return 0;};
    1664:	80 e0       	ldi	r24, 0x00	; 0
    1666:	90 e0       	ldi	r25, 0x00	; 0
    1668:	02 c0       	rjmp	.+4      	; 0x166e <_ZN7Carrage7getStepEv+0x94>
    166a:	80 e0       	ldi	r24, 0x00	; 0
    166c:	90 e0       	ldi	r25, 0x00	; 0
	}
	//step = sort_array[0];
	step=step;
	if (step>50){step = 50;}
	return step;
} 
    166e:	df 91       	pop	r29
    1670:	cf 91       	pop	r28
    1672:	08 95       	ret

00001674 <_ZN7Carrage20Fast_print_LSD_hightE5Wheel>:

void Carrage::Fast_print_LSD_hight(Wheel wheel){
    1674:	cf 92       	push	r12
    1676:	df 92       	push	r13
    1678:	ef 92       	push	r14
    167a:	ff 92       	push	r15
    167c:	0f 93       	push	r16
    167e:	1f 93       	push	r17
    1680:	cf 93       	push	r28
    1682:	df 93       	push	r29
    1684:	cd b7       	in	r28, 0x3d	; 61
    1686:	de b7       	in	r29, 0x3e	; 62
	int hight_pos_x;
	int hight_pos_y;
	int n = wheel.number;
	int Char_wheel[6];
	//get position
	switch(n){
    1688:	8b 85       	ldd	r24, Y+11	; 0x0b
    168a:	9c 85       	ldd	r25, Y+12	; 0x0c
    168c:	82 30       	cpi	r24, 0x02	; 2
    168e:	91 05       	cpc	r25, r1
    1690:	71 f0       	breq	.+28     	; 0x16ae <_ZN7Carrage20Fast_print_LSD_hightE5Wheel+0x3a>
    1692:	1c f4       	brge	.+6      	; 0x169a <_ZN7Carrage20Fast_print_LSD_hightE5Wheel+0x26>
    1694:	01 97       	sbiw	r24, 0x01	; 1
    1696:	39 f0       	breq	.+14     	; 0x16a6 <_ZN7Carrage20Fast_print_LSD_hightE5Wheel+0x32>
    1698:	1d c0       	rjmp	.+58     	; 0x16d4 <_ZN7Carrage20Fast_print_LSD_hightE5Wheel+0x60>
    169a:	83 30       	cpi	r24, 0x03	; 3
    169c:	91 05       	cpc	r25, r1
    169e:	71 f0       	breq	.+28     	; 0x16bc <_ZN7Carrage20Fast_print_LSD_hightE5Wheel+0x48>
    16a0:	04 97       	sbiw	r24, 0x04	; 4
    16a2:	a1 f0       	breq	.+40     	; 0x16cc <_ZN7Carrage20Fast_print_LSD_hightE5Wheel+0x58>
    16a4:	17 c0       	rjmp	.+46     	; 0x16d4 <_ZN7Carrage20Fast_print_LSD_hightE5Wheel+0x60>
		case 1:hight_pos_x = 0; hight_pos_y = 1 ; break;
    16a6:	cc 24       	eor	r12, r12
    16a8:	c3 94       	inc	r12
    16aa:	d1 2c       	mov	r13, r1
    16ac:	13 c0       	rjmp	.+38     	; 0x16d4 <_ZN7Carrage20Fast_print_LSD_hightE5Wheel+0x60>
		case 2:hight_pos_x = 11; hight_pos_y = 1 ;break;
    16ae:	cc 24       	eor	r12, r12
    16b0:	c3 94       	inc	r12
    16b2:	0f 2e       	mov	r0, r31
    16b4:	fb e0       	ldi	r31, 0x0B	; 11
    16b6:	df 2e       	mov	r13, r31
    16b8:	f0 2d       	mov	r31, r0
    16ba:	0c c0       	rjmp	.+24     	; 0x16d4 <_ZN7Carrage20Fast_print_LSD_hightE5Wheel+0x60>
		case 3:hight_pos_x = 11; hight_pos_y = 4 ;break;
    16bc:	68 94       	set
    16be:	cc 24       	eor	r12, r12
    16c0:	c2 f8       	bld	r12, 2
    16c2:	0f 2e       	mov	r0, r31
    16c4:	fb e0       	ldi	r31, 0x0B	; 11
    16c6:	df 2e       	mov	r13, r31
    16c8:	f0 2d       	mov	r31, r0
    16ca:	04 c0       	rjmp	.+8      	; 0x16d4 <_ZN7Carrage20Fast_print_LSD_hightE5Wheel+0x60>
		case 4:hight_pos_x = 0; hight_pos_y = 4 ;break;
    16cc:	68 94       	set
    16ce:	cc 24       	eor	r12, r12
    16d0:	c2 f8       	bld	r12, 2
    16d2:	d1 2c       	mov	r13, r1
	}
	float hight = wheel.get_hight();
    16d4:	ce 01       	movw	r24, r28
    16d6:	0b 96       	adiw	r24, 0x0b	; 11
    16d8:	0e 94 db 19 	call	0x33b6	; 0x33b6 <_ZN5Wheel9get_hightEv>
    16dc:	8b 01       	movw	r16, r22
    16de:	9c 01       	movw	r18, r24
	Lcd_printf2(hight_pos_x, hight_pos_y, FONT_1X, hight, 2);
    16e0:	68 94       	set
    16e2:	ee 24       	eor	r14, r14
    16e4:	e1 f8       	bld	r14, 1
    16e6:	f1 2c       	mov	r15, r1
    16e8:	41 e0       	ldi	r20, 0x01	; 1
    16ea:	6c 2d       	mov	r22, r12
    16ec:	8d 2d       	mov	r24, r13
    16ee:	0e 94 b6 11 	call	0x236c	; 0x236c <_Z11Lcd_printf2hh11LcdFontSizefi>
	Lcd_update();
    16f2:	0e 94 ac 0f 	call	0x1f58	; 0x1f58 <_Z10Lcd_updatev>
}
    16f6:	df 91       	pop	r29
    16f8:	cf 91       	pop	r28
    16fa:	1f 91       	pop	r17
    16fc:	0f 91       	pop	r16
    16fe:	ff 90       	pop	r15
    1700:	ef 90       	pop	r14
    1702:	df 90       	pop	r13
    1704:	cf 90       	pop	r12
    1706:	08 95       	ret

00001708 <_ZN7Carrage17chechWheelsBeforeEv>:
			if(derWheel[4]>0){Wheel_4.malfuction = true;}
		}
	}
}

bool Carrage::chechWheelsBefore(){
    1708:	4f 92       	push	r4
    170a:	5f 92       	push	r5
    170c:	6f 92       	push	r6
    170e:	7f 92       	push	r7
    1710:	8f 92       	push	r8
    1712:	9f 92       	push	r9
    1714:	af 92       	push	r10
    1716:	bf 92       	push	r11
    1718:	cf 92       	push	r12
    171a:	df 92       	push	r13
    171c:	ef 92       	push	r14
    171e:	ff 92       	push	r15
    1720:	0f 93       	push	r16
    1722:	1f 93       	push	r17
    1724:	cf 93       	push	r28
    1726:	df 93       	push	r29
    1728:	ec 01       	movw	r28, r24
		derWheel[1] = Wheel_1.takeDerection();
    172a:	0e 94 27 1a 	call	0x344e	; 0x344e <_ZN5Wheel13takeDerectionEv>
    172e:	6e 01       	movw	r12, r28
    1730:	93 ec       	ldi	r25, 0xC3	; 195
    1732:	c9 0e       	add	r12, r25
    1734:	d1 1c       	adc	r13, r1
    1736:	f6 01       	movw	r30, r12
    1738:	80 83       	st	Z, r24
		Fast_print_LSD_hight(Wheel_1);
    173a:	8d b7       	in	r24, 0x3d	; 61
    173c:	9e b7       	in	r25, 0x3e	; 62
    173e:	8b 97       	sbiw	r24, 0x2b	; 43
    1740:	0f b6       	in	r0, 0x3f	; 63
    1742:	f8 94       	cli
    1744:	9e bf       	out	0x3e, r25	; 62
    1746:	0f be       	out	0x3f, r0	; 63
    1748:	8d bf       	out	0x3d, r24	; 61
    174a:	ad b7       	in	r26, 0x3d	; 61
    174c:	be b7       	in	r27, 0x3e	; 62
    174e:	11 96       	adiw	r26, 0x01	; 1
    1750:	8b e2       	ldi	r24, 0x2B	; 43
    1752:	fe 01       	movw	r30, r28
    1754:	01 90       	ld	r0, Z+
    1756:	0d 92       	st	X+, r0
    1758:	8a 95       	dec	r24
    175a:	e1 f7       	brne	.-8      	; 0x1754 <_ZN7Carrage17chechWheelsBeforeEv+0x4c>
    175c:	ce 01       	movw	r24, r28
    175e:	0e 94 3a 0b 	call	0x1674	; 0x1674 <_ZN7Carrage20Fast_print_LSD_hightE5Wheel>
		derWheel[2] = Wheel_2.takeDerection();
    1762:	5e 01       	movw	r10, r28
    1764:	9b e2       	ldi	r25, 0x2B	; 43
    1766:	a9 0e       	add	r10, r25
    1768:	b1 1c       	adc	r11, r1
    176a:	ed b7       	in	r30, 0x3d	; 61
    176c:	fe b7       	in	r31, 0x3e	; 62
    176e:	bb 96       	adiw	r30, 0x2b	; 43
    1770:	0f b6       	in	r0, 0x3f	; 63
    1772:	f8 94       	cli
    1774:	fe bf       	out	0x3e, r31	; 62
    1776:	0f be       	out	0x3f, r0	; 63
    1778:	ed bf       	out	0x3d, r30	; 61
    177a:	c5 01       	movw	r24, r10
    177c:	0e 94 27 1a 	call	0x344e	; 0x344e <_ZN5Wheel13takeDerectionEv>
    1780:	4e 01       	movw	r8, r28
    1782:	f4 ec       	ldi	r31, 0xC4	; 196
    1784:	8f 0e       	add	r8, r31
    1786:	91 1c       	adc	r9, r1
    1788:	f4 01       	movw	r30, r8
    178a:	80 83       	st	Z, r24
		Fast_print_LSD_hight(Wheel_2);
    178c:	8d b7       	in	r24, 0x3d	; 61
    178e:	9e b7       	in	r25, 0x3e	; 62
    1790:	8b 97       	sbiw	r24, 0x2b	; 43
    1792:	0f b6       	in	r0, 0x3f	; 63
    1794:	f8 94       	cli
    1796:	9e bf       	out	0x3e, r25	; 62
    1798:	0f be       	out	0x3f, r0	; 63
    179a:	8d bf       	out	0x3d, r24	; 61
    179c:	ad b7       	in	r26, 0x3d	; 61
    179e:	be b7       	in	r27, 0x3e	; 62
    17a0:	11 96       	adiw	r26, 0x01	; 1
    17a2:	8b e2       	ldi	r24, 0x2B	; 43
    17a4:	f5 01       	movw	r30, r10
    17a6:	01 90       	ld	r0, Z+
    17a8:	0d 92       	st	X+, r0
    17aa:	8a 95       	dec	r24
    17ac:	e1 f7       	brne	.-8      	; 0x17a6 <_ZN7Carrage17chechWheelsBeforeEv+0x9e>
    17ae:	ce 01       	movw	r24, r28
    17b0:	0e 94 3a 0b 	call	0x1674	; 0x1674 <_ZN7Carrage20Fast_print_LSD_hightE5Wheel>
		derWheel[3] = Wheel_3.takeDerection();
    17b4:	3e 01       	movw	r6, r28
    17b6:	96 e5       	ldi	r25, 0x56	; 86
    17b8:	69 0e       	add	r6, r25
    17ba:	71 1c       	adc	r7, r1
    17bc:	ed b7       	in	r30, 0x3d	; 61
    17be:	fe b7       	in	r31, 0x3e	; 62
    17c0:	bb 96       	adiw	r30, 0x2b	; 43
    17c2:	0f b6       	in	r0, 0x3f	; 63
    17c4:	f8 94       	cli
    17c6:	fe bf       	out	0x3e, r31	; 62
    17c8:	0f be       	out	0x3f, r0	; 63
    17ca:	ed bf       	out	0x3d, r30	; 61
    17cc:	c3 01       	movw	r24, r6
    17ce:	0e 94 27 1a 	call	0x344e	; 0x344e <_ZN5Wheel13takeDerectionEv>
    17d2:	8e 01       	movw	r16, r28
    17d4:	0b 53       	subi	r16, 0x3B	; 59
    17d6:	1f 4f       	sbci	r17, 0xFF	; 255
    17d8:	f8 01       	movw	r30, r16
    17da:	80 83       	st	Z, r24
		Fast_print_LSD_hight(Wheel_3);
    17dc:	8d b7       	in	r24, 0x3d	; 61
    17de:	9e b7       	in	r25, 0x3e	; 62
    17e0:	8b 97       	sbiw	r24, 0x2b	; 43
    17e2:	0f b6       	in	r0, 0x3f	; 63
    17e4:	f8 94       	cli
    17e6:	9e bf       	out	0x3e, r25	; 62
    17e8:	0f be       	out	0x3f, r0	; 63
    17ea:	8d bf       	out	0x3d, r24	; 61
    17ec:	ad b7       	in	r26, 0x3d	; 61
    17ee:	be b7       	in	r27, 0x3e	; 62
    17f0:	11 96       	adiw	r26, 0x01	; 1
    17f2:	8b e2       	ldi	r24, 0x2B	; 43
    17f4:	f3 01       	movw	r30, r6
    17f6:	01 90       	ld	r0, Z+
    17f8:	0d 92       	st	X+, r0
    17fa:	8a 95       	dec	r24
    17fc:	e1 f7       	brne	.-8      	; 0x17f6 <_ZN7Carrage17chechWheelsBeforeEv+0xee>
    17fe:	ce 01       	movw	r24, r28
    1800:	0e 94 3a 0b 	call	0x1674	; 0x1674 <_ZN7Carrage20Fast_print_LSD_hightE5Wheel>
		derWheel[4] = Wheel_4.takeDerection();
    1804:	2e 01       	movw	r4, r28
    1806:	91 e8       	ldi	r25, 0x81	; 129
    1808:	49 0e       	add	r4, r25
    180a:	51 1c       	adc	r5, r1
    180c:	ed b7       	in	r30, 0x3d	; 61
    180e:	fe b7       	in	r31, 0x3e	; 62
    1810:	bb 96       	adiw	r30, 0x2b	; 43
    1812:	0f b6       	in	r0, 0x3f	; 63
    1814:	f8 94       	cli
    1816:	fe bf       	out	0x3e, r31	; 62
    1818:	0f be       	out	0x3f, r0	; 63
    181a:	ed bf       	out	0x3d, r30	; 61
    181c:	c2 01       	movw	r24, r4
    181e:	0e 94 27 1a 	call	0x344e	; 0x344e <_ZN5Wheel13takeDerectionEv>
    1822:	7e 01       	movw	r14, r28
    1824:	f6 ec       	ldi	r31, 0xC6	; 198
    1826:	ef 0e       	add	r14, r31
    1828:	f1 1c       	adc	r15, r1
    182a:	f7 01       	movw	r30, r14
    182c:	80 83       	st	Z, r24
		Fast_print_LSD_hight(Wheel_4);
    182e:	8d b7       	in	r24, 0x3d	; 61
    1830:	9e b7       	in	r25, 0x3e	; 62
    1832:	8b 97       	sbiw	r24, 0x2b	; 43
    1834:	0f b6       	in	r0, 0x3f	; 63
    1836:	f8 94       	cli
    1838:	9e bf       	out	0x3e, r25	; 62
    183a:	0f be       	out	0x3f, r0	; 63
    183c:	8d bf       	out	0x3d, r24	; 61
    183e:	ad b7       	in	r26, 0x3d	; 61
    1840:	be b7       	in	r27, 0x3e	; 62
    1842:	11 96       	adiw	r26, 0x01	; 1
    1844:	8b e2       	ldi	r24, 0x2B	; 43
    1846:	f2 01       	movw	r30, r4
    1848:	01 90       	ld	r0, Z+
    184a:	0d 92       	st	X+, r0
    184c:	8a 95       	dec	r24
    184e:	e1 f7       	brne	.-8      	; 0x1848 <_ZN7Carrage17chechWheelsBeforeEv+0x140>
    1850:	ce 01       	movw	r24, r28
    1852:	0e 94 3a 0b 	call	0x1674	; 0x1674 <_ZN7Carrage20Fast_print_LSD_hightE5Wheel>
		support.Adjast(10 ,derWheel[1], derWheel[2] ,derWheel[3] ,derWheel[4] );
    1856:	ed b7       	in	r30, 0x3d	; 61
    1858:	fe b7       	in	r31, 0x3e	; 62
    185a:	bb 96       	adiw	r30, 0x2b	; 43
    185c:	0f b6       	in	r0, 0x3f	; 63
    185e:	f8 94       	cli
    1860:	fe bf       	out	0x3e, r31	; 62
    1862:	0f be       	out	0x3f, r0	; 63
    1864:	ed bf       	out	0x3d, r30	; 61
    1866:	f7 01       	movw	r30, r14
    1868:	e0 80       	ld	r14, Z
    186a:	f1 2c       	mov	r15, r1
    186c:	f8 01       	movw	r30, r16
    186e:	00 81       	ld	r16, Z
    1870:	10 e0       	ldi	r17, 0x00	; 0
    1872:	f4 01       	movw	r30, r8
    1874:	20 81       	ld	r18, Z
    1876:	30 e0       	ldi	r19, 0x00	; 0
    1878:	f6 01       	movw	r30, r12
    187a:	40 81       	ld	r20, Z
    187c:	50 e0       	ldi	r21, 0x00	; 0
    187e:	6a e0       	ldi	r22, 0x0A	; 10
    1880:	70 e0       	ldi	r23, 0x00	; 0
    1882:	ce 01       	movw	r24, r28
    1884:	84 55       	subi	r24, 0x54	; 84
    1886:	9f 4f       	sbci	r25, 0xFF	; 255
    1888:	0e 94 76 19 	call	0x32ec	; 0x32ec <_ZN7Support6AdjastEiiiii>
		if	(derWheel[1]>0){checked[1]=Wheel_1.Check();}else{checked[1]=true;}
    188c:	f6 01       	movw	r30, r12
    188e:	80 81       	ld	r24, Z
    1890:	88 23       	and	r24, r24
    1892:	51 f0       	breq	.+20     	; 0x18a8 <_ZN7Carrage17chechWheelsBeforeEv+0x1a0>
    1894:	ce 01       	movw	r24, r28
    1896:	0e 94 8e 1a 	call	0x351c	; 0x351c <_ZN5Wheel5CheckEv>
    189a:	fe 01       	movw	r30, r28
    189c:	e7 53       	subi	r30, 0x37	; 55
    189e:	ff 4f       	sbci	r31, 0xFF	; 255
    18a0:	90 e0       	ldi	r25, 0x00	; 0
    18a2:	91 83       	std	Z+1, r25	; 0x01
    18a4:	80 83       	st	Z, r24
    18a6:	07 c0       	rjmp	.+14     	; 0x18b6 <_ZN7Carrage17chechWheelsBeforeEv+0x1ae>
    18a8:	81 e0       	ldi	r24, 0x01	; 1
    18aa:	90 e0       	ldi	r25, 0x00	; 0
    18ac:	fe 01       	movw	r30, r28
    18ae:	e7 53       	subi	r30, 0x37	; 55
    18b0:	ff 4f       	sbci	r31, 0xFF	; 255
    18b2:	91 83       	std	Z+1, r25	; 0x01
    18b4:	80 83       	st	Z, r24
		if	(derWheel[2]>0){checked[2]=Wheel_2.Check();}else{checked[2]=true;}
    18b6:	fe 01       	movw	r30, r28
    18b8:	ec 53       	subi	r30, 0x3C	; 60
    18ba:	ff 4f       	sbci	r31, 0xFF	; 255
    18bc:	80 81       	ld	r24, Z
    18be:	88 23       	and	r24, r24
    18c0:	51 f0       	breq	.+20     	; 0x18d6 <_ZN7Carrage17chechWheelsBeforeEv+0x1ce>
    18c2:	c5 01       	movw	r24, r10
    18c4:	0e 94 8e 1a 	call	0x351c	; 0x351c <_ZN5Wheel5CheckEv>
    18c8:	fe 01       	movw	r30, r28
    18ca:	e5 53       	subi	r30, 0x35	; 53
    18cc:	ff 4f       	sbci	r31, 0xFF	; 255
    18ce:	90 e0       	ldi	r25, 0x00	; 0
    18d0:	91 83       	std	Z+1, r25	; 0x01
    18d2:	80 83       	st	Z, r24
    18d4:	07 c0       	rjmp	.+14     	; 0x18e4 <_ZN7Carrage17chechWheelsBeforeEv+0x1dc>
    18d6:	81 e0       	ldi	r24, 0x01	; 1
    18d8:	90 e0       	ldi	r25, 0x00	; 0
    18da:	fe 01       	movw	r30, r28
    18dc:	e5 53       	subi	r30, 0x35	; 53
    18de:	ff 4f       	sbci	r31, 0xFF	; 255
    18e0:	91 83       	std	Z+1, r25	; 0x01
    18e2:	80 83       	st	Z, r24
		if	(derWheel[3]>0){checked[3]=Wheel_3.Check();}else{checked[3]=true;}
    18e4:	fe 01       	movw	r30, r28
    18e6:	eb 53       	subi	r30, 0x3B	; 59
    18e8:	ff 4f       	sbci	r31, 0xFF	; 255
    18ea:	80 81       	ld	r24, Z
    18ec:	88 23       	and	r24, r24
    18ee:	51 f0       	breq	.+20     	; 0x1904 <_ZN7Carrage17chechWheelsBeforeEv+0x1fc>
    18f0:	c3 01       	movw	r24, r6
    18f2:	0e 94 8e 1a 	call	0x351c	; 0x351c <_ZN5Wheel5CheckEv>
    18f6:	fe 01       	movw	r30, r28
    18f8:	e3 53       	subi	r30, 0x33	; 51
    18fa:	ff 4f       	sbci	r31, 0xFF	; 255
    18fc:	90 e0       	ldi	r25, 0x00	; 0
    18fe:	91 83       	std	Z+1, r25	; 0x01
    1900:	80 83       	st	Z, r24
    1902:	07 c0       	rjmp	.+14     	; 0x1912 <_ZN7Carrage17chechWheelsBeforeEv+0x20a>
    1904:	81 e0       	ldi	r24, 0x01	; 1
    1906:	90 e0       	ldi	r25, 0x00	; 0
    1908:	fe 01       	movw	r30, r28
    190a:	e3 53       	subi	r30, 0x33	; 51
    190c:	ff 4f       	sbci	r31, 0xFF	; 255
    190e:	91 83       	std	Z+1, r25	; 0x01
    1910:	80 83       	st	Z, r24
		if	(derWheel[4]>0){checked[4]=Wheel_4.Check();}else{checked[4]=true;}	
    1912:	fe 01       	movw	r30, r28
    1914:	ea 53       	subi	r30, 0x3A	; 58
    1916:	ff 4f       	sbci	r31, 0xFF	; 255
    1918:	80 81       	ld	r24, Z
    191a:	88 23       	and	r24, r24
    191c:	51 f0       	breq	.+20     	; 0x1932 <_ZN7Carrage17chechWheelsBeforeEv+0x22a>
    191e:	c2 01       	movw	r24, r4
    1920:	0e 94 8e 1a 	call	0x351c	; 0x351c <_ZN5Wheel5CheckEv>
    1924:	fe 01       	movw	r30, r28
    1926:	e1 53       	subi	r30, 0x31	; 49
    1928:	ff 4f       	sbci	r31, 0xFF	; 255
    192a:	90 e0       	ldi	r25, 0x00	; 0
    192c:	91 83       	std	Z+1, r25	; 0x01
    192e:	80 83       	st	Z, r24
    1930:	07 c0       	rjmp	.+14     	; 0x1940 <_ZN7Carrage17chechWheelsBeforeEv+0x238>
    1932:	81 e0       	ldi	r24, 0x01	; 1
    1934:	90 e0       	ldi	r25, 0x00	; 0
    1936:	fe 01       	movw	r30, r28
    1938:	e1 53       	subi	r30, 0x31	; 49
    193a:	ff 4f       	sbci	r31, 0xFF	; 255
    193c:	91 83       	std	Z+1, r25	; 0x01
    193e:	80 83       	st	Z, r24
		if  (checked[1]&&checked[2]&&checked[3]&&checked[4]){return true;}else{return false;}					
    1940:	fe 01       	movw	r30, r28
    1942:	e7 53       	subi	r30, 0x37	; 55
    1944:	ff 4f       	sbci	r31, 0xFF	; 255
    1946:	80 81       	ld	r24, Z
    1948:	91 81       	ldd	r25, Z+1	; 0x01
    194a:	89 2b       	or	r24, r25
    194c:	99 f0       	breq	.+38     	; 0x1974 <_ZN7Carrage17chechWheelsBeforeEv+0x26c>
    194e:	32 96       	adiw	r30, 0x02	; 2
    1950:	80 81       	ld	r24, Z
    1952:	91 81       	ldd	r25, Z+1	; 0x01
    1954:	89 2b       	or	r24, r25
    1956:	81 f0       	breq	.+32     	; 0x1978 <_ZN7Carrage17chechWheelsBeforeEv+0x270>
    1958:	32 96       	adiw	r30, 0x02	; 2
    195a:	80 81       	ld	r24, Z
    195c:	91 81       	ldd	r25, Z+1	; 0x01
    195e:	89 2b       	or	r24, r25
    1960:	69 f0       	breq	.+26     	; 0x197c <_ZN7Carrage17chechWheelsBeforeEv+0x274>
    1962:	c1 53       	subi	r28, 0x31	; 49
    1964:	df 4f       	sbci	r29, 0xFF	; 255
    1966:	81 e0       	ldi	r24, 0x01	; 1
    1968:	28 81       	ld	r18, Y
    196a:	39 81       	ldd	r19, Y+1	; 0x01
    196c:	23 2b       	or	r18, r19
    196e:	39 f4       	brne	.+14     	; 0x197e <_ZN7Carrage17chechWheelsBeforeEv+0x276>
    1970:	80 e0       	ldi	r24, 0x00	; 0
    1972:	05 c0       	rjmp	.+10     	; 0x197e <_ZN7Carrage17chechWheelsBeforeEv+0x276>
    1974:	80 e0       	ldi	r24, 0x00	; 0
    1976:	03 c0       	rjmp	.+6      	; 0x197e <_ZN7Carrage17chechWheelsBeforeEv+0x276>
    1978:	80 e0       	ldi	r24, 0x00	; 0
    197a:	01 c0       	rjmp	.+2      	; 0x197e <_ZN7Carrage17chechWheelsBeforeEv+0x276>
    197c:	80 e0       	ldi	r24, 0x00	; 0
}
    197e:	df 91       	pop	r29
    1980:	cf 91       	pop	r28
    1982:	1f 91       	pop	r17
    1984:	0f 91       	pop	r16
    1986:	ff 90       	pop	r15
    1988:	ef 90       	pop	r14
    198a:	df 90       	pop	r13
    198c:	cf 90       	pop	r12
    198e:	bf 90       	pop	r11
    1990:	af 90       	pop	r10
    1992:	9f 90       	pop	r9
    1994:	8f 90       	pop	r8
    1996:	7f 90       	pop	r7
    1998:	6f 90       	pop	r6
    199a:	5f 90       	pop	r5
    199c:	4f 90       	pop	r4
    199e:	08 95       	ret

000019a0 <_ZN7Carrage9AjustmentEv>:
	Wheel_2.SetLimitsSetHight();
	Wheel_3.SetLimitsSetHight();
	Wheel_4.SetLimitsSetHight();
}

void Carrage::Ajustment(){
    19a0:	2f 92       	push	r2
    19a2:	3f 92       	push	r3
    19a4:	4f 92       	push	r4
    19a6:	5f 92       	push	r5
    19a8:	6f 92       	push	r6
    19aa:	7f 92       	push	r7
    19ac:	8f 92       	push	r8
    19ae:	9f 92       	push	r9
    19b0:	af 92       	push	r10
    19b2:	bf 92       	push	r11
    19b4:	cf 92       	push	r12
    19b6:	df 92       	push	r13
    19b8:	ef 92       	push	r14
    19ba:	ff 92       	push	r15
    19bc:	0f 93       	push	r16
    19be:	1f 93       	push	r17
    19c0:	cf 93       	push	r28
    19c2:	df 93       	push	r29
    19c4:	cd b7       	in	r28, 0x3d	; 61
    19c6:	de b7       	in	r29, 0x3e	; 62
    19c8:	2e 97       	sbiw	r28, 0x0e	; 14
    19ca:	0f b6       	in	r0, 0x3f	; 63
    19cc:	f8 94       	cli
    19ce:	de bf       	out	0x3e, r29	; 62
    19d0:	0f be       	out	0x3f, r0	; 63
    19d2:	cd bf       	out	0x3d, r28	; 61
    19d4:	9e 87       	std	Y+14, r25	; 0x0e
    19d6:	8d 87       	std	Y+13, r24	; 0x0d
	CheckLimitsSetHight();
    19d8:	0e 94 00 0a 	call	0x1400	; 0x1400 <_ZN7Carrage19CheckLimitsSetHightEv>
	finish=1;
    19dc:	ed 85       	ldd	r30, Y+13	; 0x0d
    19de:	fe 85       	ldd	r31, Y+14	; 0x0e
    19e0:	ef 52       	subi	r30, 0x2F	; 47
    19e2:	ff 4f       	sbci	r31, 0xFF	; 255
    19e4:	81 e0       	ldi	r24, 0x01	; 1
    19e6:	90 e0       	ldi	r25, 0x00	; 0
    19e8:	91 83       	std	Z+1, r25	; 0x01
    19ea:	80 83       	st	Z, r24
	int i=0;
	if (chechWheelsBefore()){
    19ec:	8d 85       	ldd	r24, Y+13	; 0x0d
    19ee:	9e 85       	ldd	r25, Y+14	; 0x0e
    19f0:	0e 94 84 0b 	call	0x1708	; 0x1708 <_ZN7Carrage17chechWheelsBeforeEv>
    19f4:	88 23       	and	r24, r24
    19f6:	09 f4       	brne	.+2      	; 0x19fa <_ZN7Carrage9AjustmentEv+0x5a>
    19f8:	32 c1       	rjmp	.+612    	; 0x1c5e <_ZN7Carrage9AjustmentEv+0x2be>
		while(finish>0&&i<100){
    19fa:	ed 85       	ldd	r30, Y+13	; 0x0d
    19fc:	fe 85       	ldd	r31, Y+14	; 0x0e
    19fe:	ef 52       	subi	r30, 0x2F	; 47
    1a00:	ff 4f       	sbci	r31, 0xFF	; 255
    1a02:	80 81       	ld	r24, Z
    1a04:	91 81       	ldd	r25, Z+1	; 0x01
    1a06:	18 16       	cp	r1, r24
    1a08:	19 06       	cpc	r1, r25
    1a0a:	0c f0       	brlt	.+2      	; 0x1a0e <_ZN7Carrage9AjustmentEv+0x6e>
    1a0c:	28 c1       	rjmp	.+592    	; 0x1c5e <_ZN7Carrage9AjustmentEv+0x2be>
    1a0e:	81 2c       	mov	r8, r1
    1a10:	91 2c       	mov	r9, r1
			derWheel[1] = Wheel_1.takeDerection();
    1a12:	6d 84       	ldd	r6, Y+13	; 0x0d
    1a14:	7e 84       	ldd	r7, Y+14	; 0x0e
    1a16:	83 ec       	ldi	r24, 0xC3	; 195
    1a18:	68 0e       	add	r6, r24
    1a1a:	71 1c       	adc	r7, r1
			Fast_print_LSD_hight(Wheel_1);
			derWheel[2] = Wheel_2.takeDerection();
    1a1c:	ed 85       	ldd	r30, Y+13	; 0x0d
    1a1e:	fe 85       	ldd	r31, Y+14	; 0x0e
    1a20:	bb 96       	adiw	r30, 0x2b	; 43
    1a22:	fa 83       	std	Y+2, r31	; 0x02
    1a24:	e9 83       	std	Y+1, r30	; 0x01
    1a26:	4d 84       	ldd	r4, Y+13	; 0x0d
    1a28:	5e 84       	ldd	r5, Y+14	; 0x0e
    1a2a:	f4 ec       	ldi	r31, 0xC4	; 196
    1a2c:	4f 0e       	add	r4, r31
    1a2e:	51 1c       	adc	r5, r1
			Fast_print_LSD_hight(Wheel_2);
			derWheel[3] = Wheel_3.takeDerection();
    1a30:	8d 85       	ldd	r24, Y+13	; 0x0d
    1a32:	9e 85       	ldd	r25, Y+14	; 0x0e
    1a34:	8a 5a       	subi	r24, 0xAA	; 170
    1a36:	9f 4f       	sbci	r25, 0xFF	; 255
    1a38:	9c 83       	std	Y+4, r25	; 0x04
    1a3a:	8b 83       	std	Y+3, r24	; 0x03
    1a3c:	2d 84       	ldd	r2, Y+13	; 0x0d
    1a3e:	3e 84       	ldd	r3, Y+14	; 0x0e
    1a40:	95 ec       	ldi	r25, 0xC5	; 197
    1a42:	29 0e       	add	r2, r25
    1a44:	31 1c       	adc	r3, r1
			Fast_print_LSD_hight(Wheel_3);
			derWheel[4] = Wheel_4.takeDerection();
    1a46:	ed 85       	ldd	r30, Y+13	; 0x0d
    1a48:	fe 85       	ldd	r31, Y+14	; 0x0e
    1a4a:	ef 57       	subi	r30, 0x7F	; 127
    1a4c:	ff 4f       	sbci	r31, 0xFF	; 255
    1a4e:	fe 83       	std	Y+6, r31	; 0x06
    1a50:	ed 83       	std	Y+5, r30	; 0x05
    1a52:	8d 85       	ldd	r24, Y+13	; 0x0d
    1a54:	9e 85       	ldd	r25, Y+14	; 0x0e
    1a56:	8a 53       	subi	r24, 0x3A	; 58
    1a58:	9f 4f       	sbci	r25, 0xFF	; 255
    1a5a:	98 87       	std	Y+8, r25	; 0x08
    1a5c:	8f 83       	std	Y+7, r24	; 0x07
			Fast_print_LSD_hight(Wheel_4);
		
			finish = derWheel[1] + derWheel[2] + derWheel[3] + derWheel[4];
    1a5e:	ed 85       	ldd	r30, Y+13	; 0x0d
    1a60:	fe 85       	ldd	r31, Y+14	; 0x0e
    1a62:	ef 52       	subi	r30, 0x2F	; 47
    1a64:	ff 4f       	sbci	r31, 0xFF	; 255
    1a66:	fa 87       	std	Y+10, r31	; 0x0a
    1a68:	e9 87       	std	Y+9, r30	; 0x09
			support.Adjast(getStep() ,derWheel[1], derWheel[2] ,derWheel[3] ,derWheel[4] );	
    1a6a:	8d 85       	ldd	r24, Y+13	; 0x0d
    1a6c:	9e 85       	ldd	r25, Y+14	; 0x0e
    1a6e:	84 55       	subi	r24, 0x54	; 84
    1a70:	9f 4f       	sbci	r25, 0xFF	; 255
    1a72:	9c 87       	std	Y+12, r25	; 0x0c
    1a74:	8b 87       	std	Y+11, r24	; 0x0b
    1a76:	05 c0       	rjmp	.+10     	; 0x1a82 <_ZN7Carrage9AjustmentEv+0xe2>
void Carrage::Ajustment(){
	CheckLimitsSetHight();
	finish=1;
	int i=0;
	if (chechWheelsBefore()){
		while(finish>0&&i<100){
    1a78:	f4 e6       	ldi	r31, 0x64	; 100
    1a7a:	8f 16       	cp	r8, r31
    1a7c:	91 04       	cpc	r9, r1
    1a7e:	09 f4       	brne	.+2      	; 0x1a82 <_ZN7Carrage9AjustmentEv+0xe2>
    1a80:	b8 c0       	rjmp	.+368    	; 0x1bf2 <_ZN7Carrage9AjustmentEv+0x252>
			derWheel[1] = Wheel_1.takeDerection();
    1a82:	8d 85       	ldd	r24, Y+13	; 0x0d
    1a84:	9e 85       	ldd	r25, Y+14	; 0x0e
    1a86:	0e 94 27 1a 	call	0x344e	; 0x344e <_ZN5Wheel13takeDerectionEv>
    1a8a:	f3 01       	movw	r30, r6
    1a8c:	80 83       	st	Z, r24
			Fast_print_LSD_hight(Wheel_1);
    1a8e:	8d b7       	in	r24, 0x3d	; 61
    1a90:	9e b7       	in	r25, 0x3e	; 62
    1a92:	8b 97       	sbiw	r24, 0x2b	; 43
    1a94:	0f b6       	in	r0, 0x3f	; 63
    1a96:	f8 94       	cli
    1a98:	9e bf       	out	0x3e, r25	; 62
    1a9a:	0f be       	out	0x3f, r0	; 63
    1a9c:	8d bf       	out	0x3d, r24	; 61
    1a9e:	ad b7       	in	r26, 0x3d	; 61
    1aa0:	be b7       	in	r27, 0x3e	; 62
    1aa2:	11 96       	adiw	r26, 0x01	; 1
    1aa4:	8b e2       	ldi	r24, 0x2B	; 43
    1aa6:	ed 85       	ldd	r30, Y+13	; 0x0d
    1aa8:	fe 85       	ldd	r31, Y+14	; 0x0e
    1aaa:	01 90       	ld	r0, Z+
    1aac:	0d 92       	st	X+, r0
    1aae:	8a 95       	dec	r24
    1ab0:	e1 f7       	brne	.-8      	; 0x1aaa <_ZN7Carrage9AjustmentEv+0x10a>
    1ab2:	8d 85       	ldd	r24, Y+13	; 0x0d
    1ab4:	9e 85       	ldd	r25, Y+14	; 0x0e
    1ab6:	0e 94 3a 0b 	call	0x1674	; 0x1674 <_ZN7Carrage20Fast_print_LSD_hightE5Wheel>
			derWheel[2] = Wheel_2.takeDerection();
    1aba:	0f b6       	in	r0, 0x3f	; 63
    1abc:	f8 94       	cli
    1abe:	de bf       	out	0x3e, r29	; 62
    1ac0:	0f be       	out	0x3f, r0	; 63
    1ac2:	cd bf       	out	0x3d, r28	; 61
    1ac4:	89 81       	ldd	r24, Y+1	; 0x01
    1ac6:	9a 81       	ldd	r25, Y+2	; 0x02
    1ac8:	0e 94 27 1a 	call	0x344e	; 0x344e <_ZN5Wheel13takeDerectionEv>
    1acc:	f2 01       	movw	r30, r4
    1ace:	80 83       	st	Z, r24
			Fast_print_LSD_hight(Wheel_2);
    1ad0:	8d b7       	in	r24, 0x3d	; 61
    1ad2:	9e b7       	in	r25, 0x3e	; 62
    1ad4:	8b 97       	sbiw	r24, 0x2b	; 43
    1ad6:	0f b6       	in	r0, 0x3f	; 63
    1ad8:	f8 94       	cli
    1ada:	9e bf       	out	0x3e, r25	; 62
    1adc:	0f be       	out	0x3f, r0	; 63
    1ade:	8d bf       	out	0x3d, r24	; 61
    1ae0:	ad b7       	in	r26, 0x3d	; 61
    1ae2:	be b7       	in	r27, 0x3e	; 62
    1ae4:	11 96       	adiw	r26, 0x01	; 1
    1ae6:	8b e2       	ldi	r24, 0x2B	; 43
    1ae8:	e9 81       	ldd	r30, Y+1	; 0x01
    1aea:	fa 81       	ldd	r31, Y+2	; 0x02
    1aec:	01 90       	ld	r0, Z+
    1aee:	0d 92       	st	X+, r0
    1af0:	8a 95       	dec	r24
    1af2:	e1 f7       	brne	.-8      	; 0x1aec <_ZN7Carrage9AjustmentEv+0x14c>
    1af4:	8d 85       	ldd	r24, Y+13	; 0x0d
    1af6:	9e 85       	ldd	r25, Y+14	; 0x0e
    1af8:	0e 94 3a 0b 	call	0x1674	; 0x1674 <_ZN7Carrage20Fast_print_LSD_hightE5Wheel>
			derWheel[3] = Wheel_3.takeDerection();
    1afc:	0f b6       	in	r0, 0x3f	; 63
    1afe:	f8 94       	cli
    1b00:	de bf       	out	0x3e, r29	; 62
    1b02:	0f be       	out	0x3f, r0	; 63
    1b04:	cd bf       	out	0x3d, r28	; 61
    1b06:	8b 81       	ldd	r24, Y+3	; 0x03
    1b08:	9c 81       	ldd	r25, Y+4	; 0x04
    1b0a:	0e 94 27 1a 	call	0x344e	; 0x344e <_ZN5Wheel13takeDerectionEv>
    1b0e:	f1 01       	movw	r30, r2
    1b10:	80 83       	st	Z, r24
			Fast_print_LSD_hight(Wheel_3);
    1b12:	8d b7       	in	r24, 0x3d	; 61
    1b14:	9e b7       	in	r25, 0x3e	; 62
    1b16:	8b 97       	sbiw	r24, 0x2b	; 43
    1b18:	0f b6       	in	r0, 0x3f	; 63
    1b1a:	f8 94       	cli
    1b1c:	9e bf       	out	0x3e, r25	; 62
    1b1e:	0f be       	out	0x3f, r0	; 63
    1b20:	8d bf       	out	0x3d, r24	; 61
    1b22:	ad b7       	in	r26, 0x3d	; 61
    1b24:	be b7       	in	r27, 0x3e	; 62
    1b26:	11 96       	adiw	r26, 0x01	; 1
    1b28:	8b e2       	ldi	r24, 0x2B	; 43
    1b2a:	eb 81       	ldd	r30, Y+3	; 0x03
    1b2c:	fc 81       	ldd	r31, Y+4	; 0x04
    1b2e:	01 90       	ld	r0, Z+
    1b30:	0d 92       	st	X+, r0
    1b32:	8a 95       	dec	r24
    1b34:	e1 f7       	brne	.-8      	; 0x1b2e <_ZN7Carrage9AjustmentEv+0x18e>
    1b36:	8d 85       	ldd	r24, Y+13	; 0x0d
    1b38:	9e 85       	ldd	r25, Y+14	; 0x0e
    1b3a:	0e 94 3a 0b 	call	0x1674	; 0x1674 <_ZN7Carrage20Fast_print_LSD_hightE5Wheel>
			derWheel[4] = Wheel_4.takeDerection();
    1b3e:	0f b6       	in	r0, 0x3f	; 63
    1b40:	f8 94       	cli
    1b42:	de bf       	out	0x3e, r29	; 62
    1b44:	0f be       	out	0x3f, r0	; 63
    1b46:	cd bf       	out	0x3d, r28	; 61
    1b48:	8d 81       	ldd	r24, Y+5	; 0x05
    1b4a:	9e 81       	ldd	r25, Y+6	; 0x06
    1b4c:	0e 94 27 1a 	call	0x344e	; 0x344e <_ZN5Wheel13takeDerectionEv>
    1b50:	ef 81       	ldd	r30, Y+7	; 0x07
    1b52:	f8 85       	ldd	r31, Y+8	; 0x08
    1b54:	80 83       	st	Z, r24
			Fast_print_LSD_hight(Wheel_4);
    1b56:	8d b7       	in	r24, 0x3d	; 61
    1b58:	9e b7       	in	r25, 0x3e	; 62
    1b5a:	8b 97       	sbiw	r24, 0x2b	; 43
    1b5c:	0f b6       	in	r0, 0x3f	; 63
    1b5e:	f8 94       	cli
    1b60:	9e bf       	out	0x3e, r25	; 62
    1b62:	0f be       	out	0x3f, r0	; 63
    1b64:	8d bf       	out	0x3d, r24	; 61
    1b66:	ad b7       	in	r26, 0x3d	; 61
    1b68:	be b7       	in	r27, 0x3e	; 62
    1b6a:	11 96       	adiw	r26, 0x01	; 1
    1b6c:	8b e2       	ldi	r24, 0x2B	; 43
    1b6e:	ed 81       	ldd	r30, Y+5	; 0x05
    1b70:	fe 81       	ldd	r31, Y+6	; 0x06
    1b72:	01 90       	ld	r0, Z+
    1b74:	0d 92       	st	X+, r0
    1b76:	8a 95       	dec	r24
    1b78:	e1 f7       	brne	.-8      	; 0x1b72 <_ZN7Carrage9AjustmentEv+0x1d2>
    1b7a:	8d 85       	ldd	r24, Y+13	; 0x0d
    1b7c:	9e 85       	ldd	r25, Y+14	; 0x0e
    1b7e:	0e 94 3a 0b 	call	0x1674	; 0x1674 <_ZN7Carrage20Fast_print_LSD_hightE5Wheel>
		
			finish = derWheel[1] + derWheel[2] + derWheel[3] + derWheel[4];
    1b82:	f3 01       	movw	r30, r6
    1b84:	a0 80       	ld	r10, Z
    1b86:	b1 2c       	mov	r11, r1
    1b88:	f2 01       	movw	r30, r4
    1b8a:	c0 80       	ld	r12, Z
    1b8c:	d1 2c       	mov	r13, r1
    1b8e:	f1 01       	movw	r30, r2
    1b90:	00 81       	ld	r16, Z
    1b92:	10 e0       	ldi	r17, 0x00	; 0
    1b94:	ef 81       	ldd	r30, Y+7	; 0x07
    1b96:	f8 85       	ldd	r31, Y+8	; 0x08
    1b98:	e0 80       	ld	r14, Z
    1b9a:	f1 2c       	mov	r15, r1
    1b9c:	c5 01       	movw	r24, r10
    1b9e:	8c 0d       	add	r24, r12
    1ba0:	9d 1d       	adc	r25, r13
    1ba2:	80 0f       	add	r24, r16
    1ba4:	91 1f       	adc	r25, r17
    1ba6:	8e 0d       	add	r24, r14
    1ba8:	9f 1d       	adc	r25, r15
    1baa:	e9 85       	ldd	r30, Y+9	; 0x09
    1bac:	fa 85       	ldd	r31, Y+10	; 0x0a
    1bae:	91 83       	std	Z+1, r25	; 0x01
    1bb0:	80 83       	st	Z, r24
			support.Adjast(getStep() ,derWheel[1], derWheel[2] ,derWheel[3] ,derWheel[4] );	
    1bb2:	0f b6       	in	r0, 0x3f	; 63
    1bb4:	f8 94       	cli
    1bb6:	de bf       	out	0x3e, r29	; 62
    1bb8:	0f be       	out	0x3f, r0	; 63
    1bba:	cd bf       	out	0x3d, r28	; 61
    1bbc:	8d 85       	ldd	r24, Y+13	; 0x0d
    1bbe:	9e 85       	ldd	r25, Y+14	; 0x0e
    1bc0:	0e 94 ed 0a 	call	0x15da	; 0x15da <_ZN7Carrage7getStepEv>
    1bc4:	96 01       	movw	r18, r12
    1bc6:	a5 01       	movw	r20, r10
    1bc8:	bc 01       	movw	r22, r24
    1bca:	8b 85       	ldd	r24, Y+11	; 0x0b
    1bcc:	9c 85       	ldd	r25, Y+12	; 0x0c
    1bce:	0e 94 76 19 	call	0x32ec	; 0x32ec <_ZN7Support6AdjastEiiiii>
			i++;
    1bd2:	9f ef       	ldi	r25, 0xFF	; 255
    1bd4:	89 1a       	sub	r8, r25
    1bd6:	99 0a       	sbc	r9, r25
void Carrage::Ajustment(){
	CheckLimitsSetHight();
	finish=1;
	int i=0;
	if (chechWheelsBefore()){
		while(finish>0&&i<100){
    1bd8:	e9 85       	ldd	r30, Y+9	; 0x09
    1bda:	fa 85       	ldd	r31, Y+10	; 0x0a
    1bdc:	80 81       	ld	r24, Z
    1bde:	91 81       	ldd	r25, Z+1	; 0x01
    1be0:	18 16       	cp	r1, r24
    1be2:	19 06       	cpc	r1, r25
    1be4:	0c f4       	brge	.+2      	; 0x1be8 <_ZN7Carrage9AjustmentEv+0x248>
    1be6:	48 cf       	rjmp	.-368    	; 0x1a78 <_ZN7Carrage9AjustmentEv+0xd8>
			finish = derWheel[1] + derWheel[2] + derWheel[3] + derWheel[4];
			support.Adjast(getStep() ,derWheel[1], derWheel[2] ,derWheel[3] ,derWheel[4] );	
			i++;
		}
	
		if(i>=100){
    1be8:	94 e6       	ldi	r25, 0x64	; 100
    1bea:	89 16       	cp	r8, r25
    1bec:	91 04       	cpc	r9, r1
    1bee:	bc f1       	brlt	.+110    	; 0x1c5e <_ZN7Carrage9AjustmentEv+0x2be>
    1bf0:	00 c0       	rjmp	.+0      	; 0x1bf2 <_ZN7Carrage9AjustmentEv+0x252>
			if(derWheel[1]>0){Wheel_1.malfuction = true;}
    1bf2:	ed 85       	ldd	r30, Y+13	; 0x0d
    1bf4:	fe 85       	ldd	r31, Y+14	; 0x0e
    1bf6:	ed 53       	subi	r30, 0x3D	; 61
    1bf8:	ff 4f       	sbci	r31, 0xFF	; 255
    1bfa:	80 81       	ld	r24, Z
    1bfc:	88 23       	and	r24, r24
    1bfe:	21 f0       	breq	.+8      	; 0x1c08 <_ZN7Carrage9AjustmentEv+0x268>
    1c00:	81 e0       	ldi	r24, 0x01	; 1
    1c02:	ed 85       	ldd	r30, Y+13	; 0x0d
    1c04:	fe 85       	ldd	r31, Y+14	; 0x0e
    1c06:	83 8f       	std	Z+27, r24	; 0x1b
			if(derWheel[2]>0){Wheel_2.malfuction = true;}
    1c08:	ed 85       	ldd	r30, Y+13	; 0x0d
    1c0a:	fe 85       	ldd	r31, Y+14	; 0x0e
    1c0c:	ec 53       	subi	r30, 0x3C	; 60
    1c0e:	ff 4f       	sbci	r31, 0xFF	; 255
    1c10:	80 81       	ld	r24, Z
    1c12:	88 23       	and	r24, r24
    1c14:	31 f0       	breq	.+12     	; 0x1c22 <_ZN7Carrage9AjustmentEv+0x282>
    1c16:	81 e0       	ldi	r24, 0x01	; 1
    1c18:	ed 85       	ldd	r30, Y+13	; 0x0d
    1c1a:	fe 85       	ldd	r31, Y+14	; 0x0e
    1c1c:	ea 5b       	subi	r30, 0xBA	; 186
    1c1e:	ff 4f       	sbci	r31, 0xFF	; 255
    1c20:	80 83       	st	Z, r24
			if(derWheel[3]>0){Wheel_3.malfuction = true;}
    1c22:	ed 85       	ldd	r30, Y+13	; 0x0d
    1c24:	fe 85       	ldd	r31, Y+14	; 0x0e
    1c26:	eb 53       	subi	r30, 0x3B	; 59
    1c28:	ff 4f       	sbci	r31, 0xFF	; 255
    1c2a:	80 81       	ld	r24, Z
    1c2c:	88 23       	and	r24, r24
    1c2e:	31 f0       	breq	.+12     	; 0x1c3c <_ZN7Carrage9AjustmentEv+0x29c>
    1c30:	81 e0       	ldi	r24, 0x01	; 1
    1c32:	ed 85       	ldd	r30, Y+13	; 0x0d
    1c34:	fe 85       	ldd	r31, Y+14	; 0x0e
    1c36:	ef 58       	subi	r30, 0x8F	; 143
    1c38:	ff 4f       	sbci	r31, 0xFF	; 255
    1c3a:	80 83       	st	Z, r24
			if(derWheel[4]>0){Wheel_4.malfuction = true;}
    1c3c:	ed 85       	ldd	r30, Y+13	; 0x0d
    1c3e:	fe 85       	ldd	r31, Y+14	; 0x0e
    1c40:	ea 53       	subi	r30, 0x3A	; 58
    1c42:	ff 4f       	sbci	r31, 0xFF	; 255
    1c44:	80 81       	ld	r24, Z
    1c46:	88 23       	and	r24, r24
    1c48:	51 f0       	breq	.+20     	; 0x1c5e <_ZN7Carrage9AjustmentEv+0x2be>
    1c4a:	8d 85       	ldd	r24, Y+13	; 0x0d
    1c4c:	9e 85       	ldd	r25, Y+14	; 0x0e
    1c4e:	84 56       	subi	r24, 0x64	; 100
    1c50:	9f 4f       	sbci	r25, 0xFF	; 255
    1c52:	9a 83       	std	Y+2, r25	; 0x02
    1c54:	89 83       	std	Y+1, r24	; 0x01
    1c56:	81 e0       	ldi	r24, 0x01	; 1
    1c58:	e9 81       	ldd	r30, Y+1	; 0x01
    1c5a:	fa 81       	ldd	r31, Y+2	; 0x02
    1c5c:	80 83       	st	Z, r24
		}
	}
}
    1c5e:	2e 96       	adiw	r28, 0x0e	; 14
    1c60:	0f b6       	in	r0, 0x3f	; 63
    1c62:	f8 94       	cli
    1c64:	de bf       	out	0x3e, r29	; 62
    1c66:	0f be       	out	0x3f, r0	; 63
    1c68:	cd bf       	out	0x3d, r28	; 61
    1c6a:	df 91       	pop	r29
    1c6c:	cf 91       	pop	r28
    1c6e:	1f 91       	pop	r17
    1c70:	0f 91       	pop	r16
    1c72:	ff 90       	pop	r15
    1c74:	ef 90       	pop	r14
    1c76:	df 90       	pop	r13
    1c78:	cf 90       	pop	r12
    1c7a:	bf 90       	pop	r11
    1c7c:	af 90       	pop	r10
    1c7e:	9f 90       	pop	r9
    1c80:	8f 90       	pop	r8
    1c82:	7f 90       	pop	r7
    1c84:	6f 90       	pop	r6
    1c86:	5f 90       	pop	r5
    1c88:	4f 90       	pop	r4
    1c8a:	3f 90       	pop	r3
    1c8c:	2f 90       	pop	r2
    1c8e:	08 95       	ret

00001c90 <_ZN7Carrage2UpEf>:
	Wheel_2.initialHight();
	Wheel_3.initialHight();
	Wheel_4.initialHight();
}

void Carrage::Up(float step){
    1c90:	cf 92       	push	r12
    1c92:	df 92       	push	r13
    1c94:	ef 92       	push	r14
    1c96:	ff 92       	push	r15
    1c98:	cf 93       	push	r28
    1c9a:	df 93       	push	r29
    1c9c:	ec 01       	movw	r28, r24
    1c9e:	6a 01       	movw	r12, r20
    1ca0:	7b 01       	movw	r14, r22
	Wheel_1.Up(step);
    1ca2:	0e 94 26 1b 	call	0x364c	; 0x364c <_ZN5Wheel2UpEf>
	Wheel_2.Up(step);
    1ca6:	b7 01       	movw	r22, r14
    1ca8:	a6 01       	movw	r20, r12
    1caa:	ce 01       	movw	r24, r28
    1cac:	8b 96       	adiw	r24, 0x2b	; 43
    1cae:	0e 94 26 1b 	call	0x364c	; 0x364c <_ZN5Wheel2UpEf>
	Wheel_3.Up(step);
    1cb2:	b7 01       	movw	r22, r14
    1cb4:	a6 01       	movw	r20, r12
    1cb6:	ce 01       	movw	r24, r28
    1cb8:	8a 5a       	subi	r24, 0xAA	; 170
    1cba:	9f 4f       	sbci	r25, 0xFF	; 255
    1cbc:	0e 94 26 1b 	call	0x364c	; 0x364c <_ZN5Wheel2UpEf>
	Wheel_4.Up(step);
    1cc0:	b7 01       	movw	r22, r14
    1cc2:	a6 01       	movw	r20, r12
    1cc4:	ce 01       	movw	r24, r28
    1cc6:	8f 57       	subi	r24, 0x7F	; 127
    1cc8:	9f 4f       	sbci	r25, 0xFF	; 255
    1cca:	0e 94 26 1b 	call	0x364c	; 0x364c <_ZN5Wheel2UpEf>
	Ajustment();
    1cce:	ce 01       	movw	r24, r28
    1cd0:	0e 94 d0 0c 	call	0x19a0	; 0x19a0 <_ZN7Carrage9AjustmentEv>
}
    1cd4:	df 91       	pop	r29
    1cd6:	cf 91       	pop	r28
    1cd8:	ff 90       	pop	r15
    1cda:	ef 90       	pop	r14
    1cdc:	df 90       	pop	r13
    1cde:	cf 90       	pop	r12
    1ce0:	08 95       	ret

00001ce2 <_ZN7Carrage4DownEf>:

void Carrage::Down(float step){
    1ce2:	cf 92       	push	r12
    1ce4:	df 92       	push	r13
    1ce6:	ef 92       	push	r14
    1ce8:	ff 92       	push	r15
    1cea:	cf 93       	push	r28
    1cec:	df 93       	push	r29
    1cee:	ec 01       	movw	r28, r24
    1cf0:	6a 01       	movw	r12, r20
    1cf2:	7b 01       	movw	r14, r22
	Wheel_1.Down(step);
    1cf4:	0e 94 54 1b 	call	0x36a8	; 0x36a8 <_ZN5Wheel4DownEf>
	Wheel_2.Down(step);
    1cf8:	b7 01       	movw	r22, r14
    1cfa:	a6 01       	movw	r20, r12
    1cfc:	ce 01       	movw	r24, r28
    1cfe:	8b 96       	adiw	r24, 0x2b	; 43
    1d00:	0e 94 54 1b 	call	0x36a8	; 0x36a8 <_ZN5Wheel4DownEf>
	Wheel_3.Down(step);
    1d04:	b7 01       	movw	r22, r14
    1d06:	a6 01       	movw	r20, r12
    1d08:	ce 01       	movw	r24, r28
    1d0a:	8a 5a       	subi	r24, 0xAA	; 170
    1d0c:	9f 4f       	sbci	r25, 0xFF	; 255
    1d0e:	0e 94 54 1b 	call	0x36a8	; 0x36a8 <_ZN5Wheel4DownEf>
	Wheel_4.Down(step);
    1d12:	b7 01       	movw	r22, r14
    1d14:	a6 01       	movw	r20, r12
    1d16:	ce 01       	movw	r24, r28
    1d18:	8f 57       	subi	r24, 0x7F	; 127
    1d1a:	9f 4f       	sbci	r25, 0xFF	; 255
    1d1c:	0e 94 54 1b 	call	0x36a8	; 0x36a8 <_ZN5Wheel4DownEf>
	Ajustment();
    1d20:	ce 01       	movw	r24, r28
    1d22:	0e 94 d0 0c 	call	0x19a0	; 0x19a0 <_ZN7Carrage9AjustmentEv>
}
    1d26:	df 91       	pop	r29
    1d28:	cf 91       	pop	r28
    1d2a:	ff 90       	pop	r15
    1d2c:	ef 90       	pop	r14
    1d2e:	df 90       	pop	r13
    1d30:	cf 90       	pop	r12
    1d32:	08 95       	ret

00001d34 <_ZN7Carrage18ControlMalfinctionEv>:
	float hight = wheel.get_hight();
	Lcd_printf2(hight_pos_x, hight_pos_y, FONT_1X, hight, 2);
	Lcd_update();
}

void Carrage::ControlMalfinction(){
    1d34:	cf 92       	push	r12
    1d36:	df 92       	push	r13
    1d38:	ef 92       	push	r14
    1d3a:	ff 92       	push	r15
    1d3c:	0f 93       	push	r16
    1d3e:	1f 93       	push	r17
    1d40:	cf 93       	push	r28
    1d42:	df 93       	push	r29
    1d44:	ec 01       	movw	r28, r24
	Wheel_1.IsChanchedHight();
    1d46:	0e 94 f7 1a 	call	0x35ee	; 0x35ee <_ZN5Wheel15IsChanchedHightEv>
	Wheel_2.IsChanchedHight();
    1d4a:	6e 01       	movw	r12, r28
    1d4c:	8b e2       	ldi	r24, 0x2B	; 43
    1d4e:	c8 0e       	add	r12, r24
    1d50:	d1 1c       	adc	r13, r1
    1d52:	c6 01       	movw	r24, r12
    1d54:	0e 94 f7 1a 	call	0x35ee	; 0x35ee <_ZN5Wheel15IsChanchedHightEv>
	Wheel_3.IsChanchedHight();
    1d58:	7e 01       	movw	r14, r28
    1d5a:	86 e5       	ldi	r24, 0x56	; 86
    1d5c:	e8 0e       	add	r14, r24
    1d5e:	f1 1c       	adc	r15, r1
    1d60:	c7 01       	movw	r24, r14
    1d62:	0e 94 f7 1a 	call	0x35ee	; 0x35ee <_ZN5Wheel15IsChanchedHightEv>
	Wheel_4.IsChanchedHight();
    1d66:	8e 01       	movw	r16, r28
    1d68:	0f 57       	subi	r16, 0x7F	; 127
    1d6a:	1f 4f       	sbci	r17, 0xFF	; 255
    1d6c:	c8 01       	movw	r24, r16
    1d6e:	0e 94 f7 1a 	call	0x35ee	; 0x35ee <_ZN5Wheel15IsChanchedHightEv>
	bool caragemove = (Wheel_1.move|Wheel_2.move|Wheel_3.move|Wheel_4.move);
    1d72:	fe 01       	movw	r30, r28
    1d74:	e8 5b       	subi	r30, 0xB8	; 184
    1d76:	ff 4f       	sbci	r31, 0xFF	; 255
	if (caragemove){
    1d78:	9d 8d       	ldd	r25, Y+29	; 0x1d
    1d7a:	80 81       	ld	r24, Z
    1d7c:	89 2b       	or	r24, r25
void Carrage::ControlMalfinction(){
	Wheel_1.IsChanchedHight();
	Wheel_2.IsChanchedHight();
	Wheel_3.IsChanchedHight();
	Wheel_4.IsChanchedHight();
	bool caragemove = (Wheel_1.move|Wheel_2.move|Wheel_3.move|Wheel_4.move);
    1d7e:	bb 96       	adiw	r30, 0x2b	; 43
	if (caragemove){
    1d80:	90 81       	ld	r25, Z
    1d82:	89 2b       	or	r24, r25
    1d84:	21 f4       	brne	.+8      	; 0x1d8e <_ZN7Carrage18ControlMalfinctionEv+0x5a>
void Carrage::ControlMalfinction(){
	Wheel_1.IsChanchedHight();
	Wheel_2.IsChanchedHight();
	Wheel_3.IsChanchedHight();
	Wheel_4.IsChanchedHight();
	bool caragemove = (Wheel_1.move|Wheel_2.move|Wheel_3.move|Wheel_4.move);
    1d86:	bb 96       	adiw	r30, 0x2b	; 43
	if (caragemove){
    1d88:	80 81       	ld	r24, Z
    1d8a:	88 23       	and	r24, r24
    1d8c:	61 f0       	breq	.+24     	; 0x1da6 <_ZN7Carrage18ControlMalfinctionEv+0x72>
		Wheel_1.ControlMalfinction();
    1d8e:	ce 01       	movw	r24, r28
    1d90:	0e 94 b1 1a 	call	0x3562	; 0x3562 <_ZN5Wheel18ControlMalfinctionEv>
		Wheel_2.ControlMalfinction();
    1d94:	c6 01       	movw	r24, r12
    1d96:	0e 94 b1 1a 	call	0x3562	; 0x3562 <_ZN5Wheel18ControlMalfinctionEv>
		Wheel_3.ControlMalfinction();
    1d9a:	c7 01       	movw	r24, r14
    1d9c:	0e 94 b1 1a 	call	0x3562	; 0x3562 <_ZN5Wheel18ControlMalfinctionEv>
		Wheel_4.ControlMalfinction();
    1da0:	c8 01       	movw	r24, r16
    1da2:	0e 94 b1 1a 	call	0x3562	; 0x3562 <_ZN5Wheel18ControlMalfinctionEv>
	}

    1da6:	df 91       	pop	r29
    1da8:	cf 91       	pop	r28
    1daa:	1f 91       	pop	r17
    1dac:	0f 91       	pop	r16
    1dae:	ff 90       	pop	r15
    1db0:	ef 90       	pop	r14
    1db2:	df 90       	pop	r13
    1db4:	cf 90       	pop	r12
    1db6:	08 95       	ret

00001db8 <_ZL7LcdSendh10LcdCmdData>:
        if(response == OUT_OF_BORDER)
            return OUT_OF_BORDER;
    }

    return OK;
}
    1db8:	2a 98       	cbi	0x05, 2	; 5
    1dba:	61 30       	cpi	r22, 0x01	; 1
    1dbc:	11 f4       	brne	.+4      	; 0x1dc2 <_ZL7LcdSendh10LcdCmdData+0xa>
    1dbe:	29 9a       	sbi	0x05, 1	; 5
    1dc0:	01 c0       	rjmp	.+2      	; 0x1dc4 <_ZL7LcdSendh10LcdCmdData+0xc>
    1dc2:	29 98       	cbi	0x05, 1	; 5
    1dc4:	8e bd       	out	0x2e, r24	; 46
    1dc6:	0d b4       	in	r0, 0x2d	; 45
    1dc8:	07 fe       	sbrs	r0, 7
    1dca:	fd cf       	rjmp	.-6      	; 0x1dc6 <_ZL7LcdSendh10LcdCmdData+0xe>
    1dcc:	2a 9a       	sbi	0x05, 2	; 5
    1dce:	08 95       	ret

00001dd0 <_Z5gftoafi>:
    1dd0:	cf 92       	push	r12
    1dd2:	df 92       	push	r13
    1dd4:	ef 92       	push	r14
    1dd6:	ff 92       	push	r15
    1dd8:	0f 93       	push	r16
    1dda:	1f 93       	push	r17
    1ddc:	cf 93       	push	r28
    1dde:	df 93       	push	r29
    1de0:	6b 01       	movw	r12, r22
    1de2:	7c 01       	movw	r14, r24
    1de4:	ea 01       	movw	r28, r20
    1de6:	ca 01       	movw	r24, r20
    1de8:	01 97       	sbiw	r24, 0x01	; 1
    1dea:	20 97       	sbiw	r28, 0x00	; 0
    1dec:	81 f0       	breq	.+32     	; 0x1e0e <_Z5gftoafi+0x3e>
    1dee:	61 e0       	ldi	r22, 0x01	; 1
    1df0:	70 e0       	ldi	r23, 0x00	; 0
    1df2:	9b 01       	movw	r18, r22
    1df4:	22 0f       	add	r18, r18
    1df6:	33 1f       	adc	r19, r19
    1df8:	66 0f       	add	r22, r22
    1dfa:	77 1f       	adc	r23, r23
    1dfc:	66 0f       	add	r22, r22
    1dfe:	77 1f       	adc	r23, r23
    1e00:	66 0f       	add	r22, r22
    1e02:	77 1f       	adc	r23, r23
    1e04:	62 0f       	add	r22, r18
    1e06:	73 1f       	adc	r23, r19
    1e08:	01 97       	sbiw	r24, 0x01	; 1
    1e0a:	98 f7       	brcc	.-26     	; 0x1df2 <_Z5gftoafi+0x22>
    1e0c:	02 c0       	rjmp	.+4      	; 0x1e12 <_Z5gftoafi+0x42>
    1e0e:	61 e0       	ldi	r22, 0x01	; 1
    1e10:	70 e0       	ldi	r23, 0x00	; 0
    1e12:	07 2e       	mov	r0, r23
    1e14:	00 0c       	add	r0, r0
    1e16:	88 0b       	sbc	r24, r24
    1e18:	99 0b       	sbc	r25, r25
    1e1a:	0e 94 2d 1c 	call	0x385a	; 0x385a <__floatsisf>
    1e1e:	a7 01       	movw	r20, r14
    1e20:	96 01       	movw	r18, r12
    1e22:	0e 94 e2 1c 	call	0x39c4	; 0x39c4 <__mulsf3>
    1e26:	0e 94 f5 1b 	call	0x37ea	; 0x37ea <__fixsfsi>
    1e2a:	ab 01       	movw	r20, r22
    1e2c:	bc 01       	movw	r22, r24
    1e2e:	ca 01       	movw	r24, r20
    1e30:	99 23       	and	r25, r25
    1e32:	1c f0       	brlt	.+6      	; 0x1e3a <_Z5gftoafi+0x6a>
    1e34:	21 e0       	ldi	r18, 0x01	; 1
    1e36:	30 e0       	ldi	r19, 0x00	; 0
    1e38:	02 c0       	rjmp	.+4      	; 0x1e3e <_Z5gftoafi+0x6e>
    1e3a:	2f ef       	ldi	r18, 0xFF	; 255
    1e3c:	3f ef       	ldi	r19, 0xFF	; 255
    1e3e:	24 9f       	mul	r18, r20
    1e40:	c0 01       	movw	r24, r0
    1e42:	25 9f       	mul	r18, r21
    1e44:	90 0d       	add	r25, r0
    1e46:	34 9f       	mul	r19, r20
    1e48:	90 0d       	add	r25, r0
    1e4a:	11 24       	eor	r1, r1
    1e4c:	03 e9       	ldi	r16, 0x93	; 147
    1e4e:	11 e0       	ldi	r17, 0x01	; 1
    1e50:	0f 2e       	mov	r0, r31
    1e52:	fa e0       	ldi	r31, 0x0A	; 10
    1e54:	ef 2e       	mov	r14, r31
    1e56:	f1 2c       	mov	r15, r1
    1e58:	f0 2d       	mov	r31, r0
    1e5a:	0f 2e       	mov	r0, r31
    1e5c:	fe e2       	ldi	r31, 0x2E	; 46
    1e5e:	df 2e       	mov	r13, r31
    1e60:	f0 2d       	mov	r31, r0
    1e62:	02 c0       	rjmp	.+4      	; 0x1e68 <_Z5gftoafi+0x98>
    1e64:	8f 01       	movw	r16, r30
    1e66:	ea 01       	movw	r28, r20
    1e68:	f8 01       	movw	r30, r16
    1e6a:	b7 01       	movw	r22, r14
    1e6c:	0e 94 4f 1d 	call	0x3a9e	; 0x3a9e <__divmodhi4>
    1e70:	80 5d       	subi	r24, 0xD0	; 208
    1e72:	82 93       	st	-Z, r24
    1e74:	86 2f       	mov	r24, r22
    1e76:	97 2f       	mov	r25, r23
    1e78:	ae 01       	movw	r20, r28
    1e7a:	41 50       	subi	r20, 0x01	; 1
    1e7c:	51 09       	sbc	r21, r1
    1e7e:	19 f4       	brne	.+6      	; 0x1e86 <_Z5gftoafi+0xb6>
    1e80:	f8 01       	movw	r30, r16
    1e82:	32 97       	sbiw	r30, 0x02	; 2
    1e84:	d0 82       	st	Z, r13
    1e86:	00 97       	sbiw	r24, 0x00	; 0
    1e88:	69 f7       	brne	.-38     	; 0x1e64 <_Z5gftoafi+0x94>
    1e8a:	14 16       	cp	r1, r20
    1e8c:	15 06       	cpc	r1, r21
    1e8e:	d4 f4       	brge	.+52     	; 0x1ec4 <_Z5gftoafi+0xf4>
    1e90:	be 01       	movw	r22, r28
    1e92:	62 50       	subi	r22, 0x02	; 2
    1e94:	71 09       	sbc	r23, r1
    1e96:	df 01       	movw	r26, r30
    1e98:	40 e3       	ldi	r20, 0x30	; 48
    1e9a:	21 97       	sbiw	r28, 0x01	; 1
    1e9c:	ce 1b       	sub	r28, r30
    1e9e:	df 0b       	sbc	r29, r31
    1ea0:	4e 93       	st	-X, r20
    1ea2:	cd 01       	movw	r24, r26
    1ea4:	8c 0f       	add	r24, r28
    1ea6:	9d 1f       	adc	r25, r29
    1ea8:	18 16       	cp	r1, r24
    1eaa:	19 06       	cpc	r1, r25
    1eac:	cc f3       	brlt	.-14     	; 0x1ea0 <_Z5gftoafi+0xd0>
    1eae:	cb 01       	movw	r24, r22
    1eb0:	99 23       	and	r25, r25
    1eb2:	14 f4       	brge	.+4      	; 0x1eb8 <_Z5gftoafi+0xe8>
    1eb4:	80 e0       	ldi	r24, 0x00	; 0
    1eb6:	90 e0       	ldi	r25, 0x00	; 0
    1eb8:	80 95       	com	r24
    1eba:	90 95       	com	r25
    1ebc:	e8 0f       	add	r30, r24
    1ebe:	f9 1f       	adc	r31, r25
    1ec0:	8e e2       	ldi	r24, 0x2E	; 46
    1ec2:	82 93       	st	-Z, r24
    1ec4:	80 81       	ld	r24, Z
    1ec6:	8e 32       	cpi	r24, 0x2E	; 46
    1ec8:	11 f4       	brne	.+4      	; 0x1ece <_Z5gftoafi+0xfe>
    1eca:	80 e3       	ldi	r24, 0x30	; 48
    1ecc:	82 93       	st	-Z, r24
    1ece:	33 23       	and	r19, r19
    1ed0:	14 f4       	brge	.+4      	; 0x1ed6 <_Z5gftoafi+0x106>
    1ed2:	8d e2       	ldi	r24, 0x2D	; 45
    1ed4:	82 93       	st	-Z, r24
    1ed6:	cf 01       	movw	r24, r30
    1ed8:	df 91       	pop	r29
    1eda:	cf 91       	pop	r28
    1edc:	1f 91       	pop	r17
    1ede:	0f 91       	pop	r16
    1ee0:	ff 90       	pop	r15
    1ee2:	ef 90       	pop	r14
    1ee4:	df 90       	pop	r13
    1ee6:	cf 90       	pop	r12
    1ee8:	08 95       	ret

00001eea <_Z8Lcd_initv>:
    1eea:	2c 9a       	sbi	0x05, 4	; 5
    1eec:	84 b1       	in	r24, 0x04	; 4
    1eee:	8e 63       	ori	r24, 0x3E	; 62
    1ef0:	84 b9       	out	0x04, r24	; 4
    1ef2:	2c 98       	cbi	0x05, 4	; 5
    1ef4:	2c 9a       	sbi	0x05, 4	; 5
    1ef6:	80 e5       	ldi	r24, 0x50	; 80
    1ef8:	8c bd       	out	0x2c, r24	; 44
    1efa:	2a 9a       	sbi	0x05, 2	; 5
    1efc:	60 e0       	ldi	r22, 0x00	; 0
    1efe:	81 e2       	ldi	r24, 0x21	; 33
    1f00:	0e 94 dc 0e 	call	0x1db8	; 0x1db8 <_ZL7LcdSendh10LcdCmdData>
    1f04:	60 e0       	ldi	r22, 0x00	; 0
    1f06:	88 ec       	ldi	r24, 0xC8	; 200
    1f08:	0e 94 dc 0e 	call	0x1db8	; 0x1db8 <_ZL7LcdSendh10LcdCmdData>
    1f0c:	60 e0       	ldi	r22, 0x00	; 0
    1f0e:	86 e0       	ldi	r24, 0x06	; 6
    1f10:	0e 94 dc 0e 	call	0x1db8	; 0x1db8 <_ZL7LcdSendh10LcdCmdData>
    1f14:	60 e0       	ldi	r22, 0x00	; 0
    1f16:	83 e1       	ldi	r24, 0x13	; 19
    1f18:	0e 94 dc 0e 	call	0x1db8	; 0x1db8 <_ZL7LcdSendh10LcdCmdData>
    1f1c:	60 e0       	ldi	r22, 0x00	; 0
    1f1e:	80 e2       	ldi	r24, 0x20	; 32
    1f20:	0e 94 dc 0e 	call	0x1db8	; 0x1db8 <_ZL7LcdSendh10LcdCmdData>
    1f24:	60 e0       	ldi	r22, 0x00	; 0
    1f26:	8c e0       	ldi	r24, 0x0C	; 12
    1f28:	0e 94 dc 0e 	call	0x1db8	; 0x1db8 <_ZL7LcdSendh10LcdCmdData>
    1f2c:	08 95       	ret

00001f2e <_Z9Lcd_clearv>:
    1f2e:	88 ef       	ldi	r24, 0xF8	; 248
    1f30:	91 e0       	ldi	r25, 0x01	; 1
    1f32:	ea e9       	ldi	r30, 0x9A	; 154
    1f34:	f1 e0       	ldi	r31, 0x01	; 1
    1f36:	df 01       	movw	r26, r30
    1f38:	9c 01       	movw	r18, r24
    1f3a:	1d 92       	st	X+, r1
    1f3c:	21 50       	subi	r18, 0x01	; 1
    1f3e:	30 40       	sbci	r19, 0x00	; 0
    1f40:	e1 f7       	brne	.-8      	; 0x1f3a <_Z9Lcd_clearv+0xc>
    1f42:	10 92 99 01 	sts	0x0199, r1	; 0x800199 <_ZL11LoWaterMark+0x1>
    1f46:	10 92 98 01 	sts	0x0198, r1	; 0x800198 <_ZL11LoWaterMark>
    1f4a:	87 ef       	ldi	r24, 0xF7	; 247
    1f4c:	91 e0       	ldi	r25, 0x01	; 1
    1f4e:	90 93 97 01 	sts	0x0197, r25	; 0x800197 <_ZL11HiWaterMark+0x1>
    1f52:	80 93 96 01 	sts	0x0196, r24	; 0x800196 <_ZL11HiWaterMark>
    1f56:	08 95       	ret

00001f58 <_Z10Lcd_updatev>:
    1f58:	ef 92       	push	r14
    1f5a:	ff 92       	push	r15
    1f5c:	0f 93       	push	r16
    1f5e:	1f 93       	push	r17
    1f60:	cf 93       	push	r28
    1f62:	df 93       	push	r29
    1f64:	80 91 98 01 	lds	r24, 0x0198	; 0x800198 <_ZL11LoWaterMark>
    1f68:	90 91 99 01 	lds	r25, 0x0199	; 0x800199 <_ZL11LoWaterMark+0x1>
    1f6c:	99 23       	and	r25, r25
    1f6e:	2c f4       	brge	.+10     	; 0x1f7a <_Z10Lcd_updatev+0x22>
    1f70:	10 92 99 01 	sts	0x0199, r1	; 0x800199 <_ZL11LoWaterMark+0x1>
    1f74:	10 92 98 01 	sts	0x0198, r1	; 0x800198 <_ZL11LoWaterMark>
    1f78:	09 c0       	rjmp	.+18     	; 0x1f8c <_Z10Lcd_updatev+0x34>
    1f7a:	88 3f       	cpi	r24, 0xF8	; 248
    1f7c:	91 40       	sbci	r25, 0x01	; 1
    1f7e:	34 f0       	brlt	.+12     	; 0x1f8c <_Z10Lcd_updatev+0x34>
    1f80:	87 ef       	ldi	r24, 0xF7	; 247
    1f82:	91 e0       	ldi	r25, 0x01	; 1
    1f84:	90 93 99 01 	sts	0x0199, r25	; 0x800199 <_ZL11LoWaterMark+0x1>
    1f88:	80 93 98 01 	sts	0x0198, r24	; 0x800198 <_ZL11LoWaterMark>
    1f8c:	80 91 96 01 	lds	r24, 0x0196	; 0x800196 <_ZL11HiWaterMark>
    1f90:	90 91 97 01 	lds	r25, 0x0197	; 0x800197 <_ZL11HiWaterMark+0x1>
    1f94:	99 23       	and	r25, r25
    1f96:	2c f4       	brge	.+10     	; 0x1fa2 <_Z10Lcd_updatev+0x4a>
    1f98:	10 92 97 01 	sts	0x0197, r1	; 0x800197 <_ZL11HiWaterMark+0x1>
    1f9c:	10 92 96 01 	sts	0x0196, r1	; 0x800196 <_ZL11HiWaterMark>
    1fa0:	09 c0       	rjmp	.+18     	; 0x1fb4 <_Z10Lcd_updatev+0x5c>
    1fa2:	88 3f       	cpi	r24, 0xF8	; 248
    1fa4:	91 40       	sbci	r25, 0x01	; 1
    1fa6:	34 f0       	brlt	.+12     	; 0x1fb4 <_Z10Lcd_updatev+0x5c>
    1fa8:	87 ef       	ldi	r24, 0xF7	; 247
    1faa:	91 e0       	ldi	r25, 0x01	; 1
    1fac:	90 93 97 01 	sts	0x0197, r25	; 0x800197 <_ZL11HiWaterMark+0x1>
    1fb0:	80 93 96 01 	sts	0x0196, r24	; 0x800196 <_ZL11HiWaterMark>
    1fb4:	c0 91 98 01 	lds	r28, 0x0198	; 0x800198 <_ZL11LoWaterMark>
    1fb8:	d0 91 99 01 	lds	r29, 0x0199	; 0x800199 <_ZL11LoWaterMark+0x1>
    1fbc:	ce 01       	movw	r24, r28
    1fbe:	64 e5       	ldi	r22, 0x54	; 84
    1fc0:	70 e0       	ldi	r23, 0x00	; 0
    1fc2:	0e 94 4f 1d 	call	0x3a9e	; 0x3a9e <__divmodhi4>
    1fc6:	16 2f       	mov	r17, r22
    1fc8:	60 e0       	ldi	r22, 0x00	; 0
    1fca:	80 68       	ori	r24, 0x80	; 128
    1fcc:	0e 94 dc 0e 	call	0x1db8	; 0x1db8 <_ZL7LcdSendh10LcdCmdData>
    1fd0:	60 e0       	ldi	r22, 0x00	; 0
    1fd2:	81 2f       	mov	r24, r17
    1fd4:	80 64       	ori	r24, 0x40	; 64
    1fd6:	0e 94 dc 0e 	call	0x1db8	; 0x1db8 <_ZL7LcdSendh10LcdCmdData>
    1fda:	e0 90 96 01 	lds	r14, 0x0196	; 0x800196 <_ZL11HiWaterMark>
    1fde:	f0 90 97 01 	lds	r15, 0x0197	; 0x800197 <_ZL11HiWaterMark+0x1>
    1fe2:	ec 16       	cp	r14, r28
    1fe4:	fd 06       	cpc	r15, r29
    1fe6:	6c f0       	brlt	.+26     	; 0x2002 <_Z10Lcd_updatev+0xaa>
    1fe8:	8e 01       	movw	r16, r28
    1fea:	06 56       	subi	r16, 0x66	; 102
    1fec:	1e 4f       	sbci	r17, 0xFE	; 254
    1fee:	61 e0       	ldi	r22, 0x01	; 1
    1ff0:	f8 01       	movw	r30, r16
    1ff2:	81 91       	ld	r24, Z+
    1ff4:	8f 01       	movw	r16, r30
    1ff6:	0e 94 dc 0e 	call	0x1db8	; 0x1db8 <_ZL7LcdSendh10LcdCmdData>
    1ffa:	21 96       	adiw	r28, 0x01	; 1
    1ffc:	ec 16       	cp	r14, r28
    1ffe:	fd 06       	cpc	r15, r29
    2000:	b4 f7       	brge	.-20     	; 0x1fee <_Z10Lcd_updatev+0x96>
    2002:	87 ef       	ldi	r24, 0xF7	; 247
    2004:	91 e0       	ldi	r25, 0x01	; 1
    2006:	90 93 99 01 	sts	0x0199, r25	; 0x800199 <_ZL11LoWaterMark+0x1>
    200a:	80 93 98 01 	sts	0x0198, r24	; 0x800198 <_ZL11LoWaterMark>
    200e:	10 92 97 01 	sts	0x0197, r1	; 0x800197 <_ZL11HiWaterMark+0x1>
    2012:	10 92 96 01 	sts	0x0196, r1	; 0x800196 <_ZL11HiWaterMark>
    2016:	df 91       	pop	r29
    2018:	cf 91       	pop	r28
    201a:	1f 91       	pop	r17
    201c:	0f 91       	pop	r16
    201e:	ff 90       	pop	r15
    2020:	ef 90       	pop	r14
    2022:	08 95       	ret

00002024 <_Z9LcdGotoXYhh>:
    2024:	8e 30       	cpi	r24, 0x0E	; 14
    2026:	a8 f4       	brcc	.+42     	; 0x2052 <_Z9LcdGotoXYhh+0x2e>
    2028:	66 30       	cpi	r22, 0x06	; 6
    202a:	a8 f4       	brcc	.+42     	; 0x2056 <_Z9LcdGotoXYhh+0x32>
    202c:	90 e0       	ldi	r25, 0x00	; 0
    202e:	9c 01       	movw	r18, r24
    2030:	22 0f       	add	r18, r18
    2032:	33 1f       	adc	r19, r19
    2034:	82 0f       	add	r24, r18
    2036:	93 1f       	adc	r25, r19
    2038:	88 0f       	add	r24, r24
    203a:	99 1f       	adc	r25, r25
    203c:	24 e5       	ldi	r18, 0x54	; 84
    203e:	62 9f       	mul	r22, r18
    2040:	80 0d       	add	r24, r0
    2042:	91 1d       	adc	r25, r1
    2044:	11 24       	eor	r1, r1
    2046:	90 93 95 01 	sts	0x0195, r25	; 0x800195 <_ZL11LcdCacheIdx+0x1>
    204a:	80 93 94 01 	sts	0x0194, r24	; 0x800194 <_ZL11LcdCacheIdx>
    204e:	80 e0       	ldi	r24, 0x00	; 0
    2050:	08 95       	ret
    2052:	81 e0       	ldi	r24, 0x01	; 1
    2054:	08 95       	ret
    2056:	81 e0       	ldi	r24, 0x01	; 1
    2058:	08 95       	ret

0000205a <_Z11LcdChr_fullh>:
    205a:	40 91 94 01 	lds	r20, 0x0194	; 0x800194 <_ZL11LcdCacheIdx>
    205e:	50 91 95 01 	lds	r21, 0x0195	; 0x800195 <_ZL11LcdCacheIdx+0x1>
    2062:	80 52       	subi	r24, 0x20	; 32
    2064:	97 e0       	ldi	r25, 0x07	; 7
    2066:	89 9f       	mul	r24, r25
    2068:	f0 01       	movw	r30, r0
    206a:	11 24       	eor	r1, r1
    206c:	e4 53       	subi	r30, 0x34	; 52
    206e:	fd 4f       	sbci	r31, 0xFD	; 253
    2070:	da 01       	movw	r26, r20
    2072:	a6 56       	subi	r26, 0x66	; 102
    2074:	be 4f       	sbci	r27, 0xFE	; 254
    2076:	9a 01       	movw	r18, r20
    2078:	20 56       	subi	r18, 0x60	; 96
    207a:	3e 4f       	sbci	r19, 0xFE	; 254
    207c:	84 91       	lpm	r24, Z
    207e:	8d 93       	st	X+, r24
    2080:	31 96       	adiw	r30, 0x01	; 1
    2082:	a2 17       	cp	r26, r18
    2084:	b3 07       	cpc	r27, r19
    2086:	d1 f7       	brne	.-12     	; 0x207c <_Z11LcdChr_fullh+0x22>
    2088:	4a 5f       	subi	r20, 0xFA	; 250
    208a:	5f 4f       	sbci	r21, 0xFF	; 255
    208c:	50 93 95 01 	sts	0x0195, r21	; 0x800195 <_ZL11LcdCacheIdx+0x1>
    2090:	40 93 94 01 	sts	0x0194, r20	; 0x800194 <_ZL11LcdCacheIdx>
    2094:	80 e0       	ldi	r24, 0x00	; 0
    2096:	08 95       	ret

00002098 <_Z12LcdStepLevelh>:
    2098:	40 91 94 01 	lds	r20, 0x0194	; 0x800194 <_ZL11LcdCacheIdx>
    209c:	50 91 95 01 	lds	r21, 0x0195	; 0x800195 <_ZL11LcdCacheIdx+0x1>
    20a0:	90 e0       	ldi	r25, 0x00	; 0
    20a2:	fc 01       	movw	r30, r24
    20a4:	ee 0f       	add	r30, r30
    20a6:	ff 1f       	adc	r31, r31
    20a8:	e8 0f       	add	r30, r24
    20aa:	f9 1f       	adc	r31, r25
    20ac:	ee 0f       	add	r30, r30
    20ae:	ff 1f       	adc	r31, r31
    20b0:	ee 0f       	add	r30, r30
    20b2:	ff 1f       	adc	r31, r31
    20b4:	ee 0f       	add	r30, r30
    20b6:	ff 1f       	adc	r31, r31
    20b8:	e4 51       	subi	r30, 0x14	; 20
    20ba:	ff 4f       	sbci	r31, 0xFF	; 255
    20bc:	da 01       	movw	r26, r20
    20be:	a6 56       	subi	r26, 0x66	; 102
    20c0:	be 4f       	sbci	r27, 0xFE	; 254
    20c2:	9a 01       	movw	r18, r20
    20c4:	2e 54       	subi	r18, 0x4E	; 78
    20c6:	3e 4f       	sbci	r19, 0xFE	; 254
    20c8:	84 91       	lpm	r24, Z
    20ca:	8d 93       	st	X+, r24
    20cc:	31 96       	adiw	r30, 0x01	; 1
    20ce:	a2 17       	cp	r26, r18
    20d0:	b3 07       	cpc	r27, r19
    20d2:	d1 f7       	brne	.-12     	; 0x20c8 <_Z12LcdStepLevelh+0x30>
    20d4:	48 5e       	subi	r20, 0xE8	; 232
    20d6:	5f 4f       	sbci	r21, 0xFF	; 255
    20d8:	50 93 95 01 	sts	0x0195, r21	; 0x800195 <_ZL11LcdCacheIdx+0x1>
    20dc:	40 93 94 01 	sts	0x0194, r20	; 0x800194 <_ZL11LcdCacheIdx>
    20e0:	80 e0       	ldi	r24, 0x00	; 0
    20e2:	08 95       	ret

000020e4 <_Z6LcdChr11LcdFontSizeh>:
    20e4:	0f 93       	push	r16
    20e6:	1f 93       	push	r17
    20e8:	cf 93       	push	r28
    20ea:	df 93       	push	r29
    20ec:	40 91 94 01 	lds	r20, 0x0194	; 0x800194 <_ZL11LcdCacheIdx>
    20f0:	50 91 95 01 	lds	r21, 0x0195	; 0x800195 <_ZL11LcdCacheIdx+0x1>
    20f4:	20 91 98 01 	lds	r18, 0x0198	; 0x800198 <_ZL11LoWaterMark>
    20f8:	30 91 99 01 	lds	r19, 0x0199	; 0x800199 <_ZL11LoWaterMark+0x1>
    20fc:	42 17       	cp	r20, r18
    20fe:	53 07       	cpc	r21, r19
    2100:	24 f4       	brge	.+8      	; 0x210a <_Z6LcdChr11LcdFontSizeh+0x26>
    2102:	50 93 99 01 	sts	0x0199, r21	; 0x800199 <_ZL11LoWaterMark+0x1>
    2106:	40 93 98 01 	sts	0x0198, r20	; 0x800198 <_ZL11LoWaterMark>
    210a:	e0 ee       	ldi	r30, 0xE0	; 224
    210c:	e6 0f       	add	r30, r22
    210e:	e0 3a       	cpi	r30, 0xA0	; 160
    2110:	08 f4       	brcc	.+2      	; 0x2114 <_Z6LcdChr11LcdFontSizeh+0x30>
    2112:	a0 c0       	rjmp	.+320    	; 0x2254 <_Z6LcdChr11LcdFontSizeh+0x170>
    2114:	60 3c       	cpi	r22, 0xC0	; 192
    2116:	08 f4       	brcc	.+2      	; 0x211a <_Z6LcdChr11LcdFontSizeh+0x36>
    2118:	9c c0       	rjmp	.+312    	; 0x2252 <_Z6LcdChr11LcdFontSizeh+0x16e>
    211a:	e1 ec       	ldi	r30, 0xC1	; 193
    211c:	e6 0f       	add	r30, r22
    211e:	9a c0       	rjmp	.+308    	; 0x2254 <_Z6LcdChr11LcdFontSizeh+0x170>
    2120:	84 91       	lpm	r24, Z
    2122:	88 0f       	add	r24, r24
    2124:	8d 93       	st	X+, r24
    2126:	31 96       	adiw	r30, 0x01	; 1
    2128:	a2 17       	cp	r26, r18
    212a:	b3 07       	cpc	r27, r19
    212c:	c9 f7       	brne	.-14     	; 0x2120 <_Z6LcdChr11LcdFontSizeh+0x3c>
    212e:	4b 5f       	subi	r20, 0xFB	; 251
    2130:	5f 4f       	sbci	r21, 0xFF	; 255
    2132:	50 93 95 01 	sts	0x0195, r21	; 0x800195 <_ZL11LcdCacheIdx+0x1>
    2136:	40 93 94 01 	sts	0x0194, r20	; 0x800194 <_ZL11LcdCacheIdx>
    213a:	65 c0       	rjmp	.+202    	; 0x2206 <_Z6LcdChr11LcdFontSizeh+0x122>
    213c:	82 30       	cpi	r24, 0x02	; 2
    213e:	09 f0       	breq	.+2      	; 0x2142 <_Z6LcdChr11LcdFontSizeh+0x5e>
    2140:	62 c0       	rjmp	.+196    	; 0x2206 <_Z6LcdChr11LcdFontSizeh+0x122>
    2142:	ca 01       	movw	r24, r20
    2144:	84 55       	subi	r24, 0x54	; 84
    2146:	91 09       	sbc	r25, r1
    2148:	20 91 98 01 	lds	r18, 0x0198	; 0x800198 <_ZL11LoWaterMark>
    214c:	30 91 99 01 	lds	r19, 0x0199	; 0x800199 <_ZL11LoWaterMark+0x1>
    2150:	82 17       	cp	r24, r18
    2152:	93 07       	cpc	r25, r19
    2154:	0c f0       	brlt	.+2      	; 0x2158 <_Z6LcdChr11LcdFontSizeh+0x74>
    2156:	8e c0       	rjmp	.+284    	; 0x2274 <_Z6LcdChr11LcdFontSizeh+0x190>
    2158:	90 93 99 01 	sts	0x0199, r25	; 0x800199 <_ZL11LoWaterMark+0x1>
    215c:	80 93 98 01 	sts	0x0198, r24	; 0x800198 <_ZL11LoWaterMark>
    2160:	89 c0       	rjmp	.+274    	; 0x2274 <_Z6LcdChr11LcdFontSizeh+0x190>
    2162:	24 91       	lpm	r18, Z
    2164:	22 0f       	add	r18, r18
    2166:	82 2f       	mov	r24, r18
    2168:	82 70       	andi	r24, 0x02	; 2
    216a:	98 2f       	mov	r25, r24
    216c:	99 0f       	add	r25, r25
    216e:	89 0f       	add	r24, r25
    2170:	98 2f       	mov	r25, r24
    2172:	99 0f       	add	r25, r25
    2174:	82 2f       	mov	r24, r18
    2176:	84 70       	andi	r24, 0x04	; 4
    2178:	38 2f       	mov	r19, r24
    217a:	33 0f       	add	r19, r19
    217c:	83 0f       	add	r24, r19
    217e:	88 0f       	add	r24, r24
    2180:	88 0f       	add	r24, r24
    2182:	89 2b       	or	r24, r25
    2184:	02 2f       	mov	r16, r18
    2186:	08 70       	andi	r16, 0x08	; 8
    2188:	01 9f       	mul	r16, r17
    218a:	00 2d       	mov	r16, r0
    218c:	11 24       	eor	r1, r1
    218e:	08 2b       	or	r16, r24
    2190:	30 e0       	ldi	r19, 0x00	; 0
    2192:	35 95       	asr	r19
    2194:	27 95       	ror	r18
    2196:	35 95       	asr	r19
    2198:	27 95       	ror	r18
    219a:	35 95       	asr	r19
    219c:	27 95       	ror	r18
    219e:	35 95       	asr	r19
    21a0:	27 95       	ror	r18
    21a2:	82 2f       	mov	r24, r18
    21a4:	82 70       	andi	r24, 0x02	; 2
    21a6:	38 2f       	mov	r19, r24
    21a8:	33 0f       	add	r19, r19
    21aa:	83 0f       	add	r24, r19
    21ac:	88 0f       	add	r24, r24
    21ae:	32 2f       	mov	r19, r18
    21b0:	31 70       	andi	r19, 0x01	; 1
    21b2:	93 2f       	mov	r25, r19
    21b4:	99 0f       	add	r25, r25
    21b6:	39 0f       	add	r19, r25
    21b8:	83 2b       	or	r24, r19
    21ba:	92 2f       	mov	r25, r18
    21bc:	94 70       	andi	r25, 0x04	; 4
    21be:	39 2f       	mov	r19, r25
    21c0:	33 0f       	add	r19, r19
    21c2:	93 0f       	add	r25, r19
    21c4:	99 0f       	add	r25, r25
    21c6:	99 0f       	add	r25, r25
    21c8:	89 2b       	or	r24, r25
    21ca:	92 2f       	mov	r25, r18
    21cc:	98 70       	andi	r25, 0x08	; 8
    21ce:	91 9f       	mul	r25, r17
    21d0:	90 2d       	mov	r25, r0
    21d2:	11 24       	eor	r1, r1
    21d4:	28 2f       	mov	r18, r24
    21d6:	29 2b       	or	r18, r25
    21d8:	08 83       	st	Y, r16
    21da:	09 83       	std	Y+1, r16	; 0x01
    21dc:	2c 93       	st	X, r18
    21de:	11 96       	adiw	r26, 0x01	; 1
    21e0:	2c 93       	st	X, r18
    21e2:	11 97       	sbiw	r26, 0x01	; 1
    21e4:	31 96       	adiw	r30, 0x01	; 1
    21e6:	22 96       	adiw	r28, 0x02	; 2
    21e8:	12 96       	adiw	r26, 0x02	; 2
    21ea:	a6 17       	cp	r26, r22
    21ec:	b7 07       	cpc	r27, r23
    21ee:	09 f0       	breq	.+2      	; 0x21f2 <_Z6LcdChr11LcdFontSizeh+0x10e>
    21f0:	b8 cf       	rjmp	.-144    	; 0x2162 <_Z6LcdChr11LcdFontSizeh+0x7e>
    21f2:	ca 01       	movw	r24, r20
    21f4:	0b 96       	adiw	r24, 0x0b	; 11
    21f6:	68 ef       	ldi	r22, 0xF8	; 248
    21f8:	71 e0       	ldi	r23, 0x01	; 1
    21fa:	0e 94 4f 1d 	call	0x3a9e	; 0x3a9e <__divmodhi4>
    21fe:	90 93 95 01 	sts	0x0195, r25	; 0x800195 <_ZL11LcdCacheIdx+0x1>
    2202:	80 93 94 01 	sts	0x0194, r24	; 0x800194 <_ZL11LcdCacheIdx>
    2206:	80 91 94 01 	lds	r24, 0x0194	; 0x800194 <_ZL11LcdCacheIdx>
    220a:	90 91 95 01 	lds	r25, 0x0195	; 0x800195 <_ZL11LcdCacheIdx+0x1>
    220e:	20 91 96 01 	lds	r18, 0x0196	; 0x800196 <_ZL11HiWaterMark>
    2212:	30 91 97 01 	lds	r19, 0x0197	; 0x800197 <_ZL11HiWaterMark+0x1>
    2216:	28 17       	cp	r18, r24
    2218:	39 07       	cpc	r19, r25
    221a:	24 f4       	brge	.+8      	; 0x2224 <_Z6LcdChr11LcdFontSizeh+0x140>
    221c:	90 93 97 01 	sts	0x0197, r25	; 0x800197 <_ZL11HiWaterMark+0x1>
    2220:	80 93 96 01 	sts	0x0196, r24	; 0x800196 <_ZL11HiWaterMark>
    2224:	fc 01       	movw	r30, r24
    2226:	e6 56       	subi	r30, 0x66	; 102
    2228:	fe 4f       	sbci	r31, 0xFE	; 254
    222a:	10 82       	st	Z, r1
    222c:	87 3f       	cpi	r24, 0xF7	; 247
    222e:	21 e0       	ldi	r18, 0x01	; 1
    2230:	92 07       	cpc	r25, r18
    2232:	31 f4       	brne	.+12     	; 0x2240 <_Z6LcdChr11LcdFontSizeh+0x15c>
    2234:	10 92 95 01 	sts	0x0195, r1	; 0x800195 <_ZL11LcdCacheIdx+0x1>
    2238:	10 92 94 01 	sts	0x0194, r1	; 0x800194 <_ZL11LcdCacheIdx>
    223c:	82 e0       	ldi	r24, 0x02	; 2
    223e:	2d c0       	rjmp	.+90     	; 0x229a <_Z6LcdChr11LcdFontSizeh+0x1b6>
    2240:	01 96       	adiw	r24, 0x01	; 1
    2242:	90 93 95 01 	sts	0x0195, r25	; 0x800195 <_ZL11LcdCacheIdx+0x1>
    2246:	80 93 94 01 	sts	0x0194, r24	; 0x800194 <_ZL11LcdCacheIdx>
    224a:	80 e0       	ldi	r24, 0x00	; 0
    224c:	26 c0       	rjmp	.+76     	; 0x229a <_Z6LcdChr11LcdFontSizeh+0x1b6>
    224e:	81 e0       	ldi	r24, 0x01	; 1
    2250:	24 c0       	rjmp	.+72     	; 0x229a <_Z6LcdChr11LcdFontSizeh+0x1b6>
    2252:	ef e5       	ldi	r30, 0x5F	; 95
    2254:	81 30       	cpi	r24, 0x01	; 1
    2256:	09 f0       	breq	.+2      	; 0x225a <_Z6LcdChr11LcdFontSizeh+0x176>
    2258:	71 cf       	rjmp	.-286    	; 0x213c <_Z6LcdChr11LcdFontSizeh+0x58>
    225a:	87 e0       	ldi	r24, 0x07	; 7
    225c:	e8 9f       	mul	r30, r24
    225e:	f0 01       	movw	r30, r0
    2260:	11 24       	eor	r1, r1
    2262:	e4 53       	subi	r30, 0x34	; 52
    2264:	fd 4f       	sbci	r31, 0xFD	; 253
    2266:	da 01       	movw	r26, r20
    2268:	a6 56       	subi	r26, 0x66	; 102
    226a:	be 4f       	sbci	r27, 0xFE	; 254
    226c:	9a 01       	movw	r18, r20
    226e:	21 56       	subi	r18, 0x61	; 97
    2270:	3e 4f       	sbci	r19, 0xFE	; 254
    2272:	56 cf       	rjmp	.-340    	; 0x2120 <_Z6LcdChr11LcdFontSizeh+0x3c>
    2274:	99 23       	and	r25, r25
    2276:	5c f3       	brlt	.-42     	; 0x224e <_Z6LcdChr11LcdFontSizeh+0x16a>
    2278:	27 e0       	ldi	r18, 0x07	; 7
    227a:	e2 9f       	mul	r30, r18
    227c:	f0 01       	movw	r30, r0
    227e:	11 24       	eor	r1, r1
    2280:	e4 53       	subi	r30, 0x34	; 52
    2282:	fd 4f       	sbci	r31, 0xFD	; 253
    2284:	ea 01       	movw	r28, r20
    2286:	ca 5b       	subi	r28, 0xBA	; 186
    2288:	de 4f       	sbci	r29, 0xFE	; 254
    228a:	da 01       	movw	r26, r20
    228c:	a6 56       	subi	r26, 0x66	; 102
    228e:	be 4f       	sbci	r27, 0xFE	; 254
    2290:	ba 01       	movw	r22, r20
    2292:	6c 55       	subi	r22, 0x5C	; 92
    2294:	7e 4f       	sbci	r23, 0xFE	; 254
    2296:	18 e1       	ldi	r17, 0x18	; 24
    2298:	64 cf       	rjmp	.-312    	; 0x2162 <_Z6LcdChr11LcdFontSizeh+0x7e>
    229a:	df 91       	pop	r29
    229c:	cf 91       	pop	r28
    229e:	1f 91       	pop	r17
    22a0:	0f 91       	pop	r16
    22a2:	08 95       	ret

000022a4 <_Z9Lcd_printhh11LcdFontSizePh>:
    22a4:	0f 93       	push	r16
    22a6:	1f 93       	push	r17
    22a8:	cf 93       	push	r28
    22aa:	df 93       	push	r29
    22ac:	d4 2f       	mov	r29, r20
    22ae:	89 01       	movw	r16, r18
    22b0:	0e 94 12 10 	call	0x2024	; 0x2024 <_Z9LcdGotoXYhh>
    22b4:	f8 01       	movw	r30, r16
    22b6:	60 81       	ld	r22, Z
    22b8:	66 23       	and	r22, r22
    22ba:	79 f0       	breq	.+30     	; 0x22da <_Z9Lcd_printhh11LcdFontSizePh+0x36>
    22bc:	c0 e0       	ldi	r28, 0x00	; 0
    22be:	8d 2f       	mov	r24, r29
    22c0:	0e 94 72 10 	call	0x20e4	; 0x20e4 <_Z6LcdChr11LcdFontSizeh>
    22c4:	81 30       	cpi	r24, 0x01	; 1
    22c6:	41 f0       	breq	.+16     	; 0x22d8 <_Z9Lcd_printhh11LcdFontSizePh+0x34>
    22c8:	cf 5f       	subi	r28, 0xFF	; 255
    22ca:	f8 01       	movw	r30, r16
    22cc:	ec 0f       	add	r30, r28
    22ce:	f1 1d       	adc	r31, r1
    22d0:	60 81       	ld	r22, Z
    22d2:	61 11       	cpse	r22, r1
    22d4:	f4 cf       	rjmp	.-24     	; 0x22be <_Z9Lcd_printhh11LcdFontSizePh+0x1a>
    22d6:	01 c0       	rjmp	.+2      	; 0x22da <_Z9Lcd_printhh11LcdFontSizePh+0x36>
    22d8:	61 e0       	ldi	r22, 0x01	; 1
    22da:	86 2f       	mov	r24, r22
    22dc:	df 91       	pop	r29
    22de:	cf 91       	pop	r28
    22e0:	1f 91       	pop	r17
    22e2:	0f 91       	pop	r16
    22e4:	08 95       	ret

000022e6 <_Z10Lcd_print2hh11LcdFontSizePh>:
    22e6:	ff 92       	push	r15
    22e8:	0f 93       	push	r16
    22ea:	1f 93       	push	r17
    22ec:	cf 93       	push	r28
    22ee:	df 93       	push	r29
    22f0:	f4 2e       	mov	r15, r20
    22f2:	89 01       	movw	r16, r18
    22f4:	0e 94 12 10 	call	0x2024	; 0x2024 <_Z9LcdGotoXYhh>
    22f8:	f8 01       	movw	r30, r16
    22fa:	60 81       	ld	r22, Z
    22fc:	66 23       	and	r22, r22
    22fe:	91 f0       	breq	.+36     	; 0x2324 <_Z10Lcd_print2hh11LcdFontSizePh+0x3e>
    2300:	c0 e0       	ldi	r28, 0x00	; 0
    2302:	6e 32       	cpi	r22, 0x2E	; 46
    2304:	21 f0       	breq	.+8      	; 0x230e <_Z10Lcd_print2hh11LcdFontSizePh+0x28>
    2306:	8f 2d       	mov	r24, r15
    2308:	0e 94 72 10 	call	0x20e4	; 0x20e4 <_Z6LcdChr11LcdFontSizeh>
    230c:	d8 2f       	mov	r29, r24
    230e:	d1 30       	cpi	r29, 0x01	; 1
    2310:	41 f0       	breq	.+16     	; 0x2322 <_Z10Lcd_print2hh11LcdFontSizePh+0x3c>
    2312:	cf 5f       	subi	r28, 0xFF	; 255
    2314:	f8 01       	movw	r30, r16
    2316:	ec 0f       	add	r30, r28
    2318:	f1 1d       	adc	r31, r1
    231a:	60 81       	ld	r22, Z
    231c:	61 11       	cpse	r22, r1
    231e:	f1 cf       	rjmp	.-30     	; 0x2302 <_Z10Lcd_print2hh11LcdFontSizePh+0x1c>
    2320:	01 c0       	rjmp	.+2      	; 0x2324 <_Z10Lcd_print2hh11LcdFontSizePh+0x3e>
    2322:	61 e0       	ldi	r22, 0x01	; 1
    2324:	86 2f       	mov	r24, r22
    2326:	df 91       	pop	r29
    2328:	cf 91       	pop	r28
    232a:	1f 91       	pop	r17
    232c:	0f 91       	pop	r16
    232e:	ff 90       	pop	r15
    2330:	08 95       	ret

00002332 <_Z10Lcd_printfhh11LcdFontSizefi>:
 *   :      n5110lcd.h
 *                 :  LcdFStr(0, 0, FONT_1X, float_var , 2);
 *                          LcdFStr(0, 0, FONT_1X, &name_of_string_as_array);
 */
void Lcd_printf ( byte x, byte y, LcdFontSize size, float data, int accuracy )
{
    2332:	df 92       	push	r13
    2334:	ef 92       	push	r14
    2336:	ff 92       	push	r15
    2338:	0f 93       	push	r16
    233a:	1f 93       	push	r17
    233c:	cf 93       	push	r28
    233e:	df 93       	push	r29
    2340:	c8 2f       	mov	r28, r24
    2342:	d6 2f       	mov	r29, r22
    2344:	d4 2e       	mov	r13, r20
    2346:	a7 01       	movw	r20, r14
	Lcd_print(x, y, size, (unsigned char*)gftoa(data, accuracy));
    2348:	c9 01       	movw	r24, r18
    234a:	b8 01       	movw	r22, r16
    234c:	0e 94 e8 0e 	call	0x1dd0	; 0x1dd0 <_Z5gftoafi>
    2350:	9c 01       	movw	r18, r24
    2352:	4d 2d       	mov	r20, r13
    2354:	6d 2f       	mov	r22, r29
    2356:	8c 2f       	mov	r24, r28
    2358:	0e 94 52 11 	call	0x22a4	; 0x22a4 <_Z9Lcd_printhh11LcdFontSizePh>
}
    235c:	df 91       	pop	r29
    235e:	cf 91       	pop	r28
    2360:	1f 91       	pop	r17
    2362:	0f 91       	pop	r16
    2364:	ff 90       	pop	r15
    2366:	ef 90       	pop	r14
    2368:	df 90       	pop	r13
    236a:	08 95       	ret

0000236c <_Z11Lcd_printf2hh11LcdFontSizefi>:

void Lcd_printf2 ( byte x, byte y, LcdFontSize size, float data, int accuracy )
{
    236c:	df 92       	push	r13
    236e:	ef 92       	push	r14
    2370:	ff 92       	push	r15
    2372:	0f 93       	push	r16
    2374:	1f 93       	push	r17
    2376:	cf 93       	push	r28
    2378:	df 93       	push	r29
    237a:	c8 2f       	mov	r28, r24
    237c:	d6 2f       	mov	r29, r22
    237e:	d4 2e       	mov	r13, r20
    2380:	a7 01       	movw	r20, r14
	Lcd_print2(x, y, size, (unsigned char*)gftoa(data, accuracy));
    2382:	c9 01       	movw	r24, r18
    2384:	b8 01       	movw	r22, r16
    2386:	0e 94 e8 0e 	call	0x1dd0	; 0x1dd0 <_Z5gftoafi>
    238a:	9c 01       	movw	r18, r24
    238c:	4d 2d       	mov	r20, r13
    238e:	6d 2f       	mov	r22, r29
    2390:	8c 2f       	mov	r24, r28
    2392:	0e 94 73 11 	call	0x22e6	; 0x22e6 <_Z10Lcd_print2hh11LcdFontSizePh>
}
    2396:	df 91       	pop	r29
    2398:	cf 91       	pop	r28
    239a:	1f 91       	pop	r17
    239c:	0f 91       	pop	r16
    239e:	ff 90       	pop	r15
    23a0:	ef 90       	pop	r14
    23a2:	df 90       	pop	r13
    23a4:	08 95       	ret

000023a6 <_Z14Initialisationv>:
Panel panel;
Screen screen;
Activity activity;


void Initialisation(){
    23a6:	cf 92       	push	r12
    23a8:	df 92       	push	r13
    23aa:	ef 92       	push	r14
    23ac:	ff 92       	push	r15
    23ae:	0f 93       	push	r16
    23b0:	1f 93       	push	r17
	okButton.Init('D', 2);
    23b2:	42 e0       	ldi	r20, 0x02	; 2
    23b4:	50 e0       	ldi	r21, 0x00	; 0
    23b6:	64 e4       	ldi	r22, 0x44	; 68
    23b8:	85 e5       	ldi	r24, 0x55	; 85
    23ba:	97 e0       	ldi	r25, 0x07	; 7
    23bc:	0e 94 d8 08 	call	0x11b0	; 0x11b0 <_ZN6Button4InitEci>
	upButton.Init('D', 3);
    23c0:	43 e0       	ldi	r20, 0x03	; 3
    23c2:	50 e0       	ldi	r21, 0x00	; 0
    23c4:	64 e4       	ldi	r22, 0x44	; 68
    23c6:	8e e4       	ldi	r24, 0x4E	; 78
    23c8:	97 e0       	ldi	r25, 0x07	; 7
    23ca:	0e 94 d8 08 	call	0x11b0	; 0x11b0 <_ZN6Button4InitEci>
	downButton.Init('D', 4);
    23ce:	44 e0       	ldi	r20, 0x04	; 4
    23d0:	50 e0       	ldi	r21, 0x00	; 0
    23d2:	64 e4       	ldi	r22, 0x44	; 68
    23d4:	87 e4       	ldi	r24, 0x47	; 71
    23d6:	97 e0       	ldi	r25, 0x07	; 7
    23d8:	0e 94 d8 08 	call	0x11b0	; 0x11b0 <_ZN6Button4InitEci>
	leftButton.Init('D',5);
    23dc:	45 e0       	ldi	r20, 0x05	; 5
    23de:	50 e0       	ldi	r21, 0x00	; 0
    23e0:	64 e4       	ldi	r22, 0x44	; 68
    23e2:	80 e4       	ldi	r24, 0x40	; 64
    23e4:	97 e0       	ldi	r25, 0x07	; 7
    23e6:	0e 94 d8 08 	call	0x11b0	; 0x11b0 <_ZN6Button4InitEci>
	rightButton.Init('D',6);
    23ea:	46 e0       	ldi	r20, 0x06	; 6
    23ec:	50 e0       	ldi	r21, 0x00	; 0
    23ee:	64 e4       	ldi	r22, 0x44	; 68
    23f0:	89 e3       	ldi	r24, 0x39	; 57
    23f2:	97 e0       	ldi	r25, 0x07	; 7
    23f4:	0e 94 d8 08 	call	0x11b0	; 0x11b0 <_ZN6Button4InitEci>
	panel.Init(okButton,upButton,downButton,leftButton,rightButton);
    23f8:	0f 2e       	mov	r0, r31
    23fa:	f9 e3       	ldi	r31, 0x39	; 57
    23fc:	ef 2e       	mov	r14, r31
    23fe:	f7 e0       	ldi	r31, 0x07	; 7
    2400:	ff 2e       	mov	r15, r31
    2402:	f0 2d       	mov	r31, r0
    2404:	00 e4       	ldi	r16, 0x40	; 64
    2406:	17 e0       	ldi	r17, 0x07	; 7
    2408:	27 e4       	ldi	r18, 0x47	; 71
    240a:	37 e0       	ldi	r19, 0x07	; 7
    240c:	4e e4       	ldi	r20, 0x4E	; 78
    240e:	57 e0       	ldi	r21, 0x07	; 7
    2410:	65 e5       	ldi	r22, 0x55	; 85
    2412:	77 e0       	ldi	r23, 0x07	; 7
    2414:	85 e9       	ldi	r24, 0x95	; 149
    2416:	95 e0       	ldi	r25, 0x05	; 5
    2418:	0e 94 74 18 	call	0x30e8	; 0x30e8 <_ZN5Panel4InitER6ButtonS1_S1_S1_S1_>
	Lcd_init();
    241c:	0e 94 75 0f 	call	0x1eea	; 0x1eea <_Z8Lcd_initv>
	wheel_lf.Init(1);
    2420:	61 e0       	ldi	r22, 0x01	; 1
    2422:	70 e0       	ldi	r23, 0x00	; 0
    2424:	8e e0       	ldi	r24, 0x0E	; 14
    2426:	97 e0       	ldi	r25, 0x07	; 7
    2428:	0e 94 ea 19 	call	0x33d4	; 0x33d4 <_ZN5Wheel4InitEi>
	wheel_rf.Init(2);
    242c:	62 e0       	ldi	r22, 0x02	; 2
    242e:	70 e0       	ldi	r23, 0x00	; 0
    2430:	83 ee       	ldi	r24, 0xE3	; 227
    2432:	96 e0       	ldi	r25, 0x06	; 6
    2434:	0e 94 ea 19 	call	0x33d4	; 0x33d4 <_ZN5Wheel4InitEi>
	wheel_rr.Init(3);
    2438:	63 e0       	ldi	r22, 0x03	; 3
    243a:	70 e0       	ldi	r23, 0x00	; 0
    243c:	88 eb       	ldi	r24, 0xB8	; 184
    243e:	96 e0       	ldi	r25, 0x06	; 6
    2440:	0e 94 ea 19 	call	0x33d4	; 0x33d4 <_ZN5Wheel4InitEi>
	wheel_lr.Init(4);
    2444:	64 e0       	ldi	r22, 0x04	; 4
    2446:	70 e0       	ldi	r23, 0x00	; 0
    2448:	8d e8       	ldi	r24, 0x8D	; 141
    244a:	96 e0       	ldi	r25, 0x06	; 6
    244c:	0e 94 ea 19 	call	0x33d4	; 0x33d4 <_ZN5Wheel4InitEi>
	carrage.Init(wheel_lf,wheel_rf,wheel_rr,wheel_lr);
    2450:	0d e8       	ldi	r16, 0x8D	; 141
    2452:	16 e0       	ldi	r17, 0x06	; 6
    2454:	28 eb       	ldi	r18, 0xB8	; 184
    2456:	36 e0       	ldi	r19, 0x06	; 6
    2458:	43 ee       	ldi	r20, 0xE3	; 227
    245a:	56 e0       	ldi	r21, 0x06	; 6
    245c:	6e e0       	ldi	r22, 0x0E	; 14
    245e:	77 e0       	ldi	r23, 0x07	; 7
    2460:	88 eb       	ldi	r24, 0xB8	; 184
    2462:	95 e0       	ldi	r25, 0x05	; 5
    2464:	0e 94 b3 0a 	call	0x1566	; 0x1566 <_ZN7Carrage4InitER5WheelS1_S1_S1_>
	activity.Init();
    2468:	82 e9       	ldi	r24, 0x92	; 146
    246a:	93 e0       	ldi	r25, 0x03	; 3
    246c:	0e 94 36 04 	call	0x86c	; 0x86c <_ZN8Activity4InitEv>
	screen.Render(activity, carrage);
    2470:	48 eb       	ldi	r20, 0xB8	; 184
    2472:	55 e0       	ldi	r21, 0x05	; 5
    2474:	62 e9       	ldi	r22, 0x92	; 146
    2476:	73 e0       	ldi	r23, 0x03	; 3
    2478:	89 e2       	ldi	r24, 0x29	; 41
    247a:	94 e0       	ldi	r25, 0x04	; 4
    247c:	0e 94 1e 18 	call	0x303c	; 0x303c <_ZN6Screen6RenderER8ActivityR7Carrage>
	
	// initilisation null EEMEM
	if(!(eeprom_read_float(&Tunning_rate)>0||eeprom_read_float(&Tunning_rate)<3)){
    2480:	84 e4       	ldi	r24, 0x44	; 68
    2482:	90 e0       	ldi	r25, 0x00	; 0
    2484:	0e 94 7d 1d 	call	0x3afa	; 0x3afa <eeprom_read_dword>
    2488:	6b 01       	movw	r12, r22
    248a:	7c 01       	movw	r14, r24
    248c:	20 e0       	ldi	r18, 0x00	; 0
    248e:	30 e0       	ldi	r19, 0x00	; 0
    2490:	a9 01       	movw	r20, r18
    2492:	0e 94 dd 1c 	call	0x39ba	; 0x39ba <__gesf2>
    2496:	18 16       	cp	r1, r24
    2498:	94 f0       	brlt	.+36     	; 0x24be <_Z14Initialisationv+0x118>
    249a:	20 e0       	ldi	r18, 0x00	; 0
    249c:	30 e0       	ldi	r19, 0x00	; 0
    249e:	40 e4       	ldi	r20, 0x40	; 64
    24a0:	50 e4       	ldi	r21, 0x40	; 64
    24a2:	c7 01       	movw	r24, r14
    24a4:	b6 01       	movw	r22, r12
    24a6:	0e 94 f0 1b 	call	0x37e0	; 0x37e0 <__cmpsf2>
    24aa:	88 23       	and	r24, r24
    24ac:	44 f0       	brlt	.+16     	; 0x24be <_Z14Initialisationv+0x118>
		eeprom_write_float (&Tunning_rate, 1.00);
    24ae:	40 e0       	ldi	r20, 0x00	; 0
    24b0:	50 e0       	ldi	r21, 0x00	; 0
    24b2:	60 e8       	ldi	r22, 0x80	; 128
    24b4:	7f e3       	ldi	r23, 0x3F	; 63
    24b6:	84 e4       	ldi	r24, 0x44	; 68
    24b8:	90 e0       	ldi	r25, 0x00	; 0
    24ba:	0e 94 83 1d 	call	0x3b06	; 0x3b06 <eeprom_write_dword>
	}
	carrage.tunning = eeprom_read_float(&Tunning_rate);
    24be:	84 e4       	ldi	r24, 0x44	; 68
    24c0:	90 e0       	ldi	r25, 0x00	; 0
    24c2:	0e 94 7d 1d 	call	0x3afa	; 0x3afa <eeprom_read_dword>
    24c6:	60 93 66 06 	sts	0x0666, r22	; 0x800666 <carrage+0xae>
    24ca:	70 93 67 06 	sts	0x0667, r23	; 0x800667 <carrage+0xaf>
    24ce:	80 93 68 06 	sts	0x0668, r24	; 0x800668 <carrage+0xb0>
    24d2:	90 93 69 06 	sts	0x0669, r25	; 0x800669 <carrage+0xb1>
	
	if (!(eeprom_read_float(&CarrajeMin)>=0||eeprom_read_float(&CarrajeMin)<=5)){
    24d6:	80 e4       	ldi	r24, 0x40	; 64
    24d8:	90 e0       	ldi	r25, 0x00	; 0
    24da:	0e 94 7d 1d 	call	0x3afa	; 0x3afa <eeprom_read_dword>
    24de:	6b 01       	movw	r12, r22
    24e0:	7c 01       	movw	r14, r24
    24e2:	20 e0       	ldi	r18, 0x00	; 0
    24e4:	30 e0       	ldi	r19, 0x00	; 0
    24e6:	a9 01       	movw	r20, r18
    24e8:	0e 94 dd 1c 	call	0x39ba	; 0x39ba <__gesf2>
    24ec:	88 23       	and	r24, r24
    24ee:	8c f4       	brge	.+34     	; 0x2512 <_Z14Initialisationv+0x16c>
    24f0:	20 e0       	ldi	r18, 0x00	; 0
    24f2:	30 e0       	ldi	r19, 0x00	; 0
    24f4:	40 ea       	ldi	r20, 0xA0	; 160
    24f6:	50 e4       	ldi	r21, 0x40	; 64
    24f8:	c7 01       	movw	r24, r14
    24fa:	b6 01       	movw	r22, r12
    24fc:	0e 94 f0 1b 	call	0x37e0	; 0x37e0 <__cmpsf2>
    2500:	18 16       	cp	r1, r24
    2502:	3c f4       	brge	.+14     	; 0x2512 <_Z14Initialisationv+0x16c>
		eeprom_write_float (&CarrajeMin, 0.00);
    2504:	40 e0       	ldi	r20, 0x00	; 0
    2506:	50 e0       	ldi	r21, 0x00	; 0
    2508:	ba 01       	movw	r22, r20
    250a:	80 e4       	ldi	r24, 0x40	; 64
    250c:	90 e0       	ldi	r25, 0x00	; 0
    250e:	0e 94 83 1d 	call	0x3b06	; 0x3b06 <eeprom_write_dword>
	}
	carrage.min =  eeprom_read_float(&CarrajeMin);
    2512:	80 e4       	ldi	r24, 0x40	; 64
    2514:	90 e0       	ldi	r25, 0x00	; 0
    2516:	0e 94 7d 1d 	call	0x3afa	; 0x3afa <eeprom_read_dword>
    251a:	60 93 6a 06 	sts	0x066A, r22	; 0x80066a <carrage+0xb2>
    251e:	70 93 6b 06 	sts	0x066B, r23	; 0x80066b <carrage+0xb3>
    2522:	80 93 6c 06 	sts	0x066C, r24	; 0x80066c <carrage+0xb4>
    2526:	90 93 6d 06 	sts	0x066D, r25	; 0x80066d <carrage+0xb5>
	
	if (!(eeprom_read_float(&CarrajeMax)>=0||eeprom_read_float(&CarrajeMax)<=5)){
    252a:	8c e3       	ldi	r24, 0x3C	; 60
    252c:	90 e0       	ldi	r25, 0x00	; 0
    252e:	0e 94 7d 1d 	call	0x3afa	; 0x3afa <eeprom_read_dword>
    2532:	6b 01       	movw	r12, r22
    2534:	7c 01       	movw	r14, r24
    2536:	20 e0       	ldi	r18, 0x00	; 0
    2538:	30 e0       	ldi	r19, 0x00	; 0
    253a:	a9 01       	movw	r20, r18
    253c:	0e 94 dd 1c 	call	0x39ba	; 0x39ba <__gesf2>
    2540:	88 23       	and	r24, r24
    2542:	94 f4       	brge	.+36     	; 0x2568 <_Z14Initialisationv+0x1c2>
    2544:	20 e0       	ldi	r18, 0x00	; 0
    2546:	30 e0       	ldi	r19, 0x00	; 0
    2548:	40 ea       	ldi	r20, 0xA0	; 160
    254a:	50 e4       	ldi	r21, 0x40	; 64
    254c:	c7 01       	movw	r24, r14
    254e:	b6 01       	movw	r22, r12
    2550:	0e 94 f0 1b 	call	0x37e0	; 0x37e0 <__cmpsf2>
    2554:	18 16       	cp	r1, r24
    2556:	44 f4       	brge	.+16     	; 0x2568 <_Z14Initialisationv+0x1c2>
		eeprom_write_float (&CarrajeMax, 5.00);
    2558:	40 e0       	ldi	r20, 0x00	; 0
    255a:	50 e0       	ldi	r21, 0x00	; 0
    255c:	60 ea       	ldi	r22, 0xA0	; 160
    255e:	70 e4       	ldi	r23, 0x40	; 64
    2560:	8c e3       	ldi	r24, 0x3C	; 60
    2562:	90 e0       	ldi	r25, 0x00	; 0
    2564:	0e 94 83 1d 	call	0x3b06	; 0x3b06 <eeprom_write_dword>
	}
	carrage.max =  eeprom_read_float(&CarrajeMax);
    2568:	8c e3       	ldi	r24, 0x3C	; 60
    256a:	90 e0       	ldi	r25, 0x00	; 0
    256c:	0e 94 7d 1d 	call	0x3afa	; 0x3afa <eeprom_read_dword>
    2570:	60 93 6e 06 	sts	0x066E, r22	; 0x80066e <carrage+0xb6>
    2574:	70 93 6f 06 	sts	0x066F, r23	; 0x80066f <carrage+0xb7>
    2578:	80 93 70 06 	sts	0x0670, r24	; 0x800670 <carrage+0xb8>
    257c:	90 93 71 06 	sts	0x0671, r25	; 0x800671 <carrage+0xb9>
	
	carrage.SetLimits();
    2580:	88 eb       	ldi	r24, 0xB8	; 184
    2582:	95 e0       	ldi	r25, 0x05	; 5
    2584:	0e 94 c3 09 	call	0x1386	; 0x1386 <_ZN7Carrage9SetLimitsEv>
}
    2588:	1f 91       	pop	r17
    258a:	0f 91       	pop	r16
    258c:	ff 90       	pop	r15
    258e:	ef 90       	pop	r14
    2590:	df 90       	pop	r13
    2592:	cf 90       	pop	r12
    2594:	08 95       	ret

00002596 <_Z12SettingsSaveb>:




void SettingsSave(bool SettingSave){
	if (SettingSave){
    2596:	88 23       	and	r24, r24
    2598:	41 f1       	breq	.+80     	; 0x25ea <_Z12SettingsSaveb+0x54>
		eeprom_write_float (&Tunning_rate, carrage.tunning);
    259a:	40 91 66 06 	lds	r20, 0x0666	; 0x800666 <carrage+0xae>
    259e:	50 91 67 06 	lds	r21, 0x0667	; 0x800667 <carrage+0xaf>
    25a2:	60 91 68 06 	lds	r22, 0x0668	; 0x800668 <carrage+0xb0>
    25a6:	70 91 69 06 	lds	r23, 0x0669	; 0x800669 <carrage+0xb1>
    25aa:	84 e4       	ldi	r24, 0x44	; 68
    25ac:	90 e0       	ldi	r25, 0x00	; 0
    25ae:	0e 94 83 1d 	call	0x3b06	; 0x3b06 <eeprom_write_dword>
		eeprom_write_float(&CarrajeMin, carrage.min);
    25b2:	40 91 6a 06 	lds	r20, 0x066A	; 0x80066a <carrage+0xb2>
    25b6:	50 91 6b 06 	lds	r21, 0x066B	; 0x80066b <carrage+0xb3>
    25ba:	60 91 6c 06 	lds	r22, 0x066C	; 0x80066c <carrage+0xb4>
    25be:	70 91 6d 06 	lds	r23, 0x066D	; 0x80066d <carrage+0xb5>
    25c2:	80 e4       	ldi	r24, 0x40	; 64
    25c4:	90 e0       	ldi	r25, 0x00	; 0
    25c6:	0e 94 83 1d 	call	0x3b06	; 0x3b06 <eeprom_write_dword>
		eeprom_write_float(&CarrajeMax, carrage.max);
    25ca:	40 91 6e 06 	lds	r20, 0x066E	; 0x80066e <carrage+0xb6>
    25ce:	50 91 6f 06 	lds	r21, 0x066F	; 0x80066f <carrage+0xb7>
    25d2:	60 91 70 06 	lds	r22, 0x0670	; 0x800670 <carrage+0xb8>
    25d6:	70 91 71 06 	lds	r23, 0x0671	; 0x800671 <carrage+0xb9>
    25da:	8c e3       	ldi	r24, 0x3C	; 60
    25dc:	90 e0       	ldi	r25, 0x00	; 0
    25de:	0e 94 83 1d 	call	0x3b06	; 0x3b06 <eeprom_write_dword>
		carrage.SetLimits();
    25e2:	88 eb       	ldi	r24, 0xB8	; 184
    25e4:	95 e0       	ldi	r25, 0x05	; 5
    25e6:	0e 94 c3 09 	call	0x1386	; 0x1386 <_ZN7Carrage9SetLimitsEv>
    25ea:	08 95       	ret

000025ec <_Z25IFCarrageSaveStateToEEMEMi>:
	}
}


void IFCarrageSaveStateToEEMEM( int position){
    25ec:	0f 93       	push	r16
    25ee:	1f 93       	push	r17
    25f0:	cf 93       	push	r28
    25f2:	df 93       	push	r29
	
	if(activity.SaveFlag){
    25f4:	20 91 24 04 	lds	r18, 0x0424	; 0x800424 <activity+0x92>
    25f8:	22 23       	and	r18, r18
    25fa:	99 f1       	breq	.+102    	; 0x2662 <_Z25IFCarrageSaveStateToEEMEMi+0x76>
    25fc:	ec 01       	movw	r28, r24
		eeprom_write_float (&PositionsStates[position][1], carrage.Wheel_1.get_hight());
    25fe:	88 eb       	ldi	r24, 0xB8	; 184
    2600:	95 e0       	ldi	r25, 0x05	; 5
    2602:	0e 94 db 19 	call	0x33b6	; 0x33b6 <_ZN5Wheel9get_hightEv>
    2606:	ab 01       	movw	r20, r22
    2608:	bc 01       	movw	r22, r24
    260a:	84 e1       	ldi	r24, 0x14	; 20
    260c:	8c 9f       	mul	r24, r28
    260e:	80 01       	movw	r16, r0
    2610:	8d 9f       	mul	r24, r29
    2612:	10 0d       	add	r17, r0
    2614:	11 24       	eor	r1, r1
    2616:	c8 01       	movw	r24, r16
    2618:	8c 5f       	subi	r24, 0xFC	; 252
    261a:	9f 4f       	sbci	r25, 0xFF	; 255
    261c:	0e 94 83 1d 	call	0x3b06	; 0x3b06 <eeprom_write_dword>
		eeprom_write_float (&PositionsStates[position][2], carrage.Wheel_2.get_hight());
    2620:	83 ee       	ldi	r24, 0xE3	; 227
    2622:	95 e0       	ldi	r25, 0x05	; 5
    2624:	0e 94 db 19 	call	0x33b6	; 0x33b6 <_ZN5Wheel9get_hightEv>
    2628:	ab 01       	movw	r20, r22
    262a:	bc 01       	movw	r22, r24
    262c:	c8 01       	movw	r24, r16
    262e:	88 5f       	subi	r24, 0xF8	; 248
    2630:	9f 4f       	sbci	r25, 0xFF	; 255
    2632:	0e 94 83 1d 	call	0x3b06	; 0x3b06 <eeprom_write_dword>
		eeprom_write_float (&PositionsStates[position][3], carrage.Wheel_3.get_hight());
    2636:	8e e0       	ldi	r24, 0x0E	; 14
    2638:	96 e0       	ldi	r25, 0x06	; 6
    263a:	0e 94 db 19 	call	0x33b6	; 0x33b6 <_ZN5Wheel9get_hightEv>
    263e:	ab 01       	movw	r20, r22
    2640:	bc 01       	movw	r22, r24
    2642:	c8 01       	movw	r24, r16
    2644:	84 5f       	subi	r24, 0xF4	; 244
    2646:	9f 4f       	sbci	r25, 0xFF	; 255
    2648:	0e 94 83 1d 	call	0x3b06	; 0x3b06 <eeprom_write_dword>
		eeprom_write_float (&PositionsStates[position][4], carrage.Wheel_4.get_hight());
    264c:	89 e3       	ldi	r24, 0x39	; 57
    264e:	96 e0       	ldi	r25, 0x06	; 6
    2650:	0e 94 db 19 	call	0x33b6	; 0x33b6 <_ZN5Wheel9get_hightEv>
    2654:	ab 01       	movw	r20, r22
    2656:	bc 01       	movw	r22, r24
    2658:	c8 01       	movw	r24, r16
    265a:	80 5f       	subi	r24, 0xF0	; 240
    265c:	9f 4f       	sbci	r25, 0xFF	; 255
    265e:	0e 94 83 1d 	call	0x3b06	; 0x3b06 <eeprom_write_dword>
	}
	activity.SaveFlag = false;
    2662:	10 92 24 04 	sts	0x0424, r1	; 0x800424 <activity+0x92>
}
    2666:	df 91       	pop	r29
    2668:	cf 91       	pop	r28
    266a:	1f 91       	pop	r17
    266c:	0f 91       	pop	r16
    266e:	08 95       	ret

00002670 <_Z24IFCarrageSetStateToEEMEMi>:

void IFCarrageSetStateToEEMEM( int position){
    2670:	0f 93       	push	r16
    2672:	1f 93       	push	r17
    2674:	cf 93       	push	r28
    2676:	df 93       	push	r29
	if(activity.SetFlag){
    2678:	20 91 25 04 	lds	r18, 0x0425	; 0x800425 <activity+0x93>
    267c:	22 23       	and	r18, r18
    267e:	09 f4       	brne	.+2      	; 0x2682 <_Z24IFCarrageSetStateToEEMEMi+0x12>
    2680:	4c c0       	rjmp	.+152    	; 0x271a <_Z24IFCarrageSetStateToEEMEMi+0xaa>
		carrage.Wheel_1.selected = true;
    2682:	08 eb       	ldi	r16, 0xB8	; 184
    2684:	15 e0       	ldi	r17, 0x05	; 5
    2686:	21 e0       	ldi	r18, 0x01	; 1
    2688:	f8 01       	movw	r30, r16
    268a:	22 8f       	std	Z+26, r18	; 0x1a
		carrage.Wheel_2.selected = true;
    268c:	20 93 fd 05 	sts	0x05FD, r18	; 0x8005fd <carrage+0x45>
		carrage.Wheel_3.selected = true;
    2690:	20 93 28 06 	sts	0x0628, r18	; 0x800628 <carrage+0x70>
		carrage.Wheel_4.selected = true;
    2694:	20 93 53 06 	sts	0x0653, r18	; 0x800653 <carrage+0x9b>
		carrage.Wheel_1.sethight=eeprom_read_float(&PositionsStates[position][1]);
    2698:	24 e1       	ldi	r18, 0x14	; 20
    269a:	28 9f       	mul	r18, r24
    269c:	e0 01       	movw	r28, r0
    269e:	29 9f       	mul	r18, r25
    26a0:	d0 0d       	add	r29, r0
    26a2:	11 24       	eor	r1, r1
    26a4:	ce 01       	movw	r24, r28
    26a6:	8c 5f       	subi	r24, 0xFC	; 252
    26a8:	9f 4f       	sbci	r25, 0xFF	; 255
    26aa:	0e 94 7d 1d 	call	0x3afa	; 0x3afa <eeprom_read_dword>
    26ae:	f8 01       	movw	r30, r16
    26b0:	66 8b       	std	Z+22, r22	; 0x16
    26b2:	77 8b       	std	Z+23, r23	; 0x17
    26b4:	80 8f       	std	Z+24, r24	; 0x18
    26b6:	91 8f       	std	Z+25, r25	; 0x19
		carrage.Wheel_2.sethight=eeprom_read_float(&PositionsStates[position][2]);
    26b8:	ce 01       	movw	r24, r28
    26ba:	88 5f       	subi	r24, 0xF8	; 248
    26bc:	9f 4f       	sbci	r25, 0xFF	; 255
    26be:	0e 94 7d 1d 	call	0x3afa	; 0x3afa <eeprom_read_dword>
    26c2:	60 93 f9 05 	sts	0x05F9, r22	; 0x8005f9 <carrage+0x41>
    26c6:	70 93 fa 05 	sts	0x05FA, r23	; 0x8005fa <carrage+0x42>
    26ca:	80 93 fb 05 	sts	0x05FB, r24	; 0x8005fb <carrage+0x43>
    26ce:	90 93 fc 05 	sts	0x05FC, r25	; 0x8005fc <carrage+0x44>
		carrage.Wheel_3.sethight=eeprom_read_float(&PositionsStates[position][3]);
    26d2:	ce 01       	movw	r24, r28
    26d4:	84 5f       	subi	r24, 0xF4	; 244
    26d6:	9f 4f       	sbci	r25, 0xFF	; 255
    26d8:	0e 94 7d 1d 	call	0x3afa	; 0x3afa <eeprom_read_dword>
    26dc:	60 93 24 06 	sts	0x0624, r22	; 0x800624 <carrage+0x6c>
    26e0:	70 93 25 06 	sts	0x0625, r23	; 0x800625 <carrage+0x6d>
    26e4:	80 93 26 06 	sts	0x0626, r24	; 0x800626 <carrage+0x6e>
    26e8:	90 93 27 06 	sts	0x0627, r25	; 0x800627 <carrage+0x6f>
		carrage.Wheel_4.sethight=eeprom_read_float(&PositionsStates[position][4]);
    26ec:	ce 01       	movw	r24, r28
    26ee:	80 5f       	subi	r24, 0xF0	; 240
    26f0:	9f 4f       	sbci	r25, 0xFF	; 255
    26f2:	0e 94 7d 1d 	call	0x3afa	; 0x3afa <eeprom_read_dword>
    26f6:	60 93 4f 06 	sts	0x064F, r22	; 0x80064f <carrage+0x97>
    26fa:	70 93 50 06 	sts	0x0650, r23	; 0x800650 <carrage+0x98>
    26fe:	80 93 51 06 	sts	0x0651, r24	; 0x800651 <carrage+0x99>
    2702:	90 93 52 06 	sts	0x0652, r25	; 0x800652 <carrage+0x9a>
		screen.Render(activity, carrage);
    2706:	a8 01       	movw	r20, r16
    2708:	62 e9       	ldi	r22, 0x92	; 146
    270a:	73 e0       	ldi	r23, 0x03	; 3
    270c:	89 e2       	ldi	r24, 0x29	; 41
    270e:	94 e0       	ldi	r25, 0x04	; 4
    2710:	0e 94 1e 18 	call	0x303c	; 0x303c <_ZN6Screen6RenderER8ActivityR7Carrage>
		carrage.Ajustment();
    2714:	c8 01       	movw	r24, r16
    2716:	0e 94 d0 0c 	call	0x19a0	; 0x19a0 <_ZN7Carrage9AjustmentEv>
	}
	activity.SetFlag = false;
    271a:	10 92 25 04 	sts	0x0425, r1	; 0x800425 <activity+0x93>
}
    271e:	df 91       	pop	r29
    2720:	cf 91       	pop	r28
    2722:	1f 91       	pop	r17
    2724:	0f 91       	pop	r16
    2726:	08 95       	ret

00002728 <main>:


int main(void)
{	
	
	Initialisation();
    2728:	0e 94 d3 11 	call	0x23a6	; 0x23a6 <_Z14Initialisationv>
    while (1) 
    {		
		activity.Cursor_Action(panel, carrage);
		screen.Render(activity, carrage);
		IFCarrageSaveStateToEEMEM(activity.SavePosition);
    272c:	c7 e2       	ldi	r28, 0x27	; 39
    272e:	d4 e0       	ldi	r29, 0x04	; 4
		IFCarrageSetStateToEEMEM(activity.SavePosition);
		SettingsSave(activity.SettingsSaveFlag);
    2730:	06 e2       	ldi	r16, 0x26	; 38
    2732:	14 e0       	ldi	r17, 0x04	; 4
{	
	
	Initialisation();
    while (1) 
    {		
		activity.Cursor_Action(panel, carrage);
    2734:	48 eb       	ldi	r20, 0xB8	; 184
    2736:	55 e0       	ldi	r21, 0x05	; 5
    2738:	65 e9       	ldi	r22, 0x95	; 149
    273a:	75 e0       	ldi	r23, 0x05	; 5
    273c:	82 e9       	ldi	r24, 0x92	; 146
    273e:	93 e0       	ldi	r25, 0x03	; 3
    2740:	0e 94 b3 08 	call	0x1166	; 0x1166 <_ZN8Activity13Cursor_ActionER5PanelR7Carrage>
		screen.Render(activity, carrage);
    2744:	48 eb       	ldi	r20, 0xB8	; 184
    2746:	55 e0       	ldi	r21, 0x05	; 5
    2748:	62 e9       	ldi	r22, 0x92	; 146
    274a:	73 e0       	ldi	r23, 0x03	; 3
    274c:	89 e2       	ldi	r24, 0x29	; 41
    274e:	94 e0       	ldi	r25, 0x04	; 4
    2750:	0e 94 1e 18 	call	0x303c	; 0x303c <_ZN6Screen6RenderER8ActivityR7Carrage>
		IFCarrageSaveStateToEEMEM(activity.SavePosition);
    2754:	88 81       	ld	r24, Y
    2756:	99 81       	ldd	r25, Y+1	; 0x01
    2758:	0e 94 f6 12 	call	0x25ec	; 0x25ec <_Z25IFCarrageSaveStateToEEMEMi>
		IFCarrageSetStateToEEMEM(activity.SavePosition);
    275c:	88 81       	ld	r24, Y
    275e:	99 81       	ldd	r25, Y+1	; 0x01
    2760:	0e 94 38 13 	call	0x2670	; 0x2670 <_Z24IFCarrageSetStateToEEMEMi>
		SettingsSave(activity.SettingsSaveFlag);
    2764:	f8 01       	movw	r30, r16
    2766:	80 81       	ld	r24, Z
    2768:	0e 94 cb 12 	call	0x2596	; 0x2596 <_Z12SettingsSaveb>
    276c:	e3 cf       	rjmp	.-58     	; 0x2734 <main+0xc>

0000276e <_GLOBAL__sub_I__Z14test_out_timer6Button6Output>:
float Tunning_rate EEMEM;
float CarrajeMin EEMEM;
float CarrajeMax EEMEM;
float PositionsStates[3][5] EEMEM;

Button okButton;
    276e:	85 e5       	ldi	r24, 0x55	; 85
    2770:	97 e0       	ldi	r25, 0x07	; 7
    2772:	0e 94 d7 08 	call	0x11ae	; 0x11ae <_ZN6ButtonC1Ev>
Button upButton;
    2776:	8e e4       	ldi	r24, 0x4E	; 78
    2778:	97 e0       	ldi	r25, 0x07	; 7
    277a:	0e 94 d7 08 	call	0x11ae	; 0x11ae <_ZN6ButtonC1Ev>
Button downButton;
    277e:	87 e4       	ldi	r24, 0x47	; 71
    2780:	97 e0       	ldi	r25, 0x07	; 7
    2782:	0e 94 d7 08 	call	0x11ae	; 0x11ae <_ZN6ButtonC1Ev>
Button leftButton;
    2786:	80 e4       	ldi	r24, 0x40	; 64
    2788:	97 e0       	ldi	r25, 0x07	; 7
    278a:	0e 94 d7 08 	call	0x11ae	; 0x11ae <_ZN6ButtonC1Ev>
Button rightButton;
    278e:	89 e3       	ldi	r24, 0x39	; 57
    2790:	97 e0       	ldi	r25, 0x07	; 7
    2792:	0e 94 d7 08 	call	0x11ae	; 0x11ae <_ZN6ButtonC1Ev>

Wheel wheel_lf;
    2796:	8e e0       	ldi	r24, 0x0E	; 14
    2798:	97 e0       	ldi	r25, 0x07	; 7
    279a:	0e 94 d7 19 	call	0x33ae	; 0x33ae <_ZN5WheelC1Ev>
Wheel wheel_rf;
    279e:	83 ee       	ldi	r24, 0xE3	; 227
    27a0:	96 e0       	ldi	r25, 0x06	; 6
    27a2:	0e 94 d7 19 	call	0x33ae	; 0x33ae <_ZN5WheelC1Ev>
Wheel wheel_rr;
    27a6:	88 eb       	ldi	r24, 0xB8	; 184
    27a8:	96 e0       	ldi	r25, 0x06	; 6
    27aa:	0e 94 d7 19 	call	0x33ae	; 0x33ae <_ZN5WheelC1Ev>
Wheel wheel_lr;
    27ae:	8d e8       	ldi	r24, 0x8D	; 141
    27b0:	96 e0       	ldi	r25, 0x06	; 6
    27b2:	0e 94 d7 19 	call	0x33ae	; 0x33ae <_ZN5WheelC1Ev>

Carrage carrage;
    27b6:	88 eb       	ldi	r24, 0xB8	; 184
    27b8:	95 e0       	ldi	r25, 0x05	; 5
    27ba:	0e 94 92 09 	call	0x1324	; 0x1324 <_ZN7CarrageC1Ev>
Panel panel;
    27be:	85 e9       	ldi	r24, 0x95	; 149
    27c0:	95 e0       	ldi	r25, 0x05	; 5
    27c2:	0e 94 5c 18 	call	0x30b8	; 0x30b8 <_ZN5PanelC1Ev>
Screen screen;
    27c6:	89 e2       	ldi	r24, 0x29	; 41
    27c8:	94 e0       	ldi	r25, 0x04	; 4
    27ca:	0e 94 ec 13 	call	0x27d8	; 0x27d8 <_ZN6ScreenC1Ev>
Activity activity;
    27ce:	82 e9       	ldi	r24, 0x92	; 146
    27d0:	93 e0       	ldi	r25, 0x03	; 3
    27d2:	0e 94 35 04 	call	0x86a	; 0x86a <_ZN8ActivityC1Ev>
    27d6:	08 95       	ret

000027d8 <_ZN6ScreenC1Ev>:
	}
	
	
}

void Screen::PtintItems(){
    27d8:	cf 93       	push	r28
    27da:	df 93       	push	r29
    27dc:	ec 01       	movw	r28, r24
    27de:	0e 94 35 04 	call	0x86a	; 0x86a <_ZN8ActivityC1Ev>
    27e2:	ce 01       	movw	r24, r28
    27e4:	89 56       	subi	r24, 0x69	; 105
    27e6:	9f 4f       	sbci	r25, 0xFF	; 255
    27e8:	0e 94 92 09 	call	0x1324	; 0x1324 <_ZN7CarrageC1Ev>
    27ec:	df 91       	pop	r29
    27ee:	cf 91       	pop	r28
    27f0:	08 95       	ret

000027f2 <_ZN6Screen13Render_limitsEv>:
    27f2:	ef 92       	push	r14
    27f4:	ff 92       	push	r15
    27f6:	0f 93       	push	r16
    27f8:	1f 93       	push	r17
    27fa:	cf 93       	push	r28
    27fc:	df 93       	push	r29
    27fe:	ec 01       	movw	r28, r24
    2800:	20 e0       	ldi	r18, 0x00	; 0
    2802:	31 e0       	ldi	r19, 0x01	; 1
    2804:	41 e0       	ldi	r20, 0x01	; 1
    2806:	60 e0       	ldi	r22, 0x00	; 0
    2808:	82 e0       	ldi	r24, 0x02	; 2
    280a:	0e 94 52 11 	call	0x22a4	; 0x22a4 <_Z9Lcd_printhh11LcdFontSizePh>
    280e:	2c e0       	ldi	r18, 0x0C	; 12
    2810:	31 e0       	ldi	r19, 0x01	; 1
    2812:	41 e0       	ldi	r20, 0x01	; 1
    2814:	62 e0       	ldi	r22, 0x02	; 2
    2816:	82 e0       	ldi	r24, 0x02	; 2
    2818:	0e 94 52 11 	call	0x22a4	; 0x22a4 <_Z9Lcd_printhh11LcdFontSizePh>
    281c:	fe 01       	movw	r30, r28
    281e:	e7 5b       	subi	r30, 0xB7	; 183
    2820:	fe 4f       	sbci	r31, 0xFE	; 254
    2822:	00 81       	ld	r16, Z
    2824:	11 81       	ldd	r17, Z+1	; 0x01
    2826:	22 81       	ldd	r18, Z+2	; 0x02
    2828:	33 81       	ldd	r19, Z+3	; 0x03
    282a:	68 94       	set
    282c:	ee 24       	eor	r14, r14
    282e:	e1 f8       	bld	r14, 1
    2830:	f1 2c       	mov	r15, r1
    2832:	41 e0       	ldi	r20, 0x01	; 1
    2834:	62 e0       	ldi	r22, 0x02	; 2
    2836:	88 e0       	ldi	r24, 0x08	; 8
    2838:	0e 94 99 11 	call	0x2332	; 0x2332 <_Z10Lcd_printfhh11LcdFontSizefi>
    283c:	20 e1       	ldi	r18, 0x10	; 16
    283e:	31 e0       	ldi	r19, 0x01	; 1
    2840:	41 e0       	ldi	r20, 0x01	; 1
    2842:	64 e0       	ldi	r22, 0x04	; 4
    2844:	82 e0       	ldi	r24, 0x02	; 2
    2846:	0e 94 52 11 	call	0x22a4	; 0x22a4 <_Z9Lcd_printhh11LcdFontSizePh>
    284a:	fe 01       	movw	r30, r28
    284c:	e3 5b       	subi	r30, 0xB3	; 179
    284e:	fe 4f       	sbci	r31, 0xFE	; 254
    2850:	00 81       	ld	r16, Z
    2852:	11 81       	ldd	r17, Z+1	; 0x01
    2854:	22 81       	ldd	r18, Z+2	; 0x02
    2856:	33 81       	ldd	r19, Z+3	; 0x03
    2858:	41 e0       	ldi	r20, 0x01	; 1
    285a:	64 e0       	ldi	r22, 0x04	; 4
    285c:	88 e0       	ldi	r24, 0x08	; 8
    285e:	0e 94 99 11 	call	0x2332	; 0x2332 <_Z10Lcd_printfhh11LcdFontSizefi>
    2862:	88 85       	ldd	r24, Y+8	; 0x08
    2864:	99 85       	ldd	r25, Y+9	; 0x09
    2866:	82 31       	cpi	r24, 0x12	; 18
    2868:	91 05       	cpc	r25, r1
    286a:	19 f0       	breq	.+6      	; 0x2872 <_ZN6Screen13Render_limitsEv+0x80>
    286c:	43 97       	sbiw	r24, 0x13	; 19
    286e:	81 f0       	breq	.+32     	; 0x2890 <_ZN6Screen13Render_limitsEv+0x9e>
    2870:	1d c0       	rjmp	.+58     	; 0x28ac <_ZN6Screen13Render_limitsEv+0xba>
    2872:	62 e0       	ldi	r22, 0x02	; 2
    2874:	86 e0       	ldi	r24, 0x06	; 6
    2876:	0e 94 12 10 	call	0x2024	; 0x2024 <_Z9LcdGotoXYhh>
    287a:	8a e9       	ldi	r24, 0x9A	; 154
    287c:	0e 94 2d 10 	call	0x205a	; 0x205a <_Z11LcdChr_fullh>
    2880:	62 e0       	ldi	r22, 0x02	; 2
    2882:	8d e0       	ldi	r24, 0x0D	; 13
    2884:	0e 94 12 10 	call	0x2024	; 0x2024 <_Z9LcdGotoXYhh>
    2888:	8b e9       	ldi	r24, 0x9B	; 155
    288a:	0e 94 2d 10 	call	0x205a	; 0x205a <_Z11LcdChr_fullh>
    288e:	0e c0       	rjmp	.+28     	; 0x28ac <_ZN6Screen13Render_limitsEv+0xba>
    2890:	64 e0       	ldi	r22, 0x04	; 4
    2892:	86 e0       	ldi	r24, 0x06	; 6
    2894:	0e 94 12 10 	call	0x2024	; 0x2024 <_Z9LcdGotoXYhh>
    2898:	8a e9       	ldi	r24, 0x9A	; 154
    289a:	0e 94 2d 10 	call	0x205a	; 0x205a <_Z11LcdChr_fullh>
    289e:	64 e0       	ldi	r22, 0x04	; 4
    28a0:	8d e0       	ldi	r24, 0x0D	; 13
    28a2:	0e 94 12 10 	call	0x2024	; 0x2024 <_Z9LcdGotoXYhh>
    28a6:	8b e9       	ldi	r24, 0x9B	; 155
    28a8:	0e 94 2d 10 	call	0x205a	; 0x205a <_Z11LcdChr_fullh>
    28ac:	df 91       	pop	r29
    28ae:	cf 91       	pop	r28
    28b0:	1f 91       	pop	r17
    28b2:	0f 91       	pop	r16
    28b4:	ff 90       	pop	r15
    28b6:	ef 90       	pop	r14
    28b8:	08 95       	ret

000028ba <_ZN6Screen14Render_tunningEv>:
    28ba:	ef 92       	push	r14
    28bc:	ff 92       	push	r15
    28be:	0f 93       	push	r16
    28c0:	1f 93       	push	r17
    28c2:	cf 93       	push	r28
    28c4:	df 93       	push	r29
    28c6:	ec 01       	movw	r28, r24
    28c8:	24 e1       	ldi	r18, 0x14	; 20
    28ca:	31 e0       	ldi	r19, 0x01	; 1
    28cc:	41 e0       	ldi	r20, 0x01	; 1
    28ce:	60 e0       	ldi	r22, 0x00	; 0
    28d0:	82 e0       	ldi	r24, 0x02	; 2
    28d2:	0e 94 52 11 	call	0x22a4	; 0x22a4 <_Z9Lcd_printhh11LcdFontSizePh>
    28d6:	63 e0       	ldi	r22, 0x03	; 3
    28d8:	83 e0       	ldi	r24, 0x03	; 3
    28da:	0e 94 12 10 	call	0x2024	; 0x2024 <_Z9LcdGotoXYhh>
    28de:	8a e9       	ldi	r24, 0x9A	; 154
    28e0:	0e 94 2d 10 	call	0x205a	; 0x205a <_Z11LcdChr_fullh>
    28e4:	cb 5b       	subi	r28, 0xBB	; 187
    28e6:	de 4f       	sbci	r29, 0xFE	; 254
    28e8:	08 81       	ld	r16, Y
    28ea:	19 81       	ldd	r17, Y+1	; 0x01
    28ec:	2a 81       	ldd	r18, Y+2	; 0x02
    28ee:	3b 81       	ldd	r19, Y+3	; 0x03
    28f0:	68 94       	set
    28f2:	ee 24       	eor	r14, r14
    28f4:	e1 f8       	bld	r14, 1
    28f6:	f1 2c       	mov	r15, r1
    28f8:	41 e0       	ldi	r20, 0x01	; 1
    28fa:	63 e0       	ldi	r22, 0x03	; 3
    28fc:	85 e0       	ldi	r24, 0x05	; 5
    28fe:	0e 94 99 11 	call	0x2332	; 0x2332 <_Z10Lcd_printfhh11LcdFontSizefi>
    2902:	63 e0       	ldi	r22, 0x03	; 3
    2904:	8a e0       	ldi	r24, 0x0A	; 10
    2906:	0e 94 12 10 	call	0x2024	; 0x2024 <_Z9LcdGotoXYhh>
    290a:	8b e9       	ldi	r24, 0x9B	; 155
    290c:	0e 94 2d 10 	call	0x205a	; 0x205a <_Z11LcdChr_fullh>
    2910:	df 91       	pop	r29
    2912:	cf 91       	pop	r28
    2914:	1f 91       	pop	r17
    2916:	0f 91       	pop	r16
    2918:	ff 90       	pop	r15
    291a:	ef 90       	pop	r14
    291c:	08 95       	ret

0000291e <_ZN6Screen10PrintTitleEv>:
    291e:	fc 01       	movw	r30, r24
    2920:	80 85       	ldd	r24, Z+8	; 0x08
    2922:	91 85       	ldd	r25, Z+9	; 0x09
    2924:	84 30       	cpi	r24, 0x04	; 4
    2926:	91 05       	cpc	r25, r1
    2928:	24 f5       	brge	.+72     	; 0x2972 <_ZN6Screen10PrintTitleEv+0x54>
    292a:	2f e1       	ldi	r18, 0x1F	; 31
    292c:	31 e0       	ldi	r19, 0x01	; 1
    292e:	41 e0       	ldi	r20, 0x01	; 1
    2930:	60 e0       	ldi	r22, 0x00	; 0
    2932:	85 e0       	ldi	r24, 0x05	; 5
    2934:	0e 94 52 11 	call	0x22a4	; 0x22a4 <_Z9Lcd_printhh11LcdFontSizePh>
    2938:	24 e2       	ldi	r18, 0x24	; 36
    293a:	31 e0       	ldi	r19, 0x01	; 1
    293c:	41 e0       	ldi	r20, 0x01	; 1
    293e:	61 e0       	ldi	r22, 0x01	; 1
    2940:	82 e0       	ldi	r24, 0x02	; 2
    2942:	0e 94 52 11 	call	0x22a4	; 0x22a4 <_Z9Lcd_printhh11LcdFontSizePh>
    2946:	2e e2       	ldi	r18, 0x2E	; 46
    2948:	31 e0       	ldi	r19, 0x01	; 1
    294a:	41 e0       	ldi	r20, 0x01	; 1
    294c:	62 e0       	ldi	r22, 0x02	; 2
    294e:	82 e0       	ldi	r24, 0x02	; 2
    2950:	0e 94 52 11 	call	0x22a4	; 0x22a4 <_Z9Lcd_printhh11LcdFontSizePh>
    2954:	29 e3       	ldi	r18, 0x39	; 57
    2956:	31 e0       	ldi	r19, 0x01	; 1
    2958:	41 e0       	ldi	r20, 0x01	; 1
    295a:	63 e0       	ldi	r22, 0x03	; 3
    295c:	82 e0       	ldi	r24, 0x02	; 2
    295e:	0e 94 52 11 	call	0x22a4	; 0x22a4 <_Z9Lcd_printhh11LcdFontSizePh>
    2962:	23 e4       	ldi	r18, 0x43	; 67
    2964:	31 e0       	ldi	r19, 0x01	; 1
    2966:	41 e0       	ldi	r20, 0x01	; 1
    2968:	64 e0       	ldi	r22, 0x04	; 4
    296a:	82 e0       	ldi	r24, 0x02	; 2
    296c:	0e 94 52 11 	call	0x22a4	; 0x22a4 <_Z9Lcd_printhh11LcdFontSizePh>
    2970:	08 95       	ret
    2972:	88 30       	cpi	r24, 0x08	; 8
    2974:	91 05       	cpc	r25, r1
    2976:	24 f5       	brge	.+72     	; 0x29c0 <_ZN6Screen10PrintTitleEv+0xa2>
    2978:	24 e2       	ldi	r18, 0x24	; 36
    297a:	31 e0       	ldi	r19, 0x01	; 1
    297c:	41 e0       	ldi	r20, 0x01	; 1
    297e:	60 e0       	ldi	r22, 0x00	; 0
    2980:	83 e0       	ldi	r24, 0x03	; 3
    2982:	0e 94 52 11 	call	0x22a4	; 0x22a4 <_Z9Lcd_printhh11LcdFontSizePh>
    2986:	29 e4       	ldi	r18, 0x49	; 73
    2988:	31 e0       	ldi	r19, 0x01	; 1
    298a:	41 e0       	ldi	r20, 0x01	; 1
    298c:	61 e0       	ldi	r22, 0x01	; 1
    298e:	82 e0       	ldi	r24, 0x02	; 2
    2990:	0e 94 52 11 	call	0x22a4	; 0x22a4 <_Z9Lcd_printhh11LcdFontSizePh>
    2994:	22 e5       	ldi	r18, 0x52	; 82
    2996:	31 e0       	ldi	r19, 0x01	; 1
    2998:	41 e0       	ldi	r20, 0x01	; 1
    299a:	62 e0       	ldi	r22, 0x02	; 2
    299c:	82 e0       	ldi	r24, 0x02	; 2
    299e:	0e 94 52 11 	call	0x22a4	; 0x22a4 <_Z9Lcd_printhh11LcdFontSizePh>
    29a2:	2e e5       	ldi	r18, 0x5E	; 94
    29a4:	31 e0       	ldi	r19, 0x01	; 1
    29a6:	41 e0       	ldi	r20, 0x01	; 1
    29a8:	63 e0       	ldi	r22, 0x03	; 3
    29aa:	82 e0       	ldi	r24, 0x02	; 2
    29ac:	0e 94 52 11 	call	0x22a4	; 0x22a4 <_Z9Lcd_printhh11LcdFontSizePh>
    29b0:	23 e4       	ldi	r18, 0x43	; 67
    29b2:	31 e0       	ldi	r19, 0x01	; 1
    29b4:	41 e0       	ldi	r20, 0x01	; 1
    29b6:	64 e0       	ldi	r22, 0x04	; 4
    29b8:	82 e0       	ldi	r24, 0x02	; 2
    29ba:	0e 94 52 11 	call	0x22a4	; 0x22a4 <_Z9Lcd_printhh11LcdFontSizePh>
    29be:	08 95       	ret
    29c0:	0c 97       	sbiw	r24, 0x0c	; 12
    29c2:	24 f5       	brge	.+72     	; 0x2a0c <_ZN6Screen10PrintTitleEv+0xee>
    29c4:	2e e2       	ldi	r18, 0x2E	; 46
    29c6:	31 e0       	ldi	r19, 0x01	; 1
    29c8:	41 e0       	ldi	r20, 0x01	; 1
    29ca:	60 e0       	ldi	r22, 0x00	; 0
    29cc:	83 e0       	ldi	r24, 0x03	; 3
    29ce:	0e 94 52 11 	call	0x22a4	; 0x22a4 <_Z9Lcd_printhh11LcdFontSizePh>
    29d2:	29 e4       	ldi	r18, 0x49	; 73
    29d4:	31 e0       	ldi	r19, 0x01	; 1
    29d6:	41 e0       	ldi	r20, 0x01	; 1
    29d8:	61 e0       	ldi	r22, 0x01	; 1
    29da:	82 e0       	ldi	r24, 0x02	; 2
    29dc:	0e 94 52 11 	call	0x22a4	; 0x22a4 <_Z9Lcd_printhh11LcdFontSizePh>
    29e0:	22 e5       	ldi	r18, 0x52	; 82
    29e2:	31 e0       	ldi	r19, 0x01	; 1
    29e4:	41 e0       	ldi	r20, 0x01	; 1
    29e6:	62 e0       	ldi	r22, 0x02	; 2
    29e8:	82 e0       	ldi	r24, 0x02	; 2
    29ea:	0e 94 52 11 	call	0x22a4	; 0x22a4 <_Z9Lcd_printhh11LcdFontSizePh>
    29ee:	2e e5       	ldi	r18, 0x5E	; 94
    29f0:	31 e0       	ldi	r19, 0x01	; 1
    29f2:	41 e0       	ldi	r20, 0x01	; 1
    29f4:	63 e0       	ldi	r22, 0x03	; 3
    29f6:	82 e0       	ldi	r24, 0x02	; 2
    29f8:	0e 94 52 11 	call	0x22a4	; 0x22a4 <_Z9Lcd_printhh11LcdFontSizePh>
    29fc:	23 e4       	ldi	r18, 0x43	; 67
    29fe:	31 e0       	ldi	r19, 0x01	; 1
    2a00:	41 e0       	ldi	r20, 0x01	; 1
    2a02:	64 e0       	ldi	r22, 0x04	; 4
    2a04:	82 e0       	ldi	r24, 0x02	; 2
    2a06:	0e 94 52 11 	call	0x22a4	; 0x22a4 <_Z9Lcd_printhh11LcdFontSizePh>
    2a0a:	08 95       	ret
    2a0c:	29 e3       	ldi	r18, 0x39	; 57
    2a0e:	31 e0       	ldi	r19, 0x01	; 1
    2a10:	41 e0       	ldi	r20, 0x01	; 1
    2a12:	60 e0       	ldi	r22, 0x00	; 0
    2a14:	83 e0       	ldi	r24, 0x03	; 3
    2a16:	0e 94 52 11 	call	0x22a4	; 0x22a4 <_Z9Lcd_printhh11LcdFontSizePh>
    2a1a:	24 e1       	ldi	r18, 0x14	; 20
    2a1c:	31 e0       	ldi	r19, 0x01	; 1
    2a1e:	41 e0       	ldi	r20, 0x01	; 1
    2a20:	61 e0       	ldi	r22, 0x01	; 1
    2a22:	82 e0       	ldi	r24, 0x02	; 2
    2a24:	0e 94 52 11 	call	0x22a4	; 0x22a4 <_Z9Lcd_printhh11LcdFontSizePh>
    2a28:	20 e0       	ldi	r18, 0x00	; 0
    2a2a:	31 e0       	ldi	r19, 0x01	; 1
    2a2c:	41 e0       	ldi	r20, 0x01	; 1
    2a2e:	62 e0       	ldi	r22, 0x02	; 2
    2a30:	82 e0       	ldi	r24, 0x02	; 2
    2a32:	0e 94 52 11 	call	0x22a4	; 0x22a4 <_Z9Lcd_printhh11LcdFontSizePh>
    2a36:	2b e6       	ldi	r18, 0x6B	; 107
    2a38:	31 e0       	ldi	r19, 0x01	; 1
    2a3a:	41 e0       	ldi	r20, 0x01	; 1
    2a3c:	63 e0       	ldi	r22, 0x03	; 3
    2a3e:	82 e0       	ldi	r24, 0x02	; 2
    2a40:	0e 94 52 11 	call	0x22a4	; 0x22a4 <_Z9Lcd_printhh11LcdFontSizePh>
    2a44:	27 e7       	ldi	r18, 0x77	; 119
    2a46:	31 e0       	ldi	r19, 0x01	; 1
    2a48:	41 e0       	ldi	r20, 0x01	; 1
    2a4a:	64 e0       	ldi	r22, 0x04	; 4
    2a4c:	82 e0       	ldi	r24, 0x02	; 2
    2a4e:	0e 94 52 11 	call	0x22a4	; 0x22a4 <_Z9Lcd_printhh11LcdFontSizePh>
    2a52:	23 e4       	ldi	r18, 0x43	; 67
    2a54:	31 e0       	ldi	r19, 0x01	; 1
    2a56:	41 e0       	ldi	r20, 0x01	; 1
    2a58:	65 e0       	ldi	r22, 0x05	; 5
    2a5a:	82 e0       	ldi	r24, 0x02	; 2
    2a5c:	0e 94 52 11 	call	0x22a4	; 0x22a4 <_Z9Lcd_printhh11LcdFontSizePh>
    2a60:	08 95       	ret

00002a62 <_ZN6Screen21Draw_CursorMenuScreenEv>:

}

void Screen::Draw_CursorMenuScreen(){
	//LcdGotoXY(0,1);LcdChr_full(0x9B);
	switch(activity.Cursor){
    2a62:	dc 01       	movw	r26, r24
    2a64:	18 96       	adiw	r26, 0x08	; 8
    2a66:	ed 91       	ld	r30, X+
    2a68:	fc 91       	ld	r31, X
    2a6a:	19 97       	sbiw	r26, 0x09	; 9
    2a6c:	e1 31       	cpi	r30, 0x11	; 17
    2a6e:	f1 05       	cpc	r31, r1
    2a70:	08 f0       	brcs	.+2      	; 0x2a74 <_ZN6Screen21Draw_CursorMenuScreenEv+0x12>
    2a72:	8b c0       	rjmp	.+278    	; 0x2b8a <_ZN6Screen21Draw_CursorMenuScreenEv+0x128>
    2a74:	e3 5c       	subi	r30, 0xC3	; 195
    2a76:	ff 4f       	sbci	r31, 0xFF	; 255
    2a78:	0c 94 63 1d 	jmp	0x3ac6	; 0x3ac6 <__tablejump2__>
		case(SAVE):LcdGotoXY(0,1);LcdChr_full(0x9B);break;
    2a7c:	61 e0       	ldi	r22, 0x01	; 1
    2a7e:	80 e0       	ldi	r24, 0x00	; 0
    2a80:	0e 94 12 10 	call	0x2024	; 0x2024 <_Z9LcdGotoXYhh>
    2a84:	8b e9       	ldi	r24, 0x9B	; 155
    2a86:	0e 94 2d 10 	call	0x205a	; 0x205a <_Z11LcdChr_fullh>
    2a8a:	08 95       	ret
		case(SETPOSITION):LcdGotoXY(0,2);LcdChr_full(0x9B);break;
    2a8c:	62 e0       	ldi	r22, 0x02	; 2
    2a8e:	80 e0       	ldi	r24, 0x00	; 0
    2a90:	0e 94 12 10 	call	0x2024	; 0x2024 <_Z9LcdGotoXYhh>
    2a94:	8b e9       	ldi	r24, 0x9B	; 155
    2a96:	0e 94 2d 10 	call	0x205a	; 0x205a <_Z11LcdChr_fullh>
    2a9a:	08 95       	ret
		case(SETTINGS):LcdGotoXY(0,3);LcdChr_full(0x9B);break;
    2a9c:	63 e0       	ldi	r22, 0x03	; 3
    2a9e:	80 e0       	ldi	r24, 0x00	; 0
    2aa0:	0e 94 12 10 	call	0x2024	; 0x2024 <_Z9LcdGotoXYhh>
    2aa4:	8b e9       	ldi	r24, 0x9B	; 155
    2aa6:	0e 94 2d 10 	call	0x205a	; 0x205a <_Z11LcdChr_fullh>
    2aaa:	08 95       	ret
		case(EXIT_1):LcdGotoXY(0,4);LcdChr_full(0x9B);break;
    2aac:	64 e0       	ldi	r22, 0x04	; 4
    2aae:	80 e0       	ldi	r24, 0x00	; 0
    2ab0:	0e 94 12 10 	call	0x2024	; 0x2024 <_Z9LcdGotoXYhh>
    2ab4:	8b e9       	ldi	r24, 0x9B	; 155
    2ab6:	0e 94 2d 10 	call	0x205a	; 0x205a <_Z11LcdChr_fullh>
    2aba:	08 95       	ret
			
		case(PARKING_SAVE):LcdGotoXY(0,1);LcdChr_full(0x9B);break;
    2abc:	61 e0       	ldi	r22, 0x01	; 1
    2abe:	80 e0       	ldi	r24, 0x00	; 0
    2ac0:	0e 94 12 10 	call	0x2024	; 0x2024 <_Z9LcdGotoXYhh>
    2ac4:	8b e9       	ldi	r24, 0x9B	; 155
    2ac6:	0e 94 2d 10 	call	0x205a	; 0x205a <_Z11LcdChr_fullh>
    2aca:	08 95       	ret
		case(HIGHTPOSITION_SAVE):LcdGotoXY(0,2);LcdChr_full(0x9B);break;
    2acc:	62 e0       	ldi	r22, 0x02	; 2
    2ace:	80 e0       	ldi	r24, 0x00	; 0
    2ad0:	0e 94 12 10 	call	0x2024	; 0x2024 <_Z9LcdGotoXYhh>
    2ad4:	8b e9       	ldi	r24, 0x9B	; 155
    2ad6:	0e 94 2d 10 	call	0x205a	; 0x205a <_Z11LcdChr_fullh>
    2ada:	08 95       	ret
		case(EXIT_SAVE):LcdGotoXY(0,4);LcdChr_full(0x9B);break;	
    2adc:	64 e0       	ldi	r22, 0x04	; 4
    2ade:	80 e0       	ldi	r24, 0x00	; 0
    2ae0:	0e 94 12 10 	call	0x2024	; 0x2024 <_Z9LcdGotoXYhh>
    2ae4:	8b e9       	ldi	r24, 0x9B	; 155
    2ae6:	0e 94 2d 10 	call	0x205a	; 0x205a <_Z11LcdChr_fullh>
    2aea:	08 95       	ret
		case(LOWPOSITION_SAVE):LcdGotoXY(0,3);LcdChr_full(0x9B);break;
    2aec:	63 e0       	ldi	r22, 0x03	; 3
    2aee:	80 e0       	ldi	r24, 0x00	; 0
    2af0:	0e 94 12 10 	call	0x2024	; 0x2024 <_Z9LcdGotoXYhh>
    2af4:	8b e9       	ldi	r24, 0x9B	; 155
    2af6:	0e 94 2d 10 	call	0x205a	; 0x205a <_Z11LcdChr_fullh>
    2afa:	08 95       	ret
		
		case(PARKING_SET):LcdGotoXY(0,1);LcdChr_full(0x9B);break;
    2afc:	61 e0       	ldi	r22, 0x01	; 1
    2afe:	80 e0       	ldi	r24, 0x00	; 0
    2b00:	0e 94 12 10 	call	0x2024	; 0x2024 <_Z9LcdGotoXYhh>
    2b04:	8b e9       	ldi	r24, 0x9B	; 155
    2b06:	0e 94 2d 10 	call	0x205a	; 0x205a <_Z11LcdChr_fullh>
    2b0a:	08 95       	ret
		case(HIGHTPOSITION_SET):LcdGotoXY(0,2);LcdChr_full(0x9B);break;
    2b0c:	62 e0       	ldi	r22, 0x02	; 2
    2b0e:	80 e0       	ldi	r24, 0x00	; 0
    2b10:	0e 94 12 10 	call	0x2024	; 0x2024 <_Z9LcdGotoXYhh>
    2b14:	8b e9       	ldi	r24, 0x9B	; 155
    2b16:	0e 94 2d 10 	call	0x205a	; 0x205a <_Z11LcdChr_fullh>
    2b1a:	08 95       	ret
		case(LOWPOSITION_SET):LcdGotoXY(0,3);LcdChr_full(0x9B);break;
    2b1c:	63 e0       	ldi	r22, 0x03	; 3
    2b1e:	80 e0       	ldi	r24, 0x00	; 0
    2b20:	0e 94 12 10 	call	0x2024	; 0x2024 <_Z9LcdGotoXYhh>
    2b24:	8b e9       	ldi	r24, 0x9B	; 155
    2b26:	0e 94 2d 10 	call	0x205a	; 0x205a <_Z11LcdChr_fullh>
    2b2a:	08 95       	ret
		case(EXIT_SET):LcdGotoXY(0,4);LcdChr_full(0x9B);break;	
    2b2c:	64 e0       	ldi	r22, 0x04	; 4
    2b2e:	80 e0       	ldi	r24, 0x00	; 0
    2b30:	0e 94 12 10 	call	0x2024	; 0x2024 <_Z9LcdGotoXYhh>
    2b34:	8b e9       	ldi	r24, 0x9B	; 155
    2b36:	0e 94 2d 10 	call	0x205a	; 0x205a <_Z11LcdChr_fullh>
    2b3a:	08 95       	ret
		
		case(SETTINGS_TUNING):LcdGotoXY(0,1);LcdChr_full(0x9B);break;
    2b3c:	61 e0       	ldi	r22, 0x01	; 1
    2b3e:	80 e0       	ldi	r24, 0x00	; 0
    2b40:	0e 94 12 10 	call	0x2024	; 0x2024 <_Z9LcdGotoXYhh>
    2b44:	8b e9       	ldi	r24, 0x9B	; 155
    2b46:	0e 94 2d 10 	call	0x205a	; 0x205a <_Z11LcdChr_fullh>
    2b4a:	08 95       	ret
		case(SETTINGS_LIMITS):LcdGotoXY(0,2);LcdChr_full(0x9B);break;
    2b4c:	62 e0       	ldi	r22, 0x02	; 2
    2b4e:	80 e0       	ldi	r24, 0x00	; 0
    2b50:	0e 94 12 10 	call	0x2024	; 0x2024 <_Z9LcdGotoXYhh>
    2b54:	8b e9       	ldi	r24, 0x9B	; 155
    2b56:	0e 94 2d 10 	call	0x205a	; 0x205a <_Z11LcdChr_fullh>
    2b5a:	08 95       	ret
		case(SETTINGS_TEST_MALFACTION):LcdGotoXY(0,3);LcdChr_full(0x9B);break;
    2b5c:	63 e0       	ldi	r22, 0x03	; 3
    2b5e:	80 e0       	ldi	r24, 0x00	; 0
    2b60:	0e 94 12 10 	call	0x2024	; 0x2024 <_Z9LcdGotoXYhh>
    2b64:	8b e9       	ldi	r24, 0x9B	; 155
    2b66:	0e 94 2d 10 	call	0x205a	; 0x205a <_Z11LcdChr_fullh>
    2b6a:	08 95       	ret
		case(SETTINGS_RESET_ERRORS):LcdGotoXY(0,4);LcdChr_full(0x9B);break;
    2b6c:	64 e0       	ldi	r22, 0x04	; 4
    2b6e:	80 e0       	ldi	r24, 0x00	; 0
    2b70:	0e 94 12 10 	call	0x2024	; 0x2024 <_Z9LcdGotoXYhh>
    2b74:	8b e9       	ldi	r24, 0x9B	; 155
    2b76:	0e 94 2d 10 	call	0x205a	; 0x205a <_Z11LcdChr_fullh>
    2b7a:	08 95       	ret
		case(SETTINGS_EXIT):LcdGotoXY(0,5);LcdChr_full(0x9B);break;
    2b7c:	65 e0       	ldi	r22, 0x05	; 5
    2b7e:	80 e0       	ldi	r24, 0x00	; 0
    2b80:	0e 94 12 10 	call	0x2024	; 0x2024 <_Z9LcdGotoXYhh>
    2b84:	8b e9       	ldi	r24, 0x9B	; 155
    2b86:	0e 94 2d 10 	call	0x205a	; 0x205a <_Z11LcdChr_fullh>
    2b8a:	08 95       	ret

00002b8c <_ZN6Screen11Render_menuEv>:

//	*****************
//	*  MENU SCREEN  *
//	*****************

void Screen::Render_menu(){
    2b8c:	cf 93       	push	r28
    2b8e:	df 93       	push	r29
    2b90:	ec 01       	movw	r28, r24
	PrintTitle();
    2b92:	0e 94 8f 14 	call	0x291e	; 0x291e <_ZN6Screen10PrintTitleEv>

	Draw_CursorMenuScreen();	
    2b96:	ce 01       	movw	r24, r28
    2b98:	0e 94 31 15 	call	0x2a62	; 0x2a62 <_ZN6Screen21Draw_CursorMenuScreenEv>
}
    2b9c:	df 91       	pop	r29
    2b9e:	cf 91       	pop	r28
    2ba0:	08 95       	ret

00002ba2 <_ZN6Screen14Draw_icon_menuEv>:
	Print_Step_Value();
}


void Screen::Draw_icon_menu(){
	LcdGotoXY(6,0);
    2ba2:	60 e0       	ldi	r22, 0x00	; 0
    2ba4:	86 e0       	ldi	r24, 0x06	; 6
    2ba6:	0e 94 12 10 	call	0x2024	; 0x2024 <_Z9LcdGotoXYhh>
	LcdChr_full(0x9E);
    2baa:	8e e9       	ldi	r24, 0x9E	; 158
    2bac:	0e 94 2d 10 	call	0x205a	; 0x205a <_Z11LcdChr_fullh>
	LcdGotoXY(7,0);
    2bb0:	60 e0       	ldi	r22, 0x00	; 0
    2bb2:	87 e0       	ldi	r24, 0x07	; 7
    2bb4:	0e 94 12 10 	call	0x2024	; 0x2024 <_Z9LcdGotoXYhh>
	LcdChr_full(0x9F);
    2bb8:	8f e9       	ldi	r24, 0x9F	; 159
    2bba:	0e 94 2d 10 	call	0x205a	; 0x205a <_Z11LcdChr_fullh>
    2bbe:	08 95       	ret

00002bc0 <_ZN6Screen10Draw_WheelE5Wheel>:
	Draw_Wheel(carrage.Wheel_2);
	Draw_Wheel(carrage.Wheel_3);
	Draw_Wheel(carrage.Wheel_4);
}

void Screen::Draw_Wheel(Wheel wheel){
    2bc0:	af 92       	push	r10
    2bc2:	bf 92       	push	r11
    2bc4:	cf 92       	push	r12
    2bc6:	df 92       	push	r13
    2bc8:	ef 92       	push	r14
    2bca:	ff 92       	push	r15
    2bcc:	0f 93       	push	r16
    2bce:	1f 93       	push	r17
    2bd0:	cf 93       	push	r28
    2bd2:	df 93       	push	r29
    2bd4:	cd b7       	in	r28, 0x3d	; 61
    2bd6:	de b7       	in	r29, 0x3e	; 62
    2bd8:	2c 97       	sbiw	r28, 0x0c	; 12
    2bda:	0f b6       	in	r0, 0x3f	; 63
    2bdc:	f8 94       	cli
    2bde:	de bf       	out	0x3e, r29	; 62
    2be0:	0f be       	out	0x3f, r0	; 63
    2be2:	cd bf       	out	0x3d, r28	; 61
	int hight_pos_x;
	int hight_pos_y;
	int n = wheel.number;
	int Char_wheel[6];
	//get position
	switch(n){
    2be4:	89 8d       	ldd	r24, Y+25	; 0x19
    2be6:	9a 8d       	ldd	r25, Y+26	; 0x1a
    2be8:	82 30       	cpi	r24, 0x02	; 2
    2bea:	91 05       	cpc	r25, r1
    2bec:	99 f0       	breq	.+38     	; 0x2c14 <_ZN6Screen10Draw_WheelE5Wheel+0x54>
    2bee:	1c f4       	brge	.+6      	; 0x2bf6 <_ZN6Screen10Draw_WheelE5Wheel+0x36>
    2bf0:	01 97       	sbiw	r24, 0x01	; 1
    2bf2:	39 f0       	breq	.+14     	; 0x2c02 <_ZN6Screen10Draw_WheelE5Wheel+0x42>
    2bf4:	31 c0       	rjmp	.+98     	; 0x2c58 <_ZN6Screen10Draw_WheelE5Wheel+0x98>
    2bf6:	83 30       	cpi	r24, 0x03	; 3
    2bf8:	91 05       	cpc	r25, r1
    2bfa:	c1 f0       	breq	.+48     	; 0x2c2c <_ZN6Screen10Draw_WheelE5Wheel+0x6c>
    2bfc:	04 97       	sbiw	r24, 0x04	; 4
    2bfe:	19 f1       	breq	.+70     	; 0x2c46 <_ZN6Screen10Draw_WheelE5Wheel+0x86>
    2c00:	2b c0       	rjmp	.+86     	; 0x2c58 <_ZN6Screen10Draw_WheelE5Wheel+0x98>
		case 1:pos_x  = 3;pos_y = 0; hight_pos_x = 0; hight_pos_y = 1 ; break;
    2c02:	cc 24       	eor	r12, r12
    2c04:	c3 94       	inc	r12
    2c06:	a1 2c       	mov	r10, r1
    2c08:	00 e0       	ldi	r16, 0x00	; 0
    2c0a:	0f 2e       	mov	r0, r31
    2c0c:	f3 e0       	ldi	r31, 0x03	; 3
    2c0e:	df 2e       	mov	r13, r31
    2c10:	f0 2d       	mov	r31, r0
    2c12:	22 c0       	rjmp	.+68     	; 0x2c58 <_ZN6Screen10Draw_WheelE5Wheel+0x98>
		case 2:pos_x  = 9;pos_y = 0; hight_pos_x = 11; hight_pos_y = 1 ;break;
    2c14:	cc 24       	eor	r12, r12
    2c16:	c3 94       	inc	r12
    2c18:	0f 2e       	mov	r0, r31
    2c1a:	fb e0       	ldi	r31, 0x0B	; 11
    2c1c:	af 2e       	mov	r10, r31
    2c1e:	f0 2d       	mov	r31, r0
    2c20:	00 e0       	ldi	r16, 0x00	; 0
    2c22:	0f 2e       	mov	r0, r31
    2c24:	f9 e0       	ldi	r31, 0x09	; 9
    2c26:	df 2e       	mov	r13, r31
    2c28:	f0 2d       	mov	r31, r0
    2c2a:	16 c0       	rjmp	.+44     	; 0x2c58 <_ZN6Screen10Draw_WheelE5Wheel+0x98>
		case 3:pos_x  = 9;pos_y = 3; hight_pos_x = 11; hight_pos_y = 4 ;break;
    2c2c:	68 94       	set
    2c2e:	cc 24       	eor	r12, r12
    2c30:	c2 f8       	bld	r12, 2
    2c32:	0f 2e       	mov	r0, r31
    2c34:	fb e0       	ldi	r31, 0x0B	; 11
    2c36:	af 2e       	mov	r10, r31
    2c38:	f0 2d       	mov	r31, r0
    2c3a:	03 e0       	ldi	r16, 0x03	; 3
    2c3c:	0f 2e       	mov	r0, r31
    2c3e:	f9 e0       	ldi	r31, 0x09	; 9
    2c40:	df 2e       	mov	r13, r31
    2c42:	f0 2d       	mov	r31, r0
    2c44:	09 c0       	rjmp	.+18     	; 0x2c58 <_ZN6Screen10Draw_WheelE5Wheel+0x98>
		case 4:pos_x  = 3;pos_y = 3; hight_pos_x = 0; hight_pos_y = 4 ;break;
    2c46:	68 94       	set
    2c48:	cc 24       	eor	r12, r12
    2c4a:	c2 f8       	bld	r12, 2
    2c4c:	a1 2c       	mov	r10, r1
    2c4e:	03 e0       	ldi	r16, 0x03	; 3
    2c50:	0f 2e       	mov	r0, r31
    2c52:	f3 e0       	ldi	r31, 0x03	; 3
    2c54:	df 2e       	mov	r13, r31
    2c56:	f0 2d       	mov	r31, r0
	}
	//get char of wheel
	if(wheel.malfuction){
    2c58:	8c a9       	ldd	r24, Y+52	; 0x34
    2c5a:	88 23       	and	r24, r24
    2c5c:	c9 f0       	breq	.+50     	; 0x2c90 <_ZN6Screen10Draw_WheelE5Wheel+0xd0>
		Char_wheel[0] = 0x8C;
    2c5e:	8c e8       	ldi	r24, 0x8C	; 140
    2c60:	90 e0       	ldi	r25, 0x00	; 0
    2c62:	9a 83       	std	Y+2, r25	; 0x02
    2c64:	89 83       	std	Y+1, r24	; 0x01
		Char_wheel[1] = 0x8D;
    2c66:	8d e8       	ldi	r24, 0x8D	; 141
    2c68:	90 e0       	ldi	r25, 0x00	; 0
    2c6a:	9c 83       	std	Y+4, r25	; 0x04
    2c6c:	8b 83       	std	Y+3, r24	; 0x03
		Char_wheel[2] = 0x8E;
    2c6e:	8e e8       	ldi	r24, 0x8E	; 142
    2c70:	90 e0       	ldi	r25, 0x00	; 0
    2c72:	9e 83       	std	Y+6, r25	; 0x06
    2c74:	8d 83       	std	Y+5, r24	; 0x05
		Char_wheel[3] = 0x8F;
    2c76:	8f e8       	ldi	r24, 0x8F	; 143
    2c78:	90 e0       	ldi	r25, 0x00	; 0
    2c7a:	98 87       	std	Y+8, r25	; 0x08
    2c7c:	8f 83       	std	Y+7, r24	; 0x07
		Char_wheel[4] = 0x90;
    2c7e:	80 e9       	ldi	r24, 0x90	; 144
    2c80:	90 e0       	ldi	r25, 0x00	; 0
    2c82:	9a 87       	std	Y+10, r25	; 0x0a
    2c84:	89 87       	std	Y+9, r24	; 0x09
		Char_wheel[5] = 0x91;
    2c86:	81 e9       	ldi	r24, 0x91	; 145
    2c88:	90 e0       	ldi	r25, 0x00	; 0
    2c8a:	9c 87       	std	Y+12, r25	; 0x0c
    2c8c:	8b 87       	std	Y+11, r24	; 0x0b
    2c8e:	63 c0       	rjmp	.+198    	; 0x2d56 <_ZN6Screen10Draw_WheelE5Wheel+0x196>
	} else if (wheel.selected){
    2c90:	8b a9       	ldd	r24, Y+51	; 0x33
    2c92:	88 23       	and	r24, r24
    2c94:	c9 f0       	breq	.+50     	; 0x2cc8 <_ZN6Screen10Draw_WheelE5Wheel+0x108>
		Char_wheel[0] = 0x80;
    2c96:	80 e8       	ldi	r24, 0x80	; 128
    2c98:	90 e0       	ldi	r25, 0x00	; 0
    2c9a:	9a 83       	std	Y+2, r25	; 0x02
    2c9c:	89 83       	std	Y+1, r24	; 0x01
		Char_wheel[1] = 0x81;
    2c9e:	81 e8       	ldi	r24, 0x81	; 129
    2ca0:	90 e0       	ldi	r25, 0x00	; 0
    2ca2:	9c 83       	std	Y+4, r25	; 0x04
    2ca4:	8b 83       	std	Y+3, r24	; 0x03
		Char_wheel[2] = 0x82;
    2ca6:	82 e8       	ldi	r24, 0x82	; 130
    2ca8:	90 e0       	ldi	r25, 0x00	; 0
    2caa:	9e 83       	std	Y+6, r25	; 0x06
    2cac:	8d 83       	std	Y+5, r24	; 0x05
		Char_wheel[3] = 0x83;
    2cae:	83 e8       	ldi	r24, 0x83	; 131
    2cb0:	90 e0       	ldi	r25, 0x00	; 0
    2cb2:	98 87       	std	Y+8, r25	; 0x08
    2cb4:	8f 83       	std	Y+7, r24	; 0x07
		Char_wheel[4] = 0x84;
    2cb6:	84 e8       	ldi	r24, 0x84	; 132
    2cb8:	90 e0       	ldi	r25, 0x00	; 0
    2cba:	9a 87       	std	Y+10, r25	; 0x0a
    2cbc:	89 87       	std	Y+9, r24	; 0x09
		Char_wheel[5] = 0x85;
    2cbe:	85 e8       	ldi	r24, 0x85	; 133
    2cc0:	90 e0       	ldi	r25, 0x00	; 0
    2cc2:	9c 87       	std	Y+12, r25	; 0x0c
    2cc4:	8b 87       	std	Y+11, r24	; 0x0b
    2cc6:	47 c0       	rjmp	.+142    	; 0x2d56 <_ZN6Screen10Draw_WheelE5Wheel+0x196>
	} else {
		Char_wheel[0] = 0x86;
    2cc8:	86 e8       	ldi	r24, 0x86	; 134
    2cca:	90 e0       	ldi	r25, 0x00	; 0
    2ccc:	9a 83       	std	Y+2, r25	; 0x02
    2cce:	89 83       	std	Y+1, r24	; 0x01
		Char_wheel[1] = 0x87;
    2cd0:	87 e8       	ldi	r24, 0x87	; 135
    2cd2:	90 e0       	ldi	r25, 0x00	; 0
    2cd4:	9c 83       	std	Y+4, r25	; 0x04
    2cd6:	8b 83       	std	Y+3, r24	; 0x03
		Char_wheel[2] = 0x88;
    2cd8:	88 e8       	ldi	r24, 0x88	; 136
    2cda:	90 e0       	ldi	r25, 0x00	; 0
    2cdc:	9e 83       	std	Y+6, r25	; 0x06
    2cde:	8d 83       	std	Y+5, r24	; 0x05
		Char_wheel[3] = 0x89;
    2ce0:	89 e8       	ldi	r24, 0x89	; 137
    2ce2:	90 e0       	ldi	r25, 0x00	; 0
    2ce4:	98 87       	std	Y+8, r25	; 0x08
    2ce6:	8f 83       	std	Y+7, r24	; 0x07
		Char_wheel[4] = 0x8A;
    2ce8:	8a e8       	ldi	r24, 0x8A	; 138
    2cea:	90 e0       	ldi	r25, 0x00	; 0
    2cec:	9a 87       	std	Y+10, r25	; 0x0a
    2cee:	89 87       	std	Y+9, r24	; 0x09
		Char_wheel[5] = 0x8B;
    2cf0:	8b e8       	ldi	r24, 0x8B	; 139
    2cf2:	90 e0       	ldi	r25, 0x00	; 0
    2cf4:	9c 87       	std	Y+12, r25	; 0x0c
    2cf6:	8b 87       	std	Y+11, r24	; 0x0b
    2cf8:	2e c0       	rjmp	.+92     	; 0x2d56 <_ZN6Screen10Draw_WheelE5Wheel+0x196>
	}

	//draw wheel 2 symbols for cycle 
	for ( i = 0; i <= 4; i = i + 2 ){
		LcdGotoXY(pos_x, pos_y);
    2cfa:	61 2f       	mov	r22, r17
    2cfc:	8d 2d       	mov	r24, r13
    2cfe:	0e 94 12 10 	call	0x2024	; 0x2024 <_Z9LcdGotoXYhh>
		LcdChr_full(Char_wheel[i]);
    2d02:	f7 01       	movw	r30, r14
    2d04:	80 81       	ld	r24, Z
    2d06:	0e 94 2d 10 	call	0x205a	; 0x205a <_Z11LcdChr_fullh>
		LcdGotoXY(pos_x + 1, pos_y);
    2d0a:	61 2f       	mov	r22, r17
    2d0c:	8b 2d       	mov	r24, r11
    2d0e:	0e 94 12 10 	call	0x2024	; 0x2024 <_Z9LcdGotoXYhh>
		LcdChr_full(Char_wheel[i+1]); 
    2d12:	f7 01       	movw	r30, r14
    2d14:	82 81       	ldd	r24, Z+2	; 0x02
    2d16:	0e 94 2d 10 	call	0x205a	; 0x205a <_Z11LcdChr_fullh>
    2d1a:	1f 5f       	subi	r17, 0xFF	; 255
    2d1c:	f4 e0       	ldi	r31, 0x04	; 4
    2d1e:	ef 0e       	add	r14, r31
    2d20:	f1 1c       	adc	r15, r1
		Char_wheel[4] = 0x8A;
		Char_wheel[5] = 0x8B;
	}

	//draw wheel 2 symbols for cycle 
	for ( i = 0; i <= 4; i = i + 2 ){
    2d22:	10 13       	cpse	r17, r16
    2d24:	ea cf       	rjmp	.-44     	; 0x2cfa <_ZN6Screen10Draw_WheelE5Wheel+0x13a>
		LcdGotoXY(pos_x + 1, pos_y);
		LcdChr_full(Char_wheel[i+1]); 
		pos_y ++;
	}
	//print hight wheel	
	float hight = wheel.get_hight();	
    2d26:	ce 01       	movw	r24, r28
    2d28:	49 96       	adiw	r24, 0x19	; 25
    2d2a:	0e 94 db 19 	call	0x33b6	; 0x33b6 <_ZN5Wheel9get_hightEv>
    2d2e:	8b 01       	movw	r16, r22
    2d30:	9c 01       	movw	r18, r24
	Lcd_printf2(hight_pos_x, hight_pos_y, FONT_1X, hight, 2);	
    2d32:	68 94       	set
    2d34:	ee 24       	eor	r14, r14
    2d36:	e1 f8       	bld	r14, 1
    2d38:	f1 2c       	mov	r15, r1
    2d3a:	41 e0       	ldi	r20, 0x01	; 1
    2d3c:	6c 2d       	mov	r22, r12
    2d3e:	8a 2d       	mov	r24, r10
    2d40:	0e 94 b6 11 	call	0x236c	; 0x236c <_Z11Lcd_printf2hh11LcdFontSizefi>
	//print point
	LcdGotoXY(hight_pos_x , hight_pos_y + 1 );
    2d44:	61 e0       	ldi	r22, 0x01	; 1
    2d46:	6c 0d       	add	r22, r12
    2d48:	8a 2d       	mov	r24, r10
    2d4a:	0e 94 12 10 	call	0x2024	; 0x2024 <_Z9LcdGotoXYhh>
	LcdChr_full(0xA0);	
    2d4e:	80 ea       	ldi	r24, 0xA0	; 160
    2d50:	0e 94 2d 10 	call	0x205a	; 0x205a <_Z11LcdChr_fullh>
}
    2d54:	09 c0       	rjmp	.+18     	; 0x2d68 <_ZN6Screen10Draw_WheelE5Wheel+0x1a8>
    2d56:	10 2f       	mov	r17, r16
    2d58:	ce 01       	movw	r24, r28
    2d5a:	01 96       	adiw	r24, 0x01	; 1
    2d5c:	7c 01       	movw	r14, r24
    2d5e:	0d 5f       	subi	r16, 0xFD	; 253

	//draw wheel 2 symbols for cycle 
	for ( i = 0; i <= 4; i = i + 2 ){
		LcdGotoXY(pos_x, pos_y);
		LcdChr_full(Char_wheel[i]);
		LcdGotoXY(pos_x + 1, pos_y);
    2d60:	bb 24       	eor	r11, r11
    2d62:	b3 94       	inc	r11
    2d64:	bd 0c       	add	r11, r13
    2d66:	c9 cf       	rjmp	.-110    	; 0x2cfa <_ZN6Screen10Draw_WheelE5Wheel+0x13a>
	float hight = wheel.get_hight();	
	Lcd_printf2(hight_pos_x, hight_pos_y, FONT_1X, hight, 2);	
	//print point
	LcdGotoXY(hight_pos_x , hight_pos_y + 1 );
	LcdChr_full(0xA0);	
}
    2d68:	2c 96       	adiw	r28, 0x0c	; 12
    2d6a:	0f b6       	in	r0, 0x3f	; 63
    2d6c:	f8 94       	cli
    2d6e:	de bf       	out	0x3e, r29	; 62
    2d70:	0f be       	out	0x3f, r0	; 63
    2d72:	cd bf       	out	0x3d, r28	; 61
    2d74:	df 91       	pop	r29
    2d76:	cf 91       	pop	r28
    2d78:	1f 91       	pop	r17
    2d7a:	0f 91       	pop	r16
    2d7c:	ff 90       	pop	r15
    2d7e:	ef 90       	pop	r14
    2d80:	df 90       	pop	r13
    2d82:	cf 90       	pop	r12
    2d84:	bf 90       	pop	r11
    2d86:	af 90       	pop	r10
    2d88:	08 95       	ret

00002d8a <_ZN6Screen12Draw_CarrageEv>:
	LcdChr_full(0x9E);
	LcdGotoXY(7,0);
	LcdChr_full(0x9F);
}

void Screen::Draw_Carrage(){
    2d8a:	cf 93       	push	r28
    2d8c:	df 93       	push	r29
    2d8e:	ec 01       	movw	r28, r24
	Draw_Wheel(carrage.Wheel_1);
    2d90:	fc 01       	movw	r30, r24
    2d92:	e9 56       	subi	r30, 0x69	; 105
    2d94:	ff 4f       	sbci	r31, 0xFF	; 255
    2d96:	8d b7       	in	r24, 0x3d	; 61
    2d98:	9e b7       	in	r25, 0x3e	; 62
    2d9a:	8b 97       	sbiw	r24, 0x2b	; 43
    2d9c:	0f b6       	in	r0, 0x3f	; 63
    2d9e:	f8 94       	cli
    2da0:	9e bf       	out	0x3e, r25	; 62
    2da2:	0f be       	out	0x3f, r0	; 63
    2da4:	8d bf       	out	0x3d, r24	; 61
    2da6:	ad b7       	in	r26, 0x3d	; 61
    2da8:	be b7       	in	r27, 0x3e	; 62
    2daa:	11 96       	adiw	r26, 0x01	; 1
    2dac:	8b e2       	ldi	r24, 0x2B	; 43
    2dae:	01 90       	ld	r0, Z+
    2db0:	0d 92       	st	X+, r0
    2db2:	8a 95       	dec	r24
    2db4:	e1 f7       	brne	.-8      	; 0x2dae <_ZN6Screen12Draw_CarrageEv+0x24>
    2db6:	ce 01       	movw	r24, r28
    2db8:	0e 94 e0 15 	call	0x2bc0	; 0x2bc0 <_ZN6Screen10Draw_WheelE5Wheel>
	Draw_Wheel(carrage.Wheel_2);
    2dbc:	8d b7       	in	r24, 0x3d	; 61
    2dbe:	9e b7       	in	r25, 0x3e	; 62
    2dc0:	8b 96       	adiw	r24, 0x2b	; 43
    2dc2:	0f b6       	in	r0, 0x3f	; 63
    2dc4:	f8 94       	cli
    2dc6:	9e bf       	out	0x3e, r25	; 62
    2dc8:	0f be       	out	0x3f, r0	; 63
    2dca:	8d bf       	out	0x3d, r24	; 61
    2dcc:	fe 01       	movw	r30, r28
    2dce:	ee 53       	subi	r30, 0x3E	; 62
    2dd0:	ff 4f       	sbci	r31, 0xFF	; 255
    2dd2:	8b 97       	sbiw	r24, 0x2b	; 43
    2dd4:	0f b6       	in	r0, 0x3f	; 63
    2dd6:	f8 94       	cli
    2dd8:	9e bf       	out	0x3e, r25	; 62
    2dda:	0f be       	out	0x3f, r0	; 63
    2ddc:	8d bf       	out	0x3d, r24	; 61
    2dde:	ad b7       	in	r26, 0x3d	; 61
    2de0:	be b7       	in	r27, 0x3e	; 62
    2de2:	11 96       	adiw	r26, 0x01	; 1
    2de4:	8b e2       	ldi	r24, 0x2B	; 43
    2de6:	01 90       	ld	r0, Z+
    2de8:	0d 92       	st	X+, r0
    2dea:	8a 95       	dec	r24
    2dec:	e1 f7       	brne	.-8      	; 0x2de6 <_ZN6Screen12Draw_CarrageEv+0x5c>
    2dee:	ce 01       	movw	r24, r28
    2df0:	0e 94 e0 15 	call	0x2bc0	; 0x2bc0 <_ZN6Screen10Draw_WheelE5Wheel>
	Draw_Wheel(carrage.Wheel_3);
    2df4:	8d b7       	in	r24, 0x3d	; 61
    2df6:	9e b7       	in	r25, 0x3e	; 62
    2df8:	8b 96       	adiw	r24, 0x2b	; 43
    2dfa:	0f b6       	in	r0, 0x3f	; 63
    2dfc:	f8 94       	cli
    2dfe:	9e bf       	out	0x3e, r25	; 62
    2e00:	0f be       	out	0x3f, r0	; 63
    2e02:	8d bf       	out	0x3d, r24	; 61
    2e04:	fe 01       	movw	r30, r28
    2e06:	e3 51       	subi	r30, 0x13	; 19
    2e08:	ff 4f       	sbci	r31, 0xFF	; 255
    2e0a:	8b 97       	sbiw	r24, 0x2b	; 43
    2e0c:	0f b6       	in	r0, 0x3f	; 63
    2e0e:	f8 94       	cli
    2e10:	9e bf       	out	0x3e, r25	; 62
    2e12:	0f be       	out	0x3f, r0	; 63
    2e14:	8d bf       	out	0x3d, r24	; 61
    2e16:	ad b7       	in	r26, 0x3d	; 61
    2e18:	be b7       	in	r27, 0x3e	; 62
    2e1a:	11 96       	adiw	r26, 0x01	; 1
    2e1c:	8b e2       	ldi	r24, 0x2B	; 43
    2e1e:	01 90       	ld	r0, Z+
    2e20:	0d 92       	st	X+, r0
    2e22:	8a 95       	dec	r24
    2e24:	e1 f7       	brne	.-8      	; 0x2e1e <_ZN6Screen12Draw_CarrageEv+0x94>
    2e26:	ce 01       	movw	r24, r28
    2e28:	0e 94 e0 15 	call	0x2bc0	; 0x2bc0 <_ZN6Screen10Draw_WheelE5Wheel>
	Draw_Wheel(carrage.Wheel_4);
    2e2c:	8d b7       	in	r24, 0x3d	; 61
    2e2e:	9e b7       	in	r25, 0x3e	; 62
    2e30:	8b 96       	adiw	r24, 0x2b	; 43
    2e32:	0f b6       	in	r0, 0x3f	; 63
    2e34:	f8 94       	cli
    2e36:	9e bf       	out	0x3e, r25	; 62
    2e38:	0f be       	out	0x3f, r0	; 63
    2e3a:	8d bf       	out	0x3d, r24	; 61
    2e3c:	fe 01       	movw	r30, r28
    2e3e:	e8 5e       	subi	r30, 0xE8	; 232
    2e40:	fe 4f       	sbci	r31, 0xFE	; 254
    2e42:	8b 97       	sbiw	r24, 0x2b	; 43
    2e44:	0f b6       	in	r0, 0x3f	; 63
    2e46:	f8 94       	cli
    2e48:	9e bf       	out	0x3e, r25	; 62
    2e4a:	0f be       	out	0x3f, r0	; 63
    2e4c:	8d bf       	out	0x3d, r24	; 61
    2e4e:	ad b7       	in	r26, 0x3d	; 61
    2e50:	be b7       	in	r27, 0x3e	; 62
    2e52:	11 96       	adiw	r26, 0x01	; 1
    2e54:	8b e2       	ldi	r24, 0x2B	; 43
    2e56:	01 90       	ld	r0, Z+
    2e58:	0d 92       	st	X+, r0
    2e5a:	8a 95       	dec	r24
    2e5c:	e1 f7       	brne	.-8      	; 0x2e56 <_ZN6Screen12Draw_CarrageEv+0xcc>
    2e5e:	ce 01       	movw	r24, r28
    2e60:	0e 94 e0 15 	call	0x2bc0	; 0x2bc0 <_ZN6Screen10Draw_WheelE5Wheel>
}
    2e64:	8d b7       	in	r24, 0x3d	; 61
    2e66:	9e b7       	in	r25, 0x3e	; 62
    2e68:	8b 96       	adiw	r24, 0x2b	; 43
    2e6a:	0f b6       	in	r0, 0x3f	; 63
    2e6c:	f8 94       	cli
    2e6e:	9e bf       	out	0x3e, r25	; 62
    2e70:	0f be       	out	0x3f, r0	; 63
    2e72:	8d bf       	out	0x3d, r24	; 61
    2e74:	df 91       	pop	r29
    2e76:	cf 91       	pop	r28
    2e78:	08 95       	ret

00002e7a <_ZN6Screen23Draw_adjustment_carrageEv>:
	LcdChr_full(0xA0);	
}

void Screen::Draw_adjustment_carrage(){
	int statment = activity.Statment;
	if (statment == SCREEN_ADJUST){
    2e7a:	fc 01       	movw	r30, r24
    2e7c:	80 81       	ld	r24, Z
    2e7e:	91 81       	ldd	r25, Z+1	; 0x01
    2e80:	02 97       	sbiw	r24, 0x02	; 2
    2e82:	e9 f4       	brne	.+58     	; 0x2ebe <_ZN6Screen23Draw_adjustment_carrageEv+0x44>
		LcdGotoXY(6,2);
    2e84:	62 e0       	ldi	r22, 0x02	; 2
    2e86:	86 e0       	ldi	r24, 0x06	; 6
    2e88:	0e 94 12 10 	call	0x2024	; 0x2024 <_Z9LcdGotoXYhh>
		LcdChr_full(0x96);
    2e8c:	86 e9       	ldi	r24, 0x96	; 150
    2e8e:	0e 94 2d 10 	call	0x205a	; 0x205a <_Z11LcdChr_fullh>
		LcdGotoXY(7,2);
    2e92:	62 e0       	ldi	r22, 0x02	; 2
    2e94:	87 e0       	ldi	r24, 0x07	; 7
    2e96:	0e 94 12 10 	call	0x2024	; 0x2024 <_Z9LcdGotoXYhh>
		LcdChr_full(0x97);
    2e9a:	87 e9       	ldi	r24, 0x97	; 151
    2e9c:	0e 94 2d 10 	call	0x205a	; 0x205a <_Z11LcdChr_fullh>
		LcdGotoXY(6,3);
    2ea0:	63 e0       	ldi	r22, 0x03	; 3
    2ea2:	86 e0       	ldi	r24, 0x06	; 6
    2ea4:	0e 94 12 10 	call	0x2024	; 0x2024 <_Z9LcdGotoXYhh>
		LcdChr_full(0x98);
    2ea8:	88 e9       	ldi	r24, 0x98	; 152
    2eaa:	0e 94 2d 10 	call	0x205a	; 0x205a <_Z11LcdChr_fullh>
		LcdGotoXY(7,3);
    2eae:	63 e0       	ldi	r22, 0x03	; 3
    2eb0:	87 e0       	ldi	r24, 0x07	; 7
    2eb2:	0e 94 12 10 	call	0x2024	; 0x2024 <_Z9LcdGotoXYhh>
		LcdChr_full(0x99);
    2eb6:	89 e9       	ldi	r24, 0x99	; 153
    2eb8:	0e 94 2d 10 	call	0x205a	; 0x205a <_Z11LcdChr_fullh>
    2ebc:	08 95       	ret
	} else {
		LcdGotoXY(6,2);
    2ebe:	62 e0       	ldi	r22, 0x02	; 2
    2ec0:	86 e0       	ldi	r24, 0x06	; 6
    2ec2:	0e 94 12 10 	call	0x2024	; 0x2024 <_Z9LcdGotoXYhh>
		LcdChr_full(0x92);
    2ec6:	82 e9       	ldi	r24, 0x92	; 146
    2ec8:	0e 94 2d 10 	call	0x205a	; 0x205a <_Z11LcdChr_fullh>
		LcdGotoXY(7,2);
    2ecc:	62 e0       	ldi	r22, 0x02	; 2
    2ece:	87 e0       	ldi	r24, 0x07	; 7
    2ed0:	0e 94 12 10 	call	0x2024	; 0x2024 <_Z9LcdGotoXYhh>
		LcdChr_full(0x93);
    2ed4:	83 e9       	ldi	r24, 0x93	; 147
    2ed6:	0e 94 2d 10 	call	0x205a	; 0x205a <_Z11LcdChr_fullh>
		LcdGotoXY(6,3);
    2eda:	63 e0       	ldi	r22, 0x03	; 3
    2edc:	86 e0       	ldi	r24, 0x06	; 6
    2ede:	0e 94 12 10 	call	0x2024	; 0x2024 <_Z9LcdGotoXYhh>
		LcdChr_full(0x94);
    2ee2:	84 e9       	ldi	r24, 0x94	; 148
    2ee4:	0e 94 2d 10 	call	0x205a	; 0x205a <_Z11LcdChr_fullh>
		LcdGotoXY(7,3);
    2ee8:	63 e0       	ldi	r22, 0x03	; 3
    2eea:	87 e0       	ldi	r24, 0x07	; 7
    2eec:	0e 94 12 10 	call	0x2024	; 0x2024 <_Z9LcdGotoXYhh>
		LcdChr_full(0x95);
    2ef0:	85 e9       	ldi	r24, 0x95	; 149
    2ef2:	0e 94 2d 10 	call	0x205a	; 0x205a <_Z11LcdChr_fullh>
    2ef6:	08 95       	ret

00002ef8 <_ZN6Screen21Draw_CursorMainScreenEv>:

}	

bool Screen::Draw_CursorMainScreen(){
	
	if (activity.Statment == SCREEN_ADJUST ){return false;};
    2ef8:	fc 01       	movw	r30, r24
    2efa:	20 81       	ld	r18, Z
    2efc:	31 81       	ldd	r19, Z+1	; 0x01
    2efe:	22 30       	cpi	r18, 0x02	; 2
    2f00:	31 05       	cpc	r19, r1
    2f02:	11 f4       	brne	.+4      	; 0x2f08 <_ZN6Screen21Draw_CursorMainScreenEv+0x10>
    2f04:	80 e0       	ldi	r24, 0x00	; 0
    2f06:	08 95       	ret
    2f08:	fc 01       	movw	r30, r24
	int Char_cursor[2];
	int position = activity.Cursor;
    2f0a:	80 85       	ldd	r24, Z+8	; 0x08
    2f0c:	91 85       	ldd	r25, Z+9	; 0x09
	
	switch(position){
    2f0e:	82 30       	cpi	r24, 0x02	; 2
    2f10:	91 05       	cpc	r25, r1
    2f12:	09 f4       	brne	.+2      	; 0x2f16 <_ZN6Screen21Draw_CursorMainScreenEv+0x1e>
    2f14:	45 c0       	rjmp	.+138    	; 0x2fa0 <_ZN6Screen21Draw_CursorMainScreenEv+0xa8>
    2f16:	34 f4       	brge	.+12     	; 0x2f24 <_ZN6Screen21Draw_CursorMainScreenEv+0x2c>
    2f18:	00 97       	sbiw	r24, 0x00	; 0
    2f1a:	e1 f0       	breq	.+56     	; 0x2f54 <_ZN6Screen21Draw_CursorMainScreenEv+0x5c>
    2f1c:	81 30       	cpi	r24, 0x01	; 1
    2f1e:	91 05       	cpc	r25, r1
    2f20:	79 f1       	breq	.+94     	; 0x2f80 <_ZN6Screen21Draw_CursorMainScreenEv+0x88>
    2f22:	08 c0       	rjmp	.+16     	; 0x2f34 <_ZN6Screen21Draw_CursorMainScreenEv+0x3c>
    2f24:	84 30       	cpi	r24, 0x04	; 4
    2f26:	91 05       	cpc	r25, r1
    2f28:	99 f1       	breq	.+102    	; 0x2f90 <_ZN6Screen21Draw_CursorMainScreenEv+0x98>
    2f2a:	0c f4       	brge	.+2      	; 0x2f2e <_ZN6Screen21Draw_CursorMainScreenEv+0x36>
    2f2c:	41 c0       	rjmp	.+130    	; 0x2fb0 <_ZN6Screen21Draw_CursorMainScreenEv+0xb8>
    2f2e:	85 30       	cpi	r24, 0x05	; 5
    2f30:	91 05       	cpc	r25, r1
    2f32:	d9 f0       	breq	.+54     	; 0x2f6a <_ZN6Screen21Draw_CursorMainScreenEv+0x72>
		case(LEFTDOWN):Char_cursor[0]=0x9A;break;
		case(RIGHTUP):Char_cursor[0]=0x9B;break;
		case(RIGHTDOWN):Char_cursor[0]=0x9B;break;
	}
	
	switch(position){
    2f34:	82 30       	cpi	r24, 0x02	; 2
    2f36:	91 05       	cpc	r25, r1
    2f38:	99 f1       	breq	.+102    	; 0x2fa0 <_ZN6Screen21Draw_CursorMainScreenEv+0xa8>
    2f3a:	2c f4       	brge	.+10     	; 0x2f46 <_ZN6Screen21Draw_CursorMainScreenEv+0x4e>
    2f3c:	00 97       	sbiw	r24, 0x00	; 0
    2f3e:	51 f0       	breq	.+20     	; 0x2f54 <_ZN6Screen21Draw_CursorMainScreenEv+0x5c>
    2f40:	01 97       	sbiw	r24, 0x01	; 1
    2f42:	e9 f5       	brne	.+122    	; 0x2fbe <_ZN6Screen21Draw_CursorMainScreenEv+0xc6>
    2f44:	1d c0       	rjmp	.+58     	; 0x2f80 <_ZN6Screen21Draw_CursorMainScreenEv+0x88>
    2f46:	84 30       	cpi	r24, 0x04	; 4
    2f48:	91 05       	cpc	r25, r1
    2f4a:	11 f1       	breq	.+68     	; 0x2f90 <_ZN6Screen21Draw_CursorMainScreenEv+0x98>
    2f4c:	8c f1       	brlt	.+98     	; 0x2fb0 <_ZN6Screen21Draw_CursorMainScreenEv+0xb8>
    2f4e:	05 97       	sbiw	r24, 0x05	; 5
    2f50:	b1 f5       	brne	.+108    	; 0x2fbe <_ZN6Screen21Draw_CursorMainScreenEv+0xc6>
    2f52:	0b c0       	rjmp	.+22     	; 0x2f6a <_ZN6Screen21Draw_CursorMainScreenEv+0x72>
		case(MENU):LcdGotoXY(6,1);LcdChr_full(Char_cursor[0]);LcdChr_full(Char_cursor[1]);break;
    2f54:	61 e0       	ldi	r22, 0x01	; 1
    2f56:	86 e0       	ldi	r24, 0x06	; 6
    2f58:	0e 94 12 10 	call	0x2024	; 0x2024 <_Z9LcdGotoXYhh>
    2f5c:	8c e9       	ldi	r24, 0x9C	; 156
    2f5e:	0e 94 2d 10 	call	0x205a	; 0x205a <_Z11LcdChr_fullh>
    2f62:	8d e9       	ldi	r24, 0x9D	; 157
    2f64:	0e 94 2d 10 	call	0x205a	; 0x205a <_Z11LcdChr_fullh>
    2f68:	2a c0       	rjmp	.+84     	; 0x2fbe <_ZN6Screen21Draw_CursorMainScreenEv+0xc6>
		case(ADJUST):LcdGotoXY(6,4);LcdChr_full(Char_cursor[0]);LcdChr_full(Char_cursor[1]);break;
    2f6a:	64 e0       	ldi	r22, 0x04	; 4
    2f6c:	86 e0       	ldi	r24, 0x06	; 6
    2f6e:	0e 94 12 10 	call	0x2024	; 0x2024 <_Z9LcdGotoXYhh>
    2f72:	8c e9       	ldi	r24, 0x9C	; 156
    2f74:	0e 94 2d 10 	call	0x205a	; 0x205a <_Z11LcdChr_fullh>
    2f78:	8d e9       	ldi	r24, 0x9D	; 157
    2f7a:	0e 94 2d 10 	call	0x205a	; 0x205a <_Z11LcdChr_fullh>
    2f7e:	1f c0       	rjmp	.+62     	; 0x2fbe <_ZN6Screen21Draw_CursorMainScreenEv+0xc6>
		case(LEFTUP):LcdGotoXY(5,1);LcdChr_full(Char_cursor[0]);break;
    2f80:	61 e0       	ldi	r22, 0x01	; 1
    2f82:	85 e0       	ldi	r24, 0x05	; 5
    2f84:	0e 94 12 10 	call	0x2024	; 0x2024 <_Z9LcdGotoXYhh>
    2f88:	8a e9       	ldi	r24, 0x9A	; 154
    2f8a:	0e 94 2d 10 	call	0x205a	; 0x205a <_Z11LcdChr_fullh>
    2f8e:	17 c0       	rjmp	.+46     	; 0x2fbe <_ZN6Screen21Draw_CursorMainScreenEv+0xc6>
		case(LEFTDOWN):LcdGotoXY(5,4);LcdChr_full(Char_cursor[0]);break;
    2f90:	64 e0       	ldi	r22, 0x04	; 4
    2f92:	85 e0       	ldi	r24, 0x05	; 5
    2f94:	0e 94 12 10 	call	0x2024	; 0x2024 <_Z9LcdGotoXYhh>
    2f98:	8a e9       	ldi	r24, 0x9A	; 154
    2f9a:	0e 94 2d 10 	call	0x205a	; 0x205a <_Z11LcdChr_fullh>
    2f9e:	0f c0       	rjmp	.+30     	; 0x2fbe <_ZN6Screen21Draw_CursorMainScreenEv+0xc6>
		case(RIGHTUP):LcdGotoXY(8,1);LcdChr_full(Char_cursor[0]);break;
    2fa0:	61 e0       	ldi	r22, 0x01	; 1
    2fa2:	88 e0       	ldi	r24, 0x08	; 8
    2fa4:	0e 94 12 10 	call	0x2024	; 0x2024 <_Z9LcdGotoXYhh>
    2fa8:	8b e9       	ldi	r24, 0x9B	; 155
    2faa:	0e 94 2d 10 	call	0x205a	; 0x205a <_Z11LcdChr_fullh>
    2fae:	07 c0       	rjmp	.+14     	; 0x2fbe <_ZN6Screen21Draw_CursorMainScreenEv+0xc6>
		case(RIGHTDOWN):LcdGotoXY(8,4);LcdChr_full(Char_cursor[0]);break;
    2fb0:	64 e0       	ldi	r22, 0x04	; 4
    2fb2:	88 e0       	ldi	r24, 0x08	; 8
    2fb4:	0e 94 12 10 	call	0x2024	; 0x2024 <_Z9LcdGotoXYhh>
    2fb8:	8b e9       	ldi	r24, 0x9B	; 155
    2fba:	0e 94 2d 10 	call	0x205a	; 0x205a <_Z11LcdChr_fullh>
	}	
	
}
    2fbe:	08 95       	ret

00002fc0 <_ZN6Screen16Print_Step_ValueEv>:

bool Screen::Print_Step_Value(){
    2fc0:	ef 92       	push	r14
    2fc2:	ff 92       	push	r15
    2fc4:	0f 93       	push	r16
    2fc6:	1f 93       	push	r17
    2fc8:	cf 93       	push	r28
    2fca:	df 93       	push	r29
	if (activity.Statment != SCREEN_ADJUST ){return false;}
    2fcc:	fc 01       	movw	r30, r24
    2fce:	20 81       	ld	r18, Z
    2fd0:	31 81       	ldd	r19, Z+1	; 0x01
    2fd2:	22 30       	cpi	r18, 0x02	; 2
    2fd4:	31 05       	cpc	r19, r1
    2fd6:	11 f0       	breq	.+4      	; 0x2fdc <_ZN6Screen16Print_Step_ValueEv+0x1c>
    2fd8:	80 e0       	ldi	r24, 0x00	; 0
    2fda:	15 c0       	rjmp	.+42     	; 0x3006 <_ZN6Screen16Print_Step_ValueEv+0x46>
    2fdc:	ec 01       	movw	r28, r24
	float step = activity.get_val_step();
    2fde:	0e 94 50 08 	call	0x10a0	; 0x10a0 <_ZN8Activity12get_val_stepEv>
    2fe2:	8b 01       	movw	r16, r22
    2fe4:	9c 01       	movw	r18, r24
	Lcd_printf(5, 1, FONT_1X, step , 2);
    2fe6:	68 94       	set
    2fe8:	ee 24       	eor	r14, r14
    2fea:	e1 f8       	bld	r14, 1
    2fec:	f1 2c       	mov	r15, r1
    2fee:	41 e0       	ldi	r20, 0x01	; 1
    2ff0:	61 e0       	ldi	r22, 0x01	; 1
    2ff2:	85 e0       	ldi	r24, 0x05	; 5
    2ff4:	0e 94 99 11 	call	0x2332	; 0x2332 <_Z10Lcd_printfhh11LcdFontSizefi>
	//
	LcdGotoXY(5 , 4 );
    2ff8:	64 e0       	ldi	r22, 0x04	; 4
    2ffa:	85 e0       	ldi	r24, 0x05	; 5
    2ffc:	0e 94 12 10 	call	0x2024	; 0x2024 <_Z9LcdGotoXYhh>
	LcdStepLevel(activity.Step);
    3000:	8a 81       	ldd	r24, Y+2	; 0x02
    3002:	0e 94 4c 10 	call	0x2098	; 0x2098 <_Z12LcdStepLevelh>
	
    3006:	df 91       	pop	r29
    3008:	cf 91       	pop	r28
    300a:	1f 91       	pop	r17
    300c:	0f 91       	pop	r16
    300e:	ff 90       	pop	r15
    3010:	ef 90       	pop	r14
    3012:	08 95       	ret

00003014 <_ZN6Screen11Render_mainEv>:

//******************
//*  MAIN SCREEN  *
//*****************

void Screen::Render_main(){	
    3014:	cf 93       	push	r28
    3016:	df 93       	push	r29
    3018:	ec 01       	movw	r28, r24
	Draw_icon_menu();
    301a:	0e 94 d1 15 	call	0x2ba2	; 0x2ba2 <_ZN6Screen14Draw_icon_menuEv>
	Draw_Carrage();
    301e:	ce 01       	movw	r24, r28
    3020:	0e 94 c5 16 	call	0x2d8a	; 0x2d8a <_ZN6Screen12Draw_CarrageEv>
	Draw_adjustment_carrage();
    3024:	ce 01       	movw	r24, r28
    3026:	0e 94 3d 17 	call	0x2e7a	; 0x2e7a <_ZN6Screen23Draw_adjustment_carrageEv>
	Draw_CursorMainScreen();	
    302a:	ce 01       	movw	r24, r28
    302c:	0e 94 7c 17 	call	0x2ef8	; 0x2ef8 <_ZN6Screen21Draw_CursorMainScreenEv>
	Print_Step_Value();
    3030:	ce 01       	movw	r24, r28
    3032:	0e 94 e0 17 	call	0x2fc0	; 0x2fc0 <_ZN6Screen16Print_Step_ValueEv>
}
    3036:	df 91       	pop	r29
    3038:	cf 91       	pop	r28
    303a:	08 95       	ret

0000303c <_ZN6Screen6RenderER8ActivityR7Carrage>:

void Screen::Init(){
	 
}

void Screen::Render(Activity &_activity, Carrage &_carrage){
    303c:	cf 93       	push	r28
    303e:	df 93       	push	r29
    3040:	ec 01       	movw	r28, r24
	activity = _activity;
    3042:	87 e9       	ldi	r24, 0x97	; 151
    3044:	fb 01       	movw	r30, r22
    3046:	de 01       	movw	r26, r28
    3048:	01 90       	ld	r0, Z+
    304a:	0d 92       	st	X+, r0
    304c:	8a 95       	dec	r24
    304e:	e1 f7       	brne	.-8      	; 0x3048 <_ZN6Screen6RenderER8ActivityR7Carrage+0xc>
	carrage = _carrage;
    3050:	de 01       	movw	r26, r28
    3052:	a9 56       	subi	r26, 0x69	; 105
    3054:	bf 4f       	sbci	r27, 0xFF	; 255
    3056:	85 ed       	ldi	r24, 0xD5	; 213
    3058:	fa 01       	movw	r30, r20
    305a:	01 90       	ld	r0, Z+
    305c:	0d 92       	st	X+, r0
    305e:	8a 95       	dec	r24
    3060:	e1 f7       	brne	.-8      	; 0x305a <_ZN6Screen6RenderER8ActivityR7Carrage+0x1e>
	Lcd_clear();
    3062:	0e 94 97 0f 	call	0x1f2e	; 0x1f2e <_Z9Lcd_clearv>
	switch(activity.Statment){
    3066:	88 81       	ld	r24, Y
    3068:	99 81       	ldd	r25, Y+1	; 0x01
    306a:	82 30       	cpi	r24, 0x02	; 2
    306c:	91 05       	cpc	r25, r1
    306e:	81 f0       	breq	.+32     	; 0x3090 <_ZN6Screen6RenderER8ActivityR7Carrage+0x54>
    3070:	2c f4       	brge	.+10     	; 0x307c <_ZN6Screen6RenderER8ActivityR7Carrage+0x40>
    3072:	00 97       	sbiw	r24, 0x00	; 0
    3074:	49 f0       	breq	.+18     	; 0x3088 <_ZN6Screen6RenderER8ActivityR7Carrage+0x4c>
    3076:	01 97       	sbiw	r24, 0x01	; 1
    3078:	79 f0       	breq	.+30     	; 0x3098 <_ZN6Screen6RenderER8ActivityR7Carrage+0x5c>
    307a:	19 c0       	rjmp	.+50     	; 0x30ae <_ZN6Screen6RenderER8ActivityR7Carrage+0x72>
    307c:	83 30       	cpi	r24, 0x03	; 3
    307e:	91 05       	cpc	r25, r1
    3080:	79 f0       	breq	.+30     	; 0x30a0 <_ZN6Screen6RenderER8ActivityR7Carrage+0x64>
    3082:	04 97       	sbiw	r24, 0x04	; 4
    3084:	89 f0       	breq	.+34     	; 0x30a8 <_ZN6Screen6RenderER8ActivityR7Carrage+0x6c>
    3086:	13 c0       	rjmp	.+38     	; 0x30ae <_ZN6Screen6RenderER8ActivityR7Carrage+0x72>
		case(SCREEN_MAIN):Render_main();break;
    3088:	ce 01       	movw	r24, r28
    308a:	0e 94 0a 18 	call	0x3014	; 0x3014 <_ZN6Screen11Render_mainEv>
    308e:	0f c0       	rjmp	.+30     	; 0x30ae <_ZN6Screen6RenderER8ActivityR7Carrage+0x72>
		case(SCREEN_ADJUST):Render_main();break;
    3090:	ce 01       	movw	r24, r28
    3092:	0e 94 0a 18 	call	0x3014	; 0x3014 <_ZN6Screen11Render_mainEv>
    3096:	0b c0       	rjmp	.+22     	; 0x30ae <_ZN6Screen6RenderER8ActivityR7Carrage+0x72>
		case(SCREEN_MENU):Render_menu();break;
    3098:	ce 01       	movw	r24, r28
    309a:	0e 94 c6 15 	call	0x2b8c	; 0x2b8c <_ZN6Screen11Render_menuEv>
    309e:	07 c0       	rjmp	.+14     	; 0x30ae <_ZN6Screen6RenderER8ActivityR7Carrage+0x72>
		case(SCREEN_TUNNING):Render_tunning();break;
    30a0:	ce 01       	movw	r24, r28
    30a2:	0e 94 5d 14 	call	0x28ba	; 0x28ba <_ZN6Screen14Render_tunningEv>
    30a6:	03 c0       	rjmp	.+6      	; 0x30ae <_ZN6Screen6RenderER8ActivityR7Carrage+0x72>
		case(SCREEN_LIMITS):Render_limits();break;
    30a8:	ce 01       	movw	r24, r28
    30aa:	0e 94 f9 13 	call	0x27f2	; 0x27f2 <_ZN6Screen13Render_limitsEv>
	}
	Lcd_update();
    30ae:	0e 94 ac 0f 	call	0x1f58	; 0x1f58 <_Z10Lcd_updatev>
}
    30b2:	df 91       	pop	r29
    30b4:	cf 91       	pop	r28
    30b6:	08 95       	ret

000030b8 <_ZN5PanelC1Ev>:
const int B_NOTHING = -1;

#include "Panel.h"

// default constructor
Panel::Panel()
    30b8:	cf 93       	push	r28
    30ba:	df 93       	push	r29
    30bc:	ec 01       	movw	r28, r24
    30be:	0e 94 d7 08 	call	0x11ae	; 0x11ae <_ZN6ButtonC1Ev>
    30c2:	ce 01       	movw	r24, r28
    30c4:	07 96       	adiw	r24, 0x07	; 7
    30c6:	0e 94 d7 08 	call	0x11ae	; 0x11ae <_ZN6ButtonC1Ev>
    30ca:	ce 01       	movw	r24, r28
    30cc:	0e 96       	adiw	r24, 0x0e	; 14
    30ce:	0e 94 d7 08 	call	0x11ae	; 0x11ae <_ZN6ButtonC1Ev>
    30d2:	ce 01       	movw	r24, r28
    30d4:	45 96       	adiw	r24, 0x15	; 21
    30d6:	0e 94 d7 08 	call	0x11ae	; 0x11ae <_ZN6ButtonC1Ev>
    30da:	ce 01       	movw	r24, r28
    30dc:	4c 96       	adiw	r24, 0x1c	; 28
    30de:	0e 94 d7 08 	call	0x11ae	; 0x11ae <_ZN6ButtonC1Ev>
{
} 
    30e2:	df 91       	pop	r29
    30e4:	cf 91       	pop	r28
    30e6:	08 95       	ret

000030e8 <_ZN5Panel4InitER6ButtonS1_S1_S1_S1_>:

void Panel::Init(Button &ok, Button &up, Button &down, Button &left, Button &rigit ){
    30e8:	ef 92       	push	r14
    30ea:	ff 92       	push	r15
    30ec:	0f 93       	push	r16
    30ee:	1f 93       	push	r17
    30f0:	cf 93       	push	r28
    30f2:	df 93       	push	r29
    30f4:	e9 01       	movw	r28, r18
	bat_ok = ok;
    30f6:	37 e0       	ldi	r19, 0x07	; 7
    30f8:	fb 01       	movw	r30, r22
    30fa:	dc 01       	movw	r26, r24
    30fc:	01 90       	ld	r0, Z+
    30fe:	0d 92       	st	X+, r0
    3100:	3a 95       	dec	r19
    3102:	e1 f7       	brne	.-8      	; 0x30fc <_ZN5Panel4InitER6ButtonS1_S1_S1_S1_+0x14>
	bat_up = up;
    3104:	37 e0       	ldi	r19, 0x07	; 7
    3106:	fa 01       	movw	r30, r20
    3108:	dc 01       	movw	r26, r24
    310a:	17 96       	adiw	r26, 0x07	; 7
    310c:	01 90       	ld	r0, Z+
    310e:	0d 92       	st	X+, r0
    3110:	3a 95       	dec	r19
    3112:	e1 f7       	brne	.-8      	; 0x310c <_ZN5Panel4InitER6ButtonS1_S1_S1_S1_+0x24>
	bat_down = down;
    3114:	37 e0       	ldi	r19, 0x07	; 7
    3116:	fe 01       	movw	r30, r28
    3118:	dc 01       	movw	r26, r24
    311a:	1e 96       	adiw	r26, 0x0e	; 14
    311c:	01 90       	ld	r0, Z+
    311e:	0d 92       	st	X+, r0
    3120:	3a 95       	dec	r19
    3122:	e1 f7       	brne	.-8      	; 0x311c <_ZN5Panel4InitER6ButtonS1_S1_S1_S1_+0x34>
	bat_right = rigit;
    3124:	27 e0       	ldi	r18, 0x07	; 7
    3126:	f7 01       	movw	r30, r14
    3128:	dc 01       	movw	r26, r24
    312a:	5c 96       	adiw	r26, 0x1c	; 28
    312c:	01 90       	ld	r0, Z+
    312e:	0d 92       	st	X+, r0
    3130:	2a 95       	dec	r18
    3132:	e1 f7       	brne	.-8      	; 0x312c <_ZN5Panel4InitER6ButtonS1_S1_S1_S1_+0x44>
	bat_left = left;
    3134:	27 e0       	ldi	r18, 0x07	; 7
    3136:	f8 01       	movw	r30, r16
    3138:	dc 01       	movw	r26, r24
    313a:	55 96       	adiw	r26, 0x15	; 21
    313c:	01 90       	ld	r0, Z+
    313e:	0d 92       	st	X+, r0
    3140:	2a 95       	dec	r18
    3142:	e1 f7       	brne	.-8      	; 0x313c <_ZN5Panel4InitER6ButtonS1_S1_S1_S1_+0x54>

}
    3144:	df 91       	pop	r29
    3146:	cf 91       	pop	r28
    3148:	1f 91       	pop	r17
    314a:	0f 91       	pop	r16
    314c:	ff 90       	pop	r15
    314e:	ef 90       	pop	r14
    3150:	08 95       	ret

00003152 <_ZN5Panel7PressedEi>:

int Panel::Pressed(int debounse){
    3152:	0f 93       	push	r16
    3154:	1f 93       	push	r17
    3156:	cf 93       	push	r28
    3158:	df 93       	push	r29
    315a:	ec 01       	movw	r28, r24
    315c:	8b 01       	movw	r16, r22
	if (bat_ok.Pressed(debounse)){return B_OK ;}
    315e:	0e 94 16 09 	call	0x122c	; 0x122c <_ZN6Button7PressedEi>
    3162:	81 11       	cpse	r24, r1
    3164:	1f c0       	rjmp	.+62     	; 0x31a4 <_ZN5Panel7PressedEi+0x52>
	if (bat_up.Pressed(debounse)){return  B_UP;}
    3166:	b8 01       	movw	r22, r16
    3168:	ce 01       	movw	r24, r28
    316a:	07 96       	adiw	r24, 0x07	; 7
    316c:	0e 94 16 09 	call	0x122c	; 0x122c <_ZN6Button7PressedEi>
    3170:	81 11       	cpse	r24, r1
    3172:	1b c0       	rjmp	.+54     	; 0x31aa <_ZN5Panel7PressedEi+0x58>
	if (bat_down.Pressed(debounse)){return B_DOWN ;}
    3174:	b8 01       	movw	r22, r16
    3176:	ce 01       	movw	r24, r28
    3178:	0e 96       	adiw	r24, 0x0e	; 14
    317a:	0e 94 16 09 	call	0x122c	; 0x122c <_ZN6Button7PressedEi>
    317e:	81 11       	cpse	r24, r1
    3180:	17 c0       	rjmp	.+46     	; 0x31b0 <_ZN5Panel7PressedEi+0x5e>
	if (bat_right.Pressed(debounse)){return B_RIGHT;}
    3182:	b8 01       	movw	r22, r16
    3184:	ce 01       	movw	r24, r28
    3186:	4c 96       	adiw	r24, 0x1c	; 28
    3188:	0e 94 16 09 	call	0x122c	; 0x122c <_ZN6Button7PressedEi>
    318c:	81 11       	cpse	r24, r1
    318e:	13 c0       	rjmp	.+38     	; 0x31b6 <_ZN5Panel7PressedEi+0x64>
	if (bat_left.Pressed(debounse)) {return B_LEFT;}	
    3190:	b8 01       	movw	r22, r16
    3192:	ce 01       	movw	r24, r28
    3194:	45 96       	adiw	r24, 0x15	; 21
    3196:	0e 94 16 09 	call	0x122c	; 0x122c <_ZN6Button7PressedEi>
    319a:	81 11       	cpse	r24, r1
    319c:	0f c0       	rjmp	.+30     	; 0x31bc <_ZN5Panel7PressedEi+0x6a>
	return B_NOTHING ;
    319e:	8f ef       	ldi	r24, 0xFF	; 255
    31a0:	9f ef       	ldi	r25, 0xFF	; 255
    31a2:	0e c0       	rjmp	.+28     	; 0x31c0 <_ZN5Panel7PressedEi+0x6e>
	bat_left = left;

}

int Panel::Pressed(int debounse){
	if (bat_ok.Pressed(debounse)){return B_OK ;}
    31a4:	80 e0       	ldi	r24, 0x00	; 0
    31a6:	90 e0       	ldi	r25, 0x00	; 0
    31a8:	0b c0       	rjmp	.+22     	; 0x31c0 <_ZN5Panel7PressedEi+0x6e>
	if (bat_up.Pressed(debounse)){return  B_UP;}
    31aa:	81 e0       	ldi	r24, 0x01	; 1
    31ac:	90 e0       	ldi	r25, 0x00	; 0
    31ae:	08 c0       	rjmp	.+16     	; 0x31c0 <_ZN5Panel7PressedEi+0x6e>
	if (bat_down.Pressed(debounse)){return B_DOWN ;}
    31b0:	82 e0       	ldi	r24, 0x02	; 2
    31b2:	90 e0       	ldi	r25, 0x00	; 0
    31b4:	05 c0       	rjmp	.+10     	; 0x31c0 <_ZN5Panel7PressedEi+0x6e>
	if (bat_right.Pressed(debounse)){return B_RIGHT;}
    31b6:	84 e0       	ldi	r24, 0x04	; 4
    31b8:	90 e0       	ldi	r25, 0x00	; 0
    31ba:	02 c0       	rjmp	.+4      	; 0x31c0 <_ZN5Panel7PressedEi+0x6e>
	if (bat_left.Pressed(debounse)) {return B_LEFT;}	
    31bc:	83 e0       	ldi	r24, 0x03	; 3
    31be:	90 e0       	ldi	r25, 0x00	; 0
	return B_NOTHING ;
    31c0:	df 91       	pop	r29
    31c2:	cf 91       	pop	r28
    31c4:	1f 91       	pop	r17
    31c6:	0f 91       	pop	r16
    31c8:	08 95       	ret

000031ca <_ZN13SensorsWheelsC1Ev>:

#include <util/delay.h>
#include "SensorsWheels.h"

// default constructor
SensorsWheels::SensorsWheels()
    31ca:	08 95       	ret

000031cc <_ZN13SensorsWheels4InitEv>:
{
} //SensorsWheels

void SensorsWheels::Init(){
	ADMUX |=(1<<REFS0)|(1<<MUX0);//AVCC    
    31cc:	ec e7       	ldi	r30, 0x7C	; 124
    31ce:	f0 e0       	ldi	r31, 0x00	; 0
    31d0:	80 81       	ld	r24, Z
    31d2:	81 64       	ori	r24, 0x41	; 65
    31d4:	80 83       	st	Z, r24
	ADCSRA |=(1<<ADEN)|(1<<ADIE)|(1<<ADPS0)|(1<<ADPS1)|(1<<ADPS2);//  ,  ,  
    31d6:	ea e7       	ldi	r30, 0x7A	; 122
    31d8:	f0 e0       	ldi	r31, 0x00	; 0
    31da:	80 81       	ld	r24, Z
    31dc:	8f 68       	ori	r24, 0x8F	; 143
    31de:	80 83       	st	Z, r24
    31e0:	08 95       	ret

000031e2 <_ZN13SensorsWheels9getParamsEi>:
	//sei ();//   
}

float SensorsWheels::getParams(int Input_number){
    31e2:	fc 01       	movw	r30, r24
	ADMUX &= ~ (1<<MUX0);
    31e4:	ac e7       	ldi	r26, 0x7C	; 124
    31e6:	b0 e0       	ldi	r27, 0x00	; 0
    31e8:	8c 91       	ld	r24, X
    31ea:	8e 7f       	andi	r24, 0xFE	; 254
    31ec:	8c 93       	st	X, r24
	ADMUX &= ~ (1<<MUX1);
    31ee:	8c 91       	ld	r24, X
    31f0:	8d 7f       	andi	r24, 0xFD	; 253
    31f2:	8c 93       	st	X, r24
	ADMUX &= ~ (1<<MUX2);
    31f4:	8c 91       	ld	r24, X
    31f6:	8b 7f       	andi	r24, 0xFB	; 251
    31f8:	8c 93       	st	X, r24
	ADMUX &= ~ (1<<MUX3);
    31fa:	8c 91       	ld	r24, X
    31fc:	87 7f       	andi	r24, 0xF7	; 247
    31fe:	8c 93       	st	X, r24
	switch(Input_number){
    3200:	63 30       	cpi	r22, 0x03	; 3
    3202:	71 05       	cpc	r23, r1
    3204:	51 f0       	breq	.+20     	; 0x321a <_ZN13SensorsWheels9getParamsEi+0x38>
    3206:	64 30       	cpi	r22, 0x04	; 4
    3208:	71 05       	cpc	r23, r1
    320a:	69 f0       	breq	.+26     	; 0x3226 <_ZN13SensorsWheels9getParamsEi+0x44>
    320c:	62 30       	cpi	r22, 0x02	; 2
    320e:	71 05       	cpc	r23, r1
    3210:	79 f4       	brne	.+30     	; 0x3230 <_ZN13SensorsWheels9getParamsEi+0x4e>
		case(1):break;
		case(2):ADMUX |= (1<<MUX0);break;
    3212:	8c 91       	ld	r24, X
    3214:	81 60       	ori	r24, 0x01	; 1
    3216:	8c 93       	st	X, r24
    3218:	0b c0       	rjmp	.+22     	; 0x3230 <_ZN13SensorsWheels9getParamsEi+0x4e>
		case(3):ADMUX |= (1<<MUX1);break;
    321a:	ac e7       	ldi	r26, 0x7C	; 124
    321c:	b0 e0       	ldi	r27, 0x00	; 0
    321e:	8c 91       	ld	r24, X
    3220:	82 60       	ori	r24, 0x02	; 2
    3222:	8c 93       	st	X, r24
    3224:	05 c0       	rjmp	.+10     	; 0x3230 <_ZN13SensorsWheels9getParamsEi+0x4e>
		case(4):ADMUX |= (1<<MUX0)|(1<<MUX1);break;
    3226:	ac e7       	ldi	r26, 0x7C	; 124
    3228:	b0 e0       	ldi	r27, 0x00	; 0
    322a:	8c 91       	ld	r24, X
    322c:	83 60       	ori	r24, 0x03	; 3
    322e:	8c 93       	st	X, r24
	}
	
	
	ADCSRA |=(1<<ADSC);//   	
    3230:	aa e7       	ldi	r26, 0x7A	; 122
    3232:	b0 e0       	ldi	r27, 0x00	; 0
    3234:	8c 91       	ld	r24, X
    3236:	80 64       	ori	r24, 0x40	; 64
    3238:	8c 93       	st	X, r24
	ready = false;
    323a:	10 82       	st	Z, r1
	while( !ready ){
		ready = (ADCSRA & (1 << ADIF));
    323c:	81 e0       	ldi	r24, 0x01	; 1
    323e:	40 e0       	ldi	r20, 0x00	; 0
    3240:	9c 91       	ld	r25, X
    3242:	28 2f       	mov	r18, r24
    3244:	39 2f       	mov	r19, r25
    3246:	30 71       	andi	r19, 0x10	; 16
    3248:	94 ff       	sbrs	r25, 4
    324a:	24 2f       	mov	r18, r20
    324c:	20 83       	st	Z, r18
	}
	
	
	ADCSRA |=(1<<ADSC);//   	
	ready = false;
	while( !ready ){
    324e:	33 23       	and	r19, r19
    3250:	b9 f3       	breq	.-18     	; 0x3240 <_ZN13SensorsWheels9getParamsEi+0x5e>
		ready = (ADCSRA & (1 << ADIF));
	};
	float Value = ADCW*0.00489;
    3252:	60 91 78 00 	lds	r22, 0x0078	; 0x800078 <__TEXT_REGION_LENGTH__+0x7e0078>
    3256:	70 91 79 00 	lds	r23, 0x0079	; 0x800079 <__TEXT_REGION_LENGTH__+0x7e0079>
	return Value;
    325a:	80 e0       	ldi	r24, 0x00	; 0
    325c:	90 e0       	ldi	r25, 0x00	; 0
    325e:	0e 94 2b 1c 	call	0x3856	; 0x3856 <__floatunsisf>
    3262:	2b e4       	ldi	r18, 0x4B	; 75
    3264:	3c e3       	ldi	r19, 0x3C	; 60
    3266:	40 ea       	ldi	r20, 0xA0	; 160
    3268:	5b e3       	ldi	r21, 0x3B	; 59
    326a:	0e 94 e2 1c 	call	0x39c4	; 0x39c4 <__mulsf3>
	
};
    326e:	08 95       	ret

00003270 <_ZL8send_i2ch>:
void Support::Up(int ms_time, bool support_1, bool support_2, bool support_3, bool support_4 ){
	uint8_t data = (support_1<<0)|(support_2<<2)|(support_3<<4)|(support_4<<6);
	write_i2c((I2C_ADR_PCF8574<<1), data);
	for (i=0;i<ms_time;i++){_delay_ms(1);}
	write_i2c((I2C_ADR_PCF8574<<1), 0x00);
}
    3270:	80 93 bb 00 	sts	0x00BB, r24	; 0x8000bb <__TEXT_REGION_LENGTH__+0x7e00bb>
    3274:	84 e8       	ldi	r24, 0x84	; 132
    3276:	80 93 bc 00 	sts	0x00BC, r24	; 0x8000bc <__TEXT_REGION_LENGTH__+0x7e00bc>
    327a:	ec eb       	ldi	r30, 0xBC	; 188
    327c:	f0 e0       	ldi	r31, 0x00	; 0
    327e:	80 81       	ld	r24, Z
    3280:	88 23       	and	r24, r24
    3282:	ec f7       	brge	.-6      	; 0x327e <_ZL8send_i2ch+0xe>
    3284:	90 91 b9 00 	lds	r25, 0x00B9	; 0x8000b9 <__TEXT_REGION_LENGTH__+0x7e00b9>
    3288:	98 7f       	andi	r25, 0xF8	; 248
    328a:	98 31       	cpi	r25, 0x18	; 24
    328c:	29 f0       	breq	.+10     	; 0x3298 <_ZL8send_i2ch+0x28>
    328e:	81 e0       	ldi	r24, 0x01	; 1
    3290:	98 32       	cpi	r25, 0x28	; 40
    3292:	19 f4       	brne	.+6      	; 0x329a <_ZL8send_i2ch+0x2a>
    3294:	80 e0       	ldi	r24, 0x00	; 0
    3296:	08 95       	ret
    3298:	80 e0       	ldi	r24, 0x00	; 0
    329a:	08 95       	ret

0000329c <_ZL9write_i2chh>:
    329c:	cf 93       	push	r28
    329e:	94 ea       	ldi	r25, 0xA4	; 164
    32a0:	90 93 bc 00 	sts	0x00BC, r25	; 0x8000bc <__TEXT_REGION_LENGTH__+0x7e00bc>
    32a4:	ec eb       	ldi	r30, 0xBC	; 188
    32a6:	f0 e0       	ldi	r31, 0x00	; 0
    32a8:	90 81       	ld	r25, Z
    32aa:	99 23       	and	r25, r25
    32ac:	ec f7       	brge	.-6      	; 0x32a8 <_ZL9write_i2chh+0xc>
    32ae:	90 91 b9 00 	lds	r25, 0x00B9	; 0x8000b9 <__TEXT_REGION_LENGTH__+0x7e00b9>
    32b2:	98 7f       	andi	r25, 0xF8	; 248
    32b4:	98 30       	cpi	r25, 0x08	; 8
    32b6:	11 f0       	breq	.+4      	; 0x32bc <_ZL9write_i2chh+0x20>
    32b8:	90 31       	cpi	r25, 0x10	; 16
    32ba:	61 f4       	brne	.+24     	; 0x32d4 <_ZL9write_i2chh+0x38>
    32bc:	c6 2f       	mov	r28, r22
    32be:	0e 94 38 19 	call	0x3270	; 0x3270 <_ZL8send_i2ch>
    32c2:	81 30       	cpi	r24, 0x01	; 1
    32c4:	39 f0       	breq	.+14     	; 0x32d4 <_ZL9write_i2chh+0x38>
    32c6:	8c 2f       	mov	r24, r28
    32c8:	0e 94 38 19 	call	0x3270	; 0x3270 <_ZL8send_i2ch>
    32cc:	94 e9       	ldi	r25, 0x94	; 148
    32ce:	90 93 bc 00 	sts	0x00BC, r25	; 0x8000bc <__TEXT_REGION_LENGTH__+0x7e00bc>
    32d2:	04 c0       	rjmp	.+8      	; 0x32dc <_ZL9write_i2chh+0x40>
    32d4:	84 e9       	ldi	r24, 0x94	; 148
    32d6:	80 93 bc 00 	sts	0x00BC, r24	; 0x8000bc <__TEXT_REGION_LENGTH__+0x7e00bc>
    32da:	81 e0       	ldi	r24, 0x01	; 1
    32dc:	cf 91       	pop	r28
    32de:	08 95       	ret

000032e0 <_ZN7SupportC1Ev>:
    32e0:	08 95       	ret

000032e2 <_ZN7Support4InitEv>:
    32e2:	60 e0       	ldi	r22, 0x00	; 0
    32e4:	8e e4       	ldi	r24, 0x4E	; 78
    32e6:	0e 94 4e 19 	call	0x329c	; 0x329c <_ZL9write_i2chh>
    32ea:	08 95       	ret

000032ec <_ZN7Support6AdjastEiiiii>:

void Support::Adjast(int ms_time, int DerWheel_1, int DerWheel_2,int DerWheel_3, int DerWheel_4){
    32ec:	ef 92       	push	r14
    32ee:	ff 92       	push	r15
    32f0:	0f 93       	push	r16
    32f2:	1f 93       	push	r17
    32f4:	cf 93       	push	r28
    32f6:	df 93       	push	r29
    32f8:	f9 01       	movw	r30, r18
	if(ms_time>0){
    32fa:	16 16       	cp	r1, r22
    32fc:	17 06       	cpc	r1, r23
    32fe:	0c f0       	brlt	.+2      	; 0x3302 <_ZN7Support6AdjastEiiiii+0x16>
    3300:	4f c0       	rjmp	.+158    	; 0x33a0 <_ZN7Support6AdjastEiiiii+0xb4>
		uint8_t data = 0x00;
    3302:	31 e0       	ldi	r19, 0x01	; 1
    3304:	41 30       	cpi	r20, 0x01	; 1
    3306:	51 05       	cpc	r21, r1
    3308:	09 f0       	breq	.+2      	; 0x330c <_ZN7Support6AdjastEiiiii+0x20>
    330a:	30 e0       	ldi	r19, 0x00	; 0
		if(DerWheel_1 == UP){data |= (1<<0);};
		if(DerWheel_1 == DOWN){data |= (1<<1);};
    330c:	42 30       	cpi	r20, 0x02	; 2
    330e:	51 05       	cpc	r21, r1
    3310:	09 f4       	brne	.+2      	; 0x3314 <_ZN7Support6AdjastEiiiii+0x28>
    3312:	32 60       	ori	r19, 0x02	; 2
		
		if(DerWheel_2 == UP){data |= (1<<2);};
    3314:	e1 30       	cpi	r30, 0x01	; 1
    3316:	f1 05       	cpc	r31, r1
    3318:	11 f4       	brne	.+4      	; 0x331e <_ZN7Support6AdjastEiiiii+0x32>
    331a:	34 60       	ori	r19, 0x04	; 4
    331c:	03 c0       	rjmp	.+6      	; 0x3324 <_ZN7Support6AdjastEiiiii+0x38>
		if(DerWheel_2 == DOWN){data |= (1<<3);};
    331e:	32 97       	sbiw	r30, 0x02	; 2
    3320:	09 f4       	brne	.+2      	; 0x3324 <_ZN7Support6AdjastEiiiii+0x38>
    3322:	38 60       	ori	r19, 0x08	; 8
		
		if(DerWheel_3 == UP){data |= (1<<4);};
    3324:	01 30       	cpi	r16, 0x01	; 1
    3326:	11 05       	cpc	r17, r1
    3328:	11 f4       	brne	.+4      	; 0x332e <_ZN7Support6AdjastEiiiii+0x42>
    332a:	30 61       	ori	r19, 0x10	; 16
    332c:	04 c0       	rjmp	.+8      	; 0x3336 <_ZN7Support6AdjastEiiiii+0x4a>
		if(DerWheel_3 == DOWN){data |= (1<<5);};
    332e:	02 30       	cpi	r16, 0x02	; 2
    3330:	11 05       	cpc	r17, r1
    3332:	09 f4       	brne	.+2      	; 0x3336 <_ZN7Support6AdjastEiiiii+0x4a>
    3334:	30 62       	ori	r19, 0x20	; 32
    3336:	8b 01       	movw	r16, r22
    3338:	ec 01       	movw	r28, r24
		
		if(DerWheel_4 == UP){data |= (1<<6);};
    333a:	81 e0       	ldi	r24, 0x01	; 1
    333c:	e8 16       	cp	r14, r24
    333e:	f1 04       	cpc	r15, r1
    3340:	19 f4       	brne	.+6      	; 0x3348 <_ZN7Support6AdjastEiiiii+0x5c>
    3342:	63 2f       	mov	r22, r19
    3344:	60 64       	ori	r22, 0x40	; 64
    3346:	06 c0       	rjmp	.+12     	; 0x3354 <_ZN7Support6AdjastEiiiii+0x68>
		if(DerWheel_4 == DOWN){data |= (1<<7);};
    3348:	92 e0       	ldi	r25, 0x02	; 2
    334a:	e9 16       	cp	r14, r25
    334c:	f1 04       	cpc	r15, r1
    334e:	09 f5       	brne	.+66     	; 0x3392 <_ZN7Support6AdjastEiiiii+0xa6>
    3350:	63 2f       	mov	r22, r19
    3352:	60 68       	ori	r22, 0x80	; 128
		
		write_i2c((I2C_ADR_PCF8574<<1), data);
    3354:	8e e4       	ldi	r24, 0x4E	; 78
    3356:	0e 94 4e 19 	call	0x329c	; 0x329c <_ZL9write_i2chh>
		for (i=0;i<ms_time;i++){_delay_ms(1);}
    335a:	19 82       	std	Y+1, r1	; 0x01
    335c:	18 82       	st	Y, r1
    335e:	89 ef       	ldi	r24, 0xF9	; 249
    3360:	90 e0       	ldi	r25, 0x00	; 0
    3362:	01 97       	sbiw	r24, 0x01	; 1
    3364:	f1 f7       	brne	.-4      	; 0x3362 <_ZN7Support6AdjastEiiiii+0x76>
    3366:	00 c0       	rjmp	.+0      	; 0x3368 <_ZN7Support6AdjastEiiiii+0x7c>
    3368:	00 00       	nop
    336a:	28 81       	ld	r18, Y
    336c:	39 81       	ldd	r19, Y+1	; 0x01
    336e:	2f 5f       	subi	r18, 0xFF	; 255
    3370:	3f 4f       	sbci	r19, 0xFF	; 255
    3372:	39 83       	std	Y+1, r19	; 0x01
    3374:	28 83       	st	Y, r18
    3376:	20 17       	cp	r18, r16
    3378:	31 07       	cpc	r19, r17
    337a:	8c f3       	brlt	.-30     	; 0x335e <_ZN7Support6AdjastEiiiii+0x72>
		write_i2c((I2C_ADR_PCF8574<<1), 0x00);
    337c:	60 e0       	ldi	r22, 0x00	; 0
    337e:	8e e4       	ldi	r24, 0x4E	; 78
    3380:	0e 94 4e 19 	call	0x329c	; 0x329c <_ZL9write_i2chh>
    3384:	83 ed       	ldi	r24, 0xD3	; 211
    3386:	90 e3       	ldi	r25, 0x30	; 48
    3388:	01 97       	sbiw	r24, 0x01	; 1
    338a:	f1 f7       	brne	.-4      	; 0x3388 <_ZN7Support6AdjastEiiiii+0x9c>
    338c:	00 c0       	rjmp	.+0      	; 0x338e <_ZN7Support6AdjastEiiiii+0xa2>
    338e:	00 00       	nop
		_delay_ms(50);
	}
	
}
    3390:	07 c0       	rjmp	.+14     	; 0x33a0 <_ZN7Support6AdjastEiiiii+0xb4>
		if(DerWheel_3 == DOWN){data |= (1<<5);};
		
		if(DerWheel_4 == UP){data |= (1<<6);};
		if(DerWheel_4 == DOWN){data |= (1<<7);};
		
		write_i2c((I2C_ADR_PCF8574<<1), data);
    3392:	63 2f       	mov	r22, r19
    3394:	8e e4       	ldi	r24, 0x4E	; 78
    3396:	0e 94 4e 19 	call	0x329c	; 0x329c <_ZL9write_i2chh>
		for (i=0;i<ms_time;i++){_delay_ms(1);}
    339a:	19 82       	std	Y+1, r1	; 0x01
    339c:	18 82       	st	Y, r1
    339e:	df cf       	rjmp	.-66     	; 0x335e <_ZN7Support6AdjastEiiiii+0x72>
		write_i2c((I2C_ADR_PCF8574<<1), 0x00);
		_delay_ms(50);
	}
	
}
    33a0:	df 91       	pop	r29
    33a2:	cf 91       	pop	r28
    33a4:	1f 91       	pop	r17
    33a6:	0f 91       	pop	r16
    33a8:	ff 90       	pop	r15
    33aa:	ef 90       	pop	r14
    33ac:	08 95       	ret

000033ae <_ZN5WheelC1Ev>:
#include "Wheel.h"



// default constructor
Wheel::Wheel()
    33ae:	84 96       	adiw	r24, 0x24	; 36
    33b0:	0e 94 e5 18 	call	0x31ca	; 0x31ca <_ZN13SensorsWheelsC1Ev>
    33b4:	08 95       	ret

000033b6 <_ZN5Wheel9get_hightEv>:
	countToMalfunction = 0;
	countToMalfunctionLimit = 100;
	
}

float Wheel::get_hight(){
    33b6:	cf 93       	push	r28
    33b8:	df 93       	push	r29
    33ba:	ec 01       	movw	r28, r24
	hight = sensorWheels.getParams(number);
    33bc:	68 81       	ld	r22, Y
    33be:	79 81       	ldd	r23, Y+1	; 0x01
    33c0:	84 96       	adiw	r24, 0x24	; 36
    33c2:	0e 94 f1 18 	call	0x31e2	; 0x31e2 <_ZN13SensorsWheels9getParamsEi>
    33c6:	6a 83       	std	Y+2, r22	; 0x02
    33c8:	7b 83       	std	Y+3, r23	; 0x03
    33ca:	8c 83       	std	Y+4, r24	; 0x04
    33cc:	9d 83       	std	Y+5, r25	; 0x05
	return hight;
}
    33ce:	df 91       	pop	r29
    33d0:	cf 91       	pop	r28
    33d2:	08 95       	ret

000033d4 <_ZN5Wheel4InitEi>:
// default constructor
Wheel::Wheel()
{
} //Wheel

void Wheel::Init(int _number){
    33d4:	0f 93       	push	r16
    33d6:	1f 93       	push	r17
    33d8:	cf 93       	push	r28
    33da:	df 93       	push	r29
    33dc:	ec 01       	movw	r28, r24
    33de:	8b 01       	movw	r16, r22
	sensorWheels.Init();
    33e0:	84 96       	adiw	r24, 0x24	; 36
    33e2:	0e 94 e6 18 	call	0x31cc	; 0x31cc <_ZN13SensorsWheels4InitEv>
	number =  _number;
    33e6:	19 83       	std	Y+1, r17	; 0x01
    33e8:	08 83       	st	Y, r16
	maxHight = 5.00;
    33ea:	80 e0       	ldi	r24, 0x00	; 0
    33ec:	90 e0       	ldi	r25, 0x00	; 0
    33ee:	a0 ea       	ldi	r26, 0xA0	; 160
    33f0:	b0 e4       	ldi	r27, 0x40	; 64
    33f2:	8e 83       	std	Y+6, r24	; 0x06
    33f4:	9f 83       	std	Y+7, r25	; 0x07
    33f6:	a8 87       	std	Y+8, r26	; 0x08
    33f8:	b9 87       	std	Y+9, r27	; 0x09
	minHight = 0.01;
    33fa:	8a e0       	ldi	r24, 0x0A	; 10
    33fc:	97 ed       	ldi	r25, 0xD7	; 215
    33fe:	a3 e2       	ldi	r26, 0x23	; 35
    3400:	bc e3       	ldi	r27, 0x3C	; 60
    3402:	8a 87       	std	Y+10, r24	; 0x0a
    3404:	9b 87       	std	Y+11, r25	; 0x0b
    3406:	ac 87       	std	Y+12, r26	; 0x0c
    3408:	bd 87       	std	Y+13, r27	; 0x0d
	oldHigit = get_hight();
    340a:	ce 01       	movw	r24, r28
    340c:	0e 94 db 19 	call	0x33b6	; 0x33b6 <_ZN5Wheel9get_hightEv>
    3410:	6e 87       	std	Y+14, r22	; 0x0e
    3412:	7f 87       	std	Y+15, r23	; 0x0f
    3414:	88 8b       	std	Y+16, r24	; 0x10
    3416:	99 8b       	std	Y+17, r25	; 0x11
	countToMalfunction = 0;
    3418:	1f 8e       	std	Y+31, r1	; 0x1f
    341a:	1e 8e       	std	Y+30, r1	; 0x1e
	countToMalfunctionLimit = 100;
    341c:	84 e6       	ldi	r24, 0x64	; 100
    341e:	90 e0       	ldi	r25, 0x00	; 0
    3420:	99 a3       	std	Y+33, r25	; 0x21
    3422:	88 a3       	std	Y+32, r24	; 0x20
	
}
    3424:	df 91       	pop	r29
    3426:	cf 91       	pop	r28
    3428:	1f 91       	pop	r17
    342a:	0f 91       	pop	r16
    342c:	08 95       	ret

0000342e <_ZN5Wheel12initialHightEv>:
float Wheel::get_hight(){
	hight = sensorWheels.getParams(number);
	return hight;
}

void Wheel::initialHight(){
    342e:	cf 93       	push	r28
    3430:	df 93       	push	r29
    3432:	ec 01       	movw	r28, r24
	get_hight();
    3434:	0e 94 db 19 	call	0x33b6	; 0x33b6 <_ZN5Wheel9get_hightEv>
	sethight = hight;
    3438:	8a 81       	ldd	r24, Y+2	; 0x02
    343a:	9b 81       	ldd	r25, Y+3	; 0x03
    343c:	ac 81       	ldd	r26, Y+4	; 0x04
    343e:	bd 81       	ldd	r27, Y+5	; 0x05
    3440:	8e 8b       	std	Y+22, r24	; 0x16
    3442:	9f 8b       	std	Y+23, r25	; 0x17
    3444:	a8 8f       	std	Y+24, r26	; 0x18
    3446:	b9 8f       	std	Y+25, r27	; 0x19
}
    3448:	df 91       	pop	r29
    344a:	cf 91       	pop	r28
    344c:	08 95       	ret

0000344e <_ZN5Wheel13takeDerectionEv>:

int Wheel::takeDerection(){	
    344e:	8f 92       	push	r8
    3450:	9f 92       	push	r9
    3452:	af 92       	push	r10
    3454:	bf 92       	push	r11
    3456:	cf 92       	push	r12
    3458:	df 92       	push	r13
    345a:	ef 92       	push	r14
    345c:	ff 92       	push	r15
    345e:	cf 93       	push	r28
    3460:	df 93       	push	r29
	if (!selected) return NORMAL;
    3462:	fc 01       	movw	r30, r24
    3464:	22 8d       	ldd	r18, Z+26	; 0x1a
    3466:	22 23       	and	r18, r18
    3468:	09 f4       	brne	.+2      	; 0x346c <_ZN5Wheel13takeDerectionEv+0x1e>
    346a:	45 c0       	rjmp	.+138    	; 0x34f6 <_ZN5Wheel13takeDerectionEv+0xa8>
	if (malfuction) return 0;
    346c:	23 8d       	ldd	r18, Z+27	; 0x1b
    346e:	21 11       	cpse	r18, r1
    3470:	45 c0       	rjmp	.+138    	; 0x34fc <_ZN5Wheel13takeDerectionEv+0xae>
    3472:	ec 01       	movw	r28, r24
	hight = get_hight();
    3474:	0e 94 db 19 	call	0x33b6	; 0x33b6 <_ZN5Wheel9get_hightEv>
    3478:	6b 01       	movw	r12, r22
    347a:	7c 01       	movw	r14, r24
    347c:	6a 83       	std	Y+2, r22	; 0x02
    347e:	7b 83       	std	Y+3, r23	; 0x03
    3480:	8c 83       	std	Y+4, r24	; 0x04
    3482:	9d 83       	std	Y+5, r25	; 0x05
	diff = sethight*300 - hight*300;
    3484:	20 e0       	ldi	r18, 0x00	; 0
    3486:	30 e0       	ldi	r19, 0x00	; 0
    3488:	46 e9       	ldi	r20, 0x96	; 150
    348a:	53 e4       	ldi	r21, 0x43	; 67
    348c:	6e 89       	ldd	r22, Y+22	; 0x16
    348e:	7f 89       	ldd	r23, Y+23	; 0x17
    3490:	88 8d       	ldd	r24, Y+24	; 0x18
    3492:	99 8d       	ldd	r25, Y+25	; 0x19
    3494:	0e 94 e2 1c 	call	0x39c4	; 0x39c4 <__mulsf3>
    3498:	4b 01       	movw	r8, r22
    349a:	5c 01       	movw	r10, r24
    349c:	20 e0       	ldi	r18, 0x00	; 0
    349e:	30 e0       	ldi	r19, 0x00	; 0
    34a0:	46 e9       	ldi	r20, 0x96	; 150
    34a2:	53 e4       	ldi	r21, 0x43	; 67
    34a4:	c7 01       	movw	r24, r14
    34a6:	b6 01       	movw	r22, r12
    34a8:	0e 94 e2 1c 	call	0x39c4	; 0x39c4 <__mulsf3>
    34ac:	9b 01       	movw	r18, r22
    34ae:	ac 01       	movw	r20, r24
    34b0:	c5 01       	movw	r24, r10
    34b2:	b4 01       	movw	r22, r8
    34b4:	0e 94 83 1b 	call	0x3706	; 0x3706 <__subsf3>
    34b8:	6d a3       	std	Y+37, r22	; 0x25
    34ba:	7e a3       	std	Y+38, r23	; 0x26
    34bc:	8f a3       	std	Y+39, r24	; 0x27
    34be:	98 a7       	std	Y+40, r25	; 0x28
	step = diff;
    34c0:	0e 94 f5 1b 	call	0x37ea	; 0x37ea <__fixsfsi>
    34c4:	7b a3       	std	Y+35, r23	; 0x23
    34c6:	6a a3       	std	Y+34, r22	; 0x22
	_diff = diff;
    34c8:	7a a7       	std	Y+42, r23	; 0x2a
    34ca:	69 a7       	std	Y+41, r22	; 0x29
	adjusted = false;
    34cc:	1c 8e       	std	Y+28, r1	; 0x1c
	if (_diff < 0){ step = (0 - step) ; return DOWN;}
    34ce:	77 23       	and	r23, r23
    34d0:	44 f4       	brge	.+16     	; 0x34e2 <_ZN5Wheel13takeDerectionEv+0x94>
    34d2:	71 95       	neg	r23
    34d4:	61 95       	neg	r22
    34d6:	71 09       	sbc	r23, r1
    34d8:	7b a3       	std	Y+35, r23	; 0x23
    34da:	6a a3       	std	Y+34, r22	; 0x22
    34dc:	82 e0       	ldi	r24, 0x02	; 2
    34de:	90 e0       	ldi	r25, 0x00	; 0
    34e0:	12 c0       	rjmp	.+36     	; 0x3506 <_ZN5Wheel13takeDerectionEv+0xb8>
	if (_diff > 0){ ; return UP;}
    34e2:	16 16       	cp	r1, r22
    34e4:	17 06       	cpc	r1, r23
    34e6:	6c f0       	brlt	.+26     	; 0x3502 <_ZN5Wheel13takeDerectionEv+0xb4>
	step = 0;
    34e8:	1b a2       	std	Y+35, r1	; 0x23
    34ea:	1a a2       	std	Y+34, r1	; 0x22
	adjusted = true;
    34ec:	81 e0       	ldi	r24, 0x01	; 1
    34ee:	8c 8f       	std	Y+28, r24	; 0x1c
	return NORMAL;
    34f0:	80 e0       	ldi	r24, 0x00	; 0
    34f2:	90 e0       	ldi	r25, 0x00	; 0
    34f4:	08 c0       	rjmp	.+16     	; 0x3506 <_ZN5Wheel13takeDerectionEv+0xb8>
	get_hight();
	sethight = hight;
}

int Wheel::takeDerection(){	
	if (!selected) return NORMAL;
    34f6:	80 e0       	ldi	r24, 0x00	; 0
    34f8:	90 e0       	ldi	r25, 0x00	; 0
    34fa:	05 c0       	rjmp	.+10     	; 0x3506 <_ZN5Wheel13takeDerectionEv+0xb8>
	if (malfuction) return 0;
    34fc:	80 e0       	ldi	r24, 0x00	; 0
    34fe:	90 e0       	ldi	r25, 0x00	; 0
    3500:	02 c0       	rjmp	.+4      	; 0x3506 <_ZN5Wheel13takeDerectionEv+0xb8>
	diff = sethight*300 - hight*300;
	step = diff;
	_diff = diff;
	adjusted = false;
	if (_diff < 0){ step = (0 - step) ; return DOWN;}
	if (_diff > 0){ ; return UP;}
    3502:	81 e0       	ldi	r24, 0x01	; 1
    3504:	90 e0       	ldi	r25, 0x00	; 0
	step = 0;
	adjusted = true;
	return NORMAL;
}
    3506:	df 91       	pop	r29
    3508:	cf 91       	pop	r28
    350a:	ff 90       	pop	r15
    350c:	ef 90       	pop	r14
    350e:	df 90       	pop	r13
    3510:	cf 90       	pop	r12
    3512:	bf 90       	pop	r11
    3514:	af 90       	pop	r10
    3516:	9f 90       	pop	r9
    3518:	8f 90       	pop	r8
    351a:	08 95       	ret

0000351c <_ZN5Wheel5CheckEv>:

bool Wheel::Check(){
    351c:	cf 93       	push	r28
    351e:	df 93       	push	r29
    3520:	ec 01       	movw	r28, r24
	checkhight = hight;
    3522:	8a 81       	ldd	r24, Y+2	; 0x02
    3524:	9b 81       	ldd	r25, Y+3	; 0x03
    3526:	ac 81       	ldd	r26, Y+4	; 0x04
    3528:	bd 81       	ldd	r27, Y+5	; 0x05
    352a:	8a 8b       	std	Y+18, r24	; 0x12
    352c:	9b 8b       	std	Y+19, r25	; 0x13
    352e:	ac 8b       	std	Y+20, r26	; 0x14
    3530:	bd 8b       	std	Y+21, r27	; 0x15
	hight = get_hight();
    3532:	ce 01       	movw	r24, r28
    3534:	0e 94 db 19 	call	0x33b6	; 0x33b6 <_ZN5Wheel9get_hightEv>
    3538:	6a 83       	std	Y+2, r22	; 0x02
    353a:	7b 83       	std	Y+3, r23	; 0x03
    353c:	8c 83       	std	Y+4, r24	; 0x04
    353e:	9d 83       	std	Y+5, r25	; 0x05
	if (checkhight == hight){
    3540:	2a 89       	ldd	r18, Y+18	; 0x12
    3542:	3b 89       	ldd	r19, Y+19	; 0x13
    3544:	4c 89       	ldd	r20, Y+20	; 0x14
    3546:	5d 89       	ldd	r21, Y+21	; 0x15
    3548:	0e 94 f0 1b 	call	0x37e0	; 0x37e0 <__cmpsf2>
    354c:	81 11       	cpse	r24, r1
    354e:	04 c0       	rjmp	.+8      	; 0x3558 <_ZN5Wheel5CheckEv+0x3c>
		malfuction = true;
    3550:	81 e0       	ldi	r24, 0x01	; 1
    3552:	8b 8f       	std	Y+27, r24	; 0x1b
		return false;
    3554:	80 e0       	ldi	r24, 0x00	; 0
    3556:	02 c0       	rjmp	.+4      	; 0x355c <_ZN5Wheel5CheckEv+0x40>
	} else{
		malfuction = false;
    3558:	1b 8e       	std	Y+27, r1	; 0x1b
		return true;
    355a:	81 e0       	ldi	r24, 0x01	; 1
	}
}
    355c:	df 91       	pop	r29
    355e:	cf 91       	pop	r28
    3560:	08 95       	ret

00003562 <_ZN5Wheel18ControlMalfinctionEv>:

void Wheel::ControlMalfinction(){
    3562:	fc 01       	movw	r30, r24
	if(!move){
    3564:	85 8d       	ldd	r24, Z+29	; 0x1d
    3566:	81 11       	cpse	r24, r1
    3568:	0d c0       	rjmp	.+26     	; 0x3584 <_ZN5Wheel18ControlMalfinctionEv+0x22>
		countToMalfunction++;
    356a:	86 8d       	ldd	r24, Z+30	; 0x1e
    356c:	97 8d       	ldd	r25, Z+31	; 0x1f
    356e:	01 96       	adiw	r24, 0x01	; 1
    3570:	97 8f       	std	Z+31, r25	; 0x1f
    3572:	86 8f       	std	Z+30, r24	; 0x1e
		if(countToMalfunction>countToMalfunctionLimit){
    3574:	20 a1       	ldd	r18, Z+32	; 0x20
    3576:	31 a1       	ldd	r19, Z+33	; 0x21
    3578:	28 17       	cp	r18, r24
    357a:	39 07       	cpc	r19, r25
    357c:	2c f4       	brge	.+10     	; 0x3588 <_ZN5Wheel18ControlMalfinctionEv+0x26>
			malfuction = true;
    357e:	81 e0       	ldi	r24, 0x01	; 1
    3580:	83 8f       	std	Z+27, r24	; 0x1b
    3582:	08 95       	ret
		}
	}else{
		countToMalfunction=0;
    3584:	17 8e       	std	Z+31, r1	; 0x1f
    3586:	16 8e       	std	Z+30, r1	; 0x1e
    3588:	08 95       	ret

0000358a <_ZN5Wheel17SetLimitsSetHightEv>:
	}
}

void Wheel::SetLimitsSetHight(){
    358a:	cf 92       	push	r12
    358c:	df 92       	push	r13
    358e:	ef 92       	push	r14
    3590:	ff 92       	push	r15
    3592:	cf 93       	push	r28
    3594:	df 93       	push	r29
    3596:	ec 01       	movw	r28, r24
	if(sethight>=maxHight){sethight=maxHight;}
    3598:	ce 80       	ldd	r12, Y+6	; 0x06
    359a:	df 80       	ldd	r13, Y+7	; 0x07
    359c:	e8 84       	ldd	r14, Y+8	; 0x08
    359e:	f9 84       	ldd	r15, Y+9	; 0x09
    35a0:	a7 01       	movw	r20, r14
    35a2:	96 01       	movw	r18, r12
    35a4:	6e 89       	ldd	r22, Y+22	; 0x16
    35a6:	7f 89       	ldd	r23, Y+23	; 0x17
    35a8:	88 8d       	ldd	r24, Y+24	; 0x18
    35aa:	99 8d       	ldd	r25, Y+25	; 0x19
    35ac:	0e 94 dd 1c 	call	0x39ba	; 0x39ba <__gesf2>
    35b0:	88 23       	and	r24, r24
    35b2:	24 f0       	brlt	.+8      	; 0x35bc <_ZN5Wheel17SetLimitsSetHightEv+0x32>
    35b4:	ce 8a       	std	Y+22, r12	; 0x16
    35b6:	df 8a       	std	Y+23, r13	; 0x17
    35b8:	e8 8e       	std	Y+24, r14	; 0x18
    35ba:	f9 8e       	std	Y+25, r15	; 0x19
	if(sethight<=minHight){sethight=minHight;}
    35bc:	ca 84       	ldd	r12, Y+10	; 0x0a
    35be:	db 84       	ldd	r13, Y+11	; 0x0b
    35c0:	ec 84       	ldd	r14, Y+12	; 0x0c
    35c2:	fd 84       	ldd	r15, Y+13	; 0x0d
    35c4:	a7 01       	movw	r20, r14
    35c6:	96 01       	movw	r18, r12
    35c8:	6e 89       	ldd	r22, Y+22	; 0x16
    35ca:	7f 89       	ldd	r23, Y+23	; 0x17
    35cc:	88 8d       	ldd	r24, Y+24	; 0x18
    35ce:	99 8d       	ldd	r25, Y+25	; 0x19
    35d0:	0e 94 f0 1b 	call	0x37e0	; 0x37e0 <__cmpsf2>
    35d4:	18 16       	cp	r1, r24
    35d6:	24 f0       	brlt	.+8      	; 0x35e0 <_ZN5Wheel17SetLimitsSetHightEv+0x56>
    35d8:	ce 8a       	std	Y+22, r12	; 0x16
    35da:	df 8a       	std	Y+23, r13	; 0x17
    35dc:	e8 8e       	std	Y+24, r14	; 0x18
    35de:	f9 8e       	std	Y+25, r15	; 0x19
}
    35e0:	df 91       	pop	r29
    35e2:	cf 91       	pop	r28
    35e4:	ff 90       	pop	r15
    35e6:	ef 90       	pop	r14
    35e8:	df 90       	pop	r13
    35ea:	cf 90       	pop	r12
    35ec:	08 95       	ret

000035ee <_ZN5Wheel15IsChanchedHightEv>:

bool Wheel::IsChanchedHight(){
    35ee:	cf 92       	push	r12
    35f0:	df 92       	push	r13
    35f2:	ef 92       	push	r14
    35f4:	ff 92       	push	r15
    35f6:	cf 93       	push	r28
    35f8:	df 93       	push	r29
    35fa:	ec 01       	movw	r28, r24
	if(oldHigit != get_hight()){
    35fc:	ce 84       	ldd	r12, Y+14	; 0x0e
    35fe:	df 84       	ldd	r13, Y+15	; 0x0f
    3600:	e8 88       	ldd	r14, Y+16	; 0x10
    3602:	f9 88       	ldd	r15, Y+17	; 0x11
    3604:	0e 94 db 19 	call	0x33b6	; 0x33b6 <_ZN5Wheel9get_hightEv>
    3608:	9b 01       	movw	r18, r22
    360a:	ac 01       	movw	r20, r24
    360c:	c7 01       	movw	r24, r14
    360e:	b6 01       	movw	r22, r12
    3610:	0e 94 f0 1b 	call	0x37e0	; 0x37e0 <__cmpsf2>
    3614:	88 23       	and	r24, r24
    3616:	59 f0       	breq	.+22     	; 0x362e <_ZN5Wheel15IsChanchedHightEv+0x40>
		oldHigit = hight;
    3618:	8a 81       	ldd	r24, Y+2	; 0x02
    361a:	9b 81       	ldd	r25, Y+3	; 0x03
    361c:	ac 81       	ldd	r26, Y+4	; 0x04
    361e:	bd 81       	ldd	r27, Y+5	; 0x05
    3620:	8e 87       	std	Y+14, r24	; 0x0e
    3622:	9f 87       	std	Y+15, r25	; 0x0f
    3624:	a8 8b       	std	Y+16, r26	; 0x10
    3626:	b9 8b       	std	Y+17, r27	; 0x11
		move = true;
    3628:	81 e0       	ldi	r24, 0x01	; 1
    362a:	8d 8f       	std	Y+29, r24	; 0x1d
		return true;
    362c:	02 c0       	rjmp	.+4      	; 0x3632 <_ZN5Wheel15IsChanchedHightEv+0x44>
	}else{
		move = false;
    362e:	1d 8e       	std	Y+29, r1	; 0x1d
		return false;		
    3630:	80 e0       	ldi	r24, 0x00	; 0
	}
}
    3632:	df 91       	pop	r29
    3634:	cf 91       	pop	r28
    3636:	ff 90       	pop	r15
    3638:	ef 90       	pop	r14
    363a:	df 90       	pop	r13
    363c:	cf 90       	pop	r12
    363e:	08 95       	ret

00003640 <_ZN5Wheel6SelectEv>:

void Wheel::Select(){
    3640:	fc 01       	movw	r30, r24
	selected = !selected;
    3642:	82 8d       	ldd	r24, Z+26	; 0x1a
    3644:	91 e0       	ldi	r25, 0x01	; 1
    3646:	98 27       	eor	r25, r24
    3648:	92 8f       	std	Z+26, r25	; 0x1a
    364a:	08 95       	ret

0000364c <_ZN5Wheel2UpEf>:
}

bool Wheel::Up(float step){
    364c:	cf 92       	push	r12
    364e:	df 92       	push	r13
    3650:	ef 92       	push	r14
    3652:	ff 92       	push	r15
    3654:	1f 93       	push	r17
    3656:	cf 93       	push	r28
    3658:	df 93       	push	r29
    365a:	ec 01       	movw	r28, r24
	if (!selected){return false;}
    365c:	1a 8d       	ldd	r17, Y+26	; 0x1a
    365e:	11 23       	and	r17, r17
    3660:	d1 f0       	breq	.+52     	; 0x3696 <_ZN5Wheel2UpEf+0x4a>
    3662:	cb 01       	movw	r24, r22
    3664:	ba 01       	movw	r22, r20
	sethight += step;
    3666:	2e 89       	ldd	r18, Y+22	; 0x16
    3668:	3f 89       	ldd	r19, Y+23	; 0x17
    366a:	48 8d       	ldd	r20, Y+24	; 0x18
    366c:	59 8d       	ldd	r21, Y+25	; 0x19
    366e:	0e 94 84 1b 	call	0x3708	; 0x3708 <__addsf3>
    3672:	6e 8b       	std	Y+22, r22	; 0x16
    3674:	7f 8b       	std	Y+23, r23	; 0x17
    3676:	88 8f       	std	Y+24, r24	; 0x18
    3678:	99 8f       	std	Y+25, r25	; 0x19
	if (sethight > maxHight){sethight = maxHight;}
    367a:	ce 80       	ldd	r12, Y+6	; 0x06
    367c:	df 80       	ldd	r13, Y+7	; 0x07
    367e:	e8 84       	ldd	r14, Y+8	; 0x08
    3680:	f9 84       	ldd	r15, Y+9	; 0x09
    3682:	a7 01       	movw	r20, r14
    3684:	96 01       	movw	r18, r12
    3686:	0e 94 dd 1c 	call	0x39ba	; 0x39ba <__gesf2>
    368a:	18 16       	cp	r1, r24
    368c:	24 f4       	brge	.+8      	; 0x3696 <_ZN5Wheel2UpEf+0x4a>
    368e:	ce 8a       	std	Y+22, r12	; 0x16
    3690:	df 8a       	std	Y+23, r13	; 0x17
    3692:	e8 8e       	std	Y+24, r14	; 0x18
    3694:	f9 8e       	std	Y+25, r15	; 0x19
	return true;
}
    3696:	81 2f       	mov	r24, r17
    3698:	df 91       	pop	r29
    369a:	cf 91       	pop	r28
    369c:	1f 91       	pop	r17
    369e:	ff 90       	pop	r15
    36a0:	ef 90       	pop	r14
    36a2:	df 90       	pop	r13
    36a4:	cf 90       	pop	r12
    36a6:	08 95       	ret

000036a8 <_ZN5Wheel4DownEf>:

bool Wheel::Down(float step){
    36a8:	cf 92       	push	r12
    36aa:	df 92       	push	r13
    36ac:	ef 92       	push	r14
    36ae:	ff 92       	push	r15
    36b0:	1f 93       	push	r17
    36b2:	cf 93       	push	r28
    36b4:	df 93       	push	r29
	if (!selected){return false;}
    36b6:	fc 01       	movw	r30, r24
    36b8:	12 8d       	ldd	r17, Z+26	; 0x1a
    36ba:	11 23       	and	r17, r17
    36bc:	d9 f0       	breq	.+54     	; 0x36f4 <_ZN5Wheel4DownEf+0x4c>
    36be:	9a 01       	movw	r18, r20
    36c0:	ab 01       	movw	r20, r22
    36c2:	ec 01       	movw	r28, r24
	sethight -= step;
    36c4:	66 89       	ldd	r22, Z+22	; 0x16
    36c6:	77 89       	ldd	r23, Z+23	; 0x17
    36c8:	80 8d       	ldd	r24, Z+24	; 0x18
    36ca:	91 8d       	ldd	r25, Z+25	; 0x19
    36cc:	0e 94 83 1b 	call	0x3706	; 0x3706 <__subsf3>
    36d0:	6e 8b       	std	Y+22, r22	; 0x16
    36d2:	7f 8b       	std	Y+23, r23	; 0x17
    36d4:	88 8f       	std	Y+24, r24	; 0x18
    36d6:	99 8f       	std	Y+25, r25	; 0x19
	if (sethight < minHight){sethight = minHight;}
    36d8:	ca 84       	ldd	r12, Y+10	; 0x0a
    36da:	db 84       	ldd	r13, Y+11	; 0x0b
    36dc:	ec 84       	ldd	r14, Y+12	; 0x0c
    36de:	fd 84       	ldd	r15, Y+13	; 0x0d
    36e0:	a7 01       	movw	r20, r14
    36e2:	96 01       	movw	r18, r12
    36e4:	0e 94 f0 1b 	call	0x37e0	; 0x37e0 <__cmpsf2>
    36e8:	88 23       	and	r24, r24
    36ea:	24 f4       	brge	.+8      	; 0x36f4 <_ZN5Wheel4DownEf+0x4c>
    36ec:	ce 8a       	std	Y+22, r12	; 0x16
    36ee:	df 8a       	std	Y+23, r13	; 0x17
    36f0:	e8 8e       	std	Y+24, r14	; 0x18
    36f2:	f9 8e       	std	Y+25, r15	; 0x19
	return true;
    36f4:	81 2f       	mov	r24, r17
    36f6:	df 91       	pop	r29
    36f8:	cf 91       	pop	r28
    36fa:	1f 91       	pop	r17
    36fc:	ff 90       	pop	r15
    36fe:	ef 90       	pop	r14
    3700:	df 90       	pop	r13
    3702:	cf 90       	pop	r12
    3704:	08 95       	ret

00003706 <__subsf3>:
    3706:	50 58       	subi	r21, 0x80	; 128

00003708 <__addsf3>:
    3708:	bb 27       	eor	r27, r27
    370a:	aa 27       	eor	r26, r26
    370c:	0e 94 9b 1b 	call	0x3736	; 0x3736 <__addsf3x>
    3710:	0c 94 a3 1c 	jmp	0x3946	; 0x3946 <__fp_round>
    3714:	0e 94 95 1c 	call	0x392a	; 0x392a <__fp_pscA>
    3718:	38 f0       	brcs	.+14     	; 0x3728 <__addsf3+0x20>
    371a:	0e 94 9c 1c 	call	0x3938	; 0x3938 <__fp_pscB>
    371e:	20 f0       	brcs	.+8      	; 0x3728 <__addsf3+0x20>
    3720:	39 f4       	brne	.+14     	; 0x3730 <__addsf3+0x28>
    3722:	9f 3f       	cpi	r25, 0xFF	; 255
    3724:	19 f4       	brne	.+6      	; 0x372c <__addsf3+0x24>
    3726:	26 f4       	brtc	.+8      	; 0x3730 <__addsf3+0x28>
    3728:	0c 94 92 1c 	jmp	0x3924	; 0x3924 <__fp_nan>
    372c:	0e f4       	brtc	.+2      	; 0x3730 <__addsf3+0x28>
    372e:	e0 95       	com	r30
    3730:	e7 fb       	bst	r30, 7
    3732:	0c 94 8c 1c 	jmp	0x3918	; 0x3918 <__fp_inf>

00003736 <__addsf3x>:
    3736:	e9 2f       	mov	r30, r25
    3738:	0e 94 b4 1c 	call	0x3968	; 0x3968 <__fp_split3>
    373c:	58 f3       	brcs	.-42     	; 0x3714 <__addsf3+0xc>
    373e:	ba 17       	cp	r27, r26
    3740:	62 07       	cpc	r22, r18
    3742:	73 07       	cpc	r23, r19
    3744:	84 07       	cpc	r24, r20
    3746:	95 07       	cpc	r25, r21
    3748:	20 f0       	brcs	.+8      	; 0x3752 <__addsf3x+0x1c>
    374a:	79 f4       	brne	.+30     	; 0x376a <__addsf3x+0x34>
    374c:	a6 f5       	brtc	.+104    	; 0x37b6 <__addsf3x+0x80>
    374e:	0c 94 d6 1c 	jmp	0x39ac	; 0x39ac <__fp_zero>
    3752:	0e f4       	brtc	.+2      	; 0x3756 <__addsf3x+0x20>
    3754:	e0 95       	com	r30
    3756:	0b 2e       	mov	r0, r27
    3758:	ba 2f       	mov	r27, r26
    375a:	a0 2d       	mov	r26, r0
    375c:	0b 01       	movw	r0, r22
    375e:	b9 01       	movw	r22, r18
    3760:	90 01       	movw	r18, r0
    3762:	0c 01       	movw	r0, r24
    3764:	ca 01       	movw	r24, r20
    3766:	a0 01       	movw	r20, r0
    3768:	11 24       	eor	r1, r1
    376a:	ff 27       	eor	r31, r31
    376c:	59 1b       	sub	r21, r25
    376e:	99 f0       	breq	.+38     	; 0x3796 <__addsf3x+0x60>
    3770:	59 3f       	cpi	r21, 0xF9	; 249
    3772:	50 f4       	brcc	.+20     	; 0x3788 <__addsf3x+0x52>
    3774:	50 3e       	cpi	r21, 0xE0	; 224
    3776:	68 f1       	brcs	.+90     	; 0x37d2 <__addsf3x+0x9c>
    3778:	1a 16       	cp	r1, r26
    377a:	f0 40       	sbci	r31, 0x00	; 0
    377c:	a2 2f       	mov	r26, r18
    377e:	23 2f       	mov	r18, r19
    3780:	34 2f       	mov	r19, r20
    3782:	44 27       	eor	r20, r20
    3784:	58 5f       	subi	r21, 0xF8	; 248
    3786:	f3 cf       	rjmp	.-26     	; 0x376e <__addsf3x+0x38>
    3788:	46 95       	lsr	r20
    378a:	37 95       	ror	r19
    378c:	27 95       	ror	r18
    378e:	a7 95       	ror	r26
    3790:	f0 40       	sbci	r31, 0x00	; 0
    3792:	53 95       	inc	r21
    3794:	c9 f7       	brne	.-14     	; 0x3788 <__addsf3x+0x52>
    3796:	7e f4       	brtc	.+30     	; 0x37b6 <__addsf3x+0x80>
    3798:	1f 16       	cp	r1, r31
    379a:	ba 0b       	sbc	r27, r26
    379c:	62 0b       	sbc	r22, r18
    379e:	73 0b       	sbc	r23, r19
    37a0:	84 0b       	sbc	r24, r20
    37a2:	ba f0       	brmi	.+46     	; 0x37d2 <__addsf3x+0x9c>
    37a4:	91 50       	subi	r25, 0x01	; 1
    37a6:	a1 f0       	breq	.+40     	; 0x37d0 <__addsf3x+0x9a>
    37a8:	ff 0f       	add	r31, r31
    37aa:	bb 1f       	adc	r27, r27
    37ac:	66 1f       	adc	r22, r22
    37ae:	77 1f       	adc	r23, r23
    37b0:	88 1f       	adc	r24, r24
    37b2:	c2 f7       	brpl	.-16     	; 0x37a4 <__addsf3x+0x6e>
    37b4:	0e c0       	rjmp	.+28     	; 0x37d2 <__addsf3x+0x9c>
    37b6:	ba 0f       	add	r27, r26
    37b8:	62 1f       	adc	r22, r18
    37ba:	73 1f       	adc	r23, r19
    37bc:	84 1f       	adc	r24, r20
    37be:	48 f4       	brcc	.+18     	; 0x37d2 <__addsf3x+0x9c>
    37c0:	87 95       	ror	r24
    37c2:	77 95       	ror	r23
    37c4:	67 95       	ror	r22
    37c6:	b7 95       	ror	r27
    37c8:	f7 95       	ror	r31
    37ca:	9e 3f       	cpi	r25, 0xFE	; 254
    37cc:	08 f0       	brcs	.+2      	; 0x37d0 <__addsf3x+0x9a>
    37ce:	b0 cf       	rjmp	.-160    	; 0x3730 <__addsf3+0x28>
    37d0:	93 95       	inc	r25
    37d2:	88 0f       	add	r24, r24
    37d4:	08 f0       	brcs	.+2      	; 0x37d8 <__addsf3x+0xa2>
    37d6:	99 27       	eor	r25, r25
    37d8:	ee 0f       	add	r30, r30
    37da:	97 95       	ror	r25
    37dc:	87 95       	ror	r24
    37de:	08 95       	ret

000037e0 <__cmpsf2>:
    37e0:	0e 94 68 1c 	call	0x38d0	; 0x38d0 <__fp_cmp>
    37e4:	08 f4       	brcc	.+2      	; 0x37e8 <__cmpsf2+0x8>
    37e6:	81 e0       	ldi	r24, 0x01	; 1
    37e8:	08 95       	ret

000037ea <__fixsfsi>:
    37ea:	0e 94 fc 1b 	call	0x37f8	; 0x37f8 <__fixunssfsi>
    37ee:	68 94       	set
    37f0:	b1 11       	cpse	r27, r1
    37f2:	0c 94 d7 1c 	jmp	0x39ae	; 0x39ae <__fp_szero>
    37f6:	08 95       	ret

000037f8 <__fixunssfsi>:
    37f8:	0e 94 bc 1c 	call	0x3978	; 0x3978 <__fp_splitA>
    37fc:	88 f0       	brcs	.+34     	; 0x3820 <__fixunssfsi+0x28>
    37fe:	9f 57       	subi	r25, 0x7F	; 127
    3800:	98 f0       	brcs	.+38     	; 0x3828 <__fixunssfsi+0x30>
    3802:	b9 2f       	mov	r27, r25
    3804:	99 27       	eor	r25, r25
    3806:	b7 51       	subi	r27, 0x17	; 23
    3808:	b0 f0       	brcs	.+44     	; 0x3836 <__fixunssfsi+0x3e>
    380a:	e1 f0       	breq	.+56     	; 0x3844 <__fixunssfsi+0x4c>
    380c:	66 0f       	add	r22, r22
    380e:	77 1f       	adc	r23, r23
    3810:	88 1f       	adc	r24, r24
    3812:	99 1f       	adc	r25, r25
    3814:	1a f0       	brmi	.+6      	; 0x381c <__fixunssfsi+0x24>
    3816:	ba 95       	dec	r27
    3818:	c9 f7       	brne	.-14     	; 0x380c <__fixunssfsi+0x14>
    381a:	14 c0       	rjmp	.+40     	; 0x3844 <__fixunssfsi+0x4c>
    381c:	b1 30       	cpi	r27, 0x01	; 1
    381e:	91 f0       	breq	.+36     	; 0x3844 <__fixunssfsi+0x4c>
    3820:	0e 94 d6 1c 	call	0x39ac	; 0x39ac <__fp_zero>
    3824:	b1 e0       	ldi	r27, 0x01	; 1
    3826:	08 95       	ret
    3828:	0c 94 d6 1c 	jmp	0x39ac	; 0x39ac <__fp_zero>
    382c:	67 2f       	mov	r22, r23
    382e:	78 2f       	mov	r23, r24
    3830:	88 27       	eor	r24, r24
    3832:	b8 5f       	subi	r27, 0xF8	; 248
    3834:	39 f0       	breq	.+14     	; 0x3844 <__fixunssfsi+0x4c>
    3836:	b9 3f       	cpi	r27, 0xF9	; 249
    3838:	cc f3       	brlt	.-14     	; 0x382c <__fixunssfsi+0x34>
    383a:	86 95       	lsr	r24
    383c:	77 95       	ror	r23
    383e:	67 95       	ror	r22
    3840:	b3 95       	inc	r27
    3842:	d9 f7       	brne	.-10     	; 0x383a <__fixunssfsi+0x42>
    3844:	3e f4       	brtc	.+14     	; 0x3854 <__fixunssfsi+0x5c>
    3846:	90 95       	com	r25
    3848:	80 95       	com	r24
    384a:	70 95       	com	r23
    384c:	61 95       	neg	r22
    384e:	7f 4f       	sbci	r23, 0xFF	; 255
    3850:	8f 4f       	sbci	r24, 0xFF	; 255
    3852:	9f 4f       	sbci	r25, 0xFF	; 255
    3854:	08 95       	ret

00003856 <__floatunsisf>:
    3856:	e8 94       	clt
    3858:	09 c0       	rjmp	.+18     	; 0x386c <__floatsisf+0x12>

0000385a <__floatsisf>:
    385a:	97 fb       	bst	r25, 7
    385c:	3e f4       	brtc	.+14     	; 0x386c <__floatsisf+0x12>
    385e:	90 95       	com	r25
    3860:	80 95       	com	r24
    3862:	70 95       	com	r23
    3864:	61 95       	neg	r22
    3866:	7f 4f       	sbci	r23, 0xFF	; 255
    3868:	8f 4f       	sbci	r24, 0xFF	; 255
    386a:	9f 4f       	sbci	r25, 0xFF	; 255
    386c:	99 23       	and	r25, r25
    386e:	a9 f0       	breq	.+42     	; 0x389a <__floatsisf+0x40>
    3870:	f9 2f       	mov	r31, r25
    3872:	96 e9       	ldi	r25, 0x96	; 150
    3874:	bb 27       	eor	r27, r27
    3876:	93 95       	inc	r25
    3878:	f6 95       	lsr	r31
    387a:	87 95       	ror	r24
    387c:	77 95       	ror	r23
    387e:	67 95       	ror	r22
    3880:	b7 95       	ror	r27
    3882:	f1 11       	cpse	r31, r1
    3884:	f8 cf       	rjmp	.-16     	; 0x3876 <__floatsisf+0x1c>
    3886:	fa f4       	brpl	.+62     	; 0x38c6 <__floatsisf+0x6c>
    3888:	bb 0f       	add	r27, r27
    388a:	11 f4       	brne	.+4      	; 0x3890 <__floatsisf+0x36>
    388c:	60 ff       	sbrs	r22, 0
    388e:	1b c0       	rjmp	.+54     	; 0x38c6 <__floatsisf+0x6c>
    3890:	6f 5f       	subi	r22, 0xFF	; 255
    3892:	7f 4f       	sbci	r23, 0xFF	; 255
    3894:	8f 4f       	sbci	r24, 0xFF	; 255
    3896:	9f 4f       	sbci	r25, 0xFF	; 255
    3898:	16 c0       	rjmp	.+44     	; 0x38c6 <__floatsisf+0x6c>
    389a:	88 23       	and	r24, r24
    389c:	11 f0       	breq	.+4      	; 0x38a2 <__floatsisf+0x48>
    389e:	96 e9       	ldi	r25, 0x96	; 150
    38a0:	11 c0       	rjmp	.+34     	; 0x38c4 <__floatsisf+0x6a>
    38a2:	77 23       	and	r23, r23
    38a4:	21 f0       	breq	.+8      	; 0x38ae <__floatsisf+0x54>
    38a6:	9e e8       	ldi	r25, 0x8E	; 142
    38a8:	87 2f       	mov	r24, r23
    38aa:	76 2f       	mov	r23, r22
    38ac:	05 c0       	rjmp	.+10     	; 0x38b8 <__floatsisf+0x5e>
    38ae:	66 23       	and	r22, r22
    38b0:	71 f0       	breq	.+28     	; 0x38ce <__floatsisf+0x74>
    38b2:	96 e8       	ldi	r25, 0x86	; 134
    38b4:	86 2f       	mov	r24, r22
    38b6:	70 e0       	ldi	r23, 0x00	; 0
    38b8:	60 e0       	ldi	r22, 0x00	; 0
    38ba:	2a f0       	brmi	.+10     	; 0x38c6 <__floatsisf+0x6c>
    38bc:	9a 95       	dec	r25
    38be:	66 0f       	add	r22, r22
    38c0:	77 1f       	adc	r23, r23
    38c2:	88 1f       	adc	r24, r24
    38c4:	da f7       	brpl	.-10     	; 0x38bc <__floatsisf+0x62>
    38c6:	88 0f       	add	r24, r24
    38c8:	96 95       	lsr	r25
    38ca:	87 95       	ror	r24
    38cc:	97 f9       	bld	r25, 7
    38ce:	08 95       	ret

000038d0 <__fp_cmp>:
    38d0:	99 0f       	add	r25, r25
    38d2:	00 08       	sbc	r0, r0
    38d4:	55 0f       	add	r21, r21
    38d6:	aa 0b       	sbc	r26, r26
    38d8:	e0 e8       	ldi	r30, 0x80	; 128
    38da:	fe ef       	ldi	r31, 0xFE	; 254
    38dc:	16 16       	cp	r1, r22
    38de:	17 06       	cpc	r1, r23
    38e0:	e8 07       	cpc	r30, r24
    38e2:	f9 07       	cpc	r31, r25
    38e4:	c0 f0       	brcs	.+48     	; 0x3916 <__fp_cmp+0x46>
    38e6:	12 16       	cp	r1, r18
    38e8:	13 06       	cpc	r1, r19
    38ea:	e4 07       	cpc	r30, r20
    38ec:	f5 07       	cpc	r31, r21
    38ee:	98 f0       	brcs	.+38     	; 0x3916 <__fp_cmp+0x46>
    38f0:	62 1b       	sub	r22, r18
    38f2:	73 0b       	sbc	r23, r19
    38f4:	84 0b       	sbc	r24, r20
    38f6:	95 0b       	sbc	r25, r21
    38f8:	39 f4       	brne	.+14     	; 0x3908 <__fp_cmp+0x38>
    38fa:	0a 26       	eor	r0, r26
    38fc:	61 f0       	breq	.+24     	; 0x3916 <__fp_cmp+0x46>
    38fe:	23 2b       	or	r18, r19
    3900:	24 2b       	or	r18, r20
    3902:	25 2b       	or	r18, r21
    3904:	21 f4       	brne	.+8      	; 0x390e <__fp_cmp+0x3e>
    3906:	08 95       	ret
    3908:	0a 26       	eor	r0, r26
    390a:	09 f4       	brne	.+2      	; 0x390e <__fp_cmp+0x3e>
    390c:	a1 40       	sbci	r26, 0x01	; 1
    390e:	a6 95       	lsr	r26
    3910:	8f ef       	ldi	r24, 0xFF	; 255
    3912:	81 1d       	adc	r24, r1
    3914:	81 1d       	adc	r24, r1
    3916:	08 95       	ret

00003918 <__fp_inf>:
    3918:	97 f9       	bld	r25, 7
    391a:	9f 67       	ori	r25, 0x7F	; 127
    391c:	80 e8       	ldi	r24, 0x80	; 128
    391e:	70 e0       	ldi	r23, 0x00	; 0
    3920:	60 e0       	ldi	r22, 0x00	; 0
    3922:	08 95       	ret

00003924 <__fp_nan>:
    3924:	9f ef       	ldi	r25, 0xFF	; 255
    3926:	80 ec       	ldi	r24, 0xC0	; 192
    3928:	08 95       	ret

0000392a <__fp_pscA>:
    392a:	00 24       	eor	r0, r0
    392c:	0a 94       	dec	r0
    392e:	16 16       	cp	r1, r22
    3930:	17 06       	cpc	r1, r23
    3932:	18 06       	cpc	r1, r24
    3934:	09 06       	cpc	r0, r25
    3936:	08 95       	ret

00003938 <__fp_pscB>:
    3938:	00 24       	eor	r0, r0
    393a:	0a 94       	dec	r0
    393c:	12 16       	cp	r1, r18
    393e:	13 06       	cpc	r1, r19
    3940:	14 06       	cpc	r1, r20
    3942:	05 06       	cpc	r0, r21
    3944:	08 95       	ret

00003946 <__fp_round>:
    3946:	09 2e       	mov	r0, r25
    3948:	03 94       	inc	r0
    394a:	00 0c       	add	r0, r0
    394c:	11 f4       	brne	.+4      	; 0x3952 <__fp_round+0xc>
    394e:	88 23       	and	r24, r24
    3950:	52 f0       	brmi	.+20     	; 0x3966 <__fp_round+0x20>
    3952:	bb 0f       	add	r27, r27
    3954:	40 f4       	brcc	.+16     	; 0x3966 <__fp_round+0x20>
    3956:	bf 2b       	or	r27, r31
    3958:	11 f4       	brne	.+4      	; 0x395e <__fp_round+0x18>
    395a:	60 ff       	sbrs	r22, 0
    395c:	04 c0       	rjmp	.+8      	; 0x3966 <__fp_round+0x20>
    395e:	6f 5f       	subi	r22, 0xFF	; 255
    3960:	7f 4f       	sbci	r23, 0xFF	; 255
    3962:	8f 4f       	sbci	r24, 0xFF	; 255
    3964:	9f 4f       	sbci	r25, 0xFF	; 255
    3966:	08 95       	ret

00003968 <__fp_split3>:
    3968:	57 fd       	sbrc	r21, 7
    396a:	90 58       	subi	r25, 0x80	; 128
    396c:	44 0f       	add	r20, r20
    396e:	55 1f       	adc	r21, r21
    3970:	59 f0       	breq	.+22     	; 0x3988 <__fp_splitA+0x10>
    3972:	5f 3f       	cpi	r21, 0xFF	; 255
    3974:	71 f0       	breq	.+28     	; 0x3992 <__fp_splitA+0x1a>
    3976:	47 95       	ror	r20

00003978 <__fp_splitA>:
    3978:	88 0f       	add	r24, r24
    397a:	97 fb       	bst	r25, 7
    397c:	99 1f       	adc	r25, r25
    397e:	61 f0       	breq	.+24     	; 0x3998 <__fp_splitA+0x20>
    3980:	9f 3f       	cpi	r25, 0xFF	; 255
    3982:	79 f0       	breq	.+30     	; 0x39a2 <__fp_splitA+0x2a>
    3984:	87 95       	ror	r24
    3986:	08 95       	ret
    3988:	12 16       	cp	r1, r18
    398a:	13 06       	cpc	r1, r19
    398c:	14 06       	cpc	r1, r20
    398e:	55 1f       	adc	r21, r21
    3990:	f2 cf       	rjmp	.-28     	; 0x3976 <__fp_split3+0xe>
    3992:	46 95       	lsr	r20
    3994:	f1 df       	rcall	.-30     	; 0x3978 <__fp_splitA>
    3996:	08 c0       	rjmp	.+16     	; 0x39a8 <__fp_splitA+0x30>
    3998:	16 16       	cp	r1, r22
    399a:	17 06       	cpc	r1, r23
    399c:	18 06       	cpc	r1, r24
    399e:	99 1f       	adc	r25, r25
    39a0:	f1 cf       	rjmp	.-30     	; 0x3984 <__fp_splitA+0xc>
    39a2:	86 95       	lsr	r24
    39a4:	71 05       	cpc	r23, r1
    39a6:	61 05       	cpc	r22, r1
    39a8:	08 94       	sec
    39aa:	08 95       	ret

000039ac <__fp_zero>:
    39ac:	e8 94       	clt

000039ae <__fp_szero>:
    39ae:	bb 27       	eor	r27, r27
    39b0:	66 27       	eor	r22, r22
    39b2:	77 27       	eor	r23, r23
    39b4:	cb 01       	movw	r24, r22
    39b6:	97 f9       	bld	r25, 7
    39b8:	08 95       	ret

000039ba <__gesf2>:
    39ba:	0e 94 68 1c 	call	0x38d0	; 0x38d0 <__fp_cmp>
    39be:	08 f4       	brcc	.+2      	; 0x39c2 <__gesf2+0x8>
    39c0:	8f ef       	ldi	r24, 0xFF	; 255
    39c2:	08 95       	ret

000039c4 <__mulsf3>:
    39c4:	0e 94 f5 1c 	call	0x39ea	; 0x39ea <__mulsf3x>
    39c8:	0c 94 a3 1c 	jmp	0x3946	; 0x3946 <__fp_round>
    39cc:	0e 94 95 1c 	call	0x392a	; 0x392a <__fp_pscA>
    39d0:	38 f0       	brcs	.+14     	; 0x39e0 <__mulsf3+0x1c>
    39d2:	0e 94 9c 1c 	call	0x3938	; 0x3938 <__fp_pscB>
    39d6:	20 f0       	brcs	.+8      	; 0x39e0 <__mulsf3+0x1c>
    39d8:	95 23       	and	r25, r21
    39da:	11 f0       	breq	.+4      	; 0x39e0 <__mulsf3+0x1c>
    39dc:	0c 94 8c 1c 	jmp	0x3918	; 0x3918 <__fp_inf>
    39e0:	0c 94 92 1c 	jmp	0x3924	; 0x3924 <__fp_nan>
    39e4:	11 24       	eor	r1, r1
    39e6:	0c 94 d7 1c 	jmp	0x39ae	; 0x39ae <__fp_szero>

000039ea <__mulsf3x>:
    39ea:	0e 94 b4 1c 	call	0x3968	; 0x3968 <__fp_split3>
    39ee:	70 f3       	brcs	.-36     	; 0x39cc <__mulsf3+0x8>

000039f0 <__mulsf3_pse>:
    39f0:	95 9f       	mul	r25, r21
    39f2:	c1 f3       	breq	.-16     	; 0x39e4 <__mulsf3+0x20>
    39f4:	95 0f       	add	r25, r21
    39f6:	50 e0       	ldi	r21, 0x00	; 0
    39f8:	55 1f       	adc	r21, r21
    39fa:	62 9f       	mul	r22, r18
    39fc:	f0 01       	movw	r30, r0
    39fe:	72 9f       	mul	r23, r18
    3a00:	bb 27       	eor	r27, r27
    3a02:	f0 0d       	add	r31, r0
    3a04:	b1 1d       	adc	r27, r1
    3a06:	63 9f       	mul	r22, r19
    3a08:	aa 27       	eor	r26, r26
    3a0a:	f0 0d       	add	r31, r0
    3a0c:	b1 1d       	adc	r27, r1
    3a0e:	aa 1f       	adc	r26, r26
    3a10:	64 9f       	mul	r22, r20
    3a12:	66 27       	eor	r22, r22
    3a14:	b0 0d       	add	r27, r0
    3a16:	a1 1d       	adc	r26, r1
    3a18:	66 1f       	adc	r22, r22
    3a1a:	82 9f       	mul	r24, r18
    3a1c:	22 27       	eor	r18, r18
    3a1e:	b0 0d       	add	r27, r0
    3a20:	a1 1d       	adc	r26, r1
    3a22:	62 1f       	adc	r22, r18
    3a24:	73 9f       	mul	r23, r19
    3a26:	b0 0d       	add	r27, r0
    3a28:	a1 1d       	adc	r26, r1
    3a2a:	62 1f       	adc	r22, r18
    3a2c:	83 9f       	mul	r24, r19
    3a2e:	a0 0d       	add	r26, r0
    3a30:	61 1d       	adc	r22, r1
    3a32:	22 1f       	adc	r18, r18
    3a34:	74 9f       	mul	r23, r20
    3a36:	33 27       	eor	r19, r19
    3a38:	a0 0d       	add	r26, r0
    3a3a:	61 1d       	adc	r22, r1
    3a3c:	23 1f       	adc	r18, r19
    3a3e:	84 9f       	mul	r24, r20
    3a40:	60 0d       	add	r22, r0
    3a42:	21 1d       	adc	r18, r1
    3a44:	82 2f       	mov	r24, r18
    3a46:	76 2f       	mov	r23, r22
    3a48:	6a 2f       	mov	r22, r26
    3a4a:	11 24       	eor	r1, r1
    3a4c:	9f 57       	subi	r25, 0x7F	; 127
    3a4e:	50 40       	sbci	r21, 0x00	; 0
    3a50:	9a f0       	brmi	.+38     	; 0x3a78 <__mulsf3_pse+0x88>
    3a52:	f1 f0       	breq	.+60     	; 0x3a90 <__mulsf3_pse+0xa0>
    3a54:	88 23       	and	r24, r24
    3a56:	4a f0       	brmi	.+18     	; 0x3a6a <__mulsf3_pse+0x7a>
    3a58:	ee 0f       	add	r30, r30
    3a5a:	ff 1f       	adc	r31, r31
    3a5c:	bb 1f       	adc	r27, r27
    3a5e:	66 1f       	adc	r22, r22
    3a60:	77 1f       	adc	r23, r23
    3a62:	88 1f       	adc	r24, r24
    3a64:	91 50       	subi	r25, 0x01	; 1
    3a66:	50 40       	sbci	r21, 0x00	; 0
    3a68:	a9 f7       	brne	.-22     	; 0x3a54 <__mulsf3_pse+0x64>
    3a6a:	9e 3f       	cpi	r25, 0xFE	; 254
    3a6c:	51 05       	cpc	r21, r1
    3a6e:	80 f0       	brcs	.+32     	; 0x3a90 <__mulsf3_pse+0xa0>
    3a70:	0c 94 8c 1c 	jmp	0x3918	; 0x3918 <__fp_inf>
    3a74:	0c 94 d7 1c 	jmp	0x39ae	; 0x39ae <__fp_szero>
    3a78:	5f 3f       	cpi	r21, 0xFF	; 255
    3a7a:	e4 f3       	brlt	.-8      	; 0x3a74 <__mulsf3_pse+0x84>
    3a7c:	98 3e       	cpi	r25, 0xE8	; 232
    3a7e:	d4 f3       	brlt	.-12     	; 0x3a74 <__mulsf3_pse+0x84>
    3a80:	86 95       	lsr	r24
    3a82:	77 95       	ror	r23
    3a84:	67 95       	ror	r22
    3a86:	b7 95       	ror	r27
    3a88:	f7 95       	ror	r31
    3a8a:	e7 95       	ror	r30
    3a8c:	9f 5f       	subi	r25, 0xFF	; 255
    3a8e:	c1 f7       	brne	.-16     	; 0x3a80 <__mulsf3_pse+0x90>
    3a90:	fe 2b       	or	r31, r30
    3a92:	88 0f       	add	r24, r24
    3a94:	91 1d       	adc	r25, r1
    3a96:	96 95       	lsr	r25
    3a98:	87 95       	ror	r24
    3a9a:	97 f9       	bld	r25, 7
    3a9c:	08 95       	ret

00003a9e <__divmodhi4>:
    3a9e:	97 fb       	bst	r25, 7
    3aa0:	07 2e       	mov	r0, r23
    3aa2:	16 f4       	brtc	.+4      	; 0x3aa8 <__divmodhi4+0xa>
    3aa4:	00 94       	com	r0
    3aa6:	07 d0       	rcall	.+14     	; 0x3ab6 <__divmodhi4_neg1>
    3aa8:	77 fd       	sbrc	r23, 7
    3aaa:	09 d0       	rcall	.+18     	; 0x3abe <__divmodhi4_neg2>
    3aac:	0e 94 69 1d 	call	0x3ad2	; 0x3ad2 <__udivmodhi4>
    3ab0:	07 fc       	sbrc	r0, 7
    3ab2:	05 d0       	rcall	.+10     	; 0x3abe <__divmodhi4_neg2>
    3ab4:	3e f4       	brtc	.+14     	; 0x3ac4 <__divmodhi4_exit>

00003ab6 <__divmodhi4_neg1>:
    3ab6:	90 95       	com	r25
    3ab8:	81 95       	neg	r24
    3aba:	9f 4f       	sbci	r25, 0xFF	; 255
    3abc:	08 95       	ret

00003abe <__divmodhi4_neg2>:
    3abe:	70 95       	com	r23
    3ac0:	61 95       	neg	r22
    3ac2:	7f 4f       	sbci	r23, 0xFF	; 255

00003ac4 <__divmodhi4_exit>:
    3ac4:	08 95       	ret

00003ac6 <__tablejump2__>:
    3ac6:	ee 0f       	add	r30, r30
    3ac8:	ff 1f       	adc	r31, r31
    3aca:	05 90       	lpm	r0, Z+
    3acc:	f4 91       	lpm	r31, Z
    3ace:	e0 2d       	mov	r30, r0
    3ad0:	09 94       	ijmp

00003ad2 <__udivmodhi4>:
    3ad2:	aa 1b       	sub	r26, r26
    3ad4:	bb 1b       	sub	r27, r27
    3ad6:	51 e1       	ldi	r21, 0x11	; 17
    3ad8:	07 c0       	rjmp	.+14     	; 0x3ae8 <__udivmodhi4_ep>

00003ada <__udivmodhi4_loop>:
    3ada:	aa 1f       	adc	r26, r26
    3adc:	bb 1f       	adc	r27, r27
    3ade:	a6 17       	cp	r26, r22
    3ae0:	b7 07       	cpc	r27, r23
    3ae2:	10 f0       	brcs	.+4      	; 0x3ae8 <__udivmodhi4_ep>
    3ae4:	a6 1b       	sub	r26, r22
    3ae6:	b7 0b       	sbc	r27, r23

00003ae8 <__udivmodhi4_ep>:
    3ae8:	88 1f       	adc	r24, r24
    3aea:	99 1f       	adc	r25, r25
    3aec:	5a 95       	dec	r21
    3aee:	a9 f7       	brne	.-22     	; 0x3ada <__udivmodhi4_loop>
    3af0:	80 95       	com	r24
    3af2:	90 95       	com	r25
    3af4:	bc 01       	movw	r22, r24
    3af6:	cd 01       	movw	r24, r26
    3af8:	08 95       	ret

00003afa <eeprom_read_dword>:
    3afa:	a6 e1       	ldi	r26, 0x16	; 22
    3afc:	b0 e0       	ldi	r27, 0x00	; 0
    3afe:	44 e0       	ldi	r20, 0x04	; 4
    3b00:	50 e0       	ldi	r21, 0x00	; 0
    3b02:	0c 94 92 1d 	jmp	0x3b24	; 0x3b24 <eeprom_read_blraw>

00003b06 <eeprom_write_dword>:
    3b06:	24 2f       	mov	r18, r20
    3b08:	0e 94 a1 1d 	call	0x3b42	; 0x3b42 <eeprom_write_r18>
    3b0c:	25 2f       	mov	r18, r21
    3b0e:	0e 94 a1 1d 	call	0x3b42	; 0x3b42 <eeprom_write_r18>
    3b12:	0c 94 8b 1d 	jmp	0x3b16	; 0x3b16 <eeprom_write_word>

00003b16 <eeprom_write_word>:
    3b16:	0e 94 a0 1d 	call	0x3b40	; 0x3b40 <eeprom_write_byte>
    3b1a:	27 2f       	mov	r18, r23
    3b1c:	0c 94 a1 1d 	jmp	0x3b42	; 0x3b42 <eeprom_write_r18>

00003b20 <eeprom_read_block>:
    3b20:	dc 01       	movw	r26, r24
    3b22:	cb 01       	movw	r24, r22

00003b24 <eeprom_read_blraw>:
    3b24:	fc 01       	movw	r30, r24
    3b26:	f9 99       	sbic	0x1f, 1	; 31
    3b28:	fe cf       	rjmp	.-4      	; 0x3b26 <eeprom_read_blraw+0x2>
    3b2a:	06 c0       	rjmp	.+12     	; 0x3b38 <eeprom_read_blraw+0x14>
    3b2c:	f2 bd       	out	0x22, r31	; 34
    3b2e:	e1 bd       	out	0x21, r30	; 33
    3b30:	f8 9a       	sbi	0x1f, 0	; 31
    3b32:	31 96       	adiw	r30, 0x01	; 1
    3b34:	00 b4       	in	r0, 0x20	; 32
    3b36:	0d 92       	st	X+, r0
    3b38:	41 50       	subi	r20, 0x01	; 1
    3b3a:	50 40       	sbci	r21, 0x00	; 0
    3b3c:	b8 f7       	brcc	.-18     	; 0x3b2c <eeprom_read_blraw+0x8>
    3b3e:	08 95       	ret

00003b40 <eeprom_write_byte>:
    3b40:	26 2f       	mov	r18, r22

00003b42 <eeprom_write_r18>:
    3b42:	f9 99       	sbic	0x1f, 1	; 31
    3b44:	fe cf       	rjmp	.-4      	; 0x3b42 <eeprom_write_r18>
    3b46:	1f ba       	out	0x1f, r1	; 31
    3b48:	92 bd       	out	0x22, r25	; 34
    3b4a:	81 bd       	out	0x21, r24	; 33
    3b4c:	20 bd       	out	0x20, r18	; 32
    3b4e:	0f b6       	in	r0, 0x3f	; 63
    3b50:	f8 94       	cli
    3b52:	fa 9a       	sbi	0x1f, 2	; 31
    3b54:	f9 9a       	sbi	0x1f, 1	; 31
    3b56:	0f be       	out	0x3f, r0	; 63
    3b58:	01 96       	adiw	r24, 0x01	; 1
    3b5a:	08 95       	ret

00003b5c <_exit>:
    3b5c:	f8 94       	cli

00003b5e <__stop_program>:
    3b5e:	ff cf       	rjmp	.-2      	; 0x3b5e <__stop_program>
