
CarSupport.elf:     file format elf32-avr

Sections:
Idx Name          Size      VMA       LMA       File off  Algn
  0 .data         00000000  00800100  00800100  00002f54  2**0
                  CONTENTS, ALLOC, LOAD, DATA
  1 .text         00002ee0  00000000  00000000  00000074  2**1
                  CONTENTS, ALLOC, LOAD, READONLY, CODE
  2 .bss          000003c0  00800100  00800100  00002f54  2**0
                  ALLOC
  3 .comment      00000030  00000000  00000000  00002f54  2**0
                  CONTENTS, READONLY
  4 .note.gnu.avr.deviceinfo 0000003c  00000000  00000000  00002f84  2**2
                  CONTENTS, READONLY
  5 .debug_aranges 00000398  00000000  00000000  00002fc0  2**0
                  CONTENTS, READONLY, DEBUGGING
  6 .debug_info   00008b3b  00000000  00000000  00003358  2**0
                  CONTENTS, READONLY, DEBUGGING
  7 .debug_abbrev 00001e36  00000000  00000000  0000be93  2**0
                  CONTENTS, READONLY, DEBUGGING
  8 .debug_line   000020d4  00000000  00000000  0000dcc9  2**0
                  CONTENTS, READONLY, DEBUGGING
  9 .debug_frame  00000c54  00000000  00000000  0000fda0  2**2
                  CONTENTS, READONLY, DEBUGGING
 10 .debug_str    0000141c  00000000  00000000  000109f4  2**0
                  CONTENTS, READONLY, DEBUGGING
 11 .debug_loc    00003a0f  00000000  00000000  00011e10  2**0
                  CONTENTS, READONLY, DEBUGGING
 12 .debug_ranges 00000300  00000000  00000000  0001581f  2**0
                  CONTENTS, READONLY, DEBUGGING

Disassembly of section .text:

00000000 <__vectors>:
       0:	0c 94 68 03 	jmp	0x6d0	; 0x6d0 <__ctors_end>
       4:	0c 94 85 03 	jmp	0x70a	; 0x70a <__bad_interrupt>
       8:	0c 94 85 03 	jmp	0x70a	; 0x70a <__bad_interrupt>
       c:	0c 94 85 03 	jmp	0x70a	; 0x70a <__bad_interrupt>
      10:	0c 94 85 03 	jmp	0x70a	; 0x70a <__bad_interrupt>
      14:	0c 94 85 03 	jmp	0x70a	; 0x70a <__bad_interrupt>
      18:	0c 94 85 03 	jmp	0x70a	; 0x70a <__bad_interrupt>
      1c:	0c 94 85 03 	jmp	0x70a	; 0x70a <__bad_interrupt>
      20:	0c 94 85 03 	jmp	0x70a	; 0x70a <__bad_interrupt>
      24:	0c 94 85 03 	jmp	0x70a	; 0x70a <__bad_interrupt>
      28:	0c 94 85 03 	jmp	0x70a	; 0x70a <__bad_interrupt>
      2c:	0c 94 85 03 	jmp	0x70a	; 0x70a <__bad_interrupt>
      30:	0c 94 85 03 	jmp	0x70a	; 0x70a <__bad_interrupt>
      34:	0c 94 85 03 	jmp	0x70a	; 0x70a <__bad_interrupt>
      38:	0c 94 85 03 	jmp	0x70a	; 0x70a <__bad_interrupt>
      3c:	0c 94 85 03 	jmp	0x70a	; 0x70a <__bad_interrupt>
      40:	0c 94 85 03 	jmp	0x70a	; 0x70a <__bad_interrupt>
      44:	0c 94 85 03 	jmp	0x70a	; 0x70a <__bad_interrupt>
      48:	0c 94 85 03 	jmp	0x70a	; 0x70a <__bad_interrupt>
      4c:	0c 94 85 03 	jmp	0x70a	; 0x70a <__bad_interrupt>
      50:	0c 94 85 03 	jmp	0x70a	; 0x70a <__bad_interrupt>
      54:	0c 94 85 03 	jmp	0x70a	; 0x70a <__bad_interrupt>
      58:	0c 94 85 03 	jmp	0x70a	; 0x70a <__bad_interrupt>
      5c:	0c 94 85 03 	jmp	0x70a	; 0x70a <__bad_interrupt>
      60:	0c 94 85 03 	jmp	0x70a	; 0x70a <__bad_interrupt>
      64:	0c 94 85 03 	jmp	0x70a	; 0x70a <__bad_interrupt>

00000068 <__trampolines_end>:
      68:	c0 c0       	rjmp	.+384    	; 0x1ea <__trampolines_end+0x182>
      6a:	e0 a0       	ldd	r14, Z+32	; 0x20
      6c:	a0 a0       	ldd	r10, Z+32	; 0x20
      6e:	90 90 90 90 	lds	r9, 0x9090	; 0x809090 <__bss_end+0x8bd0>
      72:	88 88       	ldd	r8, Y+16	; 0x10
      74:	88 84       	ldd	r8, Y+8	; 0x08
      76:	84 84       	ldd	r8, Z+12	; 0x0c
      78:	84 82       	std	Z+4, r8	; 0x04
      7a:	82 82       	std	Z+2, r8	; 0x02
      7c:	82 81       	ldd	r24, Z+2	; 0x02
      7e:	81 ff       	sbrs	r24, 1
      80:	c0 c0       	rjmp	.+384    	; 0x202 <__trampolines_end+0x19a>
      82:	e0 e0       	ldi	r30, 0x00	; 0
      84:	a0 a0       	ldd	r10, Z+32	; 0x20
      86:	90 90 90 90 	lds	r9, 0x9090	; 0x809090 <__bss_end+0x8bd0>
      8a:	88 88       	ldd	r8, Y+16	; 0x10
      8c:	88 84       	ldd	r8, Y+8	; 0x08
      8e:	84 84       	ldd	r8, Z+12	; 0x0c
      90:	84 82       	std	Z+4, r8	; 0x04
      92:	82 82       	std	Z+2, r8	; 0x02
      94:	82 81       	ldd	r24, Z+2	; 0x02
      96:	81 ff       	sbrs	r24, 1
      98:	c0 c0       	rjmp	.+384    	; 0x21a <__trampolines_end+0x1b2>
      9a:	e0 e0       	ldi	r30, 0x00	; 0
      9c:	e0 a0       	ldd	r14, Z+32	; 0x20
      9e:	90 90 90 90 	lds	r9, 0x9090	; 0x809090 <__bss_end+0x8bd0>
      a2:	88 88       	ldd	r8, Y+16	; 0x10
      a4:	88 84       	ldd	r8, Y+8	; 0x08
      a6:	84 84       	ldd	r8, Z+12	; 0x0c
      a8:	84 82       	std	Z+4, r8	; 0x04
      aa:	82 82       	std	Z+2, r8	; 0x02
      ac:	82 81       	ldd	r24, Z+2	; 0x02
      ae:	81 ff       	sbrs	r24, 1
      b0:	c0 c0       	rjmp	.+384    	; 0x232 <__trampolines_end+0x1ca>
      b2:	e0 e0       	ldi	r30, 0x00	; 0
      b4:	e0 e0       	ldi	r30, 0x00	; 0
      b6:	f0 90 90 90 	lds	r15, 0x9090	; 0x809090 <__bss_end+0x8bd0>
      ba:	88 88       	ldd	r8, Y+16	; 0x10
      bc:	88 84       	ldd	r8, Y+8	; 0x08
      be:	84 84       	ldd	r8, Z+12	; 0x0c
      c0:	84 82       	std	Z+4, r8	; 0x04
      c2:	82 82       	std	Z+2, r8	; 0x02
      c4:	82 81       	ldd	r24, Z+2	; 0x02
      c6:	81 ff       	sbrs	r24, 1
      c8:	c0 c0       	rjmp	.+384    	; 0x24a <_ZL10FontLookup+0x2>
      ca:	e0 e0       	ldi	r30, 0x00	; 0
      cc:	e0 e0       	ldi	r30, 0x00	; 0
      ce:	f0 f0       	brcs	.+60     	; 0x10c <__trampolines_end+0xa4>
      d0:	90 90 88 88 	lds	r9, 0x8888	; 0x808888 <__bss_end+0x83c8>
      d4:	88 84       	ldd	r8, Y+8	; 0x08
      d6:	84 84       	ldd	r8, Z+12	; 0x0c
      d8:	84 82       	std	Z+4, r8	; 0x04
      da:	82 82       	std	Z+2, r8	; 0x02
      dc:	82 81       	ldd	r24, Z+2	; 0x02
      de:	81 ff       	sbrs	r24, 1
      e0:	c0 c0       	rjmp	.+384    	; 0x262 <_ZL10FontLookup+0x1a>
      e2:	e0 e0       	ldi	r30, 0x00	; 0
      e4:	e0 e0       	ldi	r30, 0x00	; 0
      e6:	f0 f0       	brcs	.+60     	; 0x124 <__trampolines_end+0xbc>
      e8:	f0 90 88 88 	lds	r15, 0x8888	; 0x808888 <__bss_end+0x83c8>
      ec:	88 84       	ldd	r8, Y+8	; 0x08
      ee:	84 84       	ldd	r8, Z+12	; 0x0c
      f0:	84 82       	std	Z+4, r8	; 0x04
      f2:	82 82       	std	Z+2, r8	; 0x02
      f4:	82 81       	ldd	r24, Z+2	; 0x02
      f6:	81 ff       	sbrs	r24, 1
      f8:	c0 c0       	rjmp	.+384    	; 0x27a <_ZL10FontLookup+0x32>
      fa:	e0 e0       	ldi	r30, 0x00	; 0
      fc:	e0 e0       	ldi	r30, 0x00	; 0
      fe:	f0 f0       	brcs	.+60     	; 0x13c <__trampolines_end+0xd4>
     100:	f0 f0       	brcs	.+60     	; 0x13e <__trampolines_end+0xd6>
     102:	88 88       	ldd	r8, Y+16	; 0x10
     104:	88 84       	ldd	r8, Y+8	; 0x08
     106:	84 84       	ldd	r8, Z+12	; 0x0c
     108:	84 82       	std	Z+4, r8	; 0x04
     10a:	82 82       	std	Z+2, r8	; 0x02
     10c:	82 81       	ldd	r24, Z+2	; 0x02
     10e:	81 ff       	sbrs	r24, 1
     110:	c0 c0       	rjmp	.+384    	; 0x292 <_ZL10FontLookup+0x4a>
     112:	e0 e0       	ldi	r30, 0x00	; 0
     114:	e0 e0       	ldi	r30, 0x00	; 0
     116:	f0 f0       	brcs	.+60     	; 0x154 <__trampolines_end+0xec>
     118:	f0 f0       	brcs	.+60     	; 0x156 <__trampolines_end+0xee>
     11a:	f8 88       	ldd	r15, Y+16	; 0x10
     11c:	88 84       	ldd	r8, Y+8	; 0x08
     11e:	84 84       	ldd	r8, Z+12	; 0x0c
     120:	84 82       	std	Z+4, r8	; 0x04
     122:	82 82       	std	Z+2, r8	; 0x02
     124:	82 81       	ldd	r24, Z+2	; 0x02
     126:	81 ff       	sbrs	r24, 1
     128:	c0 c0       	rjmp	.+384    	; 0x2aa <_ZL10FontLookup+0x62>
     12a:	e0 e0       	ldi	r30, 0x00	; 0
     12c:	e0 e0       	ldi	r30, 0x00	; 0
     12e:	f0 f0       	brcs	.+60     	; 0x16c <__trampolines_end+0x104>
     130:	f0 f0       	brcs	.+60     	; 0x16e <__trampolines_end+0x106>
     132:	f8 f8       	.word	0xf8f8	; ????
     134:	88 84       	ldd	r8, Y+8	; 0x08
     136:	84 84       	ldd	r8, Z+12	; 0x0c
     138:	84 82       	std	Z+4, r8	; 0x04
     13a:	82 82       	std	Z+2, r8	; 0x02
     13c:	82 81       	ldd	r24, Z+2	; 0x02
     13e:	81 ff       	sbrs	r24, 1
     140:	c0 c0       	rjmp	.+384    	; 0x2c2 <_ZL10FontLookup+0x7a>
     142:	e0 e0       	ldi	r30, 0x00	; 0
     144:	e0 e0       	ldi	r30, 0x00	; 0
     146:	f0 f0       	brcs	.+60     	; 0x184 <__trampolines_end+0x11c>
     148:	f0 f0       	brcs	.+60     	; 0x186 <__trampolines_end+0x11e>
     14a:	f8 f8       	.word	0xf8f8	; ????
     14c:	f8 84       	ldd	r15, Y+8	; 0x08
     14e:	84 84       	ldd	r8, Z+12	; 0x0c
     150:	84 82       	std	Z+4, r8	; 0x04
     152:	82 82       	std	Z+2, r8	; 0x02
     154:	82 81       	ldd	r24, Z+2	; 0x02
     156:	81 ff       	sbrs	r24, 1
     158:	c0 c0       	rjmp	.+384    	; 0x2da <_ZL10FontLookup+0x92>
     15a:	e0 e0       	ldi	r30, 0x00	; 0
     15c:	e0 e0       	ldi	r30, 0x00	; 0
     15e:	f0 f0       	brcs	.+60     	; 0x19c <__trampolines_end+0x134>
     160:	f0 f0       	brcs	.+60     	; 0x19e <__trampolines_end+0x136>
     162:	f8 f8       	.word	0xf8f8	; ????
     164:	f8 fc       	.word	0xfcf8	; ????
     166:	84 84       	ldd	r8, Z+12	; 0x0c
     168:	84 82       	std	Z+4, r8	; 0x04
     16a:	82 82       	std	Z+2, r8	; 0x02
     16c:	82 81       	ldd	r24, Z+2	; 0x02
     16e:	81 ff       	sbrs	r24, 1
     170:	c0 c0       	rjmp	.+384    	; 0x2f2 <_ZL10FontLookup+0xaa>
     172:	e0 e0       	ldi	r30, 0x00	; 0
     174:	e0 e0       	ldi	r30, 0x00	; 0
     176:	f0 f0       	brcs	.+60     	; 0x1b4 <__trampolines_end+0x14c>
     178:	f0 f0       	brcs	.+60     	; 0x1b6 <__trampolines_end+0x14e>
     17a:	f8 f8       	.word	0xf8f8	; ????
     17c:	f8 fc       	.word	0xfcf8	; ????
     17e:	fc 84       	ldd	r15, Y+12	; 0x0c
     180:	84 82       	std	Z+4, r8	; 0x04
     182:	82 82       	std	Z+2, r8	; 0x02
     184:	82 81       	ldd	r24, Z+2	; 0x02
     186:	81 ff       	sbrs	r24, 1
     188:	c0 c0       	rjmp	.+384    	; 0x30a <_ZL10FontLookup+0xc2>
     18a:	e0 e0       	ldi	r30, 0x00	; 0
     18c:	e0 e0       	ldi	r30, 0x00	; 0
     18e:	f0 f0       	brcs	.+60     	; 0x1cc <__trampolines_end+0x164>
     190:	f0 f0       	brcs	.+60     	; 0x1ce <__trampolines_end+0x166>
     192:	f8 f8       	.word	0xf8f8	; ????
     194:	f8 fc       	.word	0xfcf8	; ????
     196:	fc fc       	.word	0xfcfc	; ????
     198:	84 82       	std	Z+4, r8	; 0x04
     19a:	82 82       	std	Z+2, r8	; 0x02
     19c:	82 81       	ldd	r24, Z+2	; 0x02
     19e:	81 ff       	sbrs	r24, 1
     1a0:	c0 c0       	rjmp	.+384    	; 0x322 <_ZL10FontLookup+0xda>
     1a2:	e0 e0       	ldi	r30, 0x00	; 0
     1a4:	e0 e0       	ldi	r30, 0x00	; 0
     1a6:	f0 f0       	brcs	.+60     	; 0x1e4 <__trampolines_end+0x17c>
     1a8:	f0 f0       	brcs	.+60     	; 0x1e6 <__trampolines_end+0x17e>
     1aa:	f8 f8       	.word	0xf8f8	; ????
     1ac:	f8 fc       	.word	0xfcf8	; ????
     1ae:	fc fc       	.word	0xfcfc	; ????
     1b0:	fc 82       	std	Y+4, r15	; 0x04
     1b2:	82 82       	std	Z+2, r8	; 0x02
     1b4:	82 81       	ldd	r24, Z+2	; 0x02
     1b6:	81 ff       	sbrs	r24, 1
     1b8:	c0 c0       	rjmp	.+384    	; 0x33a <_ZL10FontLookup+0xf2>
     1ba:	e0 e0       	ldi	r30, 0x00	; 0
     1bc:	e0 e0       	ldi	r30, 0x00	; 0
     1be:	f0 f0       	brcs	.+60     	; 0x1fc <__trampolines_end+0x194>
     1c0:	f0 f0       	brcs	.+60     	; 0x1fe <__trampolines_end+0x196>
     1c2:	f8 f8       	.word	0xf8f8	; ????
     1c4:	f8 fc       	.word	0xfcf8	; ????
     1c6:	fc fc       	.word	0xfcfc	; ????
     1c8:	fc fe       	.word	0xfefc	; ????
     1ca:	82 82       	std	Z+2, r8	; 0x02
     1cc:	82 81       	ldd	r24, Z+2	; 0x02
     1ce:	81 ff       	sbrs	r24, 1
     1d0:	c0 c0       	rjmp	.+384    	; 0x352 <_ZL10FontLookup+0x10a>
     1d2:	e0 e0       	ldi	r30, 0x00	; 0
     1d4:	e0 e0       	ldi	r30, 0x00	; 0
     1d6:	f0 f0       	brcs	.+60     	; 0x214 <__trampolines_end+0x1ac>
     1d8:	f0 f0       	brcs	.+60     	; 0x216 <__trampolines_end+0x1ae>
     1da:	f8 f8       	.word	0xf8f8	; ????
     1dc:	f8 fc       	.word	0xfcf8	; ????
     1de:	fc fc       	.word	0xfcfc	; ????
     1e0:	fc fe       	.word	0xfefc	; ????
     1e2:	fe 82       	std	Y+6, r15	; 0x06
     1e4:	82 81       	ldd	r24, Z+2	; 0x02
     1e6:	81 ff       	sbrs	r24, 1
     1e8:	c0 c0       	rjmp	.+384    	; 0x36a <_ZL10FontLookup+0x122>
     1ea:	e0 e0       	ldi	r30, 0x00	; 0
     1ec:	e0 e0       	ldi	r30, 0x00	; 0
     1ee:	f0 f0       	brcs	.+60     	; 0x22c <__trampolines_end+0x1c4>
     1f0:	f0 f0       	brcs	.+60     	; 0x22e <__trampolines_end+0x1c6>
     1f2:	f8 f8       	.word	0xf8f8	; ????
     1f4:	f8 fc       	.word	0xfcf8	; ????
     1f6:	fc fc       	.word	0xfcfc	; ????
     1f8:	fc fe       	.word	0xfefc	; ????
     1fa:	fe fe       	.word	0xfefe	; ????
     1fc:	82 81       	ldd	r24, Z+2	; 0x02
     1fe:	81 ff       	sbrs	r24, 1
     200:	c0 c0       	rjmp	.+384    	; 0x382 <_ZL10FontLookup+0x13a>
     202:	e0 e0       	ldi	r30, 0x00	; 0
     204:	e0 e0       	ldi	r30, 0x00	; 0
     206:	f0 f0       	brcs	.+60     	; 0x244 <__trampolines_end+0x1dc>
     208:	f0 f0       	brcs	.+60     	; 0x246 <__trampolines_end+0x1de>
     20a:	f8 f8       	.word	0xf8f8	; ????
     20c:	f8 fc       	.word	0xfcf8	; ????
     20e:	fc fc       	.word	0xfcfc	; ????
     210:	fc fe       	.word	0xfefc	; ????
     212:	fe fe       	.word	0xfefe	; ????
     214:	fe 81       	ldd	r31, Y+6	; 0x06
     216:	81 ff       	sbrs	r24, 1
     218:	c0 c0       	rjmp	.+384    	; 0x39a <_ZL10FontLookup+0x152>
     21a:	e0 e0       	ldi	r30, 0x00	; 0
     21c:	e0 e0       	ldi	r30, 0x00	; 0
     21e:	f0 f0       	brcs	.+60     	; 0x25c <_ZL10FontLookup+0x14>
     220:	f0 f0       	brcs	.+60     	; 0x25e <_ZL10FontLookup+0x16>
     222:	f8 f8       	.word	0xf8f8	; ????
     224:	f8 fc       	.word	0xfcf8	; ????
     226:	fc fc       	.word	0xfcfc	; ????
     228:	fc fe       	.word	0xfefc	; ????
     22a:	fe fe       	.word	0xfefe	; ????
     22c:	fe ff       	.word	0xfffe	; ????
     22e:	81 ff       	sbrs	r24, 1
     230:	c0 c0       	rjmp	.+384    	; 0x3b2 <_ZL10FontLookup+0x16a>
     232:	e0 e0       	ldi	r30, 0x00	; 0
     234:	e0 e0       	ldi	r30, 0x00	; 0
     236:	f0 f0       	brcs	.+60     	; 0x274 <_ZL10FontLookup+0x2c>
     238:	f0 f0       	brcs	.+60     	; 0x276 <_ZL10FontLookup+0x2e>
     23a:	f8 f8       	.word	0xf8f8	; ????
     23c:	f8 fc       	.word	0xfcf8	; ????
     23e:	fc fc       	.word	0xfcfc	; ????
     240:	fc fe       	.word	0xfefc	; ????
     242:	fe fe       	.word	0xfefe	; ????
     244:	fe ff       	.word	0xfffe	; ????
     246:	ff ff       	.word	0xffff	; ????

00000248 <_ZL10FontLookup>:
	...
     250:	5f 00 00 00 00 07 00 07 00 00 14 7f 14 7f 14 00     _...............
     260:	24 2a 7f 2a 12 00 4c 2c 10 68 64 00 36 49 55 22     $*.*..L,.hd.6IU"
     270:	50 00 00 05 03 00 00 00 00 1c 22 41 00 00 00 41     P........."A...A
     280:	22 1c 00 00 14 08 3e 08 14 00 08 08 3e 08 08 00     ".....>.....>...
     290:	00 00 50 30 00 00 10 10 10 10 10 00 00 60 60 00     ..P0.........``.
     2a0:	00 00 20 10 08 04 02 00 3e 51 49 45 3e 00 00 42     .. .....>QIE>..B
     2b0:	7f 40 00 00 42 61 51 49 46 00 21 41 45 4b 31 00     .@..BaQIF.!AEK1.
     2c0:	18 14 12 7f 10 00 27 45 45 45 39 00 3c 4a 49 49     ......'EEE9.<JII
     2d0:	30 00 01 71 09 05 03 00 36 49 49 49 36 00 06 49     0..q....6III6..I
     2e0:	49 29 1e 00 00 36 36 00 00 00 00 56 36 00 00 00     I)...66....V6...
     2f0:	08 14 22 41 00 00 14 14 14 14 14 00 00 41 22 14     .."A.........A".
     300:	08 00 02 01 51 09 06 00 32 49 79 41 3e 00 7e 11     ....Q...2IyA>.~.
     310:	11 11 7e 00 7f 49 49 49 36 00 3e 41 41 41 22 00     ..~..III6.>AAA".
     320:	7f 41 41 22 1c 00 7f 49 49 49 41 00 7f 09 09 09     .AA"...IIIA.....
     330:	01 00 3e 41 49 49 7a 00 7f 08 08 08 7f 00 00 41     ..>AIIz........A
     340:	7f 41 00 00 20 40 41 3f 01 00 7f 08 14 22 41 00     .A.. @A?....."A.
     350:	7f 40 40 40 40 00 7f 02 0c 02 7f 00 7f 04 08 10     .@@@@...........
     360:	7f 00 3e 41 41 41 3e 00 7f 09 09 09 06 00 3e 41     ..>AAA>.......>A
     370:	51 21 5e 00 7f 09 19 29 46 00 46 49 49 49 31 00     Q!^....)F.FIII1.
     380:	01 01 7f 01 01 00 3f 40 40 40 3f 00 1f 20 40 20     ......?@@@?.. @ 
     390:	1f 00 3f 40 38 40 3f 00 63 14 08 14 63 00 07 08     ..?@8@?.c...c...
     3a0:	70 08 07 00 61 51 49 45 43 00 00 7f 41 41 00 00     p...aQIEC...AA..
     3b0:	02 04 08 10 20 00 00 41 41 7f 00 00 04 02 01 02     .... ..AA.......
     3c0:	04 00 40 40 40 40 40 00 00 01 02 04 00 00 20 54     ..@@@@@....... T
     3d0:	54 54 78 00 7f 48 44 44 38 00 38 44 44 44 20 00     TTx..HDD8.8DDD .
     3e0:	38 44 44 48 7f 00 38 54 54 54 18 00 08 7e 09 01     8DDH..8TTT...~..
     3f0:	02 00 0c 52 52 52 3e 00 7f 08 04 04 78 00 00 44     ...RRR>.....x..D
     400:	7d 40 00 00 20 40 44 3d 00 00 7f 10 28 44 00 00     }@.. @D=....(D..
     410:	00 41 7f 40 00 00 7c 04 18 04 78 00 7c 08 04 04     .A.@..|...x.|...
     420:	78 00 38 44 44 44 38 00 7c 14 14 14 08 00 08 14     x.8DDD8.|.......
     430:	14 18 7c 00 7c 08 04 04 08 00 48 54 54 54 20 00     ..|.|.....HTTT .
     440:	04 3f 44 40 20 00 3c 40 40 20 7c 00 1c 20 40 20     .?D@ .<@@ |.. @ 
     450:	1c 00 3c 40 30 40 3c 00 44 28 10 28 44 00 0c 50     ..<@0@<.D(.(D..P
     460:	50 50 3c 00 44 64 54 4c 44 00 00 08 36 41 00 00     PP<.DdTLD...6A..
     470:	00 00 7f 00 00 00 00 41 36 08 00 00 08 04 08 10     .......A6.......
     480:	08 00 ff ff ff ff ff 00 00 00 e0 f0 f8 f8 f8 f8     ................
     490:	f0 e0 00 00 00 00 ff ff ff ff ff ff ff ff 00 00     ................
     4a0:	00 00 07 0f 1f 1f 1f 1f 0f 07 00 00 00 00 e0 10     ................
     4b0:	08 08 08 08 10 e0 00 00 00 00 ff 00 00 00 00 00     ................
     4c0:	00 ff 00 00 00 00 07 08 10 10 10 10 08 07 00 00     ................
     4d0:	40 80 e0 10 08 08 08 08 10 e0 80 40 00 00 ff 42     @..........@...B
     4e0:	24 18 18 24 42 ff 00 00 02 01 07 08 10 10 10 10     $..$B...........
     4f0:	08 07 01 02 00 00 60 50 48 44 44 48 50 60 00 00     ......`PHDDHP`..
     500:	00 00 06 0a 12 22 22 12 0a 06 00 00 00 00 60 70     ....."".......`p
     510:	78 7c 7c 78 70 60 00 00 00 00 06 0e 1e 3e 3e 1e     x||xp`.......>>.
     520:	0e 06 00 00 18 3c 7e e7 00 00 00 00 e7 7e 3c 18     .....<~......~<.
     530:	00 00 20 30 38 1c 1c 38 30 20 00 00 00 00 2a 2a     .. 08..80 ....**
     540:	2a 2a 2a 2a 2a 2a 2a 00 00 00 00 00 00 03 7c 12     *******.......|.
     550:	11 12 7c 00 7f 49 49 49 31 00 7f 49 49 49 36 00     ..|..III1..III6.
     560:	7f 01 01 01 01 00 60 3f 21 3f 60 00 7f 49 49 49     ......`?!?`..III
     570:	41 00 77 08 7f 08 77 00 22 41 49 49 36 00 7f 10     A.w...w."AII6...
     580:	08 04 7f 00 7e 10 09 04 7e 00 7f 08 14 22 41 00     ....~...~...."A.
     590:	40 3e 01 01 7f 00 7f 02 0c 02 7f 00 7f 08 08 08     @>..............
     5a0:	7f 00 3e 41 41 41 3e 00 7f 01 01 01 7f 00 7f 09     ..>AAA>.........
     5b0:	09 09 06 00 3e 41 41 41 22 00 01 01 7f 01 01 00     ....>AAA".......
     5c0:	07 48 48 48 3f 00 0e 11 7f 11 0e 00 63 14 08 14     .HHH?.......c...
     5d0:	63 00 3f 20 20 3f 60 00 07 08 08 08 7f 00 7f 40     c.?  ?`........@
     5e0:	7e 40 7f 00 3f 20 3f 20 7f 00 01 7f 48 48 30 00     ~@..? ? ....HH0.
     5f0:	7f 48 30 00 7f 00 00 7f 48 48 30 00 22 41 49 49     .H0.....HH0."AII
     600:	3e 00 7f 08 3e 41 3e 00 46 29 19 09 7f 00 20 54     >...>A>.F).... T
     610:	54 54 78 00 3c 4a 4a 4a 31 00 7c 54 54 28 00 00     TTx.<JJJ1.|TT(..
     620:	7c 04 04 0c 00 00 60 3c 24 3c 60 00 38 54 54 54     |.....`<$<`.8TTT
     630:	18 00 6c 10 7c 10 6c 00 00 44 54 54 28 00 7c 20     ..l.|.l..DTT(.| 
     640:	10 08 7c 00 7c 21 12 09 7c 00 7c 10 28 44 00 00     ..|.|!..|.|.(D..
     650:	40 38 04 04 7c 00 7c 08 10 08 7c 00 7c 10 10 10     @8..|.|...|.|...
     660:	7c 00 38 44 44 44 38 00 7c 04 04 04 7c 00 7c 14     |.8DDD8.|...|.|.
     670:	14 14 08 00 38 44 44 44 00 00 04 04 7c 04 04 00     ....8DDD....|...
     680:	0c 50 50 50 3c 00 08 14 7c 14 08 00 44 28 10 28     .PPP<...|...D(.(
     690:	44 00 3c 20 20 3c 60 00 0c 10 10 10 7c 00 7c 40     D.<  <`.....|.|@
     6a0:	7c 40 7c 00 3c 20 3c 20 7c 00 04 7c 50 50 20 00     |@|.< < |..|PP .
     6b0:	7c 50 20 00 7c 00 00 7c 50 50 20 00 28 44 54 54     |P .|..|PP .(DTT
     6c0:	38 00 7c 10 38 44 38 00 48 54 34 14 7c 00           8.|.8D8.HT4.|.

000006ce <__ctors_start>:
     6ce:	f9 0f       	add	r31, r25

000006d0 <__ctors_end>:
     6d0:	11 24       	eor	r1, r1
     6d2:	1f be       	out	0x3f, r1	; 63
     6d4:	cf ef       	ldi	r28, 0xFF	; 255
     6d6:	d8 e0       	ldi	r29, 0x08	; 8
     6d8:	de bf       	out	0x3e, r29	; 62
     6da:	cd bf       	out	0x3d, r28	; 61

000006dc <__do_clear_bss>:
     6dc:	24 e0       	ldi	r18, 0x04	; 4
     6de:	a0 e0       	ldi	r26, 0x00	; 0
     6e0:	b1 e0       	ldi	r27, 0x01	; 1
     6e2:	01 c0       	rjmp	.+2      	; 0x6e6 <.do_clear_bss_start>

000006e4 <.do_clear_bss_loop>:
     6e4:	1d 92       	st	X+, r1

000006e6 <.do_clear_bss_start>:
     6e6:	a0 3c       	cpi	r26, 0xC0	; 192
     6e8:	b2 07       	cpc	r27, r18
     6ea:	e1 f7       	brne	.-8      	; 0x6e4 <.do_clear_bss_loop>

000006ec <__do_global_ctors>:
     6ec:	13 e0       	ldi	r17, 0x03	; 3
     6ee:	c8 e6       	ldi	r28, 0x68	; 104
     6f0:	d3 e0       	ldi	r29, 0x03	; 3
     6f2:	04 c0       	rjmp	.+8      	; 0x6fc <__do_global_ctors+0x10>
     6f4:	21 97       	sbiw	r28, 0x01	; 1
     6f6:	fe 01       	movw	r30, r28
     6f8:	0e 94 68 17 	call	0x2ed0	; 0x2ed0 <__tablejump2__>
     6fc:	c7 36       	cpi	r28, 0x67	; 103
     6fe:	d1 07       	cpc	r29, r17
     700:	c9 f7       	brne	.-14     	; 0x6f4 <__do_global_ctors+0x8>
     702:	0e 94 6b 0f 	call	0x1ed6	; 0x1ed6 <main>
     706:	0c 94 6e 17 	jmp	0x2edc	; 0x2edc <_exit>

0000070a <__bad_interrupt>:
     70a:	0c 94 00 00 	jmp	0	; 0x0 <__vectors>

0000070e <_ZN8ActivityC1Ev>:
const int SCREEN_MAIN = 0;
const int SCREEN_MENU = 1;
const int SCREEN_ADJUST = 2;

// default constructor
Activity::Activity()
     70e:	08 95       	ret

00000710 <_ZN8Activity4InitEv>:
{
	
} //Activity

void Activity::Init(){
     710:	cf 93       	push	r28
     712:	df 93       	push	r29
     714:	fc 01       	movw	r30, r24
	
	Step = 9;
     716:	dc 01       	movw	r26, r24
     718:	ae 5a       	subi	r26, 0xAE	; 174
     71a:	bf 4f       	sbci	r27, 0xFF	; 255
     71c:	89 e0       	ldi	r24, 0x09	; 9
     71e:	90 e0       	ldi	r25, 0x00	; 0
     720:	8d 93       	st	X+, r24
     722:	9c 93       	st	X, r25
	
	Steps[0]=0.01;
     724:	8a e0       	ldi	r24, 0x0A	; 10
     726:	97 ed       	ldi	r25, 0xD7	; 215
     728:	a3 e2       	ldi	r26, 0x23	; 35
     72a:	bc e3       	ldi	r27, 0x3C	; 60
     72c:	82 83       	std	Z+2, r24	; 0x02
     72e:	93 83       	std	Z+3, r25	; 0x03
     730:	a4 83       	std	Z+4, r26	; 0x04
     732:	b5 83       	std	Z+5, r27	; 0x05
	Steps[1]=0.02;
     734:	8a e0       	ldi	r24, 0x0A	; 10
     736:	97 ed       	ldi	r25, 0xD7	; 215
     738:	a3 ea       	ldi	r26, 0xA3	; 163
     73a:	bc e3       	ldi	r27, 0x3C	; 60
     73c:	86 83       	std	Z+6, r24	; 0x06
     73e:	97 83       	std	Z+7, r25	; 0x07
     740:	a0 87       	std	Z+8, r26	; 0x08
     742:	b1 87       	std	Z+9, r27	; 0x09
	Steps[2]=0.03;
     744:	8f e8       	ldi	r24, 0x8F	; 143
     746:	92 ec       	ldi	r25, 0xC2	; 194
     748:	a5 ef       	ldi	r26, 0xF5	; 245
     74a:	bc e3       	ldi	r27, 0x3C	; 60
     74c:	82 87       	std	Z+10, r24	; 0x0a
     74e:	93 87       	std	Z+11, r25	; 0x0b
     750:	a4 87       	std	Z+12, r26	; 0x0c
     752:	b5 87       	std	Z+13, r27	; 0x0d
	Steps[3]=0.04;
     754:	8a e0       	ldi	r24, 0x0A	; 10
     756:	97 ed       	ldi	r25, 0xD7	; 215
     758:	a3 e2       	ldi	r26, 0x23	; 35
     75a:	bd e3       	ldi	r27, 0x3D	; 61
     75c:	86 87       	std	Z+14, r24	; 0x0e
     75e:	97 87       	std	Z+15, r25	; 0x0f
     760:	a0 8b       	std	Z+16, r26	; 0x10
     762:	b1 8b       	std	Z+17, r27	; 0x11
	Steps[4]=0.05;
     764:	8d ec       	ldi	r24, 0xCD	; 205
     766:	9c ec       	ldi	r25, 0xCC	; 204
     768:	ac e4       	ldi	r26, 0x4C	; 76
     76a:	bd e3       	ldi	r27, 0x3D	; 61
     76c:	82 8b       	std	Z+18, r24	; 0x12
     76e:	93 8b       	std	Z+19, r25	; 0x13
     770:	a4 8b       	std	Z+20, r26	; 0x14
     772:	b5 8b       	std	Z+21, r27	; 0x15
	Steps[5]=0.06;
     774:	8f e8       	ldi	r24, 0x8F	; 143
     776:	92 ec       	ldi	r25, 0xC2	; 194
     778:	a5 e7       	ldi	r26, 0x75	; 117
     77a:	bd e3       	ldi	r27, 0x3D	; 61
     77c:	86 8b       	std	Z+22, r24	; 0x16
     77e:	97 8b       	std	Z+23, r25	; 0x17
     780:	a0 8f       	std	Z+24, r26	; 0x18
     782:	b1 8f       	std	Z+25, r27	; 0x19
	Steps[6]=0.07;
     784:	89 e2       	ldi	r24, 0x29	; 41
     786:	9c e5       	ldi	r25, 0x5C	; 92
     788:	af e8       	ldi	r26, 0x8F	; 143
     78a:	bd e3       	ldi	r27, 0x3D	; 61
     78c:	82 8f       	std	Z+26, r24	; 0x1a
     78e:	93 8f       	std	Z+27, r25	; 0x1b
     790:	a4 8f       	std	Z+28, r26	; 0x1c
     792:	b5 8f       	std	Z+29, r27	; 0x1d
	Steps[7]=0.08;
     794:	8a e0       	ldi	r24, 0x0A	; 10
     796:	97 ed       	ldi	r25, 0xD7	; 215
     798:	a3 ea       	ldi	r26, 0xA3	; 163
     79a:	bd e3       	ldi	r27, 0x3D	; 61
     79c:	86 8f       	std	Z+30, r24	; 0x1e
     79e:	97 8f       	std	Z+31, r25	; 0x1f
     7a0:	a0 a3       	std	Z+32, r26	; 0x20
     7a2:	b1 a3       	std	Z+33, r27	; 0x21
	Steps[8]=0.09;
     7a4:	8c ee       	ldi	r24, 0xEC	; 236
     7a6:	91 e5       	ldi	r25, 0x51	; 81
     7a8:	a8 eb       	ldi	r26, 0xB8	; 184
     7aa:	bd e3       	ldi	r27, 0x3D	; 61
     7ac:	82 a3       	std	Z+34, r24	; 0x22
     7ae:	93 a3       	std	Z+35, r25	; 0x23
     7b0:	a4 a3       	std	Z+36, r26	; 0x24
     7b2:	b5 a3       	std	Z+37, r27	; 0x25
	Steps[9]=0.10;
     7b4:	8d ec       	ldi	r24, 0xCD	; 205
     7b6:	9c ec       	ldi	r25, 0xCC	; 204
     7b8:	ac ec       	ldi	r26, 0xCC	; 204
     7ba:	bd e3       	ldi	r27, 0x3D	; 61
     7bc:	86 a3       	std	Z+38, r24	; 0x26
     7be:	97 a3       	std	Z+39, r25	; 0x27
     7c0:	a0 a7       	std	Z+40, r26	; 0x28
     7c2:	b1 a7       	std	Z+41, r27	; 0x29
	Steps[10]=0.12;
     7c4:	8f e8       	ldi	r24, 0x8F	; 143
     7c6:	92 ec       	ldi	r25, 0xC2	; 194
     7c8:	a5 ef       	ldi	r26, 0xF5	; 245
     7ca:	bd e3       	ldi	r27, 0x3D	; 61
     7cc:	82 a7       	std	Z+42, r24	; 0x2a
     7ce:	93 a7       	std	Z+43, r25	; 0x2b
     7d0:	a4 a7       	std	Z+44, r26	; 0x2c
     7d2:	b5 a7       	std	Z+45, r27	; 0x2d
	Steps[11]=0.15;
     7d4:	8a e9       	ldi	r24, 0x9A	; 154
     7d6:	99 e9       	ldi	r25, 0x99	; 153
     7d8:	a9 e1       	ldi	r26, 0x19	; 25
     7da:	be e3       	ldi	r27, 0x3E	; 62
     7dc:	86 a7       	std	Z+46, r24	; 0x2e
     7de:	97 a7       	std	Z+47, r25	; 0x2f
     7e0:	a0 ab       	std	Z+48, r26	; 0x30
     7e2:	b1 ab       	std	Z+49, r27	; 0x31
	Steps[12]=0.20;
     7e4:	8d ec       	ldi	r24, 0xCD	; 205
     7e6:	9c ec       	ldi	r25, 0xCC	; 204
     7e8:	ac e4       	ldi	r26, 0x4C	; 76
     7ea:	be e3       	ldi	r27, 0x3E	; 62
     7ec:	82 ab       	std	Z+50, r24	; 0x32
     7ee:	93 ab       	std	Z+51, r25	; 0x33
     7f0:	a4 ab       	std	Z+52, r26	; 0x34
     7f2:	b5 ab       	std	Z+53, r27	; 0x35
	Steps[13]=0.30;
     7f4:	8a e9       	ldi	r24, 0x9A	; 154
     7f6:	99 e9       	ldi	r25, 0x99	; 153
     7f8:	a9 e9       	ldi	r26, 0x99	; 153
     7fa:	be e3       	ldi	r27, 0x3E	; 62
     7fc:	86 ab       	std	Z+54, r24	; 0x36
     7fe:	97 ab       	std	Z+55, r25	; 0x37
     800:	a0 af       	std	Z+56, r26	; 0x38
     802:	b1 af       	std	Z+57, r27	; 0x39
	Steps[14]=0.50;
     804:	80 e0       	ldi	r24, 0x00	; 0
     806:	90 e0       	ldi	r25, 0x00	; 0
     808:	a0 e0       	ldi	r26, 0x00	; 0
     80a:	bf e3       	ldi	r27, 0x3F	; 63
     80c:	82 af       	std	Z+58, r24	; 0x3a
     80e:	93 af       	std	Z+59, r25	; 0x3b
     810:	a4 af       	std	Z+60, r26	; 0x3c
     812:	b5 af       	std	Z+61, r27	; 0x3d
	Steps[15]=0.75;
     814:	df 01       	movw	r26, r30
     816:	de 96       	adiw	r26, 0x3e	; 62
     818:	40 e0       	ldi	r20, 0x00	; 0
     81a:	50 e0       	ldi	r21, 0x00	; 0
     81c:	60 e4       	ldi	r22, 0x40	; 64
     81e:	7f e3       	ldi	r23, 0x3F	; 63
     820:	4d 93       	st	X+, r20
     822:	5d 93       	st	X+, r21
     824:	6d 93       	st	X+, r22
     826:	7c 93       	st	X, r23
     828:	13 97       	sbiw	r26, 0x03	; 3
	Steps[16]=1.00;
     82a:	14 96       	adiw	r26, 0x04	; 4
     82c:	40 e0       	ldi	r20, 0x00	; 0
     82e:	50 e0       	ldi	r21, 0x00	; 0
     830:	60 e8       	ldi	r22, 0x80	; 128
     832:	7f e3       	ldi	r23, 0x3F	; 63
     834:	4d 93       	st	X+, r20
     836:	5d 93       	st	X+, r21
     838:	6d 93       	st	X+, r22
     83a:	7c 93       	st	X, r23
     83c:	13 97       	sbiw	r26, 0x03	; 3
	Steps[17]=1.50;
     83e:	14 96       	adiw	r26, 0x04	; 4
     840:	40 e0       	ldi	r20, 0x00	; 0
     842:	50 e0       	ldi	r21, 0x00	; 0
     844:	60 ec       	ldi	r22, 0xC0	; 192
     846:	7f e3       	ldi	r23, 0x3F	; 63
     848:	4d 93       	st	X+, r20
     84a:	5d 93       	st	X+, r21
     84c:	6d 93       	st	X+, r22
     84e:	7c 93       	st	X, r23
     850:	13 97       	sbiw	r26, 0x03	; 3
	Steps[18]=2.00;
     852:	14 96       	adiw	r26, 0x04	; 4
     854:	40 e0       	ldi	r20, 0x00	; 0
     856:	50 e0       	ldi	r21, 0x00	; 0
     858:	60 e0       	ldi	r22, 0x00	; 0
     85a:	70 e4       	ldi	r23, 0x40	; 64
     85c:	4d 93       	st	X+, r20
     85e:	5d 93       	st	X+, r21
     860:	6d 93       	st	X+, r22
     862:	7c 93       	st	X, r23
     864:	13 97       	sbiw	r26, 0x03	; 3
	Steps[19]=3.00;
     866:	14 96       	adiw	r26, 0x04	; 4
     868:	40 e0       	ldi	r20, 0x00	; 0
     86a:	50 e0       	ldi	r21, 0x00	; 0
     86c:	60 e4       	ldi	r22, 0x40	; 64
     86e:	70 e4       	ldi	r23, 0x40	; 64
     870:	4d 93       	st	X+, r20
     872:	5d 93       	st	X+, r21
     874:	6d 93       	st	X+, r22
     876:	7c 93       	st	X, r23
     878:	13 97       	sbiw	r26, 0x03	; 3
	
	
	Cursor = MENU;
     87a:	16 96       	adiw	r26, 0x06	; 6
     87c:	1d 92       	st	X+, r1
     87e:	1c 92       	st	X, r1
	
	Statment = SCREEN_MAIN;
     880:	11 82       	std	Z+1, r1	; 0x01
     882:	10 82       	st	Z, r1
	//cursors map
	Main_Screen_cursor_pathes[MENU][B_LEFT_] = LEFTUP;
     884:	ef 01       	movw	r28, r30
     886:	c4 5a       	subi	r28, 0xA4	; 164
     888:	df 4f       	sbci	r29, 0xFF	; 255
     88a:	a1 e0       	ldi	r26, 0x01	; 1
     88c:	b0 e0       	ldi	r27, 0x00	; 0
     88e:	b9 83       	std	Y+1, r27	; 0x01
     890:	a8 83       	st	Y, r26
	Main_Screen_cursor_pathes[MENU][B_RIGHT] = RIGHTUP;
     892:	22 96       	adiw	r28, 0x02	; 2
     894:	42 e0       	ldi	r20, 0x02	; 2
     896:	50 e0       	ldi	r21, 0x00	; 0
     898:	59 83       	std	Y+1, r21	; 0x01
     89a:	48 83       	st	Y, r20
	Main_Screen_cursor_pathes[MENU][B_UP___] = MENU;
     89c:	26 97       	sbiw	r28, 0x06	; 6
     89e:	19 82       	std	Y+1, r1	; 0x01
     8a0:	18 82       	st	Y, r1
	Main_Screen_cursor_pathes[MENU][B_DOWN_] = ADJUST;
     8a2:	22 96       	adiw	r28, 0x02	; 2
     8a4:	65 e0       	ldi	r22, 0x05	; 5
     8a6:	70 e0       	ldi	r23, 0x00	; 0
     8a8:	79 83       	std	Y+1, r23	; 0x01
     8aa:	68 83       	st	Y, r22
	Main_Screen_cursor_pathes[MENU][B_OK___] = MENU;
     8ac:	24 97       	sbiw	r28, 0x04	; 4
     8ae:	19 82       	std	Y+1, r1	; 0x01
     8b0:	18 82       	st	Y, r1
	
	Main_Screen_cursor_pathes[LEFTUP][B_LEFT_] = LEFTUP;
     8b2:	62 96       	adiw	r28, 0x12	; 18
     8b4:	b9 83       	std	Y+1, r27	; 0x01
     8b6:	a8 83       	st	Y, r26
	Main_Screen_cursor_pathes[LEFTUP][B_RIGHT] = MENU;
     8b8:	22 96       	adiw	r28, 0x02	; 2
     8ba:	19 82       	std	Y+1, r1	; 0x01
     8bc:	18 82       	st	Y, r1
	Main_Screen_cursor_pathes[LEFTUP][B_UP___] = LEFTUP;
     8be:	26 97       	sbiw	r28, 0x06	; 6
     8c0:	b9 83       	std	Y+1, r27	; 0x01
     8c2:	a8 83       	st	Y, r26
	Main_Screen_cursor_pathes[LEFTUP][B_DOWN_] = LEFTDOWN;
     8c4:	22 96       	adiw	r28, 0x02	; 2
     8c6:	24 e0       	ldi	r18, 0x04	; 4
     8c8:	30 e0       	ldi	r19, 0x00	; 0
     8ca:	39 83       	std	Y+1, r19	; 0x01
     8cc:	28 83       	st	Y, r18
	Main_Screen_cursor_pathes[LEFTUP][B_OK___] = ACTION_WHEEL;
     8ce:	24 97       	sbiw	r28, 0x04	; 4
     8d0:	8a e0       	ldi	r24, 0x0A	; 10
     8d2:	90 e0       	ldi	r25, 0x00	; 0
     8d4:	99 83       	std	Y+1, r25	; 0x01
     8d6:	88 83       	st	Y, r24
	
	Main_Screen_cursor_pathes[LEFTDOWN][B_LEFT_] = LEFTDOWN;
     8d8:	aa 96       	adiw	r28, 0x2a	; 42
     8da:	39 83       	std	Y+1, r19	; 0x01
     8dc:	28 83       	st	Y, r18
	Main_Screen_cursor_pathes[LEFTDOWN][B_RIGHT] = ADJUST;
     8de:	22 96       	adiw	r28, 0x02	; 2
     8e0:	79 83       	std	Y+1, r23	; 0x01
     8e2:	68 83       	st	Y, r22
	Main_Screen_cursor_pathes[LEFTDOWN][B_UP___] = LEFTUP;
     8e4:	26 97       	sbiw	r28, 0x06	; 6
     8e6:	b9 83       	std	Y+1, r27	; 0x01
     8e8:	a8 83       	st	Y, r26
	Main_Screen_cursor_pathes[LEFTDOWN][B_DOWN_] = LEFTDOWN;
     8ea:	df 01       	movw	r26, r30
     8ec:	a6 57       	subi	r26, 0x76	; 118
     8ee:	bf 4f       	sbci	r27, 0xFF	; 255
     8f0:	11 96       	adiw	r26, 0x01	; 1
     8f2:	3c 93       	st	X, r19
     8f4:	2e 93       	st	-X, r18
	Main_Screen_cursor_pathes[LEFTDOWN][B_OK___] = ACTION_WHEEL;
     8f6:	14 97       	sbiw	r26, 0x04	; 4
     8f8:	11 96       	adiw	r26, 0x01	; 1
     8fa:	9c 93       	st	X, r25
     8fc:	8e 93       	st	-X, r24
	
	Main_Screen_cursor_pathes[ADJUST][B_LEFT_] = LEFTDOWN;
     8fe:	52 96       	adiw	r26, 0x12	; 18
     900:	11 96       	adiw	r26, 0x01	; 1
     902:	3c 93       	st	X, r19
     904:	2e 93       	st	-X, r18
	Main_Screen_cursor_pathes[ADJUST][B_RIGHT] = RIGHTDOWN;
     906:	12 96       	adiw	r26, 0x02	; 2
     908:	23 e0       	ldi	r18, 0x03	; 3
     90a:	30 e0       	ldi	r19, 0x00	; 0
     90c:	11 96       	adiw	r26, 0x01	; 1
     90e:	3c 93       	st	X, r19
     910:	2e 93       	st	-X, r18
	Main_Screen_cursor_pathes[ADJUST][B_UP___] = MENU;
     912:	16 97       	sbiw	r26, 0x06	; 6
     914:	11 96       	adiw	r26, 0x01	; 1
     916:	1c 92       	st	X, r1
     918:	1e 92       	st	-X, r1
	Main_Screen_cursor_pathes[ADJUST][B_DOWN_] = ADJUST;
     91a:	12 96       	adiw	r26, 0x02	; 2
     91c:	11 96       	adiw	r26, 0x01	; 1
     91e:	7c 93       	st	X, r23
     920:	6e 93       	st	-X, r22
	Main_Screen_cursor_pathes[ADJUST][B_OK___] = ACTION_ADJUST;
     922:	14 97       	sbiw	r26, 0x04	; 4
     924:	cb e0       	ldi	r28, 0x0B	; 11
     926:	d0 e0       	ldi	r29, 0x00	; 0
     928:	11 96       	adiw	r26, 0x01	; 1
     92a:	dc 93       	st	X, r29
     92c:	ce 93       	st	-X, r28
	
	Main_Screen_cursor_pathes[RIGHTDOWN][B_LEFT_] = ADJUST;
     92e:	52 97       	sbiw	r26, 0x12	; 18
     930:	11 96       	adiw	r26, 0x01	; 1
     932:	7c 93       	st	X, r23
     934:	6e 93       	st	-X, r22
	Main_Screen_cursor_pathes[RIGHTDOWN][B_RIGHT] = RIGHTDOWN;
     936:	12 96       	adiw	r26, 0x02	; 2
     938:	11 96       	adiw	r26, 0x01	; 1
     93a:	3c 93       	st	X, r19
     93c:	2e 93       	st	-X, r18
	Main_Screen_cursor_pathes[RIGHTDOWN][B_UP___] = RIGHTUP;
     93e:	16 97       	sbiw	r26, 0x06	; 6
     940:	11 96       	adiw	r26, 0x01	; 1
     942:	5c 93       	st	X, r21
     944:	4e 93       	st	-X, r20
	Main_Screen_cursor_pathes[RIGHTDOWN][B_DOWN_] = RIGHTDOWN;
     946:	12 96       	adiw	r26, 0x02	; 2
     948:	11 96       	adiw	r26, 0x01	; 1
     94a:	3c 93       	st	X, r19
     94c:	2e 93       	st	-X, r18
	Main_Screen_cursor_pathes[RIGHTDOWN][B_OK___] = ACTION_WHEEL;
     94e:	14 97       	sbiw	r26, 0x04	; 4
     950:	11 96       	adiw	r26, 0x01	; 1
     952:	9c 93       	st	X, r25
     954:	8e 93       	st	-X, r24
	
	Main_Screen_cursor_pathes[RIGHTUP][B_LEFT_] = MENU;
     956:	16 97       	sbiw	r26, 0x06	; 6
     958:	11 96       	adiw	r26, 0x01	; 1
     95a:	1c 92       	st	X, r1
     95c:	1e 92       	st	-X, r1
	Main_Screen_cursor_pathes[RIGHTUP][B_RIGHT] = RIGHTUP;
     95e:	12 96       	adiw	r26, 0x02	; 2
     960:	11 96       	adiw	r26, 0x01	; 1
     962:	5c 93       	st	X, r21
     964:	4e 93       	st	-X, r20
	Main_Screen_cursor_pathes[RIGHTUP][B_UP___] = RIGHTUP;
     966:	16 97       	sbiw	r26, 0x06	; 6
     968:	11 96       	adiw	r26, 0x01	; 1
     96a:	5c 93       	st	X, r21
     96c:	4e 93       	st	-X, r20
	Main_Screen_cursor_pathes[RIGHTUP][B_DOWN_] = RIGHTDOWN;
     96e:	12 96       	adiw	r26, 0x02	; 2
     970:	2d 93       	st	X+, r18
     972:	3c 93       	st	X, r19
	Main_Screen_cursor_pathes[RIGHTUP][B_OK___] = ACTION_WHEEL;
     974:	e2 59       	subi	r30, 0x92	; 146
     976:	ff 4f       	sbci	r31, 0xFF	; 255
     978:	91 83       	std	Z+1, r25	; 0x01
     97a:	80 83       	st	Z, r24
}
     97c:	df 91       	pop	r29
     97e:	cf 91       	pop	r28
     980:	08 95       	ret

00000982 <_ZN8Activity11SelectWheelER7Carrage>:
		return true;
}


void Activity::SelectWheel(Carrage &carrage){
	switch(Cursor){
     982:	8c 5a       	subi	r24, 0xAC	; 172
     984:	9f 4f       	sbci	r25, 0xFF	; 255
     986:	fc 01       	movw	r30, r24
     988:	80 81       	ld	r24, Z
     98a:	91 81       	ldd	r25, Z+1	; 0x01
     98c:	82 30       	cpi	r24, 0x02	; 2
     98e:	91 05       	cpc	r25, r1
     990:	71 f0       	breq	.+28     	; 0x9ae <_ZN8Activity11SelectWheelER7Carrage+0x2c>
     992:	1c f4       	brge	.+6      	; 0x99a <_ZN8Activity11SelectWheelER7Carrage+0x18>
     994:	01 97       	sbiw	r24, 0x01	; 1
     996:	39 f0       	breq	.+14     	; 0x9a6 <_ZN8Activity11SelectWheelER7Carrage+0x24>
     998:	08 95       	ret
     99a:	83 30       	cpi	r24, 0x03	; 3
     99c:	91 05       	cpc	r25, r1
     99e:	61 f0       	breq	.+24     	; 0x9b8 <_ZN8Activity11SelectWheelER7Carrage+0x36>
     9a0:	04 97       	sbiw	r24, 0x04	; 4
     9a2:	79 f0       	breq	.+30     	; 0x9c2 <_ZN8Activity11SelectWheelER7Carrage+0x40>
     9a4:	08 95       	ret
		case(LEFTUP): carrage.Wheel_1.Select(); break;
     9a6:	cb 01       	movw	r24, r22
     9a8:	0e 94 3f 15 	call	0x2a7e	; 0x2a7e <_ZN5Wheel6SelectEv>
     9ac:	08 95       	ret
		case(RIGHTUP): carrage.Wheel_2.Select(); break;
     9ae:	cb 01       	movw	r24, r22
     9b0:	4a 96       	adiw	r24, 0x1a	; 26
     9b2:	0e 94 3f 15 	call	0x2a7e	; 0x2a7e <_ZN5Wheel6SelectEv>
     9b6:	08 95       	ret
		case(RIGHTDOWN): carrage.Wheel_3.Select(); break;
     9b8:	cb 01       	movw	r24, r22
     9ba:	c4 96       	adiw	r24, 0x34	; 52
     9bc:	0e 94 3f 15 	call	0x2a7e	; 0x2a7e <_ZN5Wheel6SelectEv>
     9c0:	08 95       	ret
		case(LEFTDOWN): carrage.Wheel_4.Select(); break;	
     9c2:	cb 01       	movw	r24, r22
     9c4:	82 5b       	subi	r24, 0xB2	; 178
     9c6:	9f 4f       	sbci	r25, 0xFF	; 255
     9c8:	0e 94 3f 15 	call	0x2a7e	; 0x2a7e <_ZN5Wheel6SelectEv>
     9cc:	08 95       	ret

000009ce <_ZN8Activity16Main_Screen_MoveE5PanelR7Carrage>:
		case(SCREEN_MENU):;break;
		case(SCREEN_ADJUST):Adjusting_Carrage(panel,carrage);break;
	}
}

bool Activity::Main_Screen_Move(Panel panel, Carrage &carrage){
     9ce:	6f 92       	push	r6
     9d0:	7f 92       	push	r7
     9d2:	8f 92       	push	r8
     9d4:	9f 92       	push	r9
     9d6:	af 92       	push	r10
     9d8:	bf 92       	push	r11
     9da:	cf 92       	push	r12
     9dc:	df 92       	push	r13
     9de:	ef 92       	push	r14
     9e0:	ff 92       	push	r15
     9e2:	0f 93       	push	r16
     9e4:	1f 93       	push	r17
     9e6:	cf 93       	push	r28
     9e8:	df 93       	push	r29
     9ea:	cd b7       	in	r28, 0x3d	; 61
     9ec:	de b7       	in	r29, 0x3e	; 62
     9ee:	2f 97       	sbiw	r28, 0x0f	; 15
     9f0:	0f b6       	in	r0, 0x3f	; 63
     9f2:	f8 94       	cli
     9f4:	de bf       	out	0x3e, r29	; 62
     9f6:	0f be       	out	0x3f, r0	; 63
     9f8:	cd bf       	out	0x3d, r28	; 61
     9fa:	3c 01       	movw	r6, r24
     9fc:	89 82       	std	Y+1, r8	; 0x01
     9fe:	9a 82       	std	Y+2, r9	; 0x02
     a00:	ab 82       	std	Y+3, r10	; 0x03
     a02:	bc 82       	std	Y+4, r11	; 0x04
     a04:	cd 82       	std	Y+5, r12	; 0x05
     a06:	de 82       	std	Y+6, r13	; 0x06
     a08:	ef 82       	std	Y+7, r14	; 0x07
     a0a:	f8 86       	std	Y+8, r15	; 0x08
     a0c:	09 87       	std	Y+9, r16	; 0x09
     a0e:	1a 87       	std	Y+10, r17	; 0x0a
     a10:	2b 87       	std	Y+11, r18	; 0x0b
     a12:	3c 87       	std	Y+12, r19	; 0x0c
     a14:	4d 87       	std	Y+13, r20	; 0x0d
     a16:	5e 87       	std	Y+14, r21	; 0x0e
     a18:	6f 87       	std	Y+15, r22	; 0x0f
	
		int move = panel.Pressed(10);
     a1a:	6a e0       	ldi	r22, 0x0A	; 10
     a1c:	70 e0       	ldi	r23, 0x00	; 0
     a1e:	ce 01       	movw	r24, r28
     a20:	01 96       	adiw	r24, 0x01	; 1
     a22:	0e 94 4c 13 	call	0x2698	; 0x2698 <_ZN5Panel7PressedEi>
		int next;
		
		if (move == B_NOTHING ){return false;}		
     a26:	8f 3f       	cpi	r24, 0xFF	; 255
     a28:	2f ef       	ldi	r18, 0xFF	; 255
     a2a:	92 07       	cpc	r25, r18
     a2c:	b1 f1       	breq	.+108    	; 0xa9a <_ZN8Activity16Main_Screen_MoveE5PanelR7Carrage+0xcc>
		next = Main_Screen_cursor_pathes[Cursor][move];
     a2e:	f3 01       	movw	r30, r6
     a30:	ec 5a       	subi	r30, 0xAC	; 172
     a32:	ff 4f       	sbci	r31, 0xFF	; 255
     a34:	01 90       	ld	r0, Z+
     a36:	f0 81       	ld	r31, Z
     a38:	e0 2d       	mov	r30, r0
     a3a:	9f 01       	movw	r18, r30
     a3c:	22 0f       	add	r18, r18
     a3e:	33 1f       	adc	r19, r19
     a40:	e2 0f       	add	r30, r18
     a42:	f3 1f       	adc	r31, r19
     a44:	ee 0f       	add	r30, r30
     a46:	ff 1f       	adc	r31, r31
     a48:	e8 0f       	add	r30, r24
     a4a:	f9 1f       	adc	r31, r25
     a4c:	bb 96       	adiw	r30, 0x2b	; 43
     a4e:	ee 0f       	add	r30, r30
     a50:	ff 1f       	adc	r31, r31
     a52:	e6 0d       	add	r30, r6
     a54:	f7 1d       	adc	r31, r7
     a56:	80 81       	ld	r24, Z
     a58:	91 81       	ldd	r25, Z+1	; 0x01
		switch(next){
     a5a:	8a 30       	cpi	r24, 0x0A	; 10
     a5c:	91 05       	cpc	r25, r1
     a5e:	21 f0       	breq	.+8      	; 0xa68 <_ZN8Activity16Main_Screen_MoveE5PanelR7Carrage+0x9a>
     a60:	8b 30       	cpi	r24, 0x0B	; 11
     a62:	91 05       	cpc	r25, r1
     a64:	41 f0       	breq	.+16     	; 0xa76 <_ZN8Activity16Main_Screen_MoveE5PanelR7Carrage+0xa8>
     a66:	12 c0       	rjmp	.+36     	; 0xa8c <_ZN8Activity16Main_Screen_MoveE5PanelR7Carrage+0xbe>
			case (ACTION_WHEEL):SelectWheel(carrage);break;
     a68:	68 a1       	ldd	r22, Y+32	; 0x20
     a6a:	79 a1       	ldd	r23, Y+33	; 0x21
     a6c:	c3 01       	movw	r24, r6
     a6e:	0e 94 c1 04 	call	0x982	; 0x982 <_ZN8Activity11SelectWheelER7Carrage>
			case (ACTION_ADJUST):Statment = SCREEN_ADJUST; carrage.beforeAdjast() ;break;
			default: Cursor = next;break;
		}
		return true;
     a72:	81 e0       	ldi	r24, 0x01	; 1
		int next;
		
		if (move == B_NOTHING ){return false;}		
		next = Main_Screen_cursor_pathes[Cursor][move];
		switch(next){
			case (ACTION_WHEEL):SelectWheel(carrage);break;
     a74:	13 c0       	rjmp	.+38     	; 0xa9c <_ZN8Activity16Main_Screen_MoveE5PanelR7Carrage+0xce>
			case (ACTION_ADJUST):Statment = SCREEN_ADJUST; carrage.beforeAdjast() ;break;
     a76:	82 e0       	ldi	r24, 0x02	; 2
     a78:	90 e0       	ldi	r25, 0x00	; 0
     a7a:	f3 01       	movw	r30, r6
     a7c:	91 83       	std	Z+1, r25	; 0x01
     a7e:	80 83       	st	Z, r24
     a80:	88 a1       	ldd	r24, Y+32	; 0x20
     a82:	99 a1       	ldd	r25, Y+33	; 0x21
     a84:	0e 94 39 07 	call	0xe72	; 0xe72 <_ZN7Carrage12beforeAdjastEv>
			default: Cursor = next;break;
		}
		return true;
     a88:	81 e0       	ldi	r24, 0x01	; 1
		
		if (move == B_NOTHING ){return false;}		
		next = Main_Screen_cursor_pathes[Cursor][move];
		switch(next){
			case (ACTION_WHEEL):SelectWheel(carrage);break;
			case (ACTION_ADJUST):Statment = SCREEN_ADJUST; carrage.beforeAdjast() ;break;
     a8a:	08 c0       	rjmp	.+16     	; 0xa9c <_ZN8Activity16Main_Screen_MoveE5PanelR7Carrage+0xce>
			default: Cursor = next;break;
     a8c:	f3 01       	movw	r30, r6
     a8e:	ec 5a       	subi	r30, 0xAC	; 172
     a90:	ff 4f       	sbci	r31, 0xFF	; 255
     a92:	91 83       	std	Z+1, r25	; 0x01
     a94:	80 83       	st	Z, r24
		}
		return true;
     a96:	81 e0       	ldi	r24, 0x01	; 1
		if (move == B_NOTHING ){return false;}		
		next = Main_Screen_cursor_pathes[Cursor][move];
		switch(next){
			case (ACTION_WHEEL):SelectWheel(carrage);break;
			case (ACTION_ADJUST):Statment = SCREEN_ADJUST; carrage.beforeAdjast() ;break;
			default: Cursor = next;break;
     a98:	01 c0       	rjmp	.+2      	; 0xa9c <_ZN8Activity16Main_Screen_MoveE5PanelR7Carrage+0xce>
bool Activity::Main_Screen_Move(Panel panel, Carrage &carrage){
	
		int move = panel.Pressed(10);
		int next;
		
		if (move == B_NOTHING ){return false;}		
     a9a:	80 e0       	ldi	r24, 0x00	; 0
			case (ACTION_WHEEL):SelectWheel(carrage);break;
			case (ACTION_ADJUST):Statment = SCREEN_ADJUST; carrage.beforeAdjast() ;break;
			default: Cursor = next;break;
		}
		return true;
}
     a9c:	2f 96       	adiw	r28, 0x0f	; 15
     a9e:	0f b6       	in	r0, 0x3f	; 63
     aa0:	f8 94       	cli
     aa2:	de bf       	out	0x3e, r29	; 62
     aa4:	0f be       	out	0x3f, r0	; 63
     aa6:	cd bf       	out	0x3d, r28	; 61
     aa8:	df 91       	pop	r29
     aaa:	cf 91       	pop	r28
     aac:	1f 91       	pop	r17
     aae:	0f 91       	pop	r16
     ab0:	ff 90       	pop	r15
     ab2:	ef 90       	pop	r14
     ab4:	df 90       	pop	r13
     ab6:	cf 90       	pop	r12
     ab8:	bf 90       	pop	r11
     aba:	af 90       	pop	r10
     abc:	9f 90       	pop	r9
     abe:	8f 90       	pop	r8
     ac0:	7f 90       	pop	r7
     ac2:	6f 90       	pop	r6
     ac4:	08 95       	ret

00000ac6 <_ZN8Activity17Adjusting_CarrageE5PanelR7Carrage>:
		case(RIGHTDOWN): carrage.Wheel_3.Select(); break;
		case(LEFTDOWN): carrage.Wheel_4.Select(); break;	
	}
}

bool Activity::Adjusting_Carrage(Panel panel, Carrage &carrage){
     ac6:	6f 92       	push	r6
     ac8:	7f 92       	push	r7
     aca:	8f 92       	push	r8
     acc:	9f 92       	push	r9
     ace:	af 92       	push	r10
     ad0:	bf 92       	push	r11
     ad2:	cf 92       	push	r12
     ad4:	df 92       	push	r13
     ad6:	ef 92       	push	r14
     ad8:	ff 92       	push	r15
     ada:	0f 93       	push	r16
     adc:	1f 93       	push	r17
     ade:	cf 93       	push	r28
     ae0:	df 93       	push	r29
     ae2:	cd b7       	in	r28, 0x3d	; 61
     ae4:	de b7       	in	r29, 0x3e	; 62
     ae6:	2f 97       	sbiw	r28, 0x0f	; 15
     ae8:	0f b6       	in	r0, 0x3f	; 63
     aea:	f8 94       	cli
     aec:	de bf       	out	0x3e, r29	; 62
     aee:	0f be       	out	0x3f, r0	; 63
     af0:	cd bf       	out	0x3d, r28	; 61
     af2:	3c 01       	movw	r6, r24
     af4:	89 82       	std	Y+1, r8	; 0x01
     af6:	9a 82       	std	Y+2, r9	; 0x02
     af8:	ab 82       	std	Y+3, r10	; 0x03
     afa:	bc 82       	std	Y+4, r11	; 0x04
     afc:	cd 82       	std	Y+5, r12	; 0x05
     afe:	de 82       	std	Y+6, r13	; 0x06
     b00:	ef 82       	std	Y+7, r14	; 0x07
     b02:	f8 86       	std	Y+8, r15	; 0x08
     b04:	09 87       	std	Y+9, r16	; 0x09
     b06:	1a 87       	std	Y+10, r17	; 0x0a
     b08:	2b 87       	std	Y+11, r18	; 0x0b
     b0a:	3c 87       	std	Y+12, r19	; 0x0c
     b0c:	4d 87       	std	Y+13, r20	; 0x0d
     b0e:	5e 87       	std	Y+14, r21	; 0x0e
     b10:	6f 87       	std	Y+15, r22	; 0x0f
		int pressed = panel.Pressed(10);
     b12:	6a e0       	ldi	r22, 0x0A	; 10
     b14:	70 e0       	ldi	r23, 0x00	; 0
     b16:	ce 01       	movw	r24, r28
     b18:	01 96       	adiw	r24, 0x01	; 1
     b1a:	0e 94 4c 13 	call	0x2698	; 0x2698 <_ZN5Panel7PressedEi>
		if (pressed == B_NOTHING ){return false;}
     b1e:	8f 3f       	cpi	r24, 0xFF	; 255
     b20:	2f ef       	ldi	r18, 0xFF	; 255
     b22:	92 07       	cpc	r25, r18
     b24:	11 f4       	brne	.+4      	; 0xb2a <_ZN8Activity17Adjusting_CarrageE5PanelR7Carrage+0x64>
     b26:	80 e0       	ldi	r24, 0x00	; 0
     b28:	62 c0       	rjmp	.+196    	; 0xbee <_ZN8Activity17Adjusting_CarrageE5PanelR7Carrage+0x128>
		switch(pressed){
     b2a:	82 30       	cpi	r24, 0x02	; 2
     b2c:	91 05       	cpc	r25, r1
     b2e:	29 f1       	breq	.+74     	; 0xb7a <_ZN8Activity17Adjusting_CarrageE5PanelR7Carrage+0xb4>
     b30:	2c f4       	brge	.+10     	; 0xb3c <_ZN8Activity17Adjusting_CarrageE5PanelR7Carrage+0x76>
     b32:	00 97       	sbiw	r24, 0x00	; 0
     b34:	49 f0       	breq	.+18     	; 0xb48 <_ZN8Activity17Adjusting_CarrageE5PanelR7Carrage+0x82>
     b36:	01 97       	sbiw	r24, 0x01	; 1
     b38:	59 f0       	breq	.+22     	; 0xb50 <_ZN8Activity17Adjusting_CarrageE5PanelR7Carrage+0x8a>
     b3a:	45 c0       	rjmp	.+138    	; 0xbc6 <_ZN8Activity17Adjusting_CarrageE5PanelR7Carrage+0x100>
     b3c:	83 30       	cpi	r24, 0x03	; 3
     b3e:	91 05       	cpc	r25, r1
     b40:	89 f1       	breq	.+98     	; 0xba4 <_ZN8Activity17Adjusting_CarrageE5PanelR7Carrage+0xde>
     b42:	04 97       	sbiw	r24, 0x04	; 4
     b44:	c1 f1       	breq	.+112    	; 0xbb6 <_ZN8Activity17Adjusting_CarrageE5PanelR7Carrage+0xf0>
     b46:	3f c0       	rjmp	.+126    	; 0xbc6 <_ZN8Activity17Adjusting_CarrageE5PanelR7Carrage+0x100>
			case(B_OK___):Statment = SCREEN_MAIN; break;
     b48:	f3 01       	movw	r30, r6
     b4a:	11 82       	std	Z+1, r1	; 0x01
     b4c:	10 82       	st	Z, r1
     b4e:	3b c0       	rjmp	.+118    	; 0xbc6 <_ZN8Activity17Adjusting_CarrageE5PanelR7Carrage+0x100>
			case(B_UP___):carrage.Up(Steps[Step]); break;
     b50:	f3 01       	movw	r30, r6
     b52:	ee 5a       	subi	r30, 0xAE	; 174
     b54:	ff 4f       	sbci	r31, 0xFF	; 255
     b56:	01 90       	ld	r0, Z+
     b58:	f0 81       	ld	r31, Z
     b5a:	e0 2d       	mov	r30, r0
     b5c:	ee 0f       	add	r30, r30
     b5e:	ff 1f       	adc	r31, r31
     b60:	ee 0f       	add	r30, r30
     b62:	ff 1f       	adc	r31, r31
     b64:	e6 0d       	add	r30, r6
     b66:	f7 1d       	adc	r31, r7
     b68:	42 81       	ldd	r20, Z+2	; 0x02
     b6a:	53 81       	ldd	r21, Z+3	; 0x03
     b6c:	64 81       	ldd	r22, Z+4	; 0x04
     b6e:	75 81       	ldd	r23, Z+5	; 0x05
     b70:	88 a1       	ldd	r24, Y+32	; 0x20
     b72:	99 a1       	ldd	r25, Y+33	; 0x21
     b74:	0e 94 89 0b 	call	0x1712	; 0x1712 <_ZN7Carrage2UpEf>
     b78:	26 c0       	rjmp	.+76     	; 0xbc6 <_ZN8Activity17Adjusting_CarrageE5PanelR7Carrage+0x100>
			case(B_DOWN_):carrage.Down(Steps[Step]); break;
     b7a:	f3 01       	movw	r30, r6
     b7c:	ee 5a       	subi	r30, 0xAE	; 174
     b7e:	ff 4f       	sbci	r31, 0xFF	; 255
     b80:	01 90       	ld	r0, Z+
     b82:	f0 81       	ld	r31, Z
     b84:	e0 2d       	mov	r30, r0
     b86:	ee 0f       	add	r30, r30
     b88:	ff 1f       	adc	r31, r31
     b8a:	ee 0f       	add	r30, r30
     b8c:	ff 1f       	adc	r31, r31
     b8e:	e6 0d       	add	r30, r6
     b90:	f7 1d       	adc	r31, r7
     b92:	42 81       	ldd	r20, Z+2	; 0x02
     b94:	53 81       	ldd	r21, Z+3	; 0x03
     b96:	64 81       	ldd	r22, Z+4	; 0x04
     b98:	75 81       	ldd	r23, Z+5	; 0x05
     b9a:	88 a1       	ldd	r24, Y+32	; 0x20
     b9c:	99 a1       	ldd	r25, Y+33	; 0x21
     b9e:	0e 94 b1 0b 	call	0x1762	; 0x1762 <_ZN7Carrage4DownEf>
     ba2:	11 c0       	rjmp	.+34     	; 0xbc6 <_ZN8Activity17Adjusting_CarrageE5PanelR7Carrage+0x100>
			case(B_LEFT_):Step--; break;
     ba4:	f3 01       	movw	r30, r6
     ba6:	ee 5a       	subi	r30, 0xAE	; 174
     ba8:	ff 4f       	sbci	r31, 0xFF	; 255
     baa:	80 81       	ld	r24, Z
     bac:	91 81       	ldd	r25, Z+1	; 0x01
     bae:	01 97       	sbiw	r24, 0x01	; 1
     bb0:	91 83       	std	Z+1, r25	; 0x01
     bb2:	80 83       	st	Z, r24
     bb4:	08 c0       	rjmp	.+16     	; 0xbc6 <_ZN8Activity17Adjusting_CarrageE5PanelR7Carrage+0x100>
			case(B_RIGHT):Step++; break;
     bb6:	f3 01       	movw	r30, r6
     bb8:	ee 5a       	subi	r30, 0xAE	; 174
     bba:	ff 4f       	sbci	r31, 0xFF	; 255
     bbc:	80 81       	ld	r24, Z
     bbe:	91 81       	ldd	r25, Z+1	; 0x01
     bc0:	01 96       	adiw	r24, 0x01	; 1
     bc2:	91 83       	std	Z+1, r25	; 0x01
     bc4:	80 83       	st	Z, r24
		}
		if (Step <= 0){Step=0;}
     bc6:	f3 01       	movw	r30, r6
     bc8:	ee 5a       	subi	r30, 0xAE	; 174
     bca:	ff 4f       	sbci	r31, 0xFF	; 255
     bcc:	80 81       	ld	r24, Z
     bce:	91 81       	ldd	r25, Z+1	; 0x01
     bd0:	18 16       	cp	r1, r24
     bd2:	19 06       	cpc	r1, r25
     bd4:	1c f0       	brlt	.+6      	; 0xbdc <_ZN8Activity17Adjusting_CarrageE5PanelR7Carrage+0x116>
     bd6:	11 82       	std	Z+1, r1	; 0x01
     bd8:	10 82       	st	Z, r1
     bda:	09 c0       	rjmp	.+18     	; 0xbee <_ZN8Activity17Adjusting_CarrageE5PanelR7Carrage+0x128>
		if (Step >= 19){Step=19;}
     bdc:	43 97       	sbiw	r24, 0x13	; 19
     bde:	3c f0       	brlt	.+14     	; 0xbee <_ZN8Activity17Adjusting_CarrageE5PanelR7Carrage+0x128>
     be0:	f3 01       	movw	r30, r6
     be2:	ee 5a       	subi	r30, 0xAE	; 174
     be4:	ff 4f       	sbci	r31, 0xFF	; 255
     be6:	83 e1       	ldi	r24, 0x13	; 19
     be8:	90 e0       	ldi	r25, 0x00	; 0
     bea:	91 83       	std	Z+1, r25	; 0x01
     bec:	80 83       	st	Z, r24
}
     bee:	2f 96       	adiw	r28, 0x0f	; 15
     bf0:	0f b6       	in	r0, 0x3f	; 63
     bf2:	f8 94       	cli
     bf4:	de bf       	out	0x3e, r29	; 62
     bf6:	0f be       	out	0x3f, r0	; 63
     bf8:	cd bf       	out	0x3d, r28	; 61
     bfa:	df 91       	pop	r29
     bfc:	cf 91       	pop	r28
     bfe:	1f 91       	pop	r17
     c00:	0f 91       	pop	r16
     c02:	ff 90       	pop	r15
     c04:	ef 90       	pop	r14
     c06:	df 90       	pop	r13
     c08:	cf 90       	pop	r12
     c0a:	bf 90       	pop	r11
     c0c:	af 90       	pop	r10
     c0e:	9f 90       	pop	r9
     c10:	8f 90       	pop	r8
     c12:	7f 90       	pop	r7
     c14:	6f 90       	pop	r6
     c16:	08 95       	ret

00000c18 <_ZN8Activity13Cursor_ActionE5PanelR7Carrage>:
	Main_Screen_cursor_pathes[RIGHTUP][B_UP___] = RIGHTUP;
	Main_Screen_cursor_pathes[RIGHTUP][B_DOWN_] = RIGHTDOWN;
	Main_Screen_cursor_pathes[RIGHTUP][B_OK___] = ACTION_WHEEL;
}

bool Activity::Cursor_Action(Panel panel, Carrage &carrage){
     c18:	8f 92       	push	r8
     c1a:	9f 92       	push	r9
     c1c:	af 92       	push	r10
     c1e:	bf 92       	push	r11
     c20:	cf 92       	push	r12
     c22:	df 92       	push	r13
     c24:	ef 92       	push	r14
     c26:	ff 92       	push	r15
     c28:	0f 93       	push	r16
     c2a:	1f 93       	push	r17
     c2c:	cf 93       	push	r28
     c2e:	df 93       	push	r29
     c30:	cd b7       	in	r28, 0x3d	; 61
     c32:	de b7       	in	r29, 0x3e	; 62
     c34:	2f 97       	sbiw	r28, 0x0f	; 15
     c36:	0f b6       	in	r0, 0x3f	; 63
     c38:	f8 94       	cli
     c3a:	de bf       	out	0x3e, r29	; 62
     c3c:	0f be       	out	0x3f, r0	; 63
     c3e:	cd bf       	out	0x3d, r28	; 61
     c40:	89 82       	std	Y+1, r8	; 0x01
     c42:	9a 82       	std	Y+2, r9	; 0x02
     c44:	ab 82       	std	Y+3, r10	; 0x03
     c46:	bc 82       	std	Y+4, r11	; 0x04
     c48:	cd 82       	std	Y+5, r12	; 0x05
     c4a:	de 82       	std	Y+6, r13	; 0x06
     c4c:	ef 82       	std	Y+7, r14	; 0x07
     c4e:	f8 86       	std	Y+8, r15	; 0x08
     c50:	09 87       	std	Y+9, r16	; 0x09
     c52:	1a 87       	std	Y+10, r17	; 0x0a
     c54:	2b 87       	std	Y+11, r18	; 0x0b
     c56:	3c 87       	std	Y+12, r19	; 0x0c
     c58:	4d 87       	std	Y+13, r20	; 0x0d
     c5a:	5e 87       	std	Y+14, r21	; 0x0e
     c5c:	6f 87       	std	Y+15, r22	; 0x0f
     c5e:	4e 8d       	ldd	r20, Y+30	; 0x1e
     c60:	5f 8d       	ldd	r21, Y+31	; 0x1f
	switch(Statment){
     c62:	fc 01       	movw	r30, r24
     c64:	20 81       	ld	r18, Z
     c66:	31 81       	ldd	r19, Z+1	; 0x01
     c68:	21 15       	cp	r18, r1
     c6a:	31 05       	cpc	r19, r1
     c6c:	21 f0       	breq	.+8      	; 0xc76 <_ZN8Activity13Cursor_ActionE5PanelR7Carrage+0x5e>
     c6e:	22 30       	cpi	r18, 0x02	; 2
     c70:	31 05       	cpc	r19, r1
     c72:	b9 f0       	breq	.+46     	; 0xca2 <_ZN8Activity13Cursor_ActionE5PanelR7Carrage+0x8a>
     c74:	2b c0       	rjmp	.+86     	; 0xccc <_ZN8Activity13Cursor_ActionE5PanelR7Carrage+0xb4>
		case(SCREEN_MAIN):Main_Screen_Move(panel,carrage);break;
     c76:	5f 93       	push	r21
     c78:	4f 93       	push	r20
     c7a:	89 80       	ldd	r8, Y+1	; 0x01
     c7c:	9a 80       	ldd	r9, Y+2	; 0x02
     c7e:	ab 80       	ldd	r10, Y+3	; 0x03
     c80:	bc 80       	ldd	r11, Y+4	; 0x04
     c82:	cd 80       	ldd	r12, Y+5	; 0x05
     c84:	de 80       	ldd	r13, Y+6	; 0x06
     c86:	ef 80       	ldd	r14, Y+7	; 0x07
     c88:	f8 84       	ldd	r15, Y+8	; 0x08
     c8a:	09 85       	ldd	r16, Y+9	; 0x09
     c8c:	1a 85       	ldd	r17, Y+10	; 0x0a
     c8e:	2b 85       	ldd	r18, Y+11	; 0x0b
     c90:	3c 85       	ldd	r19, Y+12	; 0x0c
     c92:	4d 85       	ldd	r20, Y+13	; 0x0d
     c94:	5e 85       	ldd	r21, Y+14	; 0x0e
     c96:	6f 85       	ldd	r22, Y+15	; 0x0f
     c98:	0e 94 e7 04 	call	0x9ce	; 0x9ce <_ZN8Activity16Main_Screen_MoveE5PanelR7Carrage>
     c9c:	0f 90       	pop	r0
     c9e:	0f 90       	pop	r0
     ca0:	15 c0       	rjmp	.+42     	; 0xccc <_ZN8Activity13Cursor_ActionE5PanelR7Carrage+0xb4>
		case(SCREEN_MENU):;break;
		case(SCREEN_ADJUST):Adjusting_Carrage(panel,carrage);break;
     ca2:	5f 93       	push	r21
     ca4:	4f 93       	push	r20
     ca6:	89 80       	ldd	r8, Y+1	; 0x01
     ca8:	9a 80       	ldd	r9, Y+2	; 0x02
     caa:	ab 80       	ldd	r10, Y+3	; 0x03
     cac:	bc 80       	ldd	r11, Y+4	; 0x04
     cae:	cd 80       	ldd	r12, Y+5	; 0x05
     cb0:	de 80       	ldd	r13, Y+6	; 0x06
     cb2:	ef 80       	ldd	r14, Y+7	; 0x07
     cb4:	f8 84       	ldd	r15, Y+8	; 0x08
     cb6:	09 85       	ldd	r16, Y+9	; 0x09
     cb8:	1a 85       	ldd	r17, Y+10	; 0x0a
     cba:	2b 85       	ldd	r18, Y+11	; 0x0b
     cbc:	3c 85       	ldd	r19, Y+12	; 0x0c
     cbe:	4d 85       	ldd	r20, Y+13	; 0x0d
     cc0:	5e 85       	ldd	r21, Y+14	; 0x0e
     cc2:	6f 85       	ldd	r22, Y+15	; 0x0f
     cc4:	0e 94 63 05 	call	0xac6	; 0xac6 <_ZN8Activity17Adjusting_CarrageE5PanelR7Carrage>
     cc8:	0f 90       	pop	r0
     cca:	0f 90       	pop	r0
	}
}
     ccc:	2f 96       	adiw	r28, 0x0f	; 15
     cce:	0f b6       	in	r0, 0x3f	; 63
     cd0:	f8 94       	cli
     cd2:	de bf       	out	0x3e, r29	; 62
     cd4:	0f be       	out	0x3f, r0	; 63
     cd6:	cd bf       	out	0x3d, r28	; 61
     cd8:	df 91       	pop	r29
     cda:	cf 91       	pop	r28
     cdc:	1f 91       	pop	r17
     cde:	0f 91       	pop	r16
     ce0:	ff 90       	pop	r15
     ce2:	ef 90       	pop	r14
     ce4:	df 90       	pop	r13
     ce6:	cf 90       	pop	r12
     ce8:	bf 90       	pop	r11
     cea:	af 90       	pop	r10
     cec:	9f 90       	pop	r9
     cee:	8f 90       	pop	r8
     cf0:	08 95       	ret

00000cf2 <_ZN8Activity12get_val_stepEv>:
		if (Step <= 0){Step=0;}
		if (Step >= 19){Step=19;}
}

float Activity::get_val_step(){
	return Steps[Step];
     cf2:	fc 01       	movw	r30, r24
     cf4:	ee 5a       	subi	r30, 0xAE	; 174
     cf6:	ff 4f       	sbci	r31, 0xFF	; 255
     cf8:	01 90       	ld	r0, Z+
     cfa:	f0 81       	ld	r31, Z
     cfc:	e0 2d       	mov	r30, r0
     cfe:	ee 0f       	add	r30, r30
     d00:	ff 1f       	adc	r31, r31
     d02:	ee 0f       	add	r30, r30
     d04:	ff 1f       	adc	r31, r31
     d06:	e8 0f       	add	r30, r24
     d08:	f9 1f       	adc	r31, r25
     d0a:	62 81       	ldd	r22, Z+2	; 0x02
     d0c:	73 81       	ldd	r23, Z+3	; 0x03
     d0e:	84 81       	ldd	r24, Z+4	; 0x04
     d10:	95 81       	ldd	r25, Z+5	; 0x05
     d12:	08 95       	ret

00000d14 <_ZN6ButtonC1Ev>:

#include "Button.h"
#include <avr/io.h>

// default constructor
Button::Button(){
     d14:	08 95       	ret

00000d16 <_ZN6Button4InitEci>:
	
}

void Button::Init(char port, int pin)
{
     d16:	fc 01       	movw	r30, r24
	_port = port;
     d18:	60 83       	st	Z, r22
	_pin = pin;
     d1a:	41 83       	std	Z+1, r20	; 0x01
     d1c:	52 83       	std	Z+2, r21	; 0x02
	
	switch (_port){
     d1e:	63 34       	cpi	r22, 0x43	; 67
     d20:	a1 f0       	breq	.+40     	; 0xd4a <_ZN6Button4InitEci+0x34>
     d22:	64 34       	cpi	r22, 0x44	; 68
     d24:	11 f1       	breq	.+68     	; 0xd6a <_ZN6Button4InitEci+0x54>
     d26:	62 34       	cpi	r22, 0x42	; 66
     d28:	79 f5       	brne	.+94     	; 0xd88 <_ZN6Button4InitEci+0x72>
		case 'B': DDRB &= ~(1<<(pin)); PORTB |= (1<<(pin)); break;
     d2a:	24 b1       	in	r18, 0x04	; 4
     d2c:	81 e0       	ldi	r24, 0x01	; 1
     d2e:	90 e0       	ldi	r25, 0x00	; 0
     d30:	02 c0       	rjmp	.+4      	; 0xd36 <_ZN6Button4InitEci+0x20>
     d32:	88 0f       	add	r24, r24
     d34:	99 1f       	adc	r25, r25
     d36:	4a 95       	dec	r20
     d38:	e2 f7       	brpl	.-8      	; 0xd32 <_ZN6Button4InitEci+0x1c>
     d3a:	98 2f       	mov	r25, r24
     d3c:	90 95       	com	r25
     d3e:	92 23       	and	r25, r18
     d40:	94 b9       	out	0x04, r25	; 4
     d42:	95 b1       	in	r25, 0x05	; 5
     d44:	89 2b       	or	r24, r25
     d46:	85 b9       	out	0x05, r24	; 5
     d48:	08 95       	ret
		case 'C': DDRC &= ~(1<<(pin)); PORTC |= (1<<(pin)); break;
     d4a:	27 b1       	in	r18, 0x07	; 7
     d4c:	81 e0       	ldi	r24, 0x01	; 1
     d4e:	90 e0       	ldi	r25, 0x00	; 0
     d50:	02 c0       	rjmp	.+4      	; 0xd56 <_ZN6Button4InitEci+0x40>
     d52:	88 0f       	add	r24, r24
     d54:	99 1f       	adc	r25, r25
     d56:	4a 95       	dec	r20
     d58:	e2 f7       	brpl	.-8      	; 0xd52 <_ZN6Button4InitEci+0x3c>
     d5a:	98 2f       	mov	r25, r24
     d5c:	90 95       	com	r25
     d5e:	92 23       	and	r25, r18
     d60:	97 b9       	out	0x07, r25	; 7
     d62:	98 b1       	in	r25, 0x08	; 8
     d64:	89 2b       	or	r24, r25
     d66:	88 b9       	out	0x08, r24	; 8
     d68:	08 95       	ret
		case 'D': DDRD &= ~(1<<(pin)); PORTD |= (1<<(pin)); break;
     d6a:	2a b1       	in	r18, 0x0a	; 10
     d6c:	81 e0       	ldi	r24, 0x01	; 1
     d6e:	90 e0       	ldi	r25, 0x00	; 0
     d70:	02 c0       	rjmp	.+4      	; 0xd76 <_ZN6Button4InitEci+0x60>
     d72:	88 0f       	add	r24, r24
     d74:	99 1f       	adc	r25, r25
     d76:	4a 95       	dec	r20
     d78:	e2 f7       	brpl	.-8      	; 0xd72 <_ZN6Button4InitEci+0x5c>
     d7a:	98 2f       	mov	r25, r24
     d7c:	90 95       	com	r25
     d7e:	92 23       	and	r25, r18
     d80:	9a b9       	out	0x0a, r25	; 10
     d82:	9b b1       	in	r25, 0x0b	; 11
     d84:	89 2b       	or	r24, r25
     d86:	8b b9       	out	0x0b, r24	; 11
     d88:	08 95       	ret

00000d8a <_ZN6Button7PressedEi>:
	}
	
}

bool Button::Pressed(int debounce){
     d8a:	fc 01       	movw	r30, r24
	//debounce   
	bool read_pin;
	int i;
	if (debounce >= 0){
     d8c:	77 23       	and	r23, r23
     d8e:	3c f1       	brlt	.+78     	; 0xdde <_ZN6Button7PressedEi+0x54>
		switch (_port){
     d90:	80 81       	ld	r24, Z
     d92:	83 34       	cpi	r24, 0x43	; 67
     d94:	79 f0       	breq	.+30     	; 0xdb4 <_ZN6Button7PressedEi+0x2a>
     d96:	84 34       	cpi	r24, 0x44	; 68
     d98:	b9 f0       	breq	.+46     	; 0xdc8 <_ZN6Button7PressedEi+0x3e>
     d9a:	82 34       	cpi	r24, 0x42	; 66
     d9c:	09 f0       	breq	.+2      	; 0xda0 <_ZN6Button7PressedEi+0x16>
     d9e:	47 c0       	rjmp	.+142    	; 0xe2e <_ZN6Button7PressedEi+0xa4>
			case 'B': read_pin = ((1 << _pin) & PINB); break;
     da0:	83 b1       	in	r24, 0x03	; 3
     da2:	90 e0       	ldi	r25, 0x00	; 0
     da4:	01 80       	ldd	r0, Z+1	; 0x01
     da6:	02 c0       	rjmp	.+4      	; 0xdac <_ZN6Button7PressedEi+0x22>
     da8:	95 95       	asr	r25
     daa:	87 95       	ror	r24
     dac:	0a 94       	dec	r0
     dae:	e2 f7       	brpl	.-8      	; 0xda8 <_ZN6Button7PressedEi+0x1e>
     db0:	81 70       	andi	r24, 0x01	; 1
     db2:	13 c0       	rjmp	.+38     	; 0xdda <_ZN6Button7PressedEi+0x50>
			case 'C': read_pin = ((1 << _pin) & PINC); break;
     db4:	86 b1       	in	r24, 0x06	; 6
     db6:	90 e0       	ldi	r25, 0x00	; 0
     db8:	01 80       	ldd	r0, Z+1	; 0x01
     dba:	02 c0       	rjmp	.+4      	; 0xdc0 <_ZN6Button7PressedEi+0x36>
     dbc:	95 95       	asr	r25
     dbe:	87 95       	ror	r24
     dc0:	0a 94       	dec	r0
     dc2:	e2 f7       	brpl	.-8      	; 0xdbc <_ZN6Button7PressedEi+0x32>
     dc4:	81 70       	andi	r24, 0x01	; 1
     dc6:	09 c0       	rjmp	.+18     	; 0xdda <_ZN6Button7PressedEi+0x50>
			case 'D': read_pin = ((1 << _pin) & PIND); break;
     dc8:	89 b1       	in	r24, 0x09	; 9
     dca:	90 e0       	ldi	r25, 0x00	; 0
     dcc:	01 80       	ldd	r0, Z+1	; 0x01
     dce:	02 c0       	rjmp	.+4      	; 0xdd4 <_ZN6Button7PressedEi+0x4a>
     dd0:	95 95       	asr	r25
     dd2:	87 95       	ror	r24
     dd4:	0a 94       	dec	r0
     dd6:	e2 f7       	brpl	.-8      	; 0xdd0 <_ZN6Button7PressedEi+0x46>
     dd8:	81 70       	andi	r24, 0x01	; 1
			default: return false;
		}
		
		if (read_pin){
     dda:	81 11       	cpse	r24, r1
     ddc:	2a c0       	rjmp	.+84     	; 0xe32 <_ZN6Button7PressedEi+0xa8>
			debounce--;
		};
	};
	//button anti slice
	while(!read_pin){
		switch (_port){
     dde:	80 81       	ld	r24, Z
     de0:	02 c0       	rjmp	.+4      	; 0xde6 <_ZN6Button7PressedEi+0x5c>
			}else{
			debounce--;
		};
	};
	//button anti slice
	while(!read_pin){
     de2:	21 11       	cpse	r18, r1
     de4:	28 c0       	rjmp	.+80     	; 0xe36 <_ZN6Button7PressedEi+0xac>
		switch (_port){
     de6:	83 34       	cpi	r24, 0x43	; 67
     de8:	71 f0       	breq	.+28     	; 0xe06 <_ZN6Button7PressedEi+0x7c>
     dea:	84 34       	cpi	r24, 0x44	; 68
     dec:	b1 f0       	breq	.+44     	; 0xe1a <_ZN6Button7PressedEi+0x90>
     dee:	82 34       	cpi	r24, 0x42	; 66
     df0:	21 f5       	brne	.+72     	; 0xe3a <_ZN6Button7PressedEi+0xb0>
			case 'B': read_pin = ((1 << _pin) & PINB); break;
     df2:	23 b1       	in	r18, 0x03	; 3
     df4:	30 e0       	ldi	r19, 0x00	; 0
     df6:	01 80       	ldd	r0, Z+1	; 0x01
     df8:	02 c0       	rjmp	.+4      	; 0xdfe <_ZN6Button7PressedEi+0x74>
     dfa:	35 95       	asr	r19
     dfc:	27 95       	ror	r18
     dfe:	0a 94       	dec	r0
     e00:	e2 f7       	brpl	.-8      	; 0xdfa <_ZN6Button7PressedEi+0x70>
     e02:	21 70       	andi	r18, 0x01	; 1
     e04:	ee cf       	rjmp	.-36     	; 0xde2 <_ZN6Button7PressedEi+0x58>
			case 'C': read_pin = ((1 << _pin) & PINC); break;
     e06:	26 b1       	in	r18, 0x06	; 6
     e08:	30 e0       	ldi	r19, 0x00	; 0
     e0a:	01 80       	ldd	r0, Z+1	; 0x01
     e0c:	02 c0       	rjmp	.+4      	; 0xe12 <_ZN6Button7PressedEi+0x88>
     e0e:	35 95       	asr	r19
     e10:	27 95       	ror	r18
     e12:	0a 94       	dec	r0
     e14:	e2 f7       	brpl	.-8      	; 0xe0e <_ZN6Button7PressedEi+0x84>
     e16:	21 70       	andi	r18, 0x01	; 1
     e18:	e4 cf       	rjmp	.-56     	; 0xde2 <_ZN6Button7PressedEi+0x58>
			case 'D': read_pin = ((1 << _pin) & PIND); break;
     e1a:	29 b1       	in	r18, 0x09	; 9
     e1c:	30 e0       	ldi	r19, 0x00	; 0
     e1e:	01 80       	ldd	r0, Z+1	; 0x01
     e20:	02 c0       	rjmp	.+4      	; 0xe26 <_ZN6Button7PressedEi+0x9c>
     e22:	35 95       	asr	r19
     e24:	27 95       	ror	r18
     e26:	0a 94       	dec	r0
     e28:	e2 f7       	brpl	.-8      	; 0xe22 <_ZN6Button7PressedEi+0x98>
     e2a:	21 70       	andi	r18, 0x01	; 1
     e2c:	da cf       	rjmp	.-76     	; 0xde2 <_ZN6Button7PressedEi+0x58>
	if (debounce >= 0){
		switch (_port){
			case 'B': read_pin = ((1 << _pin) & PINB); break;
			case 'C': read_pin = ((1 << _pin) & PINC); break;
			case 'D': read_pin = ((1 << _pin) & PIND); break;
			default: return false;
     e2e:	80 e0       	ldi	r24, 0x00	; 0
     e30:	08 95       	ret
		}
		
		if (read_pin){
			return false;
     e32:	80 e0       	ldi	r24, 0x00	; 0
     e34:	08 95       	ret
			case 'C': read_pin = ((1 << _pin) & PINC); break;
			case 'D': read_pin = ((1 << _pin) & PIND); break;
			default: return false;
		}
	}
	return true;
     e36:	81 e0       	ldi	r24, 0x01	; 1
     e38:	08 95       	ret
	while(!read_pin){
		switch (_port){
			case 'B': read_pin = ((1 << _pin) & PINB); break;
			case 'C': read_pin = ((1 << _pin) & PINC); break;
			case 'D': read_pin = ((1 << _pin) & PIND); break;
			default: return false;
     e3a:	80 e0       	ldi	r24, 0x00	; 0
		}
	}
	return true;
	
}
     e3c:	08 95       	ret

00000e3e <_ZN7CarrageC1Ev>:
const int NORMAL=0;
const int UP=1;
const int DOWN=2;

// default constructor
Carrage::Carrage()
     e3e:	cf 93       	push	r28
     e40:	df 93       	push	r29
     e42:	ec 01       	movw	r28, r24
     e44:	0e 94 7a 14 	call	0x28f4	; 0x28f4 <_ZN5WheelC1Ev>
     e48:	ce 01       	movw	r24, r28
     e4a:	4a 96       	adiw	r24, 0x1a	; 26
     e4c:	0e 94 7a 14 	call	0x28f4	; 0x28f4 <_ZN5WheelC1Ev>
     e50:	ce 01       	movw	r24, r28
     e52:	c4 96       	adiw	r24, 0x34	; 52
     e54:	0e 94 7a 14 	call	0x28f4	; 0x28f4 <_ZN5WheelC1Ev>
     e58:	ce 01       	movw	r24, r28
     e5a:	82 5b       	subi	r24, 0xB2	; 178
     e5c:	9f 4f       	sbci	r25, 0xFF	; 255
     e5e:	0e 94 7a 14 	call	0x28f4	; 0x28f4 <_ZN5WheelC1Ev>
     e62:	ce 01       	movw	r24, r28
     e64:	88 59       	subi	r24, 0x98	; 152
     e66:	9f 4f       	sbci	r25, 0xFF	; 255
     e68:	0e 94 13 14 	call	0x2826	; 0x2826 <_ZN7SupportC1Ev>
{
} //Carrage
     e6c:	df 91       	pop	r29
     e6e:	cf 91       	pop	r28
     e70:	08 95       	ret

00000e72 <_ZN7Carrage12beforeAdjastEv>:
	support.Init();
	_step =1;
	chechAll();
}

void Carrage::beforeAdjast(){
     e72:	cf 93       	push	r28
     e74:	df 93       	push	r29
     e76:	ec 01       	movw	r28, r24
	Wheel_1.initialHight();
     e78:	0e 94 a5 14 	call	0x294a	; 0x294a <_ZN5Wheel12initialHightEv>
	Wheel_2.initialHight();
     e7c:	ce 01       	movw	r24, r28
     e7e:	4a 96       	adiw	r24, 0x1a	; 26
     e80:	0e 94 a5 14 	call	0x294a	; 0x294a <_ZN5Wheel12initialHightEv>
	Wheel_3.initialHight();
     e84:	ce 01       	movw	r24, r28
     e86:	c4 96       	adiw	r24, 0x34	; 52
     e88:	0e 94 a5 14 	call	0x294a	; 0x294a <_ZN5Wheel12initialHightEv>
	Wheel_4.initialHight();
     e8c:	ce 01       	movw	r24, r28
     e8e:	82 5b       	subi	r24, 0xB2	; 178
     e90:	9f 4f       	sbci	r25, 0xFF	; 255
     e92:	0e 94 a5 14 	call	0x294a	; 0x294a <_ZN5Wheel12initialHightEv>
}
     e96:	df 91       	pop	r29
     e98:	cf 91       	pop	r28
     e9a:	08 95       	ret

00000e9c <_ZN7Carrage8chechAllEv>:
		if	(derWheel[3]>0){checked[3]=Wheel_3.Check();}else{checked[3]=true;}
		if	(derWheel[4]>0){checked[4]=Wheel_4.Check();}else{checked[4]=true;}	
		if  (checked[1]&&checked[2]&&checked[3]&&checked[4]){return true;}else{return false;}					
}

bool Carrage::chechAll(){
     e9c:	4f 92       	push	r4
     e9e:	5f 92       	push	r5
     ea0:	6f 92       	push	r6
     ea2:	7f 92       	push	r7
     ea4:	8f 92       	push	r8
     ea6:	9f 92       	push	r9
     ea8:	af 92       	push	r10
     eaa:	bf 92       	push	r11
     eac:	cf 92       	push	r12
     eae:	df 92       	push	r13
     eb0:	ef 92       	push	r14
     eb2:	ff 92       	push	r15
     eb4:	0f 93       	push	r16
     eb6:	1f 93       	push	r17
     eb8:	cf 93       	push	r28
     eba:	df 93       	push	r29
     ebc:	ec 01       	movw	r28, r24
	Wheel_1.get_hight();
     ebe:	0e 94 96 14 	call	0x292c	; 0x292c <_ZN5Wheel9get_hightEv>
	Wheel_2.get_hight();
     ec2:	4e 01       	movw	r8, r28
     ec4:	8a e1       	ldi	r24, 0x1A	; 26
     ec6:	88 0e       	add	r8, r24
     ec8:	91 1c       	adc	r9, r1
     eca:	c4 01       	movw	r24, r8
     ecc:	0e 94 96 14 	call	0x292c	; 0x292c <_ZN5Wheel9get_hightEv>
	Wheel_3.get_hight();
     ed0:	5e 01       	movw	r10, r28
     ed2:	94 e3       	ldi	r25, 0x34	; 52
     ed4:	a9 0e       	add	r10, r25
     ed6:	b1 1c       	adc	r11, r1
     ed8:	c5 01       	movw	r24, r10
     eda:	0e 94 96 14 	call	0x292c	; 0x292c <_ZN5Wheel9get_hightEv>
	Wheel_4.get_hight();
     ede:	6e 01       	movw	r12, r28
     ee0:	ee e4       	ldi	r30, 0x4E	; 78
     ee2:	ce 0e       	add	r12, r30
     ee4:	d1 1c       	adc	r13, r1
     ee6:	c6 01       	movw	r24, r12
     ee8:	0e 94 96 14 	call	0x292c	; 0x292c <_ZN5Wheel9get_hightEv>
	support.Adjast(10 ,1, 1 ,1 ,1 );
     eec:	3e 01       	movw	r6, r28
     eee:	f8 e6       	ldi	r31, 0x68	; 104
     ef0:	6f 0e       	add	r6, r31
     ef2:	71 1c       	adc	r7, r1
     ef4:	ee 24       	eor	r14, r14
     ef6:	e3 94       	inc	r14
     ef8:	f1 2c       	mov	r15, r1
     efa:	01 e0       	ldi	r16, 0x01	; 1
     efc:	10 e0       	ldi	r17, 0x00	; 0
     efe:	21 e0       	ldi	r18, 0x01	; 1
     f00:	30 e0       	ldi	r19, 0x00	; 0
     f02:	41 e0       	ldi	r20, 0x01	; 1
     f04:	50 e0       	ldi	r21, 0x00	; 0
     f06:	6a e0       	ldi	r22, 0x0A	; 10
     f08:	70 e0       	ldi	r23, 0x00	; 0
     f0a:	c3 01       	movw	r24, r6
     f0c:	0e 94 19 14 	call	0x2832	; 0x2832 <_ZN7Support6AdjastEiiiii>
	checked[1]=Wheel_1.Check();	
     f10:	ce 01       	movw	r24, r28
     f12:	0e 94 1c 15 	call	0x2a38	; 0x2a38 <_ZN5Wheel5CheckEv>
     f16:	2e 01       	movw	r4, r28
     f18:	9e e7       	ldi	r25, 0x7E	; 126
     f1a:	49 0e       	add	r4, r25
     f1c:	51 1c       	adc	r5, r1
     f1e:	90 e0       	ldi	r25, 0x00	; 0
     f20:	f2 01       	movw	r30, r4
     f22:	91 83       	std	Z+1, r25	; 0x01
     f24:	80 83       	st	Z, r24
	checked[2]=Wheel_2.Check();
     f26:	c4 01       	movw	r24, r8
     f28:	0e 94 1c 15 	call	0x2a38	; 0x2a38 <_ZN5Wheel5CheckEv>
     f2c:	fe 01       	movw	r30, r28
     f2e:	e0 58       	subi	r30, 0x80	; 128
     f30:	ff 4f       	sbci	r31, 0xFF	; 255
     f32:	90 e0       	ldi	r25, 0x00	; 0
     f34:	91 83       	std	Z+1, r25	; 0x01
     f36:	80 83       	st	Z, r24
	checked[3]=Wheel_3.Check();
     f38:	c5 01       	movw	r24, r10
     f3a:	0e 94 1c 15 	call	0x2a38	; 0x2a38 <_ZN5Wheel5CheckEv>
     f3e:	fe 01       	movw	r30, r28
     f40:	ee 57       	subi	r30, 0x7E	; 126
     f42:	ff 4f       	sbci	r31, 0xFF	; 255
     f44:	90 e0       	ldi	r25, 0x00	; 0
     f46:	91 83       	std	Z+1, r25	; 0x01
     f48:	80 83       	st	Z, r24
	checked[4]=Wheel_4.Check();
     f4a:	c6 01       	movw	r24, r12
     f4c:	0e 94 1c 15 	call	0x2a38	; 0x2a38 <_ZN5Wheel5CheckEv>
     f50:	fe 01       	movw	r30, r28
     f52:	ec 57       	subi	r30, 0x7C	; 124
     f54:	ff 4f       	sbci	r31, 0xFF	; 255
     f56:	90 e0       	ldi	r25, 0x00	; 0
     f58:	91 83       	std	Z+1, r25	; 0x01
     f5a:	80 83       	st	Z, r24
	support.Adjast(10 ,2, 2 ,2 ,2 );
     f5c:	68 94       	set
     f5e:	ee 24       	eor	r14, r14
     f60:	e1 f8       	bld	r14, 1
     f62:	f1 2c       	mov	r15, r1
     f64:	02 e0       	ldi	r16, 0x02	; 2
     f66:	10 e0       	ldi	r17, 0x00	; 0
     f68:	22 e0       	ldi	r18, 0x02	; 2
     f6a:	30 e0       	ldi	r19, 0x00	; 0
     f6c:	42 e0       	ldi	r20, 0x02	; 2
     f6e:	50 e0       	ldi	r21, 0x00	; 0
     f70:	6a e0       	ldi	r22, 0x0A	; 10
     f72:	70 e0       	ldi	r23, 0x00	; 0
     f74:	c3 01       	movw	r24, r6
     f76:	0e 94 19 14 	call	0x2832	; 0x2832 <_ZN7Support6AdjastEiiiii>
	if  (checked[1]&&checked[2]&&checked[3]&&checked[4]){return true;}else{return false;}
     f7a:	f2 01       	movw	r30, r4
     f7c:	80 81       	ld	r24, Z
     f7e:	91 81       	ldd	r25, Z+1	; 0x01
     f80:	89 2b       	or	r24, r25
     f82:	99 f0       	breq	.+38     	; 0xfaa <_ZN7Carrage8chechAllEv+0x10e>
     f84:	32 96       	adiw	r30, 0x02	; 2
     f86:	80 81       	ld	r24, Z
     f88:	91 81       	ldd	r25, Z+1	; 0x01
     f8a:	89 2b       	or	r24, r25
     f8c:	81 f0       	breq	.+32     	; 0xfae <_ZN7Carrage8chechAllEv+0x112>
     f8e:	32 96       	adiw	r30, 0x02	; 2
     f90:	80 81       	ld	r24, Z
     f92:	91 81       	ldd	r25, Z+1	; 0x01
     f94:	89 2b       	or	r24, r25
     f96:	69 f0       	breq	.+26     	; 0xfb2 <_ZN7Carrage8chechAllEv+0x116>
     f98:	cc 57       	subi	r28, 0x7C	; 124
     f9a:	df 4f       	sbci	r29, 0xFF	; 255
     f9c:	81 e0       	ldi	r24, 0x01	; 1
     f9e:	28 81       	ld	r18, Y
     fa0:	39 81       	ldd	r19, Y+1	; 0x01
     fa2:	23 2b       	or	r18, r19
     fa4:	39 f4       	brne	.+14     	; 0xfb4 <_ZN7Carrage8chechAllEv+0x118>
     fa6:	80 e0       	ldi	r24, 0x00	; 0
     fa8:	05 c0       	rjmp	.+10     	; 0xfb4 <_ZN7Carrage8chechAllEv+0x118>
     faa:	80 e0       	ldi	r24, 0x00	; 0
     fac:	03 c0       	rjmp	.+6      	; 0xfb4 <_ZN7Carrage8chechAllEv+0x118>
     fae:	80 e0       	ldi	r24, 0x00	; 0
     fb0:	01 c0       	rjmp	.+2      	; 0xfb4 <_ZN7Carrage8chechAllEv+0x118>
     fb2:	80 e0       	ldi	r24, 0x00	; 0
	
}
     fb4:	df 91       	pop	r29
     fb6:	cf 91       	pop	r28
     fb8:	1f 91       	pop	r17
     fba:	0f 91       	pop	r16
     fbc:	ff 90       	pop	r15
     fbe:	ef 90       	pop	r14
     fc0:	df 90       	pop	r13
     fc2:	cf 90       	pop	r12
     fc4:	bf 90       	pop	r11
     fc6:	af 90       	pop	r10
     fc8:	9f 90       	pop	r9
     fca:	8f 90       	pop	r8
     fcc:	7f 90       	pop	r7
     fce:	6f 90       	pop	r6
     fd0:	5f 90       	pop	r5
     fd2:	4f 90       	pop	r4
     fd4:	08 95       	ret

00000fd6 <_ZN7Carrage4InitE5WheelS0_S0_S0_>:
// default constructor
Carrage::Carrage()
{
} //Carrage

void Carrage::Init(Wheel _Wheel_1, Wheel _Wheel_2, Wheel _Wheel_3, Wheel _Wheel_4){
     fd6:	0f 93       	push	r16
     fd8:	1f 93       	push	r17
     fda:	cf 93       	push	r28
     fdc:	df 93       	push	r29
     fde:	cd b7       	in	r28, 0x3d	; 61
     fe0:	de b7       	in	r29, 0x3e	; 62
     fe2:	8c 01       	movw	r16, r24
	Wheel_1 = _Wheel_1;
     fe4:	8a e1       	ldi	r24, 0x1A	; 26
     fe6:	fe 01       	movw	r30, r28
     fe8:	37 96       	adiw	r30, 0x07	; 7
     fea:	d8 01       	movw	r26, r16
     fec:	01 90       	ld	r0, Z+
     fee:	0d 92       	st	X+, r0
     ff0:	8a 95       	dec	r24
     ff2:	e1 f7       	brne	.-8      	; 0xfec <_ZN7Carrage4InitE5WheelS0_S0_S0_+0x16>
	Wheel_2 = _Wheel_2;
     ff4:	8a e1       	ldi	r24, 0x1A	; 26
     ff6:	fe 01       	movw	r30, r28
     ff8:	b1 96       	adiw	r30, 0x21	; 33
     ffa:	d8 01       	movw	r26, r16
     ffc:	5a 96       	adiw	r26, 0x1a	; 26
     ffe:	01 90       	ld	r0, Z+
    1000:	0d 92       	st	X+, r0
    1002:	8a 95       	dec	r24
    1004:	e1 f7       	brne	.-8      	; 0xffe <_ZN7Carrage4InitE5WheelS0_S0_S0_+0x28>
	Wheel_3 = _Wheel_3;
    1006:	8a e1       	ldi	r24, 0x1A	; 26
    1008:	fe 01       	movw	r30, r28
    100a:	fb 96       	adiw	r30, 0x3b	; 59
    100c:	d8 01       	movw	r26, r16
    100e:	d4 96       	adiw	r26, 0x34	; 52
    1010:	01 90       	ld	r0, Z+
    1012:	0d 92       	st	X+, r0
    1014:	8a 95       	dec	r24
    1016:	e1 f7       	brne	.-8      	; 0x1010 <_ZN7Carrage4InitE5WheelS0_S0_S0_+0x3a>
	Wheel_4 = _Wheel_4;
    1018:	d8 01       	movw	r26, r16
    101a:	a2 5b       	subi	r26, 0xB2	; 178
    101c:	bf 4f       	sbci	r27, 0xFF	; 255
    101e:	8a e1       	ldi	r24, 0x1A	; 26
    1020:	fe 01       	movw	r30, r28
    1022:	eb 5a       	subi	r30, 0xAB	; 171
    1024:	ff 4f       	sbci	r31, 0xFF	; 255
    1026:	01 90       	ld	r0, Z+
    1028:	0d 92       	st	X+, r0
    102a:	8a 95       	dec	r24
    102c:	e1 f7       	brne	.-8      	; 0x1026 <_ZN7Carrage4InitE5WheelS0_S0_S0_+0x50>
	support.Init();
    102e:	c8 01       	movw	r24, r16
    1030:	88 59       	subi	r24, 0x98	; 152
    1032:	9f 4f       	sbci	r25, 0xFF	; 255
    1034:	0e 94 14 14 	call	0x2828	; 0x2828 <_ZN7Support4InitEv>
	_step =1;
    1038:	f8 01       	movw	r30, r16
    103a:	e8 57       	subi	r30, 0x78	; 120
    103c:	ff 4f       	sbci	r31, 0xFF	; 255
    103e:	81 e0       	ldi	r24, 0x01	; 1
    1040:	90 e0       	ldi	r25, 0x00	; 0
    1042:	91 83       	std	Z+1, r25	; 0x01
    1044:	80 83       	st	Z, r24
	chechAll();
    1046:	c8 01       	movw	r24, r16
    1048:	0e 94 4e 07 	call	0xe9c	; 0xe9c <_ZN7Carrage8chechAllEv>
}
    104c:	df 91       	pop	r29
    104e:	cf 91       	pop	r28
    1050:	1f 91       	pop	r17
    1052:	0f 91       	pop	r16
    1054:	08 95       	ret

00001056 <_ZN7Carrage7getStepEv>:
	support.Adjast(10 ,2, 2 ,2 ,2 );
	if  (checked[1]&&checked[2]&&checked[3]&&checked[4]){return true;}else{return false;}
	
}

int Carrage::getStep(){
    1056:	cf 93       	push	r28
    1058:	df 93       	push	r29
	int step = 0;
	int i;
	sort_array[0] = Wheel_1.step;
    105a:	fc 01       	movw	r30, r24
    105c:	e6 59       	subi	r30, 0x96	; 150
    105e:	ff 4f       	sbci	r31, 0xFF	; 255
    1060:	dc 01       	movw	r26, r24
    1062:	51 96       	adiw	r26, 0x11	; 17
    1064:	2d 91       	ld	r18, X+
    1066:	3c 91       	ld	r19, X
    1068:	52 97       	sbiw	r26, 0x12	; 18
    106a:	31 83       	std	Z+1, r19	; 0x01
    106c:	20 83       	st	Z, r18
	sort_array[1] = Wheel_2.step;
    106e:	a4 59       	subi	r26, 0x94	; 148
    1070:	bf 4f       	sbci	r27, 0xFF	; 255
    1072:	ec 01       	movw	r28, r24
    1074:	2b a5       	ldd	r18, Y+43	; 0x2b
    1076:	3c a5       	ldd	r19, Y+44	; 0x2c
    1078:	11 96       	adiw	r26, 0x01	; 1
    107a:	3c 93       	st	X, r19
    107c:	2e 93       	st	-X, r18
	sort_array[2] = Wheel_3.step;
    107e:	12 96       	adiw	r26, 0x02	; 2
    1080:	cb 5b       	subi	r28, 0xBB	; 187
    1082:	df 4f       	sbci	r29, 0xFF	; 255
    1084:	28 81       	ld	r18, Y
    1086:	39 81       	ldd	r19, Y+1	; 0x01
    1088:	11 96       	adiw	r26, 0x01	; 1
    108a:	3c 93       	st	X, r19
    108c:	2e 93       	st	-X, r18
	sort_array[3] = Wheel_4.step;
    108e:	12 96       	adiw	r26, 0x02	; 2
    1090:	6a 96       	adiw	r28, 0x1a	; 26
    1092:	28 81       	ld	r18, Y
    1094:	39 81       	ldd	r19, Y+1	; 0x01
    1096:	2d 93       	st	X+, r18
    1098:	3c 93       	st	X, r19
    109a:	df 01       	movw	r26, r30
    109c:	8e 58       	subi	r24, 0x8E	; 142
    109e:	9f 4f       	sbci	r25, 0xFF	; 255
	i = 0;
	while(i<4){
		if (sort_array[i]>0){step = sort_array[i];i=5;}
    10a0:	21 91       	ld	r18, Z+
    10a2:	31 91       	ld	r19, Z+
    10a4:	12 16       	cp	r1, r18
    10a6:	13 06       	cpc	r1, r19
    10a8:	24 f0       	brlt	.+8      	; 0x10b2 <_ZN7Carrage7getStepEv+0x5c>
	sort_array[0] = Wheel_1.step;
	sort_array[1] = Wheel_2.step;
	sort_array[2] = Wheel_3.step;
	sort_array[3] = Wheel_4.step;
	i = 0;
	while(i<4){
    10aa:	e8 17       	cp	r30, r24
    10ac:	f9 07       	cpc	r31, r25
    10ae:	c1 f7       	brne	.-16     	; 0x10a0 <_ZN7Carrage7getStepEv+0x4a>
    10b0:	16 c0       	rjmp	.+44     	; 0x10de <_ZN7Carrage7getStepEv+0x88>
		if (sort_array[i]>0){step = sort_array[i];i=5;}
		i++;
	};
	
	if (step == 0){return 0;};
    10b2:	21 15       	cp	r18, r1
    10b4:	31 05       	cpc	r19, r1
    10b6:	b1 f0       	breq	.+44     	; 0x10e4 <_ZN7Carrage7getStepEv+0x8e>
		
	i = 0;	
	while(i<4){
		if ( sort_array[i] > 0){
    10b8:	4d 91       	ld	r20, X+
    10ba:	5d 91       	ld	r21, X+
    10bc:	14 16       	cp	r1, r20
    10be:	15 06       	cpc	r1, r21
    10c0:	24 f4       	brge	.+8      	; 0x10ca <_ZN7Carrage7getStepEv+0x74>
    10c2:	42 17       	cp	r20, r18
    10c4:	53 07       	cpc	r21, r19
    10c6:	0c f4       	brge	.+2      	; 0x10ca <_ZN7Carrage7getStepEv+0x74>
    10c8:	9a 01       	movw	r18, r20
	};
	
	if (step == 0){return 0;};
		
	i = 0;	
	while(i<4){
    10ca:	a8 17       	cp	r26, r24
    10cc:	b9 07       	cpc	r27, r25
    10ce:	a1 f7       	brne	.-24     	; 0x10b8 <_ZN7Carrage7getStepEv+0x62>
    10d0:	c9 01       	movw	r24, r18
    10d2:	23 33       	cpi	r18, 0x33	; 51
    10d4:	31 05       	cpc	r19, r1
    10d6:	44 f0       	brlt	.+16     	; 0x10e8 <_ZN7Carrage7getStepEv+0x92>
    10d8:	82 e3       	ldi	r24, 0x32	; 50
    10da:	90 e0       	ldi	r25, 0x00	; 0
    10dc:	05 c0       	rjmp	.+10     	; 0x10e8 <_ZN7Carrage7getStepEv+0x92>
	while(i<4){
		if (sort_array[i]>0){step = sort_array[i];i=5;}
		i++;
	};
	
	if (step == 0){return 0;};
    10de:	80 e0       	ldi	r24, 0x00	; 0
    10e0:	90 e0       	ldi	r25, 0x00	; 0
    10e2:	02 c0       	rjmp	.+4      	; 0x10e8 <_ZN7Carrage7getStepEv+0x92>
    10e4:	80 e0       	ldi	r24, 0x00	; 0
    10e6:	90 e0       	ldi	r25, 0x00	; 0
	}
	//step = sort_array[0];
	step=step;
	if (step>50){step = 50;}
	return step;
} 
    10e8:	df 91       	pop	r29
    10ea:	cf 91       	pop	r28
    10ec:	08 95       	ret

000010ee <_ZN7Carrage20Fast_print_LSD_hightE5Wheel>:

void Carrage::Fast_print_LSD_hight(Wheel wheel){
    10ee:	cf 92       	push	r12
    10f0:	df 92       	push	r13
    10f2:	ef 92       	push	r14
    10f4:	ff 92       	push	r15
    10f6:	0f 93       	push	r16
    10f8:	1f 93       	push	r17
    10fa:	cf 93       	push	r28
    10fc:	df 93       	push	r29
    10fe:	cd b7       	in	r28, 0x3d	; 61
    1100:	de b7       	in	r29, 0x3e	; 62
	int hight_pos_x;
	int hight_pos_y;
	int n = wheel.number;
	int Char_wheel[6];
	//get position
	switch(n){
    1102:	8b 85       	ldd	r24, Y+11	; 0x0b
    1104:	9c 85       	ldd	r25, Y+12	; 0x0c
    1106:	82 30       	cpi	r24, 0x02	; 2
    1108:	91 05       	cpc	r25, r1
    110a:	71 f0       	breq	.+28     	; 0x1128 <_ZN7Carrage20Fast_print_LSD_hightE5Wheel+0x3a>
    110c:	1c f4       	brge	.+6      	; 0x1114 <_ZN7Carrage20Fast_print_LSD_hightE5Wheel+0x26>
    110e:	01 97       	sbiw	r24, 0x01	; 1
    1110:	39 f0       	breq	.+14     	; 0x1120 <_ZN7Carrage20Fast_print_LSD_hightE5Wheel+0x32>
    1112:	1d c0       	rjmp	.+58     	; 0x114e <_ZN7Carrage20Fast_print_LSD_hightE5Wheel+0x60>
    1114:	83 30       	cpi	r24, 0x03	; 3
    1116:	91 05       	cpc	r25, r1
    1118:	71 f0       	breq	.+28     	; 0x1136 <_ZN7Carrage20Fast_print_LSD_hightE5Wheel+0x48>
    111a:	04 97       	sbiw	r24, 0x04	; 4
    111c:	a1 f0       	breq	.+40     	; 0x1146 <_ZN7Carrage20Fast_print_LSD_hightE5Wheel+0x58>
    111e:	17 c0       	rjmp	.+46     	; 0x114e <_ZN7Carrage20Fast_print_LSD_hightE5Wheel+0x60>
		case 1:hight_pos_x = 0; hight_pos_y = 1 ; break;
    1120:	cc 24       	eor	r12, r12
    1122:	c3 94       	inc	r12
    1124:	d1 2c       	mov	r13, r1
    1126:	13 c0       	rjmp	.+38     	; 0x114e <_ZN7Carrage20Fast_print_LSD_hightE5Wheel+0x60>
		case 2:hight_pos_x = 11; hight_pos_y = 1 ;break;
    1128:	cc 24       	eor	r12, r12
    112a:	c3 94       	inc	r12
    112c:	0f 2e       	mov	r0, r31
    112e:	fb e0       	ldi	r31, 0x0B	; 11
    1130:	df 2e       	mov	r13, r31
    1132:	f0 2d       	mov	r31, r0
    1134:	0c c0       	rjmp	.+24     	; 0x114e <_ZN7Carrage20Fast_print_LSD_hightE5Wheel+0x60>
		case 3:hight_pos_x = 11; hight_pos_y = 4 ;break;
    1136:	68 94       	set
    1138:	cc 24       	eor	r12, r12
    113a:	c2 f8       	bld	r12, 2
    113c:	0f 2e       	mov	r0, r31
    113e:	fb e0       	ldi	r31, 0x0B	; 11
    1140:	df 2e       	mov	r13, r31
    1142:	f0 2d       	mov	r31, r0
    1144:	04 c0       	rjmp	.+8      	; 0x114e <_ZN7Carrage20Fast_print_LSD_hightE5Wheel+0x60>
		case 4:hight_pos_x = 0; hight_pos_y = 4 ;break;
    1146:	68 94       	set
    1148:	cc 24       	eor	r12, r12
    114a:	c2 f8       	bld	r12, 2
    114c:	d1 2c       	mov	r13, r1
	}
	int hight = 100*wheel.get_hight();
    114e:	ce 01       	movw	r24, r28
    1150:	0b 96       	adiw	r24, 0x0b	; 11
    1152:	0e 94 96 14 	call	0x292c	; 0x292c <_ZN5Wheel9get_hightEv>
	Lcd_printf(hight_pos_x, hight_pos_y, FONT_1X, hight, 0);
    1156:	20 e0       	ldi	r18, 0x00	; 0
    1158:	30 e0       	ldi	r19, 0x00	; 0
    115a:	48 ec       	ldi	r20, 0xC8	; 200
    115c:	52 e4       	ldi	r21, 0x42	; 66
    115e:	0e 94 d3 16 	call	0x2da6	; 0x2da6 <__mulsf3>
    1162:	0e 94 eb 15 	call	0x2bd6	; 0x2bd6 <__fixsfsi>
    1166:	07 2e       	mov	r0, r23
    1168:	00 0c       	add	r0, r0
    116a:	88 0b       	sbc	r24, r24
    116c:	99 0b       	sbc	r25, r25
    116e:	0e 94 23 16 	call	0x2c46	; 0x2c46 <__floatsisf>
    1172:	8b 01       	movw	r16, r22
    1174:	9c 01       	movw	r18, r24
    1176:	e1 2c       	mov	r14, r1
    1178:	f1 2c       	mov	r15, r1
    117a:	41 e0       	ldi	r20, 0x01	; 1
    117c:	6c 2d       	mov	r22, r12
    117e:	8d 2d       	mov	r24, r13
    1180:	0e 94 7b 0e 	call	0x1cf6	; 0x1cf6 <_Z10Lcd_printfhh11LcdFontSizefi>
	Lcd_update();
    1184:	0e 94 a9 0c 	call	0x1952	; 0x1952 <_Z10Lcd_updatev>
    1188:	df 91       	pop	r29
    118a:	cf 91       	pop	r28
    118c:	1f 91       	pop	r17
    118e:	0f 91       	pop	r16
    1190:	ff 90       	pop	r15
    1192:	ef 90       	pop	r14
    1194:	df 90       	pop	r13
    1196:	cf 90       	pop	r12
    1198:	08 95       	ret

0000119a <_ZN7Carrage17chechWheelsBeforeEv>:
			if(derWheel[4]>0){Wheel_4.malfuction = true;}
		}
	}
}

bool Carrage::chechWheelsBefore(){
    119a:	4f 92       	push	r4
    119c:	5f 92       	push	r5
    119e:	6f 92       	push	r6
    11a0:	7f 92       	push	r7
    11a2:	8f 92       	push	r8
    11a4:	9f 92       	push	r9
    11a6:	af 92       	push	r10
    11a8:	bf 92       	push	r11
    11aa:	cf 92       	push	r12
    11ac:	df 92       	push	r13
    11ae:	ef 92       	push	r14
    11b0:	ff 92       	push	r15
    11b2:	0f 93       	push	r16
    11b4:	1f 93       	push	r17
    11b6:	cf 93       	push	r28
    11b8:	df 93       	push	r29
    11ba:	ec 01       	movw	r28, r24
		derWheel[1] = Wheel_1.takeDerection();
    11bc:	0e 94 b5 14 	call	0x296a	; 0x296a <_ZN5Wheel13takeDerectionEv>
    11c0:	6e 01       	movw	r12, r28
    11c2:	24 e7       	ldi	r18, 0x74	; 116
    11c4:	c2 0e       	add	r12, r18
    11c6:	d1 1c       	adc	r13, r1
    11c8:	f6 01       	movw	r30, r12
    11ca:	91 83       	std	Z+1, r25	; 0x01
    11cc:	80 83       	st	Z, r24
		Fast_print_LSD_hight(Wheel_1);
    11ce:	8d b7       	in	r24, 0x3d	; 61
    11d0:	9e b7       	in	r25, 0x3e	; 62
    11d2:	4a 97       	sbiw	r24, 0x1a	; 26
    11d4:	0f b6       	in	r0, 0x3f	; 63
    11d6:	f8 94       	cli
    11d8:	9e bf       	out	0x3e, r25	; 62
    11da:	0f be       	out	0x3f, r0	; 63
    11dc:	8d bf       	out	0x3d, r24	; 61
    11de:	ad b7       	in	r26, 0x3d	; 61
    11e0:	be b7       	in	r27, 0x3e	; 62
    11e2:	11 96       	adiw	r26, 0x01	; 1
    11e4:	8a e1       	ldi	r24, 0x1A	; 26
    11e6:	fe 01       	movw	r30, r28
    11e8:	01 90       	ld	r0, Z+
    11ea:	0d 92       	st	X+, r0
    11ec:	8a 95       	dec	r24
    11ee:	e1 f7       	brne	.-8      	; 0x11e8 <_ZN7Carrage17chechWheelsBeforeEv+0x4e>
    11f0:	ce 01       	movw	r24, r28
    11f2:	0e 94 77 08 	call	0x10ee	; 0x10ee <_ZN7Carrage20Fast_print_LSD_hightE5Wheel>
		derWheel[2] = Wheel_2.takeDerection();
    11f6:	5e 01       	movw	r10, r28
    11f8:	9a e1       	ldi	r25, 0x1A	; 26
    11fa:	a9 0e       	add	r10, r25
    11fc:	b1 1c       	adc	r11, r1
    11fe:	c5 01       	movw	r24, r10
    1200:	0e 94 b5 14 	call	0x296a	; 0x296a <_ZN5Wheel13takeDerectionEv>
    1204:	4e 01       	movw	r8, r28
    1206:	e6 e7       	ldi	r30, 0x76	; 118
    1208:	8e 0e       	add	r8, r30
    120a:	91 1c       	adc	r9, r1
    120c:	f4 01       	movw	r30, r8
    120e:	91 83       	std	Z+1, r25	; 0x01
    1210:	80 83       	st	Z, r24
		Fast_print_LSD_hight(Wheel_2);
    1212:	8d b7       	in	r24, 0x3d	; 61
    1214:	9e b7       	in	r25, 0x3e	; 62
    1216:	4a 97       	sbiw	r24, 0x1a	; 26
    1218:	0f b6       	in	r0, 0x3f	; 63
    121a:	f8 94       	cli
    121c:	9e bf       	out	0x3e, r25	; 62
    121e:	0f be       	out	0x3f, r0	; 63
    1220:	8d bf       	out	0x3d, r24	; 61
    1222:	ad b7       	in	r26, 0x3d	; 61
    1224:	be b7       	in	r27, 0x3e	; 62
    1226:	11 96       	adiw	r26, 0x01	; 1
    1228:	8a e1       	ldi	r24, 0x1A	; 26
    122a:	f5 01       	movw	r30, r10
    122c:	01 90       	ld	r0, Z+
    122e:	0d 92       	st	X+, r0
    1230:	8a 95       	dec	r24
    1232:	e1 f7       	brne	.-8      	; 0x122c <_ZN7Carrage17chechWheelsBeforeEv+0x92>
    1234:	ce 01       	movw	r24, r28
    1236:	0e 94 77 08 	call	0x10ee	; 0x10ee <_ZN7Carrage20Fast_print_LSD_hightE5Wheel>
		derWheel[3] = Wheel_3.takeDerection();
    123a:	3e 01       	movw	r6, r28
    123c:	94 e3       	ldi	r25, 0x34	; 52
    123e:	69 0e       	add	r6, r25
    1240:	71 1c       	adc	r7, r1
    1242:	ed b7       	in	r30, 0x3d	; 61
    1244:	fe b7       	in	r31, 0x3e	; 62
    1246:	f4 96       	adiw	r30, 0x34	; 52
    1248:	0f b6       	in	r0, 0x3f	; 63
    124a:	f8 94       	cli
    124c:	fe bf       	out	0x3e, r31	; 62
    124e:	0f be       	out	0x3f, r0	; 63
    1250:	ed bf       	out	0x3d, r30	; 61
    1252:	c3 01       	movw	r24, r6
    1254:	0e 94 b5 14 	call	0x296a	; 0x296a <_ZN5Wheel13takeDerectionEv>
    1258:	8e 01       	movw	r16, r28
    125a:	08 58       	subi	r16, 0x88	; 136
    125c:	1f 4f       	sbci	r17, 0xFF	; 255
    125e:	f8 01       	movw	r30, r16
    1260:	91 83       	std	Z+1, r25	; 0x01
    1262:	80 83       	st	Z, r24
		Fast_print_LSD_hight(Wheel_3);
    1264:	8d b7       	in	r24, 0x3d	; 61
    1266:	9e b7       	in	r25, 0x3e	; 62
    1268:	4a 97       	sbiw	r24, 0x1a	; 26
    126a:	0f b6       	in	r0, 0x3f	; 63
    126c:	f8 94       	cli
    126e:	9e bf       	out	0x3e, r25	; 62
    1270:	0f be       	out	0x3f, r0	; 63
    1272:	8d bf       	out	0x3d, r24	; 61
    1274:	ad b7       	in	r26, 0x3d	; 61
    1276:	be b7       	in	r27, 0x3e	; 62
    1278:	11 96       	adiw	r26, 0x01	; 1
    127a:	8a e1       	ldi	r24, 0x1A	; 26
    127c:	f3 01       	movw	r30, r6
    127e:	01 90       	ld	r0, Z+
    1280:	0d 92       	st	X+, r0
    1282:	8a 95       	dec	r24
    1284:	e1 f7       	brne	.-8      	; 0x127e <_ZN7Carrage17chechWheelsBeforeEv+0xe4>
    1286:	ce 01       	movw	r24, r28
    1288:	0e 94 77 08 	call	0x10ee	; 0x10ee <_ZN7Carrage20Fast_print_LSD_hightE5Wheel>
		derWheel[4] = Wheel_4.takeDerection();
    128c:	2e 01       	movw	r4, r28
    128e:	9e e4       	ldi	r25, 0x4E	; 78
    1290:	49 0e       	add	r4, r25
    1292:	51 1c       	adc	r5, r1
    1294:	c2 01       	movw	r24, r4
    1296:	0e 94 b5 14 	call	0x296a	; 0x296a <_ZN5Wheel13takeDerectionEv>
    129a:	7e 01       	movw	r14, r28
    129c:	ea e7       	ldi	r30, 0x7A	; 122
    129e:	ee 0e       	add	r14, r30
    12a0:	f1 1c       	adc	r15, r1
    12a2:	f7 01       	movw	r30, r14
    12a4:	91 83       	std	Z+1, r25	; 0x01
    12a6:	80 83       	st	Z, r24
		Fast_print_LSD_hight(Wheel_4);
    12a8:	8d b7       	in	r24, 0x3d	; 61
    12aa:	9e b7       	in	r25, 0x3e	; 62
    12ac:	4a 97       	sbiw	r24, 0x1a	; 26
    12ae:	0f b6       	in	r0, 0x3f	; 63
    12b0:	f8 94       	cli
    12b2:	9e bf       	out	0x3e, r25	; 62
    12b4:	0f be       	out	0x3f, r0	; 63
    12b6:	8d bf       	out	0x3d, r24	; 61
    12b8:	ad b7       	in	r26, 0x3d	; 61
    12ba:	be b7       	in	r27, 0x3e	; 62
    12bc:	11 96       	adiw	r26, 0x01	; 1
    12be:	8a e1       	ldi	r24, 0x1A	; 26
    12c0:	f2 01       	movw	r30, r4
    12c2:	01 90       	ld	r0, Z+
    12c4:	0d 92       	st	X+, r0
    12c6:	8a 95       	dec	r24
    12c8:	e1 f7       	brne	.-8      	; 0x12c2 <_ZN7Carrage17chechWheelsBeforeEv+0x128>
    12ca:	ce 01       	movw	r24, r28
    12cc:	0e 94 77 08 	call	0x10ee	; 0x10ee <_ZN7Carrage20Fast_print_LSD_hightE5Wheel>
		support.Adjast(10 ,derWheel[1], derWheel[2] ,derWheel[3] ,derWheel[4] );
    12d0:	ed b7       	in	r30, 0x3d	; 61
    12d2:	fe b7       	in	r31, 0x3e	; 62
    12d4:	f4 96       	adiw	r30, 0x34	; 52
    12d6:	0f b6       	in	r0, 0x3f	; 63
    12d8:	f8 94       	cli
    12da:	fe bf       	out	0x3e, r31	; 62
    12dc:	0f be       	out	0x3f, r0	; 63
    12de:	ed bf       	out	0x3d, r30	; 61
    12e0:	f7 01       	movw	r30, r14
    12e2:	e0 80       	ld	r14, Z
    12e4:	f1 80       	ldd	r15, Z+1	; 0x01
    12e6:	f8 01       	movw	r30, r16
    12e8:	00 81       	ld	r16, Z
    12ea:	11 81       	ldd	r17, Z+1	; 0x01
    12ec:	f4 01       	movw	r30, r8
    12ee:	20 81       	ld	r18, Z
    12f0:	31 81       	ldd	r19, Z+1	; 0x01
    12f2:	f6 01       	movw	r30, r12
    12f4:	40 81       	ld	r20, Z
    12f6:	51 81       	ldd	r21, Z+1	; 0x01
    12f8:	6a e0       	ldi	r22, 0x0A	; 10
    12fa:	70 e0       	ldi	r23, 0x00	; 0
    12fc:	ce 01       	movw	r24, r28
    12fe:	88 59       	subi	r24, 0x98	; 152
    1300:	9f 4f       	sbci	r25, 0xFF	; 255
    1302:	0e 94 19 14 	call	0x2832	; 0x2832 <_ZN7Support6AdjastEiiiii>
		if	(derWheel[1]>0){checked[1]=Wheel_1.Check();}else{checked[1]=true;}
    1306:	f6 01       	movw	r30, r12
    1308:	80 81       	ld	r24, Z
    130a:	91 81       	ldd	r25, Z+1	; 0x01
    130c:	18 16       	cp	r1, r24
    130e:	19 06       	cpc	r1, r25
    1310:	54 f4       	brge	.+20     	; 0x1326 <_ZN7Carrage17chechWheelsBeforeEv+0x18c>
    1312:	ce 01       	movw	r24, r28
    1314:	0e 94 1c 15 	call	0x2a38	; 0x2a38 <_ZN5Wheel5CheckEv>
    1318:	fe 01       	movw	r30, r28
    131a:	e2 58       	subi	r30, 0x82	; 130
    131c:	ff 4f       	sbci	r31, 0xFF	; 255
    131e:	90 e0       	ldi	r25, 0x00	; 0
    1320:	91 83       	std	Z+1, r25	; 0x01
    1322:	80 83       	st	Z, r24
    1324:	07 c0       	rjmp	.+14     	; 0x1334 <_ZN7Carrage17chechWheelsBeforeEv+0x19a>
    1326:	81 e0       	ldi	r24, 0x01	; 1
    1328:	90 e0       	ldi	r25, 0x00	; 0
    132a:	fe 01       	movw	r30, r28
    132c:	e2 58       	subi	r30, 0x82	; 130
    132e:	ff 4f       	sbci	r31, 0xFF	; 255
    1330:	91 83       	std	Z+1, r25	; 0x01
    1332:	80 83       	st	Z, r24
		if	(derWheel[2]>0){checked[2]=Wheel_2.Check();}else{checked[2]=true;}
    1334:	fe 01       	movw	r30, r28
    1336:	ea 58       	subi	r30, 0x8A	; 138
    1338:	ff 4f       	sbci	r31, 0xFF	; 255
    133a:	80 81       	ld	r24, Z
    133c:	91 81       	ldd	r25, Z+1	; 0x01
    133e:	18 16       	cp	r1, r24
    1340:	19 06       	cpc	r1, r25
    1342:	54 f4       	brge	.+20     	; 0x1358 <_ZN7Carrage17chechWheelsBeforeEv+0x1be>
    1344:	c5 01       	movw	r24, r10
    1346:	0e 94 1c 15 	call	0x2a38	; 0x2a38 <_ZN5Wheel5CheckEv>
    134a:	fe 01       	movw	r30, r28
    134c:	e0 58       	subi	r30, 0x80	; 128
    134e:	ff 4f       	sbci	r31, 0xFF	; 255
    1350:	90 e0       	ldi	r25, 0x00	; 0
    1352:	91 83       	std	Z+1, r25	; 0x01
    1354:	80 83       	st	Z, r24
    1356:	07 c0       	rjmp	.+14     	; 0x1366 <_ZN7Carrage17chechWheelsBeforeEv+0x1cc>
    1358:	81 e0       	ldi	r24, 0x01	; 1
    135a:	90 e0       	ldi	r25, 0x00	; 0
    135c:	fe 01       	movw	r30, r28
    135e:	e0 58       	subi	r30, 0x80	; 128
    1360:	ff 4f       	sbci	r31, 0xFF	; 255
    1362:	91 83       	std	Z+1, r25	; 0x01
    1364:	80 83       	st	Z, r24
		if	(derWheel[3]>0){checked[3]=Wheel_3.Check();}else{checked[3]=true;}
    1366:	fe 01       	movw	r30, r28
    1368:	e8 58       	subi	r30, 0x88	; 136
    136a:	ff 4f       	sbci	r31, 0xFF	; 255
    136c:	80 81       	ld	r24, Z
    136e:	91 81       	ldd	r25, Z+1	; 0x01
    1370:	18 16       	cp	r1, r24
    1372:	19 06       	cpc	r1, r25
    1374:	54 f4       	brge	.+20     	; 0x138a <_ZN7Carrage17chechWheelsBeforeEv+0x1f0>
    1376:	c3 01       	movw	r24, r6
    1378:	0e 94 1c 15 	call	0x2a38	; 0x2a38 <_ZN5Wheel5CheckEv>
    137c:	fe 01       	movw	r30, r28
    137e:	ee 57       	subi	r30, 0x7E	; 126
    1380:	ff 4f       	sbci	r31, 0xFF	; 255
    1382:	90 e0       	ldi	r25, 0x00	; 0
    1384:	91 83       	std	Z+1, r25	; 0x01
    1386:	80 83       	st	Z, r24
    1388:	07 c0       	rjmp	.+14     	; 0x1398 <_ZN7Carrage17chechWheelsBeforeEv+0x1fe>
    138a:	81 e0       	ldi	r24, 0x01	; 1
    138c:	90 e0       	ldi	r25, 0x00	; 0
    138e:	fe 01       	movw	r30, r28
    1390:	ee 57       	subi	r30, 0x7E	; 126
    1392:	ff 4f       	sbci	r31, 0xFF	; 255
    1394:	91 83       	std	Z+1, r25	; 0x01
    1396:	80 83       	st	Z, r24
		if	(derWheel[4]>0){checked[4]=Wheel_4.Check();}else{checked[4]=true;}	
    1398:	fe 01       	movw	r30, r28
    139a:	e6 58       	subi	r30, 0x86	; 134
    139c:	ff 4f       	sbci	r31, 0xFF	; 255
    139e:	80 81       	ld	r24, Z
    13a0:	91 81       	ldd	r25, Z+1	; 0x01
    13a2:	18 16       	cp	r1, r24
    13a4:	19 06       	cpc	r1, r25
    13a6:	54 f4       	brge	.+20     	; 0x13bc <_ZN7Carrage17chechWheelsBeforeEv+0x222>
    13a8:	c2 01       	movw	r24, r4
    13aa:	0e 94 1c 15 	call	0x2a38	; 0x2a38 <_ZN5Wheel5CheckEv>
    13ae:	fe 01       	movw	r30, r28
    13b0:	ec 57       	subi	r30, 0x7C	; 124
    13b2:	ff 4f       	sbci	r31, 0xFF	; 255
    13b4:	90 e0       	ldi	r25, 0x00	; 0
    13b6:	91 83       	std	Z+1, r25	; 0x01
    13b8:	80 83       	st	Z, r24
    13ba:	07 c0       	rjmp	.+14     	; 0x13ca <_ZN7Carrage17chechWheelsBeforeEv+0x230>
    13bc:	81 e0       	ldi	r24, 0x01	; 1
    13be:	90 e0       	ldi	r25, 0x00	; 0
    13c0:	fe 01       	movw	r30, r28
    13c2:	ec 57       	subi	r30, 0x7C	; 124
    13c4:	ff 4f       	sbci	r31, 0xFF	; 255
    13c6:	91 83       	std	Z+1, r25	; 0x01
    13c8:	80 83       	st	Z, r24
		if  (checked[1]&&checked[2]&&checked[3]&&checked[4]){return true;}else{return false;}					
    13ca:	fe 01       	movw	r30, r28
    13cc:	e2 58       	subi	r30, 0x82	; 130
    13ce:	ff 4f       	sbci	r31, 0xFF	; 255
    13d0:	80 81       	ld	r24, Z
    13d2:	91 81       	ldd	r25, Z+1	; 0x01
    13d4:	89 2b       	or	r24, r25
    13d6:	99 f0       	breq	.+38     	; 0x13fe <_ZN7Carrage17chechWheelsBeforeEv+0x264>
    13d8:	32 96       	adiw	r30, 0x02	; 2
    13da:	80 81       	ld	r24, Z
    13dc:	91 81       	ldd	r25, Z+1	; 0x01
    13de:	89 2b       	or	r24, r25
    13e0:	81 f0       	breq	.+32     	; 0x1402 <_ZN7Carrage17chechWheelsBeforeEv+0x268>
    13e2:	32 96       	adiw	r30, 0x02	; 2
    13e4:	80 81       	ld	r24, Z
    13e6:	91 81       	ldd	r25, Z+1	; 0x01
    13e8:	89 2b       	or	r24, r25
    13ea:	69 f0       	breq	.+26     	; 0x1406 <_ZN7Carrage17chechWheelsBeforeEv+0x26c>
    13ec:	cc 57       	subi	r28, 0x7C	; 124
    13ee:	df 4f       	sbci	r29, 0xFF	; 255
    13f0:	81 e0       	ldi	r24, 0x01	; 1
    13f2:	28 81       	ld	r18, Y
    13f4:	39 81       	ldd	r19, Y+1	; 0x01
    13f6:	23 2b       	or	r18, r19
    13f8:	39 f4       	brne	.+14     	; 0x1408 <_ZN7Carrage17chechWheelsBeforeEv+0x26e>
    13fa:	80 e0       	ldi	r24, 0x00	; 0
    13fc:	05 c0       	rjmp	.+10     	; 0x1408 <_ZN7Carrage17chechWheelsBeforeEv+0x26e>
    13fe:	80 e0       	ldi	r24, 0x00	; 0
    1400:	03 c0       	rjmp	.+6      	; 0x1408 <_ZN7Carrage17chechWheelsBeforeEv+0x26e>
    1402:	80 e0       	ldi	r24, 0x00	; 0
    1404:	01 c0       	rjmp	.+2      	; 0x1408 <_ZN7Carrage17chechWheelsBeforeEv+0x26e>
    1406:	80 e0       	ldi	r24, 0x00	; 0
}
    1408:	df 91       	pop	r29
    140a:	cf 91       	pop	r28
    140c:	1f 91       	pop	r17
    140e:	0f 91       	pop	r16
    1410:	ff 90       	pop	r15
    1412:	ef 90       	pop	r14
    1414:	df 90       	pop	r13
    1416:	cf 90       	pop	r12
    1418:	bf 90       	pop	r11
    141a:	af 90       	pop	r10
    141c:	9f 90       	pop	r9
    141e:	8f 90       	pop	r8
    1420:	7f 90       	pop	r7
    1422:	6f 90       	pop	r6
    1424:	5f 90       	pop	r5
    1426:	4f 90       	pop	r4
    1428:	08 95       	ret

0000142a <_ZN7Carrage9AjustmentEv>:
	Wheel_3.Down(step);
	Wheel_4.Down(step);
	Ajustment();
}

void Carrage::Ajustment(){
    142a:	2f 92       	push	r2
    142c:	3f 92       	push	r3
    142e:	4f 92       	push	r4
    1430:	5f 92       	push	r5
    1432:	6f 92       	push	r6
    1434:	7f 92       	push	r7
    1436:	8f 92       	push	r8
    1438:	9f 92       	push	r9
    143a:	af 92       	push	r10
    143c:	bf 92       	push	r11
    143e:	cf 92       	push	r12
    1440:	df 92       	push	r13
    1442:	ef 92       	push	r14
    1444:	ff 92       	push	r15
    1446:	0f 93       	push	r16
    1448:	1f 93       	push	r17
    144a:	cf 93       	push	r28
    144c:	df 93       	push	r29
    144e:	cd b7       	in	r28, 0x3d	; 61
    1450:	de b7       	in	r29, 0x3e	; 62
    1452:	2e 97       	sbiw	r28, 0x0e	; 14
    1454:	0f b6       	in	r0, 0x3f	; 63
    1456:	f8 94       	cli
    1458:	de bf       	out	0x3e, r29	; 62
    145a:	0f be       	out	0x3f, r0	; 63
    145c:	cd bf       	out	0x3d, r28	; 61
    145e:	9e 87       	std	Y+14, r25	; 0x0e
    1460:	8d 87       	std	Y+13, r24	; 0x0d
	
	finish=1;
    1462:	fc 01       	movw	r30, r24
    1464:	ea 57       	subi	r30, 0x7A	; 122
    1466:	ff 4f       	sbci	r31, 0xFF	; 255
    1468:	81 e0       	ldi	r24, 0x01	; 1
    146a:	90 e0       	ldi	r25, 0x00	; 0
    146c:	91 83       	std	Z+1, r25	; 0x01
    146e:	80 83       	st	Z, r24
	int i=0;
	if (chechWheelsBefore()){
    1470:	8d 85       	ldd	r24, Y+13	; 0x0d
    1472:	9e 85       	ldd	r25, Y+14	; 0x0e
    1474:	0e 94 cd 08 	call	0x119a	; 0x119a <_ZN7Carrage17chechWheelsBeforeEv>
    1478:	88 23       	and	r24, r24
    147a:	09 f4       	brne	.+2      	; 0x147e <_ZN7Carrage9AjustmentEv+0x54>
    147c:	31 c1       	rjmp	.+610    	; 0x16e0 <_ZN7Carrage9AjustmentEv+0x2b6>
		while(finish>0&&i<100){
    147e:	ed 85       	ldd	r30, Y+13	; 0x0d
    1480:	fe 85       	ldd	r31, Y+14	; 0x0e
    1482:	ea 57       	subi	r30, 0x7A	; 122
    1484:	ff 4f       	sbci	r31, 0xFF	; 255
    1486:	80 81       	ld	r24, Z
    1488:	91 81       	ldd	r25, Z+1	; 0x01
    148a:	18 16       	cp	r1, r24
    148c:	19 06       	cpc	r1, r25
    148e:	0c f0       	brlt	.+2      	; 0x1492 <_ZN7Carrage9AjustmentEv+0x68>
    1490:	27 c1       	rjmp	.+590    	; 0x16e0 <_ZN7Carrage9AjustmentEv+0x2b6>
    1492:	81 2c       	mov	r8, r1
    1494:	91 2c       	mov	r9, r1
			derWheel[1] = Wheel_1.takeDerection();
    1496:	6d 84       	ldd	r6, Y+13	; 0x0d
    1498:	7e 84       	ldd	r7, Y+14	; 0x0e
    149a:	84 e7       	ldi	r24, 0x74	; 116
    149c:	68 0e       	add	r6, r24
    149e:	71 1c       	adc	r7, r1
			Fast_print_LSD_hight(Wheel_1);
			derWheel[2] = Wheel_2.takeDerection();
    14a0:	ed 85       	ldd	r30, Y+13	; 0x0d
    14a2:	fe 85       	ldd	r31, Y+14	; 0x0e
    14a4:	7a 96       	adiw	r30, 0x1a	; 26
    14a6:	fa 83       	std	Y+2, r31	; 0x02
    14a8:	e9 83       	std	Y+1, r30	; 0x01
    14aa:	4d 84       	ldd	r4, Y+13	; 0x0d
    14ac:	5e 84       	ldd	r5, Y+14	; 0x0e
    14ae:	f6 e7       	ldi	r31, 0x76	; 118
    14b0:	4f 0e       	add	r4, r31
    14b2:	51 1c       	adc	r5, r1
			Fast_print_LSD_hight(Wheel_2);
			derWheel[3] = Wheel_3.takeDerection();
    14b4:	8d 85       	ldd	r24, Y+13	; 0x0d
    14b6:	9e 85       	ldd	r25, Y+14	; 0x0e
    14b8:	c4 96       	adiw	r24, 0x34	; 52
    14ba:	9c 83       	std	Y+4, r25	; 0x04
    14bc:	8b 83       	std	Y+3, r24	; 0x03
    14be:	2d 84       	ldd	r2, Y+13	; 0x0d
    14c0:	3e 84       	ldd	r3, Y+14	; 0x0e
    14c2:	98 e7       	ldi	r25, 0x78	; 120
    14c4:	29 0e       	add	r2, r25
    14c6:	31 1c       	adc	r3, r1
			Fast_print_LSD_hight(Wheel_3);
			derWheel[4] = Wheel_4.takeDerection();
    14c8:	ed 85       	ldd	r30, Y+13	; 0x0d
    14ca:	fe 85       	ldd	r31, Y+14	; 0x0e
    14cc:	e2 5b       	subi	r30, 0xB2	; 178
    14ce:	ff 4f       	sbci	r31, 0xFF	; 255
    14d0:	fe 83       	std	Y+6, r31	; 0x06
    14d2:	ed 83       	std	Y+5, r30	; 0x05
    14d4:	8d 85       	ldd	r24, Y+13	; 0x0d
    14d6:	9e 85       	ldd	r25, Y+14	; 0x0e
    14d8:	86 58       	subi	r24, 0x86	; 134
    14da:	9f 4f       	sbci	r25, 0xFF	; 255
    14dc:	98 87       	std	Y+8, r25	; 0x08
    14de:	8f 83       	std	Y+7, r24	; 0x07
			Fast_print_LSD_hight(Wheel_4);
		
			finish = derWheel[1] + derWheel[2] + derWheel[3] + derWheel[4];
    14e0:	ed 85       	ldd	r30, Y+13	; 0x0d
    14e2:	fe 85       	ldd	r31, Y+14	; 0x0e
    14e4:	ea 57       	subi	r30, 0x7A	; 122
    14e6:	ff 4f       	sbci	r31, 0xFF	; 255
    14e8:	fa 87       	std	Y+10, r31	; 0x0a
    14ea:	e9 87       	std	Y+9, r30	; 0x09
			support.Adjast(getStep() ,derWheel[1], derWheel[2] ,derWheel[3] ,derWheel[4] );	
    14ec:	8d 85       	ldd	r24, Y+13	; 0x0d
    14ee:	9e 85       	ldd	r25, Y+14	; 0x0e
    14f0:	88 59       	subi	r24, 0x98	; 152
    14f2:	9f 4f       	sbci	r25, 0xFF	; 255
    14f4:	9c 87       	std	Y+12, r25	; 0x0c
    14f6:	8b 87       	std	Y+11, r24	; 0x0b
    14f8:	05 c0       	rjmp	.+10     	; 0x1504 <_ZN7Carrage9AjustmentEv+0xda>
void Carrage::Ajustment(){
	
	finish=1;
	int i=0;
	if (chechWheelsBefore()){
		while(finish>0&&i<100){
    14fa:	f4 e6       	ldi	r31, 0x64	; 100
    14fc:	8f 16       	cp	r8, r31
    14fe:	91 04       	cpc	r9, r1
    1500:	09 f4       	brne	.+2      	; 0x1504 <_ZN7Carrage9AjustmentEv+0xda>
    1502:	b2 c0       	rjmp	.+356    	; 0x1668 <_ZN7Carrage9AjustmentEv+0x23e>
			derWheel[1] = Wheel_1.takeDerection();
    1504:	8d 85       	ldd	r24, Y+13	; 0x0d
    1506:	9e 85       	ldd	r25, Y+14	; 0x0e
    1508:	0e 94 b5 14 	call	0x296a	; 0x296a <_ZN5Wheel13takeDerectionEv>
    150c:	f3 01       	movw	r30, r6
    150e:	91 83       	std	Z+1, r25	; 0x01
    1510:	80 83       	st	Z, r24
			Fast_print_LSD_hight(Wheel_1);
    1512:	8d b7       	in	r24, 0x3d	; 61
    1514:	9e b7       	in	r25, 0x3e	; 62
    1516:	4a 97       	sbiw	r24, 0x1a	; 26
    1518:	0f b6       	in	r0, 0x3f	; 63
    151a:	f8 94       	cli
    151c:	9e bf       	out	0x3e, r25	; 62
    151e:	0f be       	out	0x3f, r0	; 63
    1520:	8d bf       	out	0x3d, r24	; 61
    1522:	ad b7       	in	r26, 0x3d	; 61
    1524:	be b7       	in	r27, 0x3e	; 62
    1526:	11 96       	adiw	r26, 0x01	; 1
    1528:	8a e1       	ldi	r24, 0x1A	; 26
    152a:	ed 85       	ldd	r30, Y+13	; 0x0d
    152c:	fe 85       	ldd	r31, Y+14	; 0x0e
    152e:	01 90       	ld	r0, Z+
    1530:	0d 92       	st	X+, r0
    1532:	8a 95       	dec	r24
    1534:	e1 f7       	brne	.-8      	; 0x152e <_ZN7Carrage9AjustmentEv+0x104>
    1536:	8d 85       	ldd	r24, Y+13	; 0x0d
    1538:	9e 85       	ldd	r25, Y+14	; 0x0e
    153a:	0e 94 77 08 	call	0x10ee	; 0x10ee <_ZN7Carrage20Fast_print_LSD_hightE5Wheel>
			derWheel[2] = Wheel_2.takeDerection();
    153e:	89 81       	ldd	r24, Y+1	; 0x01
    1540:	9a 81       	ldd	r25, Y+2	; 0x02
    1542:	0e 94 b5 14 	call	0x296a	; 0x296a <_ZN5Wheel13takeDerectionEv>
    1546:	f2 01       	movw	r30, r4
    1548:	91 83       	std	Z+1, r25	; 0x01
    154a:	80 83       	st	Z, r24
			Fast_print_LSD_hight(Wheel_2);
    154c:	8d b7       	in	r24, 0x3d	; 61
    154e:	9e b7       	in	r25, 0x3e	; 62
    1550:	4a 97       	sbiw	r24, 0x1a	; 26
    1552:	0f b6       	in	r0, 0x3f	; 63
    1554:	f8 94       	cli
    1556:	9e bf       	out	0x3e, r25	; 62
    1558:	0f be       	out	0x3f, r0	; 63
    155a:	8d bf       	out	0x3d, r24	; 61
    155c:	ad b7       	in	r26, 0x3d	; 61
    155e:	be b7       	in	r27, 0x3e	; 62
    1560:	11 96       	adiw	r26, 0x01	; 1
    1562:	8a e1       	ldi	r24, 0x1A	; 26
    1564:	e9 81       	ldd	r30, Y+1	; 0x01
    1566:	fa 81       	ldd	r31, Y+2	; 0x02
    1568:	01 90       	ld	r0, Z+
    156a:	0d 92       	st	X+, r0
    156c:	8a 95       	dec	r24
    156e:	e1 f7       	brne	.-8      	; 0x1568 <_ZN7Carrage9AjustmentEv+0x13e>
    1570:	8d 85       	ldd	r24, Y+13	; 0x0d
    1572:	9e 85       	ldd	r25, Y+14	; 0x0e
    1574:	0e 94 77 08 	call	0x10ee	; 0x10ee <_ZN7Carrage20Fast_print_LSD_hightE5Wheel>
			derWheel[3] = Wheel_3.takeDerection();
    1578:	0f b6       	in	r0, 0x3f	; 63
    157a:	f8 94       	cli
    157c:	de bf       	out	0x3e, r29	; 62
    157e:	0f be       	out	0x3f, r0	; 63
    1580:	cd bf       	out	0x3d, r28	; 61
    1582:	8b 81       	ldd	r24, Y+3	; 0x03
    1584:	9c 81       	ldd	r25, Y+4	; 0x04
    1586:	0e 94 b5 14 	call	0x296a	; 0x296a <_ZN5Wheel13takeDerectionEv>
    158a:	f1 01       	movw	r30, r2
    158c:	91 83       	std	Z+1, r25	; 0x01
    158e:	80 83       	st	Z, r24
			Fast_print_LSD_hight(Wheel_3);
    1590:	8d b7       	in	r24, 0x3d	; 61
    1592:	9e b7       	in	r25, 0x3e	; 62
    1594:	4a 97       	sbiw	r24, 0x1a	; 26
    1596:	0f b6       	in	r0, 0x3f	; 63
    1598:	f8 94       	cli
    159a:	9e bf       	out	0x3e, r25	; 62
    159c:	0f be       	out	0x3f, r0	; 63
    159e:	8d bf       	out	0x3d, r24	; 61
    15a0:	ad b7       	in	r26, 0x3d	; 61
    15a2:	be b7       	in	r27, 0x3e	; 62
    15a4:	11 96       	adiw	r26, 0x01	; 1
    15a6:	8a e1       	ldi	r24, 0x1A	; 26
    15a8:	eb 81       	ldd	r30, Y+3	; 0x03
    15aa:	fc 81       	ldd	r31, Y+4	; 0x04
    15ac:	01 90       	ld	r0, Z+
    15ae:	0d 92       	st	X+, r0
    15b0:	8a 95       	dec	r24
    15b2:	e1 f7       	brne	.-8      	; 0x15ac <_ZN7Carrage9AjustmentEv+0x182>
    15b4:	8d 85       	ldd	r24, Y+13	; 0x0d
    15b6:	9e 85       	ldd	r25, Y+14	; 0x0e
    15b8:	0e 94 77 08 	call	0x10ee	; 0x10ee <_ZN7Carrage20Fast_print_LSD_hightE5Wheel>
			derWheel[4] = Wheel_4.takeDerection();
    15bc:	8d 81       	ldd	r24, Y+5	; 0x05
    15be:	9e 81       	ldd	r25, Y+6	; 0x06
    15c0:	0e 94 b5 14 	call	0x296a	; 0x296a <_ZN5Wheel13takeDerectionEv>
    15c4:	ef 81       	ldd	r30, Y+7	; 0x07
    15c6:	f8 85       	ldd	r31, Y+8	; 0x08
    15c8:	91 83       	std	Z+1, r25	; 0x01
    15ca:	80 83       	st	Z, r24
			Fast_print_LSD_hight(Wheel_4);
    15cc:	8d b7       	in	r24, 0x3d	; 61
    15ce:	9e b7       	in	r25, 0x3e	; 62
    15d0:	4a 97       	sbiw	r24, 0x1a	; 26
    15d2:	0f b6       	in	r0, 0x3f	; 63
    15d4:	f8 94       	cli
    15d6:	9e bf       	out	0x3e, r25	; 62
    15d8:	0f be       	out	0x3f, r0	; 63
    15da:	8d bf       	out	0x3d, r24	; 61
    15dc:	ad b7       	in	r26, 0x3d	; 61
    15de:	be b7       	in	r27, 0x3e	; 62
    15e0:	11 96       	adiw	r26, 0x01	; 1
    15e2:	8a e1       	ldi	r24, 0x1A	; 26
    15e4:	ed 81       	ldd	r30, Y+5	; 0x05
    15e6:	fe 81       	ldd	r31, Y+6	; 0x06
    15e8:	01 90       	ld	r0, Z+
    15ea:	0d 92       	st	X+, r0
    15ec:	8a 95       	dec	r24
    15ee:	e1 f7       	brne	.-8      	; 0x15e8 <_ZN7Carrage9AjustmentEv+0x1be>
    15f0:	8d 85       	ldd	r24, Y+13	; 0x0d
    15f2:	9e 85       	ldd	r25, Y+14	; 0x0e
    15f4:	0e 94 77 08 	call	0x10ee	; 0x10ee <_ZN7Carrage20Fast_print_LSD_hightE5Wheel>
		
			finish = derWheel[1] + derWheel[2] + derWheel[3] + derWheel[4];
    15f8:	f3 01       	movw	r30, r6
    15fa:	a0 80       	ld	r10, Z
    15fc:	b1 80       	ldd	r11, Z+1	; 0x01
    15fe:	f2 01       	movw	r30, r4
    1600:	c0 80       	ld	r12, Z
    1602:	d1 80       	ldd	r13, Z+1	; 0x01
    1604:	f1 01       	movw	r30, r2
    1606:	00 81       	ld	r16, Z
    1608:	11 81       	ldd	r17, Z+1	; 0x01
    160a:	ef 81       	ldd	r30, Y+7	; 0x07
    160c:	f8 85       	ldd	r31, Y+8	; 0x08
    160e:	e0 80       	ld	r14, Z
    1610:	f1 80       	ldd	r15, Z+1	; 0x01
    1612:	c5 01       	movw	r24, r10
    1614:	8c 0d       	add	r24, r12
    1616:	9d 1d       	adc	r25, r13
    1618:	80 0f       	add	r24, r16
    161a:	91 1f       	adc	r25, r17
    161c:	8e 0d       	add	r24, r14
    161e:	9f 1d       	adc	r25, r15
    1620:	e9 85       	ldd	r30, Y+9	; 0x09
    1622:	fa 85       	ldd	r31, Y+10	; 0x0a
    1624:	91 83       	std	Z+1, r25	; 0x01
    1626:	80 83       	st	Z, r24
			support.Adjast(getStep() ,derWheel[1], derWheel[2] ,derWheel[3] ,derWheel[4] );	
    1628:	0f b6       	in	r0, 0x3f	; 63
    162a:	f8 94       	cli
    162c:	de bf       	out	0x3e, r29	; 62
    162e:	0f be       	out	0x3f, r0	; 63
    1630:	cd bf       	out	0x3d, r28	; 61
    1632:	8d 85       	ldd	r24, Y+13	; 0x0d
    1634:	9e 85       	ldd	r25, Y+14	; 0x0e
    1636:	0e 94 2b 08 	call	0x1056	; 0x1056 <_ZN7Carrage7getStepEv>
    163a:	96 01       	movw	r18, r12
    163c:	a5 01       	movw	r20, r10
    163e:	bc 01       	movw	r22, r24
    1640:	8b 85       	ldd	r24, Y+11	; 0x0b
    1642:	9c 85       	ldd	r25, Y+12	; 0x0c
    1644:	0e 94 19 14 	call	0x2832	; 0x2832 <_ZN7Support6AdjastEiiiii>
			i++;
    1648:	9f ef       	ldi	r25, 0xFF	; 255
    164a:	89 1a       	sub	r8, r25
    164c:	99 0a       	sbc	r9, r25
void Carrage::Ajustment(){
	
	finish=1;
	int i=0;
	if (chechWheelsBefore()){
		while(finish>0&&i<100){
    164e:	e9 85       	ldd	r30, Y+9	; 0x09
    1650:	fa 85       	ldd	r31, Y+10	; 0x0a
    1652:	80 81       	ld	r24, Z
    1654:	91 81       	ldd	r25, Z+1	; 0x01
    1656:	18 16       	cp	r1, r24
    1658:	19 06       	cpc	r1, r25
    165a:	0c f4       	brge	.+2      	; 0x165e <_ZN7Carrage9AjustmentEv+0x234>
    165c:	4e cf       	rjmp	.-356    	; 0x14fa <_ZN7Carrage9AjustmentEv+0xd0>
			finish = derWheel[1] + derWheel[2] + derWheel[3] + derWheel[4];
			support.Adjast(getStep() ,derWheel[1], derWheel[2] ,derWheel[3] ,derWheel[4] );	
			i++;
		}
	
		if(i>=100){
    165e:	94 e6       	ldi	r25, 0x64	; 100
    1660:	89 16       	cp	r8, r25
    1662:	91 04       	cpc	r9, r1
    1664:	ec f1       	brlt	.+122    	; 0x16e0 <_ZN7Carrage9AjustmentEv+0x2b6>
    1666:	00 c0       	rjmp	.+0      	; 0x1668 <_ZN7Carrage9AjustmentEv+0x23e>
			if(derWheel[1]>0){Wheel_1.malfuction = true;}
    1668:	ed 85       	ldd	r30, Y+13	; 0x0d
    166a:	fe 85       	ldd	r31, Y+14	; 0x0e
    166c:	ec 58       	subi	r30, 0x8C	; 140
    166e:	ff 4f       	sbci	r31, 0xFF	; 255
    1670:	80 81       	ld	r24, Z
    1672:	91 81       	ldd	r25, Z+1	; 0x01
    1674:	18 16       	cp	r1, r24
    1676:	19 06       	cpc	r1, r25
    1678:	24 f4       	brge	.+8      	; 0x1682 <_ZN7Carrage9AjustmentEv+0x258>
    167a:	81 e0       	ldi	r24, 0x01	; 1
    167c:	ed 85       	ldd	r30, Y+13	; 0x0d
    167e:	fe 85       	ldd	r31, Y+14	; 0x0e
    1680:	87 87       	std	Z+15, r24	; 0x0f
			if(derWheel[2]>0){Wheel_2.malfuction = true;}
    1682:	ed 85       	ldd	r30, Y+13	; 0x0d
    1684:	fe 85       	ldd	r31, Y+14	; 0x0e
    1686:	ea 58       	subi	r30, 0x8A	; 138
    1688:	ff 4f       	sbci	r31, 0xFF	; 255
    168a:	80 81       	ld	r24, Z
    168c:	91 81       	ldd	r25, Z+1	; 0x01
    168e:	18 16       	cp	r1, r24
    1690:	19 06       	cpc	r1, r25
    1692:	24 f4       	brge	.+8      	; 0x169c <_ZN7Carrage9AjustmentEv+0x272>
    1694:	81 e0       	ldi	r24, 0x01	; 1
    1696:	ed 85       	ldd	r30, Y+13	; 0x0d
    1698:	fe 85       	ldd	r31, Y+14	; 0x0e
    169a:	81 a7       	std	Z+41, r24	; 0x29
			if(derWheel[3]>0){Wheel_3.malfuction = true;}
    169c:	ed 85       	ldd	r30, Y+13	; 0x0d
    169e:	fe 85       	ldd	r31, Y+14	; 0x0e
    16a0:	e8 58       	subi	r30, 0x88	; 136
    16a2:	ff 4f       	sbci	r31, 0xFF	; 255
    16a4:	80 81       	ld	r24, Z
    16a6:	91 81       	ldd	r25, Z+1	; 0x01
    16a8:	18 16       	cp	r1, r24
    16aa:	19 06       	cpc	r1, r25
    16ac:	34 f4       	brge	.+12     	; 0x16ba <_ZN7Carrage9AjustmentEv+0x290>
    16ae:	81 e0       	ldi	r24, 0x01	; 1
    16b0:	ed 85       	ldd	r30, Y+13	; 0x0d
    16b2:	fe 85       	ldd	r31, Y+14	; 0x0e
    16b4:	ed 5b       	subi	r30, 0xBD	; 189
    16b6:	ff 4f       	sbci	r31, 0xFF	; 255
    16b8:	80 83       	st	Z, r24
			if(derWheel[4]>0){Wheel_4.malfuction = true;}
    16ba:	ed 85       	ldd	r30, Y+13	; 0x0d
    16bc:	fe 85       	ldd	r31, Y+14	; 0x0e
    16be:	e6 58       	subi	r30, 0x86	; 134
    16c0:	ff 4f       	sbci	r31, 0xFF	; 255
    16c2:	80 81       	ld	r24, Z
    16c4:	91 81       	ldd	r25, Z+1	; 0x01
    16c6:	18 16       	cp	r1, r24
    16c8:	19 06       	cpc	r1, r25
    16ca:	54 f4       	brge	.+20     	; 0x16e0 <_ZN7Carrage9AjustmentEv+0x2b6>
    16cc:	8d 85       	ldd	r24, Y+13	; 0x0d
    16ce:	9e 85       	ldd	r25, Y+14	; 0x0e
    16d0:	83 5a       	subi	r24, 0xA3	; 163
    16d2:	9f 4f       	sbci	r25, 0xFF	; 255
    16d4:	9a 83       	std	Y+2, r25	; 0x02
    16d6:	89 83       	std	Y+1, r24	; 0x01
    16d8:	81 e0       	ldi	r24, 0x01	; 1
    16da:	e9 81       	ldd	r30, Y+1	; 0x01
    16dc:	fa 81       	ldd	r31, Y+2	; 0x02
    16de:	80 83       	st	Z, r24
		}
	}
}
    16e0:	2e 96       	adiw	r28, 0x0e	; 14
    16e2:	0f b6       	in	r0, 0x3f	; 63
    16e4:	f8 94       	cli
    16e6:	de bf       	out	0x3e, r29	; 62
    16e8:	0f be       	out	0x3f, r0	; 63
    16ea:	cd bf       	out	0x3d, r28	; 61
    16ec:	df 91       	pop	r29
    16ee:	cf 91       	pop	r28
    16f0:	1f 91       	pop	r17
    16f2:	0f 91       	pop	r16
    16f4:	ff 90       	pop	r15
    16f6:	ef 90       	pop	r14
    16f8:	df 90       	pop	r13
    16fa:	cf 90       	pop	r12
    16fc:	bf 90       	pop	r11
    16fe:	af 90       	pop	r10
    1700:	9f 90       	pop	r9
    1702:	8f 90       	pop	r8
    1704:	7f 90       	pop	r7
    1706:	6f 90       	pop	r6
    1708:	5f 90       	pop	r5
    170a:	4f 90       	pop	r4
    170c:	3f 90       	pop	r3
    170e:	2f 90       	pop	r2
    1710:	08 95       	ret

00001712 <_ZN7Carrage2UpEf>:
	Wheel_2.initialHight();
	Wheel_3.initialHight();
	Wheel_4.initialHight();
}

void Carrage::Up(float step){
    1712:	cf 92       	push	r12
    1714:	df 92       	push	r13
    1716:	ef 92       	push	r14
    1718:	ff 92       	push	r15
    171a:	cf 93       	push	r28
    171c:	df 93       	push	r29
    171e:	ec 01       	movw	r28, r24
    1720:	6a 01       	movw	r12, r20
    1722:	7b 01       	movw	r14, r22
	Wheel_1.Up(step);
    1724:	0e 94 45 15 	call	0x2a8a	; 0x2a8a <_ZN5Wheel2UpEf>
	Wheel_2.Up(step);
    1728:	b7 01       	movw	r22, r14
    172a:	a6 01       	movw	r20, r12
    172c:	ce 01       	movw	r24, r28
    172e:	4a 96       	adiw	r24, 0x1a	; 26
    1730:	0e 94 45 15 	call	0x2a8a	; 0x2a8a <_ZN5Wheel2UpEf>
	Wheel_3.Up(step);
    1734:	b7 01       	movw	r22, r14
    1736:	a6 01       	movw	r20, r12
    1738:	ce 01       	movw	r24, r28
    173a:	c4 96       	adiw	r24, 0x34	; 52
    173c:	0e 94 45 15 	call	0x2a8a	; 0x2a8a <_ZN5Wheel2UpEf>
	Wheel_4.Up(step);
    1740:	b7 01       	movw	r22, r14
    1742:	a6 01       	movw	r20, r12
    1744:	ce 01       	movw	r24, r28
    1746:	82 5b       	subi	r24, 0xB2	; 178
    1748:	9f 4f       	sbci	r25, 0xFF	; 255
    174a:	0e 94 45 15 	call	0x2a8a	; 0x2a8a <_ZN5Wheel2UpEf>
	Ajustment();
    174e:	ce 01       	movw	r24, r28
    1750:	0e 94 15 0a 	call	0x142a	; 0x142a <_ZN7Carrage9AjustmentEv>
}
    1754:	df 91       	pop	r29
    1756:	cf 91       	pop	r28
    1758:	ff 90       	pop	r15
    175a:	ef 90       	pop	r14
    175c:	df 90       	pop	r13
    175e:	cf 90       	pop	r12
    1760:	08 95       	ret

00001762 <_ZN7Carrage4DownEf>:

void Carrage::Down(float step){
    1762:	cf 92       	push	r12
    1764:	df 92       	push	r13
    1766:	ef 92       	push	r14
    1768:	ff 92       	push	r15
    176a:	cf 93       	push	r28
    176c:	df 93       	push	r29
    176e:	ec 01       	movw	r28, r24
    1770:	6a 01       	movw	r12, r20
    1772:	7b 01       	movw	r14, r22
	Wheel_1.Down(step);
    1774:	0e 94 5f 15 	call	0x2abe	; 0x2abe <_ZN5Wheel4DownEf>
	Wheel_2.Down(step);
    1778:	b7 01       	movw	r22, r14
    177a:	a6 01       	movw	r20, r12
    177c:	ce 01       	movw	r24, r28
    177e:	4a 96       	adiw	r24, 0x1a	; 26
    1780:	0e 94 5f 15 	call	0x2abe	; 0x2abe <_ZN5Wheel4DownEf>
	Wheel_3.Down(step);
    1784:	b7 01       	movw	r22, r14
    1786:	a6 01       	movw	r20, r12
    1788:	ce 01       	movw	r24, r28
    178a:	c4 96       	adiw	r24, 0x34	; 52
    178c:	0e 94 5f 15 	call	0x2abe	; 0x2abe <_ZN5Wheel4DownEf>
	Wheel_4.Down(step);
    1790:	b7 01       	movw	r22, r14
    1792:	a6 01       	movw	r20, r12
    1794:	ce 01       	movw	r24, r28
    1796:	82 5b       	subi	r24, 0xB2	; 178
    1798:	9f 4f       	sbci	r25, 0xFF	; 255
    179a:	0e 94 5f 15 	call	0x2abe	; 0x2abe <_ZN5Wheel4DownEf>
	Ajustment();
    179e:	ce 01       	movw	r24, r28
    17a0:	0e 94 15 0a 	call	0x142a	; 0x142a <_ZN7Carrage9AjustmentEv>
}
    17a4:	df 91       	pop	r29
    17a6:	cf 91       	pop	r28
    17a8:	ff 90       	pop	r15
    17aa:	ef 90       	pop	r14
    17ac:	df 90       	pop	r13
    17ae:	cf 90       	pop	r12
    17b0:	08 95       	ret

000017b2 <_ZL7LcdSendh10LcdCmdData>:
        if(response == OUT_OF_BORDER)
            return OUT_OF_BORDER;
    }

    return OK;
}
    17b2:	2a 98       	cbi	0x05, 2	; 5
    17b4:	61 30       	cpi	r22, 0x01	; 1
    17b6:	11 f4       	brne	.+4      	; 0x17bc <_ZL7LcdSendh10LcdCmdData+0xa>
    17b8:	29 9a       	sbi	0x05, 1	; 5
    17ba:	01 c0       	rjmp	.+2      	; 0x17be <_ZL7LcdSendh10LcdCmdData+0xc>
    17bc:	29 98       	cbi	0x05, 1	; 5
    17be:	8e bd       	out	0x2e, r24	; 46
    17c0:	0d b4       	in	r0, 0x2d	; 45
    17c2:	07 fe       	sbrs	r0, 7
    17c4:	fd cf       	rjmp	.-6      	; 0x17c0 <_ZL7LcdSendh10LcdCmdData+0xe>
    17c6:	2a 9a       	sbi	0x05, 2	; 5
    17c8:	08 95       	ret

000017ca <_Z5gftoafi>:
    17ca:	cf 92       	push	r12
    17cc:	df 92       	push	r13
    17ce:	ef 92       	push	r14
    17d0:	ff 92       	push	r15
    17d2:	0f 93       	push	r16
    17d4:	1f 93       	push	r17
    17d6:	cf 93       	push	r28
    17d8:	df 93       	push	r29
    17da:	6b 01       	movw	r12, r22
    17dc:	7c 01       	movw	r14, r24
    17de:	ea 01       	movw	r28, r20
    17e0:	ca 01       	movw	r24, r20
    17e2:	01 97       	sbiw	r24, 0x01	; 1
    17e4:	20 97       	sbiw	r28, 0x00	; 0
    17e6:	81 f0       	breq	.+32     	; 0x1808 <_Z5gftoafi+0x3e>
    17e8:	61 e0       	ldi	r22, 0x01	; 1
    17ea:	70 e0       	ldi	r23, 0x00	; 0
    17ec:	9b 01       	movw	r18, r22
    17ee:	22 0f       	add	r18, r18
    17f0:	33 1f       	adc	r19, r19
    17f2:	66 0f       	add	r22, r22
    17f4:	77 1f       	adc	r23, r23
    17f6:	66 0f       	add	r22, r22
    17f8:	77 1f       	adc	r23, r23
    17fa:	66 0f       	add	r22, r22
    17fc:	77 1f       	adc	r23, r23
    17fe:	62 0f       	add	r22, r18
    1800:	73 1f       	adc	r23, r19
    1802:	01 97       	sbiw	r24, 0x01	; 1
    1804:	98 f7       	brcc	.-26     	; 0x17ec <_Z5gftoafi+0x22>
    1806:	02 c0       	rjmp	.+4      	; 0x180c <_Z5gftoafi+0x42>
    1808:	61 e0       	ldi	r22, 0x01	; 1
    180a:	70 e0       	ldi	r23, 0x00	; 0
    180c:	07 2e       	mov	r0, r23
    180e:	00 0c       	add	r0, r0
    1810:	88 0b       	sbc	r24, r24
    1812:	99 0b       	sbc	r25, r25
    1814:	0e 94 23 16 	call	0x2c46	; 0x2c46 <__floatsisf>
    1818:	a7 01       	movw	r20, r14
    181a:	96 01       	movw	r18, r12
    181c:	0e 94 d3 16 	call	0x2da6	; 0x2da6 <__mulsf3>
    1820:	0e 94 eb 15 	call	0x2bd6	; 0x2bd6 <__fixsfsi>
    1824:	ab 01       	movw	r20, r22
    1826:	bc 01       	movw	r22, r24
    1828:	ca 01       	movw	r24, r20
    182a:	99 23       	and	r25, r25
    182c:	1c f0       	brlt	.+6      	; 0x1834 <_Z5gftoafi+0x6a>
    182e:	21 e0       	ldi	r18, 0x01	; 1
    1830:	30 e0       	ldi	r19, 0x00	; 0
    1832:	02 c0       	rjmp	.+4      	; 0x1838 <_Z5gftoafi+0x6e>
    1834:	2f ef       	ldi	r18, 0xFF	; 255
    1836:	3f ef       	ldi	r19, 0xFF	; 255
    1838:	24 9f       	mul	r18, r20
    183a:	c0 01       	movw	r24, r0
    183c:	25 9f       	mul	r18, r21
    183e:	90 0d       	add	r25, r0
    1840:	34 9f       	mul	r19, r20
    1842:	90 0d       	add	r25, r0
    1844:	11 24       	eor	r1, r1
    1846:	0f e0       	ldi	r16, 0x0F	; 15
    1848:	11 e0       	ldi	r17, 0x01	; 1
    184a:	0f 2e       	mov	r0, r31
    184c:	fa e0       	ldi	r31, 0x0A	; 10
    184e:	ef 2e       	mov	r14, r31
    1850:	f1 2c       	mov	r15, r1
    1852:	f0 2d       	mov	r31, r0
    1854:	0f 2e       	mov	r0, r31
    1856:	fe e2       	ldi	r31, 0x2E	; 46
    1858:	df 2e       	mov	r13, r31
    185a:	f0 2d       	mov	r31, r0
    185c:	02 c0       	rjmp	.+4      	; 0x1862 <_Z5gftoafi+0x98>
    185e:	8f 01       	movw	r16, r30
    1860:	ea 01       	movw	r28, r20
    1862:	f8 01       	movw	r30, r16
    1864:	b7 01       	movw	r22, r14
    1866:	0e 94 40 17 	call	0x2e80	; 0x2e80 <__divmodhi4>
    186a:	80 5d       	subi	r24, 0xD0	; 208
    186c:	82 93       	st	-Z, r24
    186e:	86 2f       	mov	r24, r22
    1870:	97 2f       	mov	r25, r23
    1872:	ae 01       	movw	r20, r28
    1874:	41 50       	subi	r20, 0x01	; 1
    1876:	51 09       	sbc	r21, r1
    1878:	19 f4       	brne	.+6      	; 0x1880 <_Z5gftoafi+0xb6>
    187a:	f8 01       	movw	r30, r16
    187c:	32 97       	sbiw	r30, 0x02	; 2
    187e:	d0 82       	st	Z, r13
    1880:	00 97       	sbiw	r24, 0x00	; 0
    1882:	69 f7       	brne	.-38     	; 0x185e <_Z5gftoafi+0x94>
    1884:	14 16       	cp	r1, r20
    1886:	15 06       	cpc	r1, r21
    1888:	d4 f4       	brge	.+52     	; 0x18be <_Z5gftoafi+0xf4>
    188a:	be 01       	movw	r22, r28
    188c:	62 50       	subi	r22, 0x02	; 2
    188e:	71 09       	sbc	r23, r1
    1890:	df 01       	movw	r26, r30
    1892:	40 e3       	ldi	r20, 0x30	; 48
    1894:	21 97       	sbiw	r28, 0x01	; 1
    1896:	ce 1b       	sub	r28, r30
    1898:	df 0b       	sbc	r29, r31
    189a:	4e 93       	st	-X, r20
    189c:	cd 01       	movw	r24, r26
    189e:	8c 0f       	add	r24, r28
    18a0:	9d 1f       	adc	r25, r29
    18a2:	18 16       	cp	r1, r24
    18a4:	19 06       	cpc	r1, r25
    18a6:	cc f3       	brlt	.-14     	; 0x189a <_Z5gftoafi+0xd0>
    18a8:	cb 01       	movw	r24, r22
    18aa:	99 23       	and	r25, r25
    18ac:	14 f4       	brge	.+4      	; 0x18b2 <_Z5gftoafi+0xe8>
    18ae:	80 e0       	ldi	r24, 0x00	; 0
    18b0:	90 e0       	ldi	r25, 0x00	; 0
    18b2:	80 95       	com	r24
    18b4:	90 95       	com	r25
    18b6:	e8 0f       	add	r30, r24
    18b8:	f9 1f       	adc	r31, r25
    18ba:	8e e2       	ldi	r24, 0x2E	; 46
    18bc:	82 93       	st	-Z, r24
    18be:	80 81       	ld	r24, Z
    18c0:	8e 32       	cpi	r24, 0x2E	; 46
    18c2:	11 f4       	brne	.+4      	; 0x18c8 <_Z5gftoafi+0xfe>
    18c4:	80 e3       	ldi	r24, 0x30	; 48
    18c6:	82 93       	st	-Z, r24
    18c8:	33 23       	and	r19, r19
    18ca:	14 f4       	brge	.+4      	; 0x18d0 <_Z5gftoafi+0x106>
    18cc:	8d e2       	ldi	r24, 0x2D	; 45
    18ce:	82 93       	st	-Z, r24
    18d0:	cf 01       	movw	r24, r30
    18d2:	df 91       	pop	r29
    18d4:	cf 91       	pop	r28
    18d6:	1f 91       	pop	r17
    18d8:	0f 91       	pop	r16
    18da:	ff 90       	pop	r15
    18dc:	ef 90       	pop	r14
    18de:	df 90       	pop	r13
    18e0:	cf 90       	pop	r12
    18e2:	08 95       	ret

000018e4 <_Z8Lcd_initv>:
    18e4:	2c 9a       	sbi	0x05, 4	; 5
    18e6:	84 b1       	in	r24, 0x04	; 4
    18e8:	8e 63       	ori	r24, 0x3E	; 62
    18ea:	84 b9       	out	0x04, r24	; 4
    18ec:	2c 98       	cbi	0x05, 4	; 5
    18ee:	2c 9a       	sbi	0x05, 4	; 5
    18f0:	80 e5       	ldi	r24, 0x50	; 80
    18f2:	8c bd       	out	0x2c, r24	; 44
    18f4:	2a 9a       	sbi	0x05, 2	; 5
    18f6:	60 e0       	ldi	r22, 0x00	; 0
    18f8:	81 e2       	ldi	r24, 0x21	; 33
    18fa:	0e 94 d9 0b 	call	0x17b2	; 0x17b2 <_ZL7LcdSendh10LcdCmdData>
    18fe:	60 e0       	ldi	r22, 0x00	; 0
    1900:	88 ec       	ldi	r24, 0xC8	; 200
    1902:	0e 94 d9 0b 	call	0x17b2	; 0x17b2 <_ZL7LcdSendh10LcdCmdData>
    1906:	60 e0       	ldi	r22, 0x00	; 0
    1908:	86 e0       	ldi	r24, 0x06	; 6
    190a:	0e 94 d9 0b 	call	0x17b2	; 0x17b2 <_ZL7LcdSendh10LcdCmdData>
    190e:	60 e0       	ldi	r22, 0x00	; 0
    1910:	83 e1       	ldi	r24, 0x13	; 19
    1912:	0e 94 d9 0b 	call	0x17b2	; 0x17b2 <_ZL7LcdSendh10LcdCmdData>
    1916:	60 e0       	ldi	r22, 0x00	; 0
    1918:	80 e2       	ldi	r24, 0x20	; 32
    191a:	0e 94 d9 0b 	call	0x17b2	; 0x17b2 <_ZL7LcdSendh10LcdCmdData>
    191e:	60 e0       	ldi	r22, 0x00	; 0
    1920:	8c e0       	ldi	r24, 0x0C	; 12
    1922:	0e 94 d9 0b 	call	0x17b2	; 0x17b2 <_ZL7LcdSendh10LcdCmdData>
    1926:	08 95       	ret

00001928 <_Z9Lcd_clearv>:
    1928:	88 ef       	ldi	r24, 0xF8	; 248
    192a:	91 e0       	ldi	r25, 0x01	; 1
    192c:	e6 e1       	ldi	r30, 0x16	; 22
    192e:	f1 e0       	ldi	r31, 0x01	; 1
    1930:	df 01       	movw	r26, r30
    1932:	9c 01       	movw	r18, r24
    1934:	1d 92       	st	X+, r1
    1936:	21 50       	subi	r18, 0x01	; 1
    1938:	30 40       	sbci	r19, 0x00	; 0
    193a:	e1 f7       	brne	.-8      	; 0x1934 <_Z9Lcd_clearv+0xc>
    193c:	10 92 15 01 	sts	0x0115, r1	; 0x800115 <_ZL11LoWaterMark+0x1>
    1940:	10 92 14 01 	sts	0x0114, r1	; 0x800114 <_ZL11LoWaterMark>
    1944:	87 ef       	ldi	r24, 0xF7	; 247
    1946:	91 e0       	ldi	r25, 0x01	; 1
    1948:	90 93 13 01 	sts	0x0113, r25	; 0x800113 <_ZL11HiWaterMark+0x1>
    194c:	80 93 12 01 	sts	0x0112, r24	; 0x800112 <_ZL11HiWaterMark>
    1950:	08 95       	ret

00001952 <_Z10Lcd_updatev>:
    1952:	ef 92       	push	r14
    1954:	ff 92       	push	r15
    1956:	0f 93       	push	r16
    1958:	1f 93       	push	r17
    195a:	cf 93       	push	r28
    195c:	df 93       	push	r29
    195e:	80 91 14 01 	lds	r24, 0x0114	; 0x800114 <_ZL11LoWaterMark>
    1962:	90 91 15 01 	lds	r25, 0x0115	; 0x800115 <_ZL11LoWaterMark+0x1>
    1966:	99 23       	and	r25, r25
    1968:	2c f4       	brge	.+10     	; 0x1974 <_Z10Lcd_updatev+0x22>
    196a:	10 92 15 01 	sts	0x0115, r1	; 0x800115 <_ZL11LoWaterMark+0x1>
    196e:	10 92 14 01 	sts	0x0114, r1	; 0x800114 <_ZL11LoWaterMark>
    1972:	09 c0       	rjmp	.+18     	; 0x1986 <_Z10Lcd_updatev+0x34>
    1974:	88 3f       	cpi	r24, 0xF8	; 248
    1976:	91 40       	sbci	r25, 0x01	; 1
    1978:	34 f0       	brlt	.+12     	; 0x1986 <_Z10Lcd_updatev+0x34>
    197a:	87 ef       	ldi	r24, 0xF7	; 247
    197c:	91 e0       	ldi	r25, 0x01	; 1
    197e:	90 93 15 01 	sts	0x0115, r25	; 0x800115 <_ZL11LoWaterMark+0x1>
    1982:	80 93 14 01 	sts	0x0114, r24	; 0x800114 <_ZL11LoWaterMark>
    1986:	80 91 12 01 	lds	r24, 0x0112	; 0x800112 <_ZL11HiWaterMark>
    198a:	90 91 13 01 	lds	r25, 0x0113	; 0x800113 <_ZL11HiWaterMark+0x1>
    198e:	99 23       	and	r25, r25
    1990:	2c f4       	brge	.+10     	; 0x199c <_Z10Lcd_updatev+0x4a>
    1992:	10 92 13 01 	sts	0x0113, r1	; 0x800113 <_ZL11HiWaterMark+0x1>
    1996:	10 92 12 01 	sts	0x0112, r1	; 0x800112 <_ZL11HiWaterMark>
    199a:	09 c0       	rjmp	.+18     	; 0x19ae <_Z10Lcd_updatev+0x5c>
    199c:	88 3f       	cpi	r24, 0xF8	; 248
    199e:	91 40       	sbci	r25, 0x01	; 1
    19a0:	34 f0       	brlt	.+12     	; 0x19ae <_Z10Lcd_updatev+0x5c>
    19a2:	87 ef       	ldi	r24, 0xF7	; 247
    19a4:	91 e0       	ldi	r25, 0x01	; 1
    19a6:	90 93 13 01 	sts	0x0113, r25	; 0x800113 <_ZL11HiWaterMark+0x1>
    19aa:	80 93 12 01 	sts	0x0112, r24	; 0x800112 <_ZL11HiWaterMark>
    19ae:	c0 91 14 01 	lds	r28, 0x0114	; 0x800114 <_ZL11LoWaterMark>
    19b2:	d0 91 15 01 	lds	r29, 0x0115	; 0x800115 <_ZL11LoWaterMark+0x1>
    19b6:	ce 01       	movw	r24, r28
    19b8:	64 e5       	ldi	r22, 0x54	; 84
    19ba:	70 e0       	ldi	r23, 0x00	; 0
    19bc:	0e 94 40 17 	call	0x2e80	; 0x2e80 <__divmodhi4>
    19c0:	16 2f       	mov	r17, r22
    19c2:	60 e0       	ldi	r22, 0x00	; 0
    19c4:	80 68       	ori	r24, 0x80	; 128
    19c6:	0e 94 d9 0b 	call	0x17b2	; 0x17b2 <_ZL7LcdSendh10LcdCmdData>
    19ca:	60 e0       	ldi	r22, 0x00	; 0
    19cc:	81 2f       	mov	r24, r17
    19ce:	80 64       	ori	r24, 0x40	; 64
    19d0:	0e 94 d9 0b 	call	0x17b2	; 0x17b2 <_ZL7LcdSendh10LcdCmdData>
    19d4:	e0 90 12 01 	lds	r14, 0x0112	; 0x800112 <_ZL11HiWaterMark>
    19d8:	f0 90 13 01 	lds	r15, 0x0113	; 0x800113 <_ZL11HiWaterMark+0x1>
    19dc:	ec 16       	cp	r14, r28
    19de:	fd 06       	cpc	r15, r29
    19e0:	6c f0       	brlt	.+26     	; 0x19fc <_Z10Lcd_updatev+0xaa>
    19e2:	8e 01       	movw	r16, r28
    19e4:	0a 5e       	subi	r16, 0xEA	; 234
    19e6:	1e 4f       	sbci	r17, 0xFE	; 254
    19e8:	61 e0       	ldi	r22, 0x01	; 1
    19ea:	f8 01       	movw	r30, r16
    19ec:	81 91       	ld	r24, Z+
    19ee:	8f 01       	movw	r16, r30
    19f0:	0e 94 d9 0b 	call	0x17b2	; 0x17b2 <_ZL7LcdSendh10LcdCmdData>
    19f4:	21 96       	adiw	r28, 0x01	; 1
    19f6:	ec 16       	cp	r14, r28
    19f8:	fd 06       	cpc	r15, r29
    19fa:	b4 f7       	brge	.-20     	; 0x19e8 <_Z10Lcd_updatev+0x96>
    19fc:	87 ef       	ldi	r24, 0xF7	; 247
    19fe:	91 e0       	ldi	r25, 0x01	; 1
    1a00:	90 93 15 01 	sts	0x0115, r25	; 0x800115 <_ZL11LoWaterMark+0x1>
    1a04:	80 93 14 01 	sts	0x0114, r24	; 0x800114 <_ZL11LoWaterMark>
    1a08:	10 92 13 01 	sts	0x0113, r1	; 0x800113 <_ZL11HiWaterMark+0x1>
    1a0c:	10 92 12 01 	sts	0x0112, r1	; 0x800112 <_ZL11HiWaterMark>
    1a10:	df 91       	pop	r29
    1a12:	cf 91       	pop	r28
    1a14:	1f 91       	pop	r17
    1a16:	0f 91       	pop	r16
    1a18:	ff 90       	pop	r15
    1a1a:	ef 90       	pop	r14
    1a1c:	08 95       	ret

00001a1e <_Z9LcdGotoXYhh>:
    1a1e:	8e 30       	cpi	r24, 0x0E	; 14
    1a20:	a8 f4       	brcc	.+42     	; 0x1a4c <_Z9LcdGotoXYhh+0x2e>
    1a22:	66 30       	cpi	r22, 0x06	; 6
    1a24:	a8 f4       	brcc	.+42     	; 0x1a50 <_Z9LcdGotoXYhh+0x32>
    1a26:	90 e0       	ldi	r25, 0x00	; 0
    1a28:	9c 01       	movw	r18, r24
    1a2a:	22 0f       	add	r18, r18
    1a2c:	33 1f       	adc	r19, r19
    1a2e:	82 0f       	add	r24, r18
    1a30:	93 1f       	adc	r25, r19
    1a32:	88 0f       	add	r24, r24
    1a34:	99 1f       	adc	r25, r25
    1a36:	24 e5       	ldi	r18, 0x54	; 84
    1a38:	62 9f       	mul	r22, r18
    1a3a:	80 0d       	add	r24, r0
    1a3c:	91 1d       	adc	r25, r1
    1a3e:	11 24       	eor	r1, r1
    1a40:	90 93 11 01 	sts	0x0111, r25	; 0x800111 <_ZL11LcdCacheIdx+0x1>
    1a44:	80 93 10 01 	sts	0x0110, r24	; 0x800110 <_ZL11LcdCacheIdx>
    1a48:	80 e0       	ldi	r24, 0x00	; 0
    1a4a:	08 95       	ret
    1a4c:	81 e0       	ldi	r24, 0x01	; 1
    1a4e:	08 95       	ret
    1a50:	81 e0       	ldi	r24, 0x01	; 1
    1a52:	08 95       	ret

00001a54 <_Z11LcdChr_fullh>:
    1a54:	40 91 10 01 	lds	r20, 0x0110	; 0x800110 <_ZL11LcdCacheIdx>
    1a58:	50 91 11 01 	lds	r21, 0x0111	; 0x800111 <_ZL11LcdCacheIdx+0x1>
    1a5c:	80 52       	subi	r24, 0x20	; 32
    1a5e:	90 e0       	ldi	r25, 0x00	; 0
    1a60:	fc 01       	movw	r30, r24
    1a62:	ee 0f       	add	r30, r30
    1a64:	ff 1f       	adc	r31, r31
    1a66:	e8 0f       	add	r30, r24
    1a68:	f9 1f       	adc	r31, r25
    1a6a:	ee 0f       	add	r30, r30
    1a6c:	ff 1f       	adc	r31, r31
    1a6e:	e8 5b       	subi	r30, 0xB8	; 184
    1a70:	fd 4f       	sbci	r31, 0xFD	; 253
    1a72:	da 01       	movw	r26, r20
    1a74:	aa 5e       	subi	r26, 0xEA	; 234
    1a76:	be 4f       	sbci	r27, 0xFE	; 254
    1a78:	9a 01       	movw	r18, r20
    1a7a:	24 5e       	subi	r18, 0xE4	; 228
    1a7c:	3e 4f       	sbci	r19, 0xFE	; 254
    1a7e:	84 91       	lpm	r24, Z
    1a80:	8d 93       	st	X+, r24
    1a82:	31 96       	adiw	r30, 0x01	; 1
    1a84:	a2 17       	cp	r26, r18
    1a86:	b3 07       	cpc	r27, r19
    1a88:	d1 f7       	brne	.-12     	; 0x1a7e <_Z11LcdChr_fullh+0x2a>
    1a8a:	4a 5f       	subi	r20, 0xFA	; 250
    1a8c:	5f 4f       	sbci	r21, 0xFF	; 255
    1a8e:	50 93 11 01 	sts	0x0111, r21	; 0x800111 <_ZL11LcdCacheIdx+0x1>
    1a92:	40 93 10 01 	sts	0x0110, r20	; 0x800110 <_ZL11LcdCacheIdx>
    1a96:	80 e0       	ldi	r24, 0x00	; 0
    1a98:	08 95       	ret

00001a9a <_Z12LcdStepLevelh>:
    1a9a:	40 91 10 01 	lds	r20, 0x0110	; 0x800110 <_ZL11LcdCacheIdx>
    1a9e:	50 91 11 01 	lds	r21, 0x0111	; 0x800111 <_ZL11LcdCacheIdx+0x1>
    1aa2:	90 e0       	ldi	r25, 0x00	; 0
    1aa4:	fc 01       	movw	r30, r24
    1aa6:	ee 0f       	add	r30, r30
    1aa8:	ff 1f       	adc	r31, r31
    1aaa:	e8 0f       	add	r30, r24
    1aac:	f9 1f       	adc	r31, r25
    1aae:	ee 0f       	add	r30, r30
    1ab0:	ff 1f       	adc	r31, r31
    1ab2:	ee 0f       	add	r30, r30
    1ab4:	ff 1f       	adc	r31, r31
    1ab6:	ee 0f       	add	r30, r30
    1ab8:	ff 1f       	adc	r31, r31
    1aba:	e8 59       	subi	r30, 0x98	; 152
    1abc:	ff 4f       	sbci	r31, 0xFF	; 255
    1abe:	da 01       	movw	r26, r20
    1ac0:	aa 5e       	subi	r26, 0xEA	; 234
    1ac2:	be 4f       	sbci	r27, 0xFE	; 254
    1ac4:	9a 01       	movw	r18, r20
    1ac6:	22 5d       	subi	r18, 0xD2	; 210
    1ac8:	3e 4f       	sbci	r19, 0xFE	; 254
    1aca:	84 91       	lpm	r24, Z
    1acc:	8d 93       	st	X+, r24
    1ace:	31 96       	adiw	r30, 0x01	; 1
    1ad0:	a2 17       	cp	r26, r18
    1ad2:	b3 07       	cpc	r27, r19
    1ad4:	d1 f7       	brne	.-12     	; 0x1aca <_Z12LcdStepLevelh+0x30>
    1ad6:	48 5e       	subi	r20, 0xE8	; 232
    1ad8:	5f 4f       	sbci	r21, 0xFF	; 255
    1ada:	50 93 11 01 	sts	0x0111, r21	; 0x800111 <_ZL11LcdCacheIdx+0x1>
    1ade:	40 93 10 01 	sts	0x0110, r20	; 0x800110 <_ZL11LcdCacheIdx>
    1ae2:	80 e0       	ldi	r24, 0x00	; 0
    1ae4:	08 95       	ret

00001ae6 <_Z6LcdChr11LcdFontSizeh>:
    1ae6:	0f 93       	push	r16
    1ae8:	1f 93       	push	r17
    1aea:	cf 93       	push	r28
    1aec:	df 93       	push	r29
    1aee:	40 91 10 01 	lds	r20, 0x0110	; 0x800110 <_ZL11LcdCacheIdx>
    1af2:	50 91 11 01 	lds	r21, 0x0111	; 0x800111 <_ZL11LcdCacheIdx+0x1>
    1af6:	20 91 14 01 	lds	r18, 0x0114	; 0x800114 <_ZL11LoWaterMark>
    1afa:	30 91 15 01 	lds	r19, 0x0115	; 0x800115 <_ZL11LoWaterMark+0x1>
    1afe:	42 17       	cp	r20, r18
    1b00:	53 07       	cpc	r21, r19
    1b02:	24 f4       	brge	.+8      	; 0x1b0c <_Z6LcdChr11LcdFontSizeh+0x26>
    1b04:	50 93 15 01 	sts	0x0115, r21	; 0x800115 <_ZL11LoWaterMark+0x1>
    1b08:	40 93 14 01 	sts	0x0114, r20	; 0x800114 <_ZL11LoWaterMark>
    1b0c:	20 ee       	ldi	r18, 0xE0	; 224
    1b0e:	26 0f       	add	r18, r22
    1b10:	20 3a       	cpi	r18, 0xA0	; 160
    1b12:	08 f4       	brcc	.+2      	; 0x1b16 <_Z6LcdChr11LcdFontSizeh+0x30>
    1b14:	9e c0       	rjmp	.+316    	; 0x1c52 <_Z6LcdChr11LcdFontSizeh+0x16c>
    1b16:	60 3c       	cpi	r22, 0xC0	; 192
    1b18:	08 f4       	brcc	.+2      	; 0x1b1c <_Z6LcdChr11LcdFontSizeh+0x36>
    1b1a:	9a c0       	rjmp	.+308    	; 0x1c50 <_Z6LcdChr11LcdFontSizeh+0x16a>
    1b1c:	20 ea       	ldi	r18, 0xA0	; 160
    1b1e:	26 0f       	add	r18, r22
    1b20:	98 c0       	rjmp	.+304    	; 0x1c52 <_Z6LcdChr11LcdFontSizeh+0x16c>
    1b22:	84 91       	lpm	r24, Z
    1b24:	88 0f       	add	r24, r24
    1b26:	8d 93       	st	X+, r24
    1b28:	31 96       	adiw	r30, 0x01	; 1
    1b2a:	a2 17       	cp	r26, r18
    1b2c:	b3 07       	cpc	r27, r19
    1b2e:	c9 f7       	brne	.-14     	; 0x1b22 <_Z6LcdChr11LcdFontSizeh+0x3c>
    1b30:	4b 5f       	subi	r20, 0xFB	; 251
    1b32:	5f 4f       	sbci	r21, 0xFF	; 255
    1b34:	50 93 11 01 	sts	0x0111, r21	; 0x800111 <_ZL11LcdCacheIdx+0x1>
    1b38:	40 93 10 01 	sts	0x0110, r20	; 0x800110 <_ZL11LcdCacheIdx>
    1b3c:	63 c0       	rjmp	.+198    	; 0x1c04 <_Z6LcdChr11LcdFontSizeh+0x11e>
    1b3e:	82 30       	cpi	r24, 0x02	; 2
    1b40:	09 f0       	breq	.+2      	; 0x1b44 <_Z6LcdChr11LcdFontSizeh+0x5e>
    1b42:	60 c0       	rjmp	.+192    	; 0x1c04 <_Z6LcdChr11LcdFontSizeh+0x11e>
    1b44:	ca 01       	movw	r24, r20
    1b46:	84 55       	subi	r24, 0x54	; 84
    1b48:	91 09       	sbc	r25, r1
    1b4a:	60 91 14 01 	lds	r22, 0x0114	; 0x800114 <_ZL11LoWaterMark>
    1b4e:	70 91 15 01 	lds	r23, 0x0115	; 0x800115 <_ZL11LoWaterMark+0x1>
    1b52:	86 17       	cp	r24, r22
    1b54:	97 07       	cpc	r25, r23
    1b56:	0c f0       	brlt	.+2      	; 0x1b5a <_Z6LcdChr11LcdFontSizeh+0x74>
    1b58:	90 c0       	rjmp	.+288    	; 0x1c7a <_Z6LcdChr11LcdFontSizeh+0x194>
    1b5a:	90 93 15 01 	sts	0x0115, r25	; 0x800115 <_ZL11LoWaterMark+0x1>
    1b5e:	80 93 14 01 	sts	0x0114, r24	; 0x800114 <_ZL11LoWaterMark>
    1b62:	8b c0       	rjmp	.+278    	; 0x1c7a <_Z6LcdChr11LcdFontSizeh+0x194>
    1b64:	24 91       	lpm	r18, Z
    1b66:	22 0f       	add	r18, r18
    1b68:	82 2f       	mov	r24, r18
    1b6a:	82 70       	andi	r24, 0x02	; 2
    1b6c:	98 2f       	mov	r25, r24
    1b6e:	99 0f       	add	r25, r25
    1b70:	89 0f       	add	r24, r25
    1b72:	98 2f       	mov	r25, r24
    1b74:	99 0f       	add	r25, r25
    1b76:	82 2f       	mov	r24, r18
    1b78:	84 70       	andi	r24, 0x04	; 4
    1b7a:	38 2f       	mov	r19, r24
    1b7c:	33 0f       	add	r19, r19
    1b7e:	83 0f       	add	r24, r19
    1b80:	88 0f       	add	r24, r24
    1b82:	88 0f       	add	r24, r24
    1b84:	89 2b       	or	r24, r25
    1b86:	02 2f       	mov	r16, r18
    1b88:	08 70       	andi	r16, 0x08	; 8
    1b8a:	01 9f       	mul	r16, r17
    1b8c:	00 2d       	mov	r16, r0
    1b8e:	11 24       	eor	r1, r1
    1b90:	08 2b       	or	r16, r24
    1b92:	30 e0       	ldi	r19, 0x00	; 0
    1b94:	35 95       	asr	r19
    1b96:	27 95       	ror	r18
    1b98:	35 95       	asr	r19
    1b9a:	27 95       	ror	r18
    1b9c:	35 95       	asr	r19
    1b9e:	27 95       	ror	r18
    1ba0:	35 95       	asr	r19
    1ba2:	27 95       	ror	r18
    1ba4:	82 2f       	mov	r24, r18
    1ba6:	82 70       	andi	r24, 0x02	; 2
    1ba8:	38 2f       	mov	r19, r24
    1baa:	33 0f       	add	r19, r19
    1bac:	83 0f       	add	r24, r19
    1bae:	88 0f       	add	r24, r24
    1bb0:	32 2f       	mov	r19, r18
    1bb2:	31 70       	andi	r19, 0x01	; 1
    1bb4:	93 2f       	mov	r25, r19
    1bb6:	99 0f       	add	r25, r25
    1bb8:	39 0f       	add	r19, r25
    1bba:	83 2b       	or	r24, r19
    1bbc:	92 2f       	mov	r25, r18
    1bbe:	94 70       	andi	r25, 0x04	; 4
    1bc0:	39 2f       	mov	r19, r25
    1bc2:	33 0f       	add	r19, r19
    1bc4:	93 0f       	add	r25, r19
    1bc6:	99 0f       	add	r25, r25
    1bc8:	99 0f       	add	r25, r25
    1bca:	89 2b       	or	r24, r25
    1bcc:	28 70       	andi	r18, 0x08	; 8
    1bce:	21 9f       	mul	r18, r17
    1bd0:	90 2d       	mov	r25, r0
    1bd2:	11 24       	eor	r1, r1
    1bd4:	89 2b       	or	r24, r25
    1bd6:	08 83       	st	Y, r16
    1bd8:	09 83       	std	Y+1, r16	; 0x01
    1bda:	8c 93       	st	X, r24
    1bdc:	11 96       	adiw	r26, 0x01	; 1
    1bde:	8c 93       	st	X, r24
    1be0:	11 97       	sbiw	r26, 0x01	; 1
    1be2:	31 96       	adiw	r30, 0x01	; 1
    1be4:	22 96       	adiw	r28, 0x02	; 2
    1be6:	12 96       	adiw	r26, 0x02	; 2
    1be8:	a6 17       	cp	r26, r22
    1bea:	b7 07       	cpc	r27, r23
    1bec:	09 f0       	breq	.+2      	; 0x1bf0 <_Z6LcdChr11LcdFontSizeh+0x10a>
    1bee:	ba cf       	rjmp	.-140    	; 0x1b64 <_Z6LcdChr11LcdFontSizeh+0x7e>
    1bf0:	ca 01       	movw	r24, r20
    1bf2:	0b 96       	adiw	r24, 0x0b	; 11
    1bf4:	68 ef       	ldi	r22, 0xF8	; 248
    1bf6:	71 e0       	ldi	r23, 0x01	; 1
    1bf8:	0e 94 40 17 	call	0x2e80	; 0x2e80 <__divmodhi4>
    1bfc:	90 93 11 01 	sts	0x0111, r25	; 0x800111 <_ZL11LcdCacheIdx+0x1>
    1c00:	80 93 10 01 	sts	0x0110, r24	; 0x800110 <_ZL11LcdCacheIdx>
    1c04:	80 91 10 01 	lds	r24, 0x0110	; 0x800110 <_ZL11LcdCacheIdx>
    1c08:	90 91 11 01 	lds	r25, 0x0111	; 0x800111 <_ZL11LcdCacheIdx+0x1>
    1c0c:	20 91 12 01 	lds	r18, 0x0112	; 0x800112 <_ZL11HiWaterMark>
    1c10:	30 91 13 01 	lds	r19, 0x0113	; 0x800113 <_ZL11HiWaterMark+0x1>
    1c14:	28 17       	cp	r18, r24
    1c16:	39 07       	cpc	r19, r25
    1c18:	24 f4       	brge	.+8      	; 0x1c22 <_Z6LcdChr11LcdFontSizeh+0x13c>
    1c1a:	90 93 13 01 	sts	0x0113, r25	; 0x800113 <_ZL11HiWaterMark+0x1>
    1c1e:	80 93 12 01 	sts	0x0112, r24	; 0x800112 <_ZL11HiWaterMark>
    1c22:	fc 01       	movw	r30, r24
    1c24:	ea 5e       	subi	r30, 0xEA	; 234
    1c26:	fe 4f       	sbci	r31, 0xFE	; 254
    1c28:	10 82       	st	Z, r1
    1c2a:	87 3f       	cpi	r24, 0xF7	; 247
    1c2c:	21 e0       	ldi	r18, 0x01	; 1
    1c2e:	92 07       	cpc	r25, r18
    1c30:	31 f4       	brne	.+12     	; 0x1c3e <_Z6LcdChr11LcdFontSizeh+0x158>
    1c32:	10 92 11 01 	sts	0x0111, r1	; 0x800111 <_ZL11LcdCacheIdx+0x1>
    1c36:	10 92 10 01 	sts	0x0110, r1	; 0x800110 <_ZL11LcdCacheIdx>
    1c3a:	82 e0       	ldi	r24, 0x02	; 2
    1c3c:	36 c0       	rjmp	.+108    	; 0x1caa <_Z6LcdChr11LcdFontSizeh+0x1c4>
    1c3e:	01 96       	adiw	r24, 0x01	; 1
    1c40:	90 93 11 01 	sts	0x0111, r25	; 0x800111 <_ZL11LcdCacheIdx+0x1>
    1c44:	80 93 10 01 	sts	0x0110, r24	; 0x800110 <_ZL11LcdCacheIdx>
    1c48:	80 e0       	ldi	r24, 0x00	; 0
    1c4a:	2f c0       	rjmp	.+94     	; 0x1caa <_Z6LcdChr11LcdFontSizeh+0x1c4>
    1c4c:	81 e0       	ldi	r24, 0x01	; 1
    1c4e:	2d c0       	rjmp	.+90     	; 0x1caa <_Z6LcdChr11LcdFontSizeh+0x1c4>
    1c50:	2f e5       	ldi	r18, 0x5F	; 95
    1c52:	81 30       	cpi	r24, 0x01	; 1
    1c54:	09 f0       	breq	.+2      	; 0x1c58 <_Z6LcdChr11LcdFontSizeh+0x172>
    1c56:	73 cf       	rjmp	.-282    	; 0x1b3e <_Z6LcdChr11LcdFontSizeh+0x58>
    1c58:	30 e0       	ldi	r19, 0x00	; 0
    1c5a:	f9 01       	movw	r30, r18
    1c5c:	ee 0f       	add	r30, r30
    1c5e:	ff 1f       	adc	r31, r31
    1c60:	e2 0f       	add	r30, r18
    1c62:	f3 1f       	adc	r31, r19
    1c64:	ee 0f       	add	r30, r30
    1c66:	ff 1f       	adc	r31, r31
    1c68:	e8 5b       	subi	r30, 0xB8	; 184
    1c6a:	fd 4f       	sbci	r31, 0xFD	; 253
    1c6c:	da 01       	movw	r26, r20
    1c6e:	aa 5e       	subi	r26, 0xEA	; 234
    1c70:	be 4f       	sbci	r27, 0xFE	; 254
    1c72:	9a 01       	movw	r18, r20
    1c74:	25 5e       	subi	r18, 0xE5	; 229
    1c76:	3e 4f       	sbci	r19, 0xFE	; 254
    1c78:	54 cf       	rjmp	.-344    	; 0x1b22 <_Z6LcdChr11LcdFontSizeh+0x3c>
    1c7a:	99 23       	and	r25, r25
    1c7c:	3c f3       	brlt	.-50     	; 0x1c4c <_Z6LcdChr11LcdFontSizeh+0x166>
    1c7e:	30 e0       	ldi	r19, 0x00	; 0
    1c80:	f9 01       	movw	r30, r18
    1c82:	ee 0f       	add	r30, r30
    1c84:	ff 1f       	adc	r31, r31
    1c86:	2e 0f       	add	r18, r30
    1c88:	3f 1f       	adc	r19, r31
    1c8a:	22 0f       	add	r18, r18
    1c8c:	33 1f       	adc	r19, r19
    1c8e:	f9 01       	movw	r30, r18
    1c90:	e8 5b       	subi	r30, 0xB8	; 184
    1c92:	fd 4f       	sbci	r31, 0xFD	; 253
    1c94:	ea 01       	movw	r28, r20
    1c96:	ce 53       	subi	r28, 0x3E	; 62
    1c98:	df 4f       	sbci	r29, 0xFF	; 255
    1c9a:	da 01       	movw	r26, r20
    1c9c:	aa 5e       	subi	r26, 0xEA	; 234
    1c9e:	be 4f       	sbci	r27, 0xFE	; 254
    1ca0:	ba 01       	movw	r22, r20
    1ca2:	60 5e       	subi	r22, 0xE0	; 224
    1ca4:	7e 4f       	sbci	r23, 0xFE	; 254
    1ca6:	18 e1       	ldi	r17, 0x18	; 24
    1ca8:	5d cf       	rjmp	.-326    	; 0x1b64 <_Z6LcdChr11LcdFontSizeh+0x7e>
    1caa:	df 91       	pop	r29
    1cac:	cf 91       	pop	r28
    1cae:	1f 91       	pop	r17
    1cb0:	0f 91       	pop	r16
    1cb2:	08 95       	ret

00001cb4 <_Z9Lcd_printhh11LcdFontSizePh>:
    1cb4:	0f 93       	push	r16
    1cb6:	1f 93       	push	r17
    1cb8:	cf 93       	push	r28
    1cba:	df 93       	push	r29
    1cbc:	d4 2f       	mov	r29, r20
    1cbe:	89 01       	movw	r16, r18
    1cc0:	0e 94 0f 0d 	call	0x1a1e	; 0x1a1e <_Z9LcdGotoXYhh>
    1cc4:	f8 01       	movw	r30, r16
    1cc6:	60 81       	ld	r22, Z
    1cc8:	66 23       	and	r22, r22
    1cca:	79 f0       	breq	.+30     	; 0x1cea <_Z9Lcd_printhh11LcdFontSizePh+0x36>
    1ccc:	c0 e0       	ldi	r28, 0x00	; 0
    1cce:	8d 2f       	mov	r24, r29
    1cd0:	0e 94 73 0d 	call	0x1ae6	; 0x1ae6 <_Z6LcdChr11LcdFontSizeh>
    1cd4:	81 30       	cpi	r24, 0x01	; 1
    1cd6:	41 f0       	breq	.+16     	; 0x1ce8 <_Z9Lcd_printhh11LcdFontSizePh+0x34>
    1cd8:	cf 5f       	subi	r28, 0xFF	; 255
    1cda:	f8 01       	movw	r30, r16
    1cdc:	ec 0f       	add	r30, r28
    1cde:	f1 1d       	adc	r31, r1
    1ce0:	60 81       	ld	r22, Z
    1ce2:	61 11       	cpse	r22, r1
    1ce4:	f4 cf       	rjmp	.-24     	; 0x1cce <_Z9Lcd_printhh11LcdFontSizePh+0x1a>
    1ce6:	01 c0       	rjmp	.+2      	; 0x1cea <_Z9Lcd_printhh11LcdFontSizePh+0x36>
    1ce8:	61 e0       	ldi	r22, 0x01	; 1
    1cea:	86 2f       	mov	r24, r22
    1cec:	df 91       	pop	r29
    1cee:	cf 91       	pop	r28
    1cf0:	1f 91       	pop	r17
    1cf2:	0f 91       	pop	r16
    1cf4:	08 95       	ret

00001cf6 <_Z10Lcd_printfhh11LcdFontSizefi>:
 *   :      n5110lcd.h
 *                 :  LcdFStr(0, 0, FONT_1X, float_var , 2);
 *                          LcdFStr(0, 0, FONT_1X, &name_of_string_as_array);
 */
void Lcd_printf ( byte x, byte y, LcdFontSize size, float data, int accuracy )
{
    1cf6:	df 92       	push	r13
    1cf8:	ef 92       	push	r14
    1cfa:	ff 92       	push	r15
    1cfc:	0f 93       	push	r16
    1cfe:	1f 93       	push	r17
    1d00:	cf 93       	push	r28
    1d02:	df 93       	push	r29
    1d04:	c8 2f       	mov	r28, r24
    1d06:	d6 2f       	mov	r29, r22
    1d08:	d4 2e       	mov	r13, r20
    1d0a:	a7 01       	movw	r20, r14
	Lcd_print(x, y, size, (unsigned char*)gftoa(data, accuracy));
    1d0c:	c9 01       	movw	r24, r18
    1d0e:	b8 01       	movw	r22, r16
    1d10:	0e 94 e5 0b 	call	0x17ca	; 0x17ca <_Z5gftoafi>
    1d14:	9c 01       	movw	r18, r24
    1d16:	4d 2d       	mov	r20, r13
    1d18:	6d 2f       	mov	r22, r29
    1d1a:	8c 2f       	mov	r24, r28
    1d1c:	0e 94 5a 0e 	call	0x1cb4	; 0x1cb4 <_Z9Lcd_printhh11LcdFontSizePh>
}
    1d20:	df 91       	pop	r29
    1d22:	cf 91       	pop	r28
    1d24:	1f 91       	pop	r17
    1d26:	0f 91       	pop	r16
    1d28:	ff 90       	pop	r15
    1d2a:	ef 90       	pop	r14
    1d2c:	df 90       	pop	r13
    1d2e:	08 95       	ret

00001d30 <_Z14Initialisationv>:
Activity activity;




void Initialisation(){
    1d30:	8f 92       	push	r8
    1d32:	9f 92       	push	r9
    1d34:	af 92       	push	r10
    1d36:	cf 92       	push	r12
    1d38:	df 92       	push	r13
    1d3a:	ef 92       	push	r14
    1d3c:	0f 93       	push	r16
    1d3e:	1f 93       	push	r17
	
	
	
	okButton.Init('D', 2);
    1d40:	42 e0       	ldi	r20, 0x02	; 2
    1d42:	50 e0       	ldi	r21, 0x00	; 0
    1d44:	64 e4       	ldi	r22, 0x44	; 68
    1d46:	8d eb       	ldi	r24, 0xBD	; 189
    1d48:	94 e0       	ldi	r25, 0x04	; 4
    1d4a:	0e 94 8b 06 	call	0xd16	; 0xd16 <_ZN6Button4InitEci>
	upButton.Init('D', 3);
    1d4e:	43 e0       	ldi	r20, 0x03	; 3
    1d50:	50 e0       	ldi	r21, 0x00	; 0
    1d52:	64 e4       	ldi	r22, 0x44	; 68
    1d54:	8a eb       	ldi	r24, 0xBA	; 186
    1d56:	94 e0       	ldi	r25, 0x04	; 4
    1d58:	0e 94 8b 06 	call	0xd16	; 0xd16 <_ZN6Button4InitEci>
	downButton.Init('D', 4);
    1d5c:	44 e0       	ldi	r20, 0x04	; 4
    1d5e:	50 e0       	ldi	r21, 0x00	; 0
    1d60:	64 e4       	ldi	r22, 0x44	; 68
    1d62:	87 eb       	ldi	r24, 0xB7	; 183
    1d64:	94 e0       	ldi	r25, 0x04	; 4
    1d66:	0e 94 8b 06 	call	0xd16	; 0xd16 <_ZN6Button4InitEci>
	leftButton.Init('D',5);
    1d6a:	45 e0       	ldi	r20, 0x05	; 5
    1d6c:	50 e0       	ldi	r21, 0x00	; 0
    1d6e:	64 e4       	ldi	r22, 0x44	; 68
    1d70:	84 eb       	ldi	r24, 0xB4	; 180
    1d72:	94 e0       	ldi	r25, 0x04	; 4
    1d74:	0e 94 8b 06 	call	0xd16	; 0xd16 <_ZN6Button4InitEci>
	rightButton.Init('D',6);
    1d78:	46 e0       	ldi	r20, 0x06	; 6
    1d7a:	50 e0       	ldi	r21, 0x00	; 0
    1d7c:	64 e4       	ldi	r22, 0x44	; 68
    1d7e:	81 eb       	ldi	r24, 0xB1	; 177
    1d80:	94 e0       	ldi	r25, 0x04	; 4
    1d82:	0e 94 8b 06 	call	0xd16	; 0xd16 <_ZN6Button4InitEci>
	
	panel.Init(okButton,upButton,downButton,leftButton,rightButton);
    1d86:	80 90 b4 04 	lds	r8, 0x04B4	; 0x8004b4 <leftButton>
    1d8a:	90 90 b5 04 	lds	r9, 0x04B5	; 0x8004b5 <leftButton+0x1>
    1d8e:	a0 90 b6 04 	lds	r10, 0x04B6	; 0x8004b6 <leftButton+0x2>
    1d92:	c0 90 b7 04 	lds	r12, 0x04B7	; 0x8004b7 <downButton>
    1d96:	d0 90 b8 04 	lds	r13, 0x04B8	; 0x8004b8 <downButton+0x1>
    1d9a:	e0 90 b9 04 	lds	r14, 0x04B9	; 0x8004b9 <downButton+0x2>
    1d9e:	00 91 ba 04 	lds	r16, 0x04BA	; 0x8004ba <upButton>
    1da2:	10 91 bb 04 	lds	r17, 0x04BB	; 0x8004bb <upButton+0x1>
    1da6:	20 91 bc 04 	lds	r18, 0x04BC	; 0x8004bc <upButton+0x2>
    1daa:	40 91 bd 04 	lds	r20, 0x04BD	; 0x8004bd <okButton>
    1dae:	50 91 be 04 	lds	r21, 0x04BE	; 0x8004be <okButton+0x1>
    1db2:	60 91 bf 04 	lds	r22, 0x04BF	; 0x8004bf <okButton+0x2>
    1db6:	80 91 b3 04 	lds	r24, 0x04B3	; 0x8004b3 <rightButton+0x2>
    1dba:	8f 93       	push	r24
    1dbc:	80 91 b2 04 	lds	r24, 0x04B2	; 0x8004b2 <rightButton+0x1>
    1dc0:	8f 93       	push	r24
    1dc2:	80 91 b1 04 	lds	r24, 0x04B1	; 0x8004b1 <rightButton>
    1dc6:	8f 93       	push	r24
    1dc8:	80 eb       	ldi	r24, 0xB0	; 176
    1dca:	93 e0       	ldi	r25, 0x03	; 3
    1dcc:	0e 94 22 13 	call	0x2644	; 0x2644 <_ZN5Panel4InitE6ButtonS0_S0_S0_S0_>
	
	suppot_1.Init('D', 0);
    1dd0:	40 e0       	ldi	r20, 0x00	; 0
    1dd2:	50 e0       	ldi	r21, 0x00	; 0
    1dd4:	64 e4       	ldi	r22, 0x44	; 68
    1dd6:	8d ea       	ldi	r24, 0xAD	; 173
    1dd8:	93 e0       	ldi	r25, 0x03	; 3
    1dda:	0e 94 df 12 	call	0x25be	; 0x25be <_ZN6Output4InitEci>
	
	Lcd_init();
    1dde:	0e 94 72 0c 	call	0x18e4	; 0x18e4 <_Z8Lcd_initv>
	
	wheel_lf.Init(1);
    1de2:	61 e0       	ldi	r22, 0x01	; 1
    1de4:	70 e0       	ldi	r23, 0x00	; 0
    1de6:	87 e9       	ldi	r24, 0x97	; 151
    1de8:	94 e0       	ldi	r25, 0x04	; 4
    1dea:	0e 94 7e 14 	call	0x28fc	; 0x28fc <_ZN5Wheel4InitEi>
	wheel_rf.Init(2);
    1dee:	62 e0       	ldi	r22, 0x02	; 2
    1df0:	70 e0       	ldi	r23, 0x00	; 0
    1df2:	8d e7       	ldi	r24, 0x7D	; 125
    1df4:	94 e0       	ldi	r25, 0x04	; 4
    1df6:	0e 94 7e 14 	call	0x28fc	; 0x28fc <_ZN5Wheel4InitEi>
	wheel_rr.Init(3);
    1dfa:	63 e0       	ldi	r22, 0x03	; 3
    1dfc:	70 e0       	ldi	r23, 0x00	; 0
    1dfe:	83 e6       	ldi	r24, 0x63	; 99
    1e00:	94 e0       	ldi	r25, 0x04	; 4
    1e02:	0e 94 7e 14 	call	0x28fc	; 0x28fc <_ZN5Wheel4InitEi>
	wheel_lr.Init(4);
    1e06:	64 e0       	ldi	r22, 0x04	; 4
    1e08:	70 e0       	ldi	r23, 0x00	; 0
    1e0a:	89 e4       	ldi	r24, 0x49	; 73
    1e0c:	94 e0       	ldi	r25, 0x04	; 4
    1e0e:	0e 94 7e 14 	call	0x28fc	; 0x28fc <_ZN5Wheel4InitEi>
	
	carrage.Init(wheel_lf,wheel_rf,wheel_rr,wheel_lr);
    1e12:	8d b7       	in	r24, 0x3d	; 61
    1e14:	9e b7       	in	r25, 0x3e	; 62
    1e16:	4a 97       	sbiw	r24, 0x1a	; 26
    1e18:	0f b6       	in	r0, 0x3f	; 63
    1e1a:	f8 94       	cli
    1e1c:	9e bf       	out	0x3e, r25	; 62
    1e1e:	0f be       	out	0x3f, r0	; 63
    1e20:	8d bf       	out	0x3d, r24	; 61
    1e22:	ad b7       	in	r26, 0x3d	; 61
    1e24:	be b7       	in	r27, 0x3e	; 62
    1e26:	11 96       	adiw	r26, 0x01	; 1
    1e28:	8a e1       	ldi	r24, 0x1A	; 26
    1e2a:	e9 e4       	ldi	r30, 0x49	; 73
    1e2c:	f4 e0       	ldi	r31, 0x04	; 4
    1e2e:	01 90       	ld	r0, Z+
    1e30:	0d 92       	st	X+, r0
    1e32:	8a 95       	dec	r24
    1e34:	e1 f7       	brne	.-8      	; 0x1e2e <_Z14Initialisationv+0xfe>
    1e36:	8d b7       	in	r24, 0x3d	; 61
    1e38:	9e b7       	in	r25, 0x3e	; 62
    1e3a:	4a 97       	sbiw	r24, 0x1a	; 26
    1e3c:	0f b6       	in	r0, 0x3f	; 63
    1e3e:	f8 94       	cli
    1e40:	9e bf       	out	0x3e, r25	; 62
    1e42:	0f be       	out	0x3f, r0	; 63
    1e44:	8d bf       	out	0x3d, r24	; 61
    1e46:	ad b7       	in	r26, 0x3d	; 61
    1e48:	be b7       	in	r27, 0x3e	; 62
    1e4a:	11 96       	adiw	r26, 0x01	; 1
    1e4c:	8a e1       	ldi	r24, 0x1A	; 26
    1e4e:	e3 e6       	ldi	r30, 0x63	; 99
    1e50:	f4 e0       	ldi	r31, 0x04	; 4
    1e52:	01 90       	ld	r0, Z+
    1e54:	0d 92       	st	X+, r0
    1e56:	8a 95       	dec	r24
    1e58:	e1 f7       	brne	.-8      	; 0x1e52 <_Z14Initialisationv+0x122>
    1e5a:	8d b7       	in	r24, 0x3d	; 61
    1e5c:	9e b7       	in	r25, 0x3e	; 62
    1e5e:	4a 97       	sbiw	r24, 0x1a	; 26
    1e60:	0f b6       	in	r0, 0x3f	; 63
    1e62:	f8 94       	cli
    1e64:	9e bf       	out	0x3e, r25	; 62
    1e66:	0f be       	out	0x3f, r0	; 63
    1e68:	8d bf       	out	0x3d, r24	; 61
    1e6a:	ad b7       	in	r26, 0x3d	; 61
    1e6c:	be b7       	in	r27, 0x3e	; 62
    1e6e:	11 96       	adiw	r26, 0x01	; 1
    1e70:	8a e1       	ldi	r24, 0x1A	; 26
    1e72:	ed e7       	ldi	r30, 0x7D	; 125
    1e74:	f4 e0       	ldi	r31, 0x04	; 4
    1e76:	01 90       	ld	r0, Z+
    1e78:	0d 92       	st	X+, r0
    1e7a:	8a 95       	dec	r24
    1e7c:	e1 f7       	brne	.-8      	; 0x1e76 <_Z14Initialisationv+0x146>
    1e7e:	8d b7       	in	r24, 0x3d	; 61
    1e80:	9e b7       	in	r25, 0x3e	; 62
    1e82:	4a 97       	sbiw	r24, 0x1a	; 26
    1e84:	0f b6       	in	r0, 0x3f	; 63
    1e86:	f8 94       	cli
    1e88:	9e bf       	out	0x3e, r25	; 62
    1e8a:	0f be       	out	0x3f, r0	; 63
    1e8c:	8d bf       	out	0x3d, r24	; 61
    1e8e:	ad b7       	in	r26, 0x3d	; 61
    1e90:	be b7       	in	r27, 0x3e	; 62
    1e92:	11 96       	adiw	r26, 0x01	; 1
    1e94:	8a e1       	ldi	r24, 0x1A	; 26
    1e96:	e7 e9       	ldi	r30, 0x97	; 151
    1e98:	f4 e0       	ldi	r31, 0x04	; 4
    1e9a:	01 90       	ld	r0, Z+
    1e9c:	0d 92       	st	X+, r0
    1e9e:	8a 95       	dec	r24
    1ea0:	e1 f7       	brne	.-8      	; 0x1e9a <_Z14Initialisationv+0x16a>
    1ea2:	8f eb       	ldi	r24, 0xBF	; 191
    1ea4:	93 e0       	ldi	r25, 0x03	; 3
    1ea6:	0e 94 eb 07 	call	0xfd6	; 0xfd6 <_ZN7Carrage4InitE5WheelS0_S0_S0_>

	
	activity.Init();
    1eaa:	8d b7       	in	r24, 0x3d	; 61
    1eac:	9e b7       	in	r25, 0x3e	; 62
    1eae:	85 59       	subi	r24, 0x95	; 149
    1eb0:	9f 4f       	sbci	r25, 0xFF	; 255
    1eb2:	0f b6       	in	r0, 0x3f	; 63
    1eb4:	f8 94       	cli
    1eb6:	9e bf       	out	0x3e, r25	; 62
    1eb8:	0f be       	out	0x3f, r0	; 63
    1eba:	8d bf       	out	0x3d, r24	; 61
    1ebc:	8e e0       	ldi	r24, 0x0E	; 14
    1ebe:	93 e0       	ldi	r25, 0x03	; 3
    1ec0:	0e 94 88 03 	call	0x710	; 0x710 <_ZN8Activity4InitEv>
	

	
}
    1ec4:	1f 91       	pop	r17
    1ec6:	0f 91       	pop	r16
    1ec8:	ef 90       	pop	r14
    1eca:	df 90       	pop	r13
    1ecc:	cf 90       	pop	r12
    1ece:	af 90       	pop	r10
    1ed0:	9f 90       	pop	r9
    1ed2:	8f 90       	pop	r8
    1ed4:	08 95       	ret

00001ed6 <main>:


int main(void)
{	

	Initialisation();
    1ed6:	0e 94 98 0e 	call	0x1d30	; 0x1d30 <_Z14Initialisationv>
	mainScreen.Render(activity, carrage);
    1eda:	8d b7       	in	r24, 0x3d	; 61
    1edc:	9e b7       	in	r25, 0x3e	; 62
    1ede:	8a 58       	subi	r24, 0x8A	; 138
    1ee0:	91 09       	sbc	r25, r1
    1ee2:	0f b6       	in	r0, 0x3f	; 63
    1ee4:	f8 94       	cli
    1ee6:	9e bf       	out	0x3e, r25	; 62
    1ee8:	0f be       	out	0x3f, r0	; 63
    1eea:	8d bf       	out	0x3d, r24	; 61
    1eec:	ad b7       	in	r26, 0x3d	; 61
    1eee:	be b7       	in	r27, 0x3e	; 62
    1ef0:	11 96       	adiw	r26, 0x01	; 1
    1ef2:	8a e8       	ldi	r24, 0x8A	; 138
    1ef4:	ef eb       	ldi	r30, 0xBF	; 191
    1ef6:	f3 e0       	ldi	r31, 0x03	; 3
    1ef8:	01 90       	ld	r0, Z+
    1efa:	0d 92       	st	X+, r0
    1efc:	8a 95       	dec	r24
    1efe:	e1 f7       	brne	.-8      	; 0x1ef8 <main+0x22>
    1f00:	8d b7       	in	r24, 0x3d	; 61
    1f02:	9e b7       	in	r25, 0x3e	; 62
    1f04:	8e 59       	subi	r24, 0x9E	; 158
    1f06:	91 09       	sbc	r25, r1
    1f08:	0f b6       	in	r0, 0x3f	; 63
    1f0a:	f8 94       	cli
    1f0c:	9e bf       	out	0x3e, r25	; 62
    1f0e:	0f be       	out	0x3f, r0	; 63
    1f10:	8d bf       	out	0x3d, r24	; 61
    1f12:	ad b7       	in	r26, 0x3d	; 61
    1f14:	be b7       	in	r27, 0x3e	; 62
    1f16:	11 96       	adiw	r26, 0x01	; 1
    1f18:	8e e9       	ldi	r24, 0x9E	; 158
    1f1a:	ee e0       	ldi	r30, 0x0E	; 14
    1f1c:	f3 e0       	ldi	r31, 0x03	; 3
    1f1e:	01 90       	ld	r0, Z+
    1f20:	0d 92       	st	X+, r0
    1f22:	8a 95       	dec	r24
    1f24:	e1 f7       	brne	.-8      	; 0x1f1e <main+0x48>
    1f26:	8c ea       	ldi	r24, 0xAC	; 172
    1f28:	93 e0       	ldi	r25, 0x03	; 3
    1f2a:	0e 94 72 12 	call	0x24e4	; 0x24e4 <_ZN11Main_Screen6RenderE8Activity7Carrage>
    1f2e:	8d b7       	in	r24, 0x3d	; 61
    1f30:	9e b7       	in	r25, 0x3e	; 62
    1f32:	88 5d       	subi	r24, 0xD8	; 216
    1f34:	9e 4f       	sbci	r25, 0xFE	; 254
    1f36:	0f b6       	in	r0, 0x3f	; 63
    1f38:	f8 94       	cli
    1f3a:	9e bf       	out	0x3e, r25	; 62
    1f3c:	0f be       	out	0x3f, r0	; 63
    1f3e:	8d bf       	out	0x3d, r24	; 61

	
    while (1) 
    {	
		
		activity.Cursor_Action(panel, carrage);
    1f40:	cf eb       	ldi	r28, 0xBF	; 191
    1f42:	d3 e0       	ldi	r29, 0x03	; 3
    1f44:	df 93       	push	r29
    1f46:	cf 93       	push	r28
    1f48:	80 90 b0 03 	lds	r8, 0x03B0	; 0x8003b0 <panel>
    1f4c:	90 90 b1 03 	lds	r9, 0x03B1	; 0x8003b1 <panel+0x1>
    1f50:	a0 90 b2 03 	lds	r10, 0x03B2	; 0x8003b2 <panel+0x2>
    1f54:	b0 90 b3 03 	lds	r11, 0x03B3	; 0x8003b3 <panel+0x3>
    1f58:	c0 90 b4 03 	lds	r12, 0x03B4	; 0x8003b4 <panel+0x4>
    1f5c:	d0 90 b5 03 	lds	r13, 0x03B5	; 0x8003b5 <panel+0x5>
    1f60:	e0 90 b6 03 	lds	r14, 0x03B6	; 0x8003b6 <panel+0x6>
    1f64:	f0 90 b7 03 	lds	r15, 0x03B7	; 0x8003b7 <panel+0x7>
    1f68:	00 91 b8 03 	lds	r16, 0x03B8	; 0x8003b8 <panel+0x8>
    1f6c:	10 91 b9 03 	lds	r17, 0x03B9	; 0x8003b9 <panel+0x9>
    1f70:	20 91 ba 03 	lds	r18, 0x03BA	; 0x8003ba <panel+0xa>
    1f74:	30 91 bb 03 	lds	r19, 0x03BB	; 0x8003bb <panel+0xb>
    1f78:	40 91 bc 03 	lds	r20, 0x03BC	; 0x8003bc <panel+0xc>
    1f7c:	50 91 bd 03 	lds	r21, 0x03BD	; 0x8003bd <panel+0xd>
    1f80:	60 91 be 03 	lds	r22, 0x03BE	; 0x8003be <panel+0xe>
    1f84:	8e e0       	ldi	r24, 0x0E	; 14
    1f86:	93 e0       	ldi	r25, 0x03	; 3
    1f88:	0e 94 0c 06 	call	0xc18	; 0xc18 <_ZN8Activity13Cursor_ActionE5PanelR7Carrage>
		mainScreen.Render(activity, carrage);
    1f8c:	8d b7       	in	r24, 0x3d	; 61
    1f8e:	9e b7       	in	r25, 0x3e	; 62
    1f90:	8a 58       	subi	r24, 0x8A	; 138
    1f92:	91 09       	sbc	r25, r1
    1f94:	0f b6       	in	r0, 0x3f	; 63
    1f96:	f8 94       	cli
    1f98:	9e bf       	out	0x3e, r25	; 62
    1f9a:	0f be       	out	0x3f, r0	; 63
    1f9c:	8d bf       	out	0x3d, r24	; 61
    1f9e:	ad b7       	in	r26, 0x3d	; 61
    1fa0:	be b7       	in	r27, 0x3e	; 62
    1fa2:	11 96       	adiw	r26, 0x01	; 1
    1fa4:	8a e8       	ldi	r24, 0x8A	; 138
    1fa6:	fe 01       	movw	r30, r28
    1fa8:	01 90       	ld	r0, Z+
    1faa:	0d 92       	st	X+, r0
    1fac:	8a 95       	dec	r24
    1fae:	e1 f7       	brne	.-8      	; 0x1fa8 <main+0xd2>
    1fb0:	8d b7       	in	r24, 0x3d	; 61
    1fb2:	9e b7       	in	r25, 0x3e	; 62
    1fb4:	8e 59       	subi	r24, 0x9E	; 158
    1fb6:	91 09       	sbc	r25, r1
    1fb8:	0f b6       	in	r0, 0x3f	; 63
    1fba:	f8 94       	cli
    1fbc:	9e bf       	out	0x3e, r25	; 62
    1fbe:	0f be       	out	0x3f, r0	; 63
    1fc0:	8d bf       	out	0x3d, r24	; 61
    1fc2:	ad b7       	in	r26, 0x3d	; 61
    1fc4:	be b7       	in	r27, 0x3e	; 62
    1fc6:	11 96       	adiw	r26, 0x01	; 1
    1fc8:	8e e9       	ldi	r24, 0x9E	; 158
    1fca:	ee e0       	ldi	r30, 0x0E	; 14
    1fcc:	f3 e0       	ldi	r31, 0x03	; 3
    1fce:	01 90       	ld	r0, Z+
    1fd0:	0d 92       	st	X+, r0
    1fd2:	8a 95       	dec	r24
    1fd4:	e1 f7       	brne	.-8      	; 0x1fce <main+0xf8>
    1fd6:	8c ea       	ldi	r24, 0xAC	; 172
    1fd8:	93 e0       	ldi	r25, 0x03	; 3
    1fda:	0e 94 72 12 	call	0x24e4	; 0x24e4 <_ZN11Main_Screen6RenderE8Activity7Carrage>
    1fde:	8d b7       	in	r24, 0x3d	; 61
    1fe0:	9e b7       	in	r25, 0x3e	; 62
    1fe2:	86 5d       	subi	r24, 0xD6	; 214
    1fe4:	9e 4f       	sbci	r25, 0xFE	; 254
    1fe6:	0f b6       	in	r0, 0x3f	; 63
    1fe8:	f8 94       	cli
    1fea:	9e bf       	out	0x3e, r25	; 62
    1fec:	0f be       	out	0x3f, r0	; 63
    1fee:	8d bf       	out	0x3d, r24	; 61
    1ff0:	a9 cf       	rjmp	.-174    	; 0x1f44 <main+0x6e>

00001ff2 <_GLOBAL__sub_I__Z14test_out_timer6Button6Output>:


#ifndef INITIALISATION_H_
#define INITIALISATION_H_

Button okButton;
    1ff2:	8d eb       	ldi	r24, 0xBD	; 189
    1ff4:	94 e0       	ldi	r25, 0x04	; 4
    1ff6:	0e 94 8a 06 	call	0xd14	; 0xd14 <_ZN6ButtonC1Ev>
Button upButton;
    1ffa:	8a eb       	ldi	r24, 0xBA	; 186
    1ffc:	94 e0       	ldi	r25, 0x04	; 4
    1ffe:	0e 94 8a 06 	call	0xd14	; 0xd14 <_ZN6ButtonC1Ev>
Button downButton;
    2002:	87 eb       	ldi	r24, 0xB7	; 183
    2004:	94 e0       	ldi	r25, 0x04	; 4
    2006:	0e 94 8a 06 	call	0xd14	; 0xd14 <_ZN6ButtonC1Ev>
Button leftButton;
    200a:	84 eb       	ldi	r24, 0xB4	; 180
    200c:	94 e0       	ldi	r25, 0x04	; 4
    200e:	0e 94 8a 06 	call	0xd14	; 0xd14 <_ZN6ButtonC1Ev>
Button rightButton;
    2012:	81 eb       	ldi	r24, 0xB1	; 177
    2014:	94 e0       	ldi	r25, 0x04	; 4
    2016:	0e 94 8a 06 	call	0xd14	; 0xd14 <_ZN6ButtonC1Ev>

Wheel wheel_lf;
    201a:	87 e9       	ldi	r24, 0x97	; 151
    201c:	94 e0       	ldi	r25, 0x04	; 4
    201e:	0e 94 7a 14 	call	0x28f4	; 0x28f4 <_ZN5WheelC1Ev>
Wheel wheel_rf;
    2022:	8d e7       	ldi	r24, 0x7D	; 125
    2024:	94 e0       	ldi	r25, 0x04	; 4
    2026:	0e 94 7a 14 	call	0x28f4	; 0x28f4 <_ZN5WheelC1Ev>
Wheel wheel_rr;
    202a:	83 e6       	ldi	r24, 0x63	; 99
    202c:	94 e0       	ldi	r25, 0x04	; 4
    202e:	0e 94 7a 14 	call	0x28f4	; 0x28f4 <_ZN5WheelC1Ev>
Wheel wheel_lr;
    2032:	89 e4       	ldi	r24, 0x49	; 73
    2034:	94 e0       	ldi	r25, 0x04	; 4
    2036:	0e 94 7a 14 	call	0x28f4	; 0x28f4 <_ZN5WheelC1Ev>

Carrage carrage;
    203a:	8f eb       	ldi	r24, 0xBF	; 191
    203c:	93 e0       	ldi	r25, 0x03	; 3
    203e:	0e 94 1f 07 	call	0xe3e	; 0xe3e <_ZN7CarrageC1Ev>

Panel panel;
    2042:	80 eb       	ldi	r24, 0xB0	; 176
    2044:	93 e0       	ldi	r25, 0x03	; 3
    2046:	0e 94 0a 13 	call	0x2614	; 0x2614 <_ZN5PanelC1Ev>

Output suppot_1;
    204a:	8d ea       	ldi	r24, 0xAD	; 173
    204c:	93 e0       	ldi	r25, 0x03	; 3
    204e:	0e 94 de 12 	call	0x25bc	; 0x25bc <_ZN6OutputC1Ev>


Main_Screen mainScreen;
    2052:	8c ea       	ldi	r24, 0xAC	; 172
    2054:	93 e0       	ldi	r25, 0x03	; 3
    2056:	0e 94 32 10 	call	0x2064	; 0x2064 <_ZN11Main_ScreenC1Ev>

Activity activity;
    205a:	8e e0       	ldi	r24, 0x0E	; 14
    205c:	93 e0       	ldi	r25, 0x03	; 3
    205e:	0e 94 87 03 	call	0x70e	; 0x70e <_ZN8ActivityC1Ev>
    2062:	08 95       	ret

00002064 <_ZN11Main_ScreenC1Ev>:
// default constructor
Main_Screen::Main_Screen()
{
} //Main_Screen

void Main_Screen::Init(){
    2064:	08 95       	ret

00002066 <_ZN11Main_Screen9Draw_menuEv>:
	Lcd_update();
	
}

void Main_Screen::Draw_menu(){
	LcdGotoXY(6,0);
    2066:	60 e0       	ldi	r22, 0x00	; 0
    2068:	86 e0       	ldi	r24, 0x06	; 6
    206a:	0e 94 0f 0d 	call	0x1a1e	; 0x1a1e <_Z9LcdGotoXYhh>
	LcdChr_full(0x9E);
    206e:	8e e9       	ldi	r24, 0x9E	; 158
    2070:	0e 94 2a 0d 	call	0x1a54	; 0x1a54 <_Z11LcdChr_fullh>
	LcdGotoXY(7,0);
    2074:	60 e0       	ldi	r22, 0x00	; 0
    2076:	87 e0       	ldi	r24, 0x07	; 7
    2078:	0e 94 0f 0d 	call	0x1a1e	; 0x1a1e <_Z9LcdGotoXYhh>
	LcdChr_full(0x9F);
    207c:	8f e9       	ldi	r24, 0x9F	; 159
    207e:	0e 94 2a 0d 	call	0x1a54	; 0x1a54 <_Z11LcdChr_fullh>
    2082:	08 95       	ret

00002084 <_ZN11Main_Screen10Draw_WheelE5Wheel>:
	Draw_Wheel(carrage.Wheel_2);
	Draw_Wheel(carrage.Wheel_3);
	Draw_Wheel(carrage.Wheel_4);
}

void Main_Screen::Draw_Wheel(Wheel wheel){
    2084:	af 92       	push	r10
    2086:	bf 92       	push	r11
    2088:	cf 92       	push	r12
    208a:	df 92       	push	r13
    208c:	ef 92       	push	r14
    208e:	ff 92       	push	r15
    2090:	0f 93       	push	r16
    2092:	1f 93       	push	r17
    2094:	cf 93       	push	r28
    2096:	df 93       	push	r29
    2098:	cd b7       	in	r28, 0x3d	; 61
    209a:	de b7       	in	r29, 0x3e	; 62
    209c:	2c 97       	sbiw	r28, 0x0c	; 12
    209e:	0f b6       	in	r0, 0x3f	; 63
    20a0:	f8 94       	cli
    20a2:	de bf       	out	0x3e, r29	; 62
    20a4:	0f be       	out	0x3f, r0	; 63
    20a6:	cd bf       	out	0x3d, r28	; 61
	int hight_pos_x;
	int hight_pos_y;
	int n = wheel.number;
	int Char_wheel[6];
	//get position
	switch(n){
    20a8:	89 8d       	ldd	r24, Y+25	; 0x19
    20aa:	9a 8d       	ldd	r25, Y+26	; 0x1a
    20ac:	82 30       	cpi	r24, 0x02	; 2
    20ae:	91 05       	cpc	r25, r1
    20b0:	99 f0       	breq	.+38     	; 0x20d8 <_ZN11Main_Screen10Draw_WheelE5Wheel+0x54>
    20b2:	1c f4       	brge	.+6      	; 0x20ba <_ZN11Main_Screen10Draw_WheelE5Wheel+0x36>
    20b4:	01 97       	sbiw	r24, 0x01	; 1
    20b6:	39 f0       	breq	.+14     	; 0x20c6 <_ZN11Main_Screen10Draw_WheelE5Wheel+0x42>
    20b8:	31 c0       	rjmp	.+98     	; 0x211c <_ZN11Main_Screen10Draw_WheelE5Wheel+0x98>
    20ba:	83 30       	cpi	r24, 0x03	; 3
    20bc:	91 05       	cpc	r25, r1
    20be:	c1 f0       	breq	.+48     	; 0x20f0 <_ZN11Main_Screen10Draw_WheelE5Wheel+0x6c>
    20c0:	04 97       	sbiw	r24, 0x04	; 4
    20c2:	19 f1       	breq	.+70     	; 0x210a <_ZN11Main_Screen10Draw_WheelE5Wheel+0x86>
    20c4:	2b c0       	rjmp	.+86     	; 0x211c <_ZN11Main_Screen10Draw_WheelE5Wheel+0x98>
		case 1:pos_x  = 3;pos_y = 0; hight_pos_x = 0; hight_pos_y = 1 ; break;
    20c6:	cc 24       	eor	r12, r12
    20c8:	c3 94       	inc	r12
    20ca:	a1 2c       	mov	r10, r1
    20cc:	00 e0       	ldi	r16, 0x00	; 0
    20ce:	0f 2e       	mov	r0, r31
    20d0:	f3 e0       	ldi	r31, 0x03	; 3
    20d2:	df 2e       	mov	r13, r31
    20d4:	f0 2d       	mov	r31, r0
    20d6:	22 c0       	rjmp	.+68     	; 0x211c <_ZN11Main_Screen10Draw_WheelE5Wheel+0x98>
		case 2:pos_x  = 9;pos_y = 0; hight_pos_x = 11; hight_pos_y = 1 ;break;
    20d8:	cc 24       	eor	r12, r12
    20da:	c3 94       	inc	r12
    20dc:	0f 2e       	mov	r0, r31
    20de:	fb e0       	ldi	r31, 0x0B	; 11
    20e0:	af 2e       	mov	r10, r31
    20e2:	f0 2d       	mov	r31, r0
    20e4:	00 e0       	ldi	r16, 0x00	; 0
    20e6:	0f 2e       	mov	r0, r31
    20e8:	f9 e0       	ldi	r31, 0x09	; 9
    20ea:	df 2e       	mov	r13, r31
    20ec:	f0 2d       	mov	r31, r0
    20ee:	16 c0       	rjmp	.+44     	; 0x211c <_ZN11Main_Screen10Draw_WheelE5Wheel+0x98>
		case 3:pos_x  = 9;pos_y = 3; hight_pos_x = 11; hight_pos_y = 4 ;break;
    20f0:	68 94       	set
    20f2:	cc 24       	eor	r12, r12
    20f4:	c2 f8       	bld	r12, 2
    20f6:	0f 2e       	mov	r0, r31
    20f8:	fb e0       	ldi	r31, 0x0B	; 11
    20fa:	af 2e       	mov	r10, r31
    20fc:	f0 2d       	mov	r31, r0
    20fe:	03 e0       	ldi	r16, 0x03	; 3
    2100:	0f 2e       	mov	r0, r31
    2102:	f9 e0       	ldi	r31, 0x09	; 9
    2104:	df 2e       	mov	r13, r31
    2106:	f0 2d       	mov	r31, r0
    2108:	09 c0       	rjmp	.+18     	; 0x211c <_ZN11Main_Screen10Draw_WheelE5Wheel+0x98>
		case 4:pos_x  = 3;pos_y = 3; hight_pos_x = 0; hight_pos_y = 4 ;break;
    210a:	68 94       	set
    210c:	cc 24       	eor	r12, r12
    210e:	c2 f8       	bld	r12, 2
    2110:	a1 2c       	mov	r10, r1
    2112:	03 e0       	ldi	r16, 0x03	; 3
    2114:	0f 2e       	mov	r0, r31
    2116:	f3 e0       	ldi	r31, 0x03	; 3
    2118:	df 2e       	mov	r13, r31
    211a:	f0 2d       	mov	r31, r0
	}
	//get char of wheel
	if(wheel.malfuction){
    211c:	88 a5       	ldd	r24, Y+40	; 0x28
    211e:	88 23       	and	r24, r24
    2120:	c9 f0       	breq	.+50     	; 0x2154 <_ZN11Main_Screen10Draw_WheelE5Wheel+0xd0>
		Char_wheel[0] = 0x8C;
    2122:	8c e8       	ldi	r24, 0x8C	; 140
    2124:	90 e0       	ldi	r25, 0x00	; 0
    2126:	9a 83       	std	Y+2, r25	; 0x02
    2128:	89 83       	std	Y+1, r24	; 0x01
		Char_wheel[1] = 0x8D;
    212a:	8d e8       	ldi	r24, 0x8D	; 141
    212c:	90 e0       	ldi	r25, 0x00	; 0
    212e:	9c 83       	std	Y+4, r25	; 0x04
    2130:	8b 83       	std	Y+3, r24	; 0x03
		Char_wheel[2] = 0x8E;
    2132:	8e e8       	ldi	r24, 0x8E	; 142
    2134:	90 e0       	ldi	r25, 0x00	; 0
    2136:	9e 83       	std	Y+6, r25	; 0x06
    2138:	8d 83       	std	Y+5, r24	; 0x05
		Char_wheel[3] = 0x8F;
    213a:	8f e8       	ldi	r24, 0x8F	; 143
    213c:	90 e0       	ldi	r25, 0x00	; 0
    213e:	98 87       	std	Y+8, r25	; 0x08
    2140:	8f 83       	std	Y+7, r24	; 0x07
		Char_wheel[4] = 0x90;
    2142:	80 e9       	ldi	r24, 0x90	; 144
    2144:	90 e0       	ldi	r25, 0x00	; 0
    2146:	9a 87       	std	Y+10, r25	; 0x0a
    2148:	89 87       	std	Y+9, r24	; 0x09
		Char_wheel[5] = 0x91;
    214a:	81 e9       	ldi	r24, 0x91	; 145
    214c:	90 e0       	ldi	r25, 0x00	; 0
    214e:	9c 87       	std	Y+12, r25	; 0x0c
    2150:	8b 87       	std	Y+11, r24	; 0x0b
    2152:	6f c0       	rjmp	.+222    	; 0x2232 <_ZN11Main_Screen10Draw_WheelE5Wheel+0x1ae>
	} else if (wheel.selected){
    2154:	8f a1       	ldd	r24, Y+39	; 0x27
    2156:	88 23       	and	r24, r24
    2158:	c9 f0       	breq	.+50     	; 0x218c <_ZN11Main_Screen10Draw_WheelE5Wheel+0x108>
		Char_wheel[0] = 0x80;
    215a:	80 e8       	ldi	r24, 0x80	; 128
    215c:	90 e0       	ldi	r25, 0x00	; 0
    215e:	9a 83       	std	Y+2, r25	; 0x02
    2160:	89 83       	std	Y+1, r24	; 0x01
		Char_wheel[1] = 0x81;
    2162:	81 e8       	ldi	r24, 0x81	; 129
    2164:	90 e0       	ldi	r25, 0x00	; 0
    2166:	9c 83       	std	Y+4, r25	; 0x04
    2168:	8b 83       	std	Y+3, r24	; 0x03
		Char_wheel[2] = 0x82;
    216a:	82 e8       	ldi	r24, 0x82	; 130
    216c:	90 e0       	ldi	r25, 0x00	; 0
    216e:	9e 83       	std	Y+6, r25	; 0x06
    2170:	8d 83       	std	Y+5, r24	; 0x05
		Char_wheel[3] = 0x83;
    2172:	83 e8       	ldi	r24, 0x83	; 131
    2174:	90 e0       	ldi	r25, 0x00	; 0
    2176:	98 87       	std	Y+8, r25	; 0x08
    2178:	8f 83       	std	Y+7, r24	; 0x07
		Char_wheel[4] = 0x84;
    217a:	84 e8       	ldi	r24, 0x84	; 132
    217c:	90 e0       	ldi	r25, 0x00	; 0
    217e:	9a 87       	std	Y+10, r25	; 0x0a
    2180:	89 87       	std	Y+9, r24	; 0x09
		Char_wheel[5] = 0x85;
    2182:	85 e8       	ldi	r24, 0x85	; 133
    2184:	90 e0       	ldi	r25, 0x00	; 0
    2186:	9c 87       	std	Y+12, r25	; 0x0c
    2188:	8b 87       	std	Y+11, r24	; 0x0b
    218a:	53 c0       	rjmp	.+166    	; 0x2232 <_ZN11Main_Screen10Draw_WheelE5Wheel+0x1ae>
	} else {
		Char_wheel[0] = 0x86;
    218c:	86 e8       	ldi	r24, 0x86	; 134
    218e:	90 e0       	ldi	r25, 0x00	; 0
    2190:	9a 83       	std	Y+2, r25	; 0x02
    2192:	89 83       	std	Y+1, r24	; 0x01
		Char_wheel[1] = 0x87;
    2194:	87 e8       	ldi	r24, 0x87	; 135
    2196:	90 e0       	ldi	r25, 0x00	; 0
    2198:	9c 83       	std	Y+4, r25	; 0x04
    219a:	8b 83       	std	Y+3, r24	; 0x03
		Char_wheel[2] = 0x88;
    219c:	88 e8       	ldi	r24, 0x88	; 136
    219e:	90 e0       	ldi	r25, 0x00	; 0
    21a0:	9e 83       	std	Y+6, r25	; 0x06
    21a2:	8d 83       	std	Y+5, r24	; 0x05
		Char_wheel[3] = 0x89;
    21a4:	89 e8       	ldi	r24, 0x89	; 137
    21a6:	90 e0       	ldi	r25, 0x00	; 0
    21a8:	98 87       	std	Y+8, r25	; 0x08
    21aa:	8f 83       	std	Y+7, r24	; 0x07
		Char_wheel[4] = 0x8A;
    21ac:	8a e8       	ldi	r24, 0x8A	; 138
    21ae:	90 e0       	ldi	r25, 0x00	; 0
    21b0:	9a 87       	std	Y+10, r25	; 0x0a
    21b2:	89 87       	std	Y+9, r24	; 0x09
		Char_wheel[5] = 0x8B;
    21b4:	8b e8       	ldi	r24, 0x8B	; 139
    21b6:	90 e0       	ldi	r25, 0x00	; 0
    21b8:	9c 87       	std	Y+12, r25	; 0x0c
    21ba:	8b 87       	std	Y+11, r24	; 0x0b
    21bc:	3a c0       	rjmp	.+116    	; 0x2232 <_ZN11Main_Screen10Draw_WheelE5Wheel+0x1ae>
	}

	//draw wheel 2 symbols for cycle 
	for ( i = 0; i <= 4; i = i + 2 ){
		LcdGotoXY(pos_x, pos_y);
    21be:	61 2f       	mov	r22, r17
    21c0:	8d 2d       	mov	r24, r13
    21c2:	0e 94 0f 0d 	call	0x1a1e	; 0x1a1e <_Z9LcdGotoXYhh>
		LcdChr_full(Char_wheel[i]);
    21c6:	f7 01       	movw	r30, r14
    21c8:	80 81       	ld	r24, Z
    21ca:	0e 94 2a 0d 	call	0x1a54	; 0x1a54 <_Z11LcdChr_fullh>
		LcdGotoXY(pos_x + 1, pos_y);
    21ce:	61 2f       	mov	r22, r17
    21d0:	8b 2d       	mov	r24, r11
    21d2:	0e 94 0f 0d 	call	0x1a1e	; 0x1a1e <_Z9LcdGotoXYhh>
		LcdChr_full(Char_wheel[i+1]); 
    21d6:	f7 01       	movw	r30, r14
    21d8:	82 81       	ldd	r24, Z+2	; 0x02
    21da:	0e 94 2a 0d 	call	0x1a54	; 0x1a54 <_Z11LcdChr_fullh>
    21de:	1f 5f       	subi	r17, 0xFF	; 255
    21e0:	f4 e0       	ldi	r31, 0x04	; 4
    21e2:	ef 0e       	add	r14, r31
    21e4:	f1 1c       	adc	r15, r1
		Char_wheel[4] = 0x8A;
		Char_wheel[5] = 0x8B;
	}

	//draw wheel 2 symbols for cycle 
	for ( i = 0; i <= 4; i = i + 2 ){
    21e6:	10 13       	cpse	r17, r16
    21e8:	ea cf       	rjmp	.-44     	; 0x21be <_ZN11Main_Screen10Draw_WheelE5Wheel+0x13a>
		LcdGotoXY(pos_x + 1, pos_y);
		LcdChr_full(Char_wheel[i+1]); 
		pos_y ++;
	}
	//print hight wheel	
	int hight = 100*wheel.get_hight();	
    21ea:	ce 01       	movw	r24, r28
    21ec:	49 96       	adiw	r24, 0x19	; 25
    21ee:	0e 94 96 14 	call	0x292c	; 0x292c <_ZN5Wheel9get_hightEv>
	Lcd_printf(hight_pos_x, hight_pos_y, FONT_1X, hight, 0);	
    21f2:	20 e0       	ldi	r18, 0x00	; 0
    21f4:	30 e0       	ldi	r19, 0x00	; 0
    21f6:	48 ec       	ldi	r20, 0xC8	; 200
    21f8:	52 e4       	ldi	r21, 0x42	; 66
    21fa:	0e 94 d3 16 	call	0x2da6	; 0x2da6 <__mulsf3>
    21fe:	0e 94 eb 15 	call	0x2bd6	; 0x2bd6 <__fixsfsi>
    2202:	07 2e       	mov	r0, r23
    2204:	00 0c       	add	r0, r0
    2206:	88 0b       	sbc	r24, r24
    2208:	99 0b       	sbc	r25, r25
    220a:	0e 94 23 16 	call	0x2c46	; 0x2c46 <__floatsisf>
    220e:	8b 01       	movw	r16, r22
    2210:	9c 01       	movw	r18, r24
    2212:	e1 2c       	mov	r14, r1
    2214:	f1 2c       	mov	r15, r1
    2216:	41 e0       	ldi	r20, 0x01	; 1
    2218:	6c 2d       	mov	r22, r12
    221a:	8a 2d       	mov	r24, r10
    221c:	0e 94 7b 0e 	call	0x1cf6	; 0x1cf6 <_Z10Lcd_printfhh11LcdFontSizefi>
	//print point
	LcdGotoXY(hight_pos_x , hight_pos_y + 1 );
    2220:	61 e0       	ldi	r22, 0x01	; 1
    2222:	6c 0d       	add	r22, r12
    2224:	8a 2d       	mov	r24, r10
    2226:	0e 94 0f 0d 	call	0x1a1e	; 0x1a1e <_Z9LcdGotoXYhh>
	LcdChr_full(0xA0);	
    222a:	80 ea       	ldi	r24, 0xA0	; 160
    222c:	0e 94 2a 0d 	call	0x1a54	; 0x1a54 <_Z11LcdChr_fullh>
}
    2230:	09 c0       	rjmp	.+18     	; 0x2244 <_ZN11Main_Screen10Draw_WheelE5Wheel+0x1c0>
    2232:	10 2f       	mov	r17, r16
    2234:	ce 01       	movw	r24, r28
    2236:	01 96       	adiw	r24, 0x01	; 1
    2238:	7c 01       	movw	r14, r24
    223a:	0d 5f       	subi	r16, 0xFD	; 253

	//draw wheel 2 symbols for cycle 
	for ( i = 0; i <= 4; i = i + 2 ){
		LcdGotoXY(pos_x, pos_y);
		LcdChr_full(Char_wheel[i]);
		LcdGotoXY(pos_x + 1, pos_y);
    223c:	bb 24       	eor	r11, r11
    223e:	b3 94       	inc	r11
    2240:	bd 0c       	add	r11, r13
    2242:	bd cf       	rjmp	.-134    	; 0x21be <_ZN11Main_Screen10Draw_WheelE5Wheel+0x13a>
	int hight = 100*wheel.get_hight();	
	Lcd_printf(hight_pos_x, hight_pos_y, FONT_1X, hight, 0);	
	//print point
	LcdGotoXY(hight_pos_x , hight_pos_y + 1 );
	LcdChr_full(0xA0);	
}
    2244:	2c 96       	adiw	r28, 0x0c	; 12
    2246:	0f b6       	in	r0, 0x3f	; 63
    2248:	f8 94       	cli
    224a:	de bf       	out	0x3e, r29	; 62
    224c:	0f be       	out	0x3f, r0	; 63
    224e:	cd bf       	out	0x3d, r28	; 61
    2250:	df 91       	pop	r29
    2252:	cf 91       	pop	r28
    2254:	1f 91       	pop	r17
    2256:	0f 91       	pop	r16
    2258:	ff 90       	pop	r15
    225a:	ef 90       	pop	r14
    225c:	df 90       	pop	r13
    225e:	cf 90       	pop	r12
    2260:	bf 90       	pop	r11
    2262:	af 90       	pop	r10
    2264:	08 95       	ret

00002266 <_ZN11Main_Screen12Draw_CarrageE7Carrage>:
	LcdChr_full(0x9E);
	LcdGotoXY(7,0);
	LcdChr_full(0x9F);
}

void Main_Screen::Draw_Carrage(Carrage carrage){
    2266:	0f 93       	push	r16
    2268:	1f 93       	push	r17
    226a:	cf 93       	push	r28
    226c:	df 93       	push	r29
    226e:	cd b7       	in	r28, 0x3d	; 61
    2270:	de b7       	in	r29, 0x3e	; 62
    2272:	8c 01       	movw	r16, r24
	Draw_Wheel(carrage.Wheel_1);
    2274:	8d b7       	in	r24, 0x3d	; 61
    2276:	9e b7       	in	r25, 0x3e	; 62
    2278:	4a 97       	sbiw	r24, 0x1a	; 26
    227a:	0f b6       	in	r0, 0x3f	; 63
    227c:	f8 94       	cli
    227e:	9e bf       	out	0x3e, r25	; 62
    2280:	0f be       	out	0x3f, r0	; 63
    2282:	8d bf       	out	0x3d, r24	; 61
    2284:	ad b7       	in	r26, 0x3d	; 61
    2286:	be b7       	in	r27, 0x3e	; 62
    2288:	11 96       	adiw	r26, 0x01	; 1
    228a:	8a e1       	ldi	r24, 0x1A	; 26
    228c:	fe 01       	movw	r30, r28
    228e:	37 96       	adiw	r30, 0x07	; 7
    2290:	01 90       	ld	r0, Z+
    2292:	0d 92       	st	X+, r0
    2294:	8a 95       	dec	r24
    2296:	e1 f7       	brne	.-8      	; 0x2290 <_ZN11Main_Screen12Draw_CarrageE7Carrage+0x2a>
    2298:	c8 01       	movw	r24, r16
    229a:	0e 94 42 10 	call	0x2084	; 0x2084 <_ZN11Main_Screen10Draw_WheelE5Wheel>
	Draw_Wheel(carrage.Wheel_2);
    229e:	8d b7       	in	r24, 0x3d	; 61
    22a0:	9e b7       	in	r25, 0x3e	; 62
    22a2:	4a 97       	sbiw	r24, 0x1a	; 26
    22a4:	0f b6       	in	r0, 0x3f	; 63
    22a6:	f8 94       	cli
    22a8:	9e bf       	out	0x3e, r25	; 62
    22aa:	0f be       	out	0x3f, r0	; 63
    22ac:	8d bf       	out	0x3d, r24	; 61
    22ae:	ad b7       	in	r26, 0x3d	; 61
    22b0:	be b7       	in	r27, 0x3e	; 62
    22b2:	11 96       	adiw	r26, 0x01	; 1
    22b4:	8a e1       	ldi	r24, 0x1A	; 26
    22b6:	fe 01       	movw	r30, r28
    22b8:	b1 96       	adiw	r30, 0x21	; 33
    22ba:	01 90       	ld	r0, Z+
    22bc:	0d 92       	st	X+, r0
    22be:	8a 95       	dec	r24
    22c0:	e1 f7       	brne	.-8      	; 0x22ba <_ZN11Main_Screen12Draw_CarrageE7Carrage+0x54>
    22c2:	c8 01       	movw	r24, r16
    22c4:	0e 94 42 10 	call	0x2084	; 0x2084 <_ZN11Main_Screen10Draw_WheelE5Wheel>
	Draw_Wheel(carrage.Wheel_3);
    22c8:	8d b7       	in	r24, 0x3d	; 61
    22ca:	9e b7       	in	r25, 0x3e	; 62
    22cc:	c4 96       	adiw	r24, 0x34	; 52
    22ce:	0f b6       	in	r0, 0x3f	; 63
    22d0:	f8 94       	cli
    22d2:	de bf       	out	0x3e, r29	; 62
    22d4:	0f be       	out	0x3f, r0	; 63
    22d6:	cd bf       	out	0x3d, r28	; 61
    22d8:	4a 97       	sbiw	r24, 0x1a	; 26
    22da:	0f b6       	in	r0, 0x3f	; 63
    22dc:	f8 94       	cli
    22de:	9e bf       	out	0x3e, r25	; 62
    22e0:	0f be       	out	0x3f, r0	; 63
    22e2:	8d bf       	out	0x3d, r24	; 61
    22e4:	ad b7       	in	r26, 0x3d	; 61
    22e6:	be b7       	in	r27, 0x3e	; 62
    22e8:	11 96       	adiw	r26, 0x01	; 1
    22ea:	8a e1       	ldi	r24, 0x1A	; 26
    22ec:	fe 01       	movw	r30, r28
    22ee:	fb 96       	adiw	r30, 0x3b	; 59
    22f0:	01 90       	ld	r0, Z+
    22f2:	0d 92       	st	X+, r0
    22f4:	8a 95       	dec	r24
    22f6:	e1 f7       	brne	.-8      	; 0x22f0 <_ZN11Main_Screen12Draw_CarrageE7Carrage+0x8a>
    22f8:	c8 01       	movw	r24, r16
    22fa:	0e 94 42 10 	call	0x2084	; 0x2084 <_ZN11Main_Screen10Draw_WheelE5Wheel>
	Draw_Wheel(carrage.Wheel_4);
    22fe:	8d b7       	in	r24, 0x3d	; 61
    2300:	9e b7       	in	r25, 0x3e	; 62
    2302:	4a 97       	sbiw	r24, 0x1a	; 26
    2304:	0f b6       	in	r0, 0x3f	; 63
    2306:	f8 94       	cli
    2308:	9e bf       	out	0x3e, r25	; 62
    230a:	0f be       	out	0x3f, r0	; 63
    230c:	8d bf       	out	0x3d, r24	; 61
    230e:	ad b7       	in	r26, 0x3d	; 61
    2310:	be b7       	in	r27, 0x3e	; 62
    2312:	11 96       	adiw	r26, 0x01	; 1
    2314:	8a e1       	ldi	r24, 0x1A	; 26
    2316:	fe 01       	movw	r30, r28
    2318:	eb 5a       	subi	r30, 0xAB	; 171
    231a:	ff 4f       	sbci	r31, 0xFF	; 255
    231c:	01 90       	ld	r0, Z+
    231e:	0d 92       	st	X+, r0
    2320:	8a 95       	dec	r24
    2322:	e1 f7       	brne	.-8      	; 0x231c <_ZN11Main_Screen12Draw_CarrageE7Carrage+0xb6>
    2324:	c8 01       	movw	r24, r16
    2326:	0e 94 42 10 	call	0x2084	; 0x2084 <_ZN11Main_Screen10Draw_WheelE5Wheel>
}
    232a:	0f b6       	in	r0, 0x3f	; 63
    232c:	f8 94       	cli
    232e:	de bf       	out	0x3e, r29	; 62
    2330:	0f be       	out	0x3f, r0	; 63
    2332:	cd bf       	out	0x3d, r28	; 61
    2334:	df 91       	pop	r29
    2336:	cf 91       	pop	r28
    2338:	1f 91       	pop	r17
    233a:	0f 91       	pop	r16
    233c:	08 95       	ret

0000233e <_ZN11Main_Screen23Draw_adjustment_carrageEi>:
	LcdGotoXY(hight_pos_x , hight_pos_y + 1 );
	LcdChr_full(0xA0);	
}

void Main_Screen::Draw_adjustment_carrage(int statment){
	if (statment == SCREEN_ADJUST){
    233e:	62 30       	cpi	r22, 0x02	; 2
    2340:	71 05       	cpc	r23, r1
    2342:	e9 f4       	brne	.+58     	; 0x237e <_ZN11Main_Screen23Draw_adjustment_carrageEi+0x40>
		LcdGotoXY(6,2);
    2344:	62 e0       	ldi	r22, 0x02	; 2
    2346:	86 e0       	ldi	r24, 0x06	; 6
    2348:	0e 94 0f 0d 	call	0x1a1e	; 0x1a1e <_Z9LcdGotoXYhh>
		LcdChr_full(0x96);
    234c:	86 e9       	ldi	r24, 0x96	; 150
    234e:	0e 94 2a 0d 	call	0x1a54	; 0x1a54 <_Z11LcdChr_fullh>
		LcdGotoXY(7,2);
    2352:	62 e0       	ldi	r22, 0x02	; 2
    2354:	87 e0       	ldi	r24, 0x07	; 7
    2356:	0e 94 0f 0d 	call	0x1a1e	; 0x1a1e <_Z9LcdGotoXYhh>
		LcdChr_full(0x97);
    235a:	87 e9       	ldi	r24, 0x97	; 151
    235c:	0e 94 2a 0d 	call	0x1a54	; 0x1a54 <_Z11LcdChr_fullh>
		LcdGotoXY(6,3);
    2360:	63 e0       	ldi	r22, 0x03	; 3
    2362:	86 e0       	ldi	r24, 0x06	; 6
    2364:	0e 94 0f 0d 	call	0x1a1e	; 0x1a1e <_Z9LcdGotoXYhh>
		LcdChr_full(0x98);
    2368:	88 e9       	ldi	r24, 0x98	; 152
    236a:	0e 94 2a 0d 	call	0x1a54	; 0x1a54 <_Z11LcdChr_fullh>
		LcdGotoXY(7,3);
    236e:	63 e0       	ldi	r22, 0x03	; 3
    2370:	87 e0       	ldi	r24, 0x07	; 7
    2372:	0e 94 0f 0d 	call	0x1a1e	; 0x1a1e <_Z9LcdGotoXYhh>
		LcdChr_full(0x99);
    2376:	89 e9       	ldi	r24, 0x99	; 153
    2378:	0e 94 2a 0d 	call	0x1a54	; 0x1a54 <_Z11LcdChr_fullh>
    237c:	08 95       	ret
	} else {
		LcdGotoXY(6,2);
    237e:	62 e0       	ldi	r22, 0x02	; 2
    2380:	86 e0       	ldi	r24, 0x06	; 6
    2382:	0e 94 0f 0d 	call	0x1a1e	; 0x1a1e <_Z9LcdGotoXYhh>
		LcdChr_full(0x92);
    2386:	82 e9       	ldi	r24, 0x92	; 146
    2388:	0e 94 2a 0d 	call	0x1a54	; 0x1a54 <_Z11LcdChr_fullh>
		LcdGotoXY(7,2);
    238c:	62 e0       	ldi	r22, 0x02	; 2
    238e:	87 e0       	ldi	r24, 0x07	; 7
    2390:	0e 94 0f 0d 	call	0x1a1e	; 0x1a1e <_Z9LcdGotoXYhh>
		LcdChr_full(0x93);
    2394:	83 e9       	ldi	r24, 0x93	; 147
    2396:	0e 94 2a 0d 	call	0x1a54	; 0x1a54 <_Z11LcdChr_fullh>
		LcdGotoXY(6,3);
    239a:	63 e0       	ldi	r22, 0x03	; 3
    239c:	86 e0       	ldi	r24, 0x06	; 6
    239e:	0e 94 0f 0d 	call	0x1a1e	; 0x1a1e <_Z9LcdGotoXYhh>
		LcdChr_full(0x94);
    23a2:	84 e9       	ldi	r24, 0x94	; 148
    23a4:	0e 94 2a 0d 	call	0x1a54	; 0x1a54 <_Z11LcdChr_fullh>
		LcdGotoXY(7,3);
    23a8:	63 e0       	ldi	r22, 0x03	; 3
    23aa:	87 e0       	ldi	r24, 0x07	; 7
    23ac:	0e 94 0f 0d 	call	0x1a1e	; 0x1a1e <_Z9LcdGotoXYhh>
		LcdChr_full(0x95);
    23b0:	85 e9       	ldi	r24, 0x95	; 149
    23b2:	0e 94 2a 0d 	call	0x1a54	; 0x1a54 <_Z11LcdChr_fullh>
    23b6:	08 95       	ret

000023b8 <_ZN11Main_Screen11Draw_CursorE8Activity>:
	}

}	

bool Main_Screen::Draw_Cursor(Activity activity){
    23b8:	cf 93       	push	r28
    23ba:	df 93       	push	r29
    23bc:	cd b7       	in	r28, 0x3d	; 61
    23be:	de b7       	in	r29, 0x3e	; 62
	
	if (activity.Statment == SCREEN_ADJUST ){return false;};
    23c0:	8d 81       	ldd	r24, Y+5	; 0x05
    23c2:	9e 81       	ldd	r25, Y+6	; 0x06
    23c4:	02 97       	sbiw	r24, 0x02	; 2
    23c6:	11 f4       	brne	.+4      	; 0x23cc <_ZN11Main_Screen11Draw_CursorE8Activity+0x14>
    23c8:	80 e0       	ldi	r24, 0x00	; 0
    23ca:	5c c0       	rjmp	.+184    	; 0x2484 <_ZN11Main_Screen11Draw_CursorE8Activity+0xcc>
	int Char_cursor[2];
	int position = activity.Cursor;
    23cc:	6b 96       	adiw	r28, 0x1b	; 27
    23ce:	8e ad       	ldd	r24, Y+62	; 0x3e
    23d0:	9f ad       	ldd	r25, Y+63	; 0x3f
    23d2:	6b 97       	sbiw	r28, 0x1b	; 27
	
	switch(position){
    23d4:	82 30       	cpi	r24, 0x02	; 2
    23d6:	91 05       	cpc	r25, r1
    23d8:	09 f4       	brne	.+2      	; 0x23dc <_ZN11Main_Screen11Draw_CursorE8Activity+0x24>
    23da:	45 c0       	rjmp	.+138    	; 0x2466 <_ZN11Main_Screen11Draw_CursorE8Activity+0xae>
    23dc:	34 f4       	brge	.+12     	; 0x23ea <_ZN11Main_Screen11Draw_CursorE8Activity+0x32>
    23de:	00 97       	sbiw	r24, 0x00	; 0
    23e0:	e1 f0       	breq	.+56     	; 0x241a <_ZN11Main_Screen11Draw_CursorE8Activity+0x62>
    23e2:	81 30       	cpi	r24, 0x01	; 1
    23e4:	91 05       	cpc	r25, r1
    23e6:	79 f1       	breq	.+94     	; 0x2446 <_ZN11Main_Screen11Draw_CursorE8Activity+0x8e>
    23e8:	08 c0       	rjmp	.+16     	; 0x23fa <_ZN11Main_Screen11Draw_CursorE8Activity+0x42>
    23ea:	84 30       	cpi	r24, 0x04	; 4
    23ec:	91 05       	cpc	r25, r1
    23ee:	99 f1       	breq	.+102    	; 0x2456 <_ZN11Main_Screen11Draw_CursorE8Activity+0x9e>
    23f0:	0c f4       	brge	.+2      	; 0x23f4 <_ZN11Main_Screen11Draw_CursorE8Activity+0x3c>
    23f2:	41 c0       	rjmp	.+130    	; 0x2476 <_ZN11Main_Screen11Draw_CursorE8Activity+0xbe>
    23f4:	85 30       	cpi	r24, 0x05	; 5
    23f6:	91 05       	cpc	r25, r1
    23f8:	d9 f0       	breq	.+54     	; 0x2430 <_ZN11Main_Screen11Draw_CursorE8Activity+0x78>
		case(LEFTDOWN):Char_cursor[0]=0x9A;break;
		case(RIGHTUP):Char_cursor[0]=0x9B;break;
		case(RIGHTDOWN):Char_cursor[0]=0x9B;break;
	}
	
	switch(position){
    23fa:	82 30       	cpi	r24, 0x02	; 2
    23fc:	91 05       	cpc	r25, r1
    23fe:	99 f1       	breq	.+102    	; 0x2466 <_ZN11Main_Screen11Draw_CursorE8Activity+0xae>
    2400:	2c f4       	brge	.+10     	; 0x240c <_ZN11Main_Screen11Draw_CursorE8Activity+0x54>
    2402:	00 97       	sbiw	r24, 0x00	; 0
    2404:	51 f0       	breq	.+20     	; 0x241a <_ZN11Main_Screen11Draw_CursorE8Activity+0x62>
    2406:	01 97       	sbiw	r24, 0x01	; 1
    2408:	e9 f5       	brne	.+122    	; 0x2484 <_ZN11Main_Screen11Draw_CursorE8Activity+0xcc>
    240a:	1d c0       	rjmp	.+58     	; 0x2446 <_ZN11Main_Screen11Draw_CursorE8Activity+0x8e>
    240c:	84 30       	cpi	r24, 0x04	; 4
    240e:	91 05       	cpc	r25, r1
    2410:	11 f1       	breq	.+68     	; 0x2456 <_ZN11Main_Screen11Draw_CursorE8Activity+0x9e>
    2412:	8c f1       	brlt	.+98     	; 0x2476 <_ZN11Main_Screen11Draw_CursorE8Activity+0xbe>
    2414:	05 97       	sbiw	r24, 0x05	; 5
    2416:	b1 f5       	brne	.+108    	; 0x2484 <_ZN11Main_Screen11Draw_CursorE8Activity+0xcc>
    2418:	0b c0       	rjmp	.+22     	; 0x2430 <_ZN11Main_Screen11Draw_CursorE8Activity+0x78>
		case(MENU):LcdGotoXY(6,1);LcdChr_full(Char_cursor[0]);LcdChr_full(Char_cursor[1]);break;
    241a:	61 e0       	ldi	r22, 0x01	; 1
    241c:	86 e0       	ldi	r24, 0x06	; 6
    241e:	0e 94 0f 0d 	call	0x1a1e	; 0x1a1e <_Z9LcdGotoXYhh>
    2422:	8c e9       	ldi	r24, 0x9C	; 156
    2424:	0e 94 2a 0d 	call	0x1a54	; 0x1a54 <_Z11LcdChr_fullh>
    2428:	8d e9       	ldi	r24, 0x9D	; 157
    242a:	0e 94 2a 0d 	call	0x1a54	; 0x1a54 <_Z11LcdChr_fullh>
    242e:	2a c0       	rjmp	.+84     	; 0x2484 <_ZN11Main_Screen11Draw_CursorE8Activity+0xcc>
		case(ADJUST):LcdGotoXY(6,4);LcdChr_full(Char_cursor[0]);LcdChr_full(Char_cursor[1]);break;
    2430:	64 e0       	ldi	r22, 0x04	; 4
    2432:	86 e0       	ldi	r24, 0x06	; 6
    2434:	0e 94 0f 0d 	call	0x1a1e	; 0x1a1e <_Z9LcdGotoXYhh>
    2438:	8c e9       	ldi	r24, 0x9C	; 156
    243a:	0e 94 2a 0d 	call	0x1a54	; 0x1a54 <_Z11LcdChr_fullh>
    243e:	8d e9       	ldi	r24, 0x9D	; 157
    2440:	0e 94 2a 0d 	call	0x1a54	; 0x1a54 <_Z11LcdChr_fullh>
    2444:	1f c0       	rjmp	.+62     	; 0x2484 <_ZN11Main_Screen11Draw_CursorE8Activity+0xcc>
		case(LEFTUP):LcdGotoXY(5,1);LcdChr_full(Char_cursor[0]);break;
    2446:	61 e0       	ldi	r22, 0x01	; 1
    2448:	85 e0       	ldi	r24, 0x05	; 5
    244a:	0e 94 0f 0d 	call	0x1a1e	; 0x1a1e <_Z9LcdGotoXYhh>
    244e:	8a e9       	ldi	r24, 0x9A	; 154
    2450:	0e 94 2a 0d 	call	0x1a54	; 0x1a54 <_Z11LcdChr_fullh>
    2454:	17 c0       	rjmp	.+46     	; 0x2484 <_ZN11Main_Screen11Draw_CursorE8Activity+0xcc>
		case(LEFTDOWN):LcdGotoXY(5,4);LcdChr_full(Char_cursor[0]);break;
    2456:	64 e0       	ldi	r22, 0x04	; 4
    2458:	85 e0       	ldi	r24, 0x05	; 5
    245a:	0e 94 0f 0d 	call	0x1a1e	; 0x1a1e <_Z9LcdGotoXYhh>
    245e:	8a e9       	ldi	r24, 0x9A	; 154
    2460:	0e 94 2a 0d 	call	0x1a54	; 0x1a54 <_Z11LcdChr_fullh>
    2464:	0f c0       	rjmp	.+30     	; 0x2484 <_ZN11Main_Screen11Draw_CursorE8Activity+0xcc>
		case(RIGHTUP):LcdGotoXY(8,1);LcdChr_full(Char_cursor[0]);break;
    2466:	61 e0       	ldi	r22, 0x01	; 1
    2468:	88 e0       	ldi	r24, 0x08	; 8
    246a:	0e 94 0f 0d 	call	0x1a1e	; 0x1a1e <_Z9LcdGotoXYhh>
    246e:	8b e9       	ldi	r24, 0x9B	; 155
    2470:	0e 94 2a 0d 	call	0x1a54	; 0x1a54 <_Z11LcdChr_fullh>
    2474:	07 c0       	rjmp	.+14     	; 0x2484 <_ZN11Main_Screen11Draw_CursorE8Activity+0xcc>
		case(RIGHTDOWN):LcdGotoXY(8,4);LcdChr_full(Char_cursor[0]);break;
    2476:	64 e0       	ldi	r22, 0x04	; 4
    2478:	88 e0       	ldi	r24, 0x08	; 8
    247a:	0e 94 0f 0d 	call	0x1a1e	; 0x1a1e <_Z9LcdGotoXYhh>
    247e:	8b e9       	ldi	r24, 0x9B	; 155
    2480:	0e 94 2a 0d 	call	0x1a54	; 0x1a54 <_Z11LcdChr_fullh>
	}	
	
}
    2484:	df 91       	pop	r29
    2486:	cf 91       	pop	r28
    2488:	08 95       	ret

0000248a <_ZN11Main_Screen16Print_Step_ValueE8Activity>:

bool Main_Screen::Print_Step_Value(Activity activity){
    248a:	ef 92       	push	r14
    248c:	ff 92       	push	r15
    248e:	0f 93       	push	r16
    2490:	1f 93       	push	r17
    2492:	cf 93       	push	r28
    2494:	df 93       	push	r29
    2496:	cd b7       	in	r28, 0x3d	; 61
    2498:	de b7       	in	r29, 0x3e	; 62
	if (activity.Statment != SCREEN_ADJUST ){return false;}
    249a:	89 85       	ldd	r24, Y+9	; 0x09
    249c:	9a 85       	ldd	r25, Y+10	; 0x0a
    249e:	02 97       	sbiw	r24, 0x02	; 2
    24a0:	11 f0       	breq	.+4      	; 0x24a6 <_ZN11Main_Screen16Print_Step_ValueE8Activity+0x1c>
    24a2:	80 e0       	ldi	r24, 0x00	; 0
    24a4:	18 c0       	rjmp	.+48     	; 0x24d6 <_ZN11Main_Screen16Print_Step_ValueE8Activity+0x4c>
	float step = activity.get_val_step();
    24a6:	ce 01       	movw	r24, r28
    24a8:	09 96       	adiw	r24, 0x09	; 9
    24aa:	0e 94 79 06 	call	0xcf2	; 0xcf2 <_ZN8Activity12get_val_stepEv>
    24ae:	8b 01       	movw	r16, r22
    24b0:	9c 01       	movw	r18, r24
	Lcd_printf(5, 1, FONT_1X, step , 2);
    24b2:	68 94       	set
    24b4:	ee 24       	eor	r14, r14
    24b6:	e1 f8       	bld	r14, 1
    24b8:	f1 2c       	mov	r15, r1
    24ba:	41 e0       	ldi	r20, 0x01	; 1
    24bc:	61 e0       	ldi	r22, 0x01	; 1
    24be:	85 e0       	ldi	r24, 0x05	; 5
    24c0:	0e 94 7b 0e 	call	0x1cf6	; 0x1cf6 <_Z10Lcd_printfhh11LcdFontSizefi>
	//
	LcdGotoXY(5 , 4 );
    24c4:	64 e0       	ldi	r22, 0x04	; 4
    24c6:	85 e0       	ldi	r24, 0x05	; 5
    24c8:	0e 94 0f 0d 	call	0x1a1e	; 0x1a1e <_Z9LcdGotoXYhh>
	LcdStepLevel(activity.Step);
    24cc:	6c 96       	adiw	r28, 0x1c	; 28
    24ce:	8f ad       	ldd	r24, Y+63	; 0x3f
    24d0:	6c 97       	sbiw	r28, 0x1c	; 28
    24d2:	0e 94 4d 0d 	call	0x1a9a	; 0x1a9a <_Z12LcdStepLevelh>
	
    24d6:	df 91       	pop	r29
    24d8:	cf 91       	pop	r28
    24da:	1f 91       	pop	r17
    24dc:	0f 91       	pop	r16
    24de:	ff 90       	pop	r15
    24e0:	ef 90       	pop	r14
    24e2:	08 95       	ret

000024e4 <_ZN11Main_Screen6RenderE8Activity7Carrage>:

void Main_Screen::Init(){
	 
}

void Main_Screen::Render(Activity activity, Carrage carrage){
    24e4:	0f 93       	push	r16
    24e6:	1f 93       	push	r17
    24e8:	cf 93       	push	r28
    24ea:	df 93       	push	r29
    24ec:	cd b7       	in	r28, 0x3d	; 61
    24ee:	de b7       	in	r29, 0x3e	; 62
    24f0:	8c 01       	movw	r16, r24
	Lcd_clear();
    24f2:	0e 94 94 0c 	call	0x1928	; 0x1928 <_Z9Lcd_clearv>
	Draw_menu();
    24f6:	c8 01       	movw	r24, r16
    24f8:	0e 94 33 10 	call	0x2066	; 0x2066 <_ZN11Main_Screen9Draw_menuEv>
	Draw_Carrage(carrage);
    24fc:	8d b7       	in	r24, 0x3d	; 61
    24fe:	9e b7       	in	r25, 0x3e	; 62
    2500:	8a 58       	subi	r24, 0x8A	; 138
    2502:	91 09       	sbc	r25, r1
    2504:	0f b6       	in	r0, 0x3f	; 63
    2506:	f8 94       	cli
    2508:	9e bf       	out	0x3e, r25	; 62
    250a:	0f be       	out	0x3f, r0	; 63
    250c:	8d bf       	out	0x3d, r24	; 61
    250e:	ad b7       	in	r26, 0x3d	; 61
    2510:	be b7       	in	r27, 0x3e	; 62
    2512:	11 96       	adiw	r26, 0x01	; 1
    2514:	8a e8       	ldi	r24, 0x8A	; 138
    2516:	fe 01       	movw	r30, r28
    2518:	eb 55       	subi	r30, 0x5B	; 91
    251a:	ff 4f       	sbci	r31, 0xFF	; 255
    251c:	01 90       	ld	r0, Z+
    251e:	0d 92       	st	X+, r0
    2520:	8a 95       	dec	r24
    2522:	e1 f7       	brne	.-8      	; 0x251c <_ZN11Main_Screen6RenderE8Activity7Carrage+0x38>
    2524:	c8 01       	movw	r24, r16
    2526:	0e 94 33 11 	call	0x2266	; 0x2266 <_ZN11Main_Screen12Draw_CarrageE7Carrage>
	Draw_adjustment_carrage(activity.Statment);
    252a:	0f b6       	in	r0, 0x3f	; 63
    252c:	f8 94       	cli
    252e:	de bf       	out	0x3e, r29	; 62
    2530:	0f be       	out	0x3f, r0	; 63
    2532:	cd bf       	out	0x3d, r28	; 61
    2534:	6f 81       	ldd	r22, Y+7	; 0x07
    2536:	78 85       	ldd	r23, Y+8	; 0x08
    2538:	c8 01       	movw	r24, r16
    253a:	0e 94 9f 11 	call	0x233e	; 0x233e <_ZN11Main_Screen23Draw_adjustment_carrageEi>
	Draw_Cursor(activity);	
    253e:	8d b7       	in	r24, 0x3d	; 61
    2540:	9e b7       	in	r25, 0x3e	; 62
    2542:	8e 59       	subi	r24, 0x9E	; 158
    2544:	91 09       	sbc	r25, r1
    2546:	0f b6       	in	r0, 0x3f	; 63
    2548:	f8 94       	cli
    254a:	9e bf       	out	0x3e, r25	; 62
    254c:	0f be       	out	0x3f, r0	; 63
    254e:	8d bf       	out	0x3d, r24	; 61
    2550:	ad b7       	in	r26, 0x3d	; 61
    2552:	be b7       	in	r27, 0x3e	; 62
    2554:	11 96       	adiw	r26, 0x01	; 1
    2556:	8e e9       	ldi	r24, 0x9E	; 158
    2558:	fe 01       	movw	r30, r28
    255a:	37 96       	adiw	r30, 0x07	; 7
    255c:	01 90       	ld	r0, Z+
    255e:	0d 92       	st	X+, r0
    2560:	8a 95       	dec	r24
    2562:	e1 f7       	brne	.-8      	; 0x255c <_ZN11Main_Screen6RenderE8Activity7Carrage+0x78>
    2564:	c8 01       	movw	r24, r16
    2566:	0e 94 dc 11 	call	0x23b8	; 0x23b8 <_ZN11Main_Screen11Draw_CursorE8Activity>
	Print_Step_Value(activity);
    256a:	8d b7       	in	r24, 0x3d	; 61
    256c:	9e b7       	in	r25, 0x3e	; 62
    256e:	82 56       	subi	r24, 0x62	; 98
    2570:	9f 4f       	sbci	r25, 0xFF	; 255
    2572:	0f b6       	in	r0, 0x3f	; 63
    2574:	f8 94       	cli
    2576:	de bf       	out	0x3e, r29	; 62
    2578:	0f be       	out	0x3f, r0	; 63
    257a:	cd bf       	out	0x3d, r28	; 61
    257c:	8e 59       	subi	r24, 0x9E	; 158
    257e:	91 09       	sbc	r25, r1
    2580:	0f b6       	in	r0, 0x3f	; 63
    2582:	f8 94       	cli
    2584:	9e bf       	out	0x3e, r25	; 62
    2586:	0f be       	out	0x3f, r0	; 63
    2588:	8d bf       	out	0x3d, r24	; 61
    258a:	ad b7       	in	r26, 0x3d	; 61
    258c:	be b7       	in	r27, 0x3e	; 62
    258e:	11 96       	adiw	r26, 0x01	; 1
    2590:	8e e9       	ldi	r24, 0x9E	; 158
    2592:	fe 01       	movw	r30, r28
    2594:	37 96       	adiw	r30, 0x07	; 7
    2596:	01 90       	ld	r0, Z+
    2598:	0d 92       	st	X+, r0
    259a:	8a 95       	dec	r24
    259c:	e1 f7       	brne	.-8      	; 0x2596 <_ZN11Main_Screen6RenderE8Activity7Carrage+0xb2>
    259e:	c8 01       	movw	r24, r16
    25a0:	0e 94 45 12 	call	0x248a	; 0x248a <_ZN11Main_Screen16Print_Step_ValueE8Activity>
	Lcd_update();
    25a4:	0f b6       	in	r0, 0x3f	; 63
    25a6:	f8 94       	cli
    25a8:	de bf       	out	0x3e, r29	; 62
    25aa:	0f be       	out	0x3f, r0	; 63
    25ac:	cd bf       	out	0x3d, r28	; 61
    25ae:	0e 94 a9 0c 	call	0x1952	; 0x1952 <_Z10Lcd_updatev>
	
}
    25b2:	df 91       	pop	r29
    25b4:	cf 91       	pop	r28
    25b6:	1f 91       	pop	r17
    25b8:	0f 91       	pop	r16
    25ba:	08 95       	ret

000025bc <_ZN6OutputC1Ev>:
#include <avr/io.h>
#include <util/delay.h>


// default constructor
Output::Output()
    25bc:	08 95       	ret

000025be <_ZN6Output4InitEci>:
{
} //Out

void Output::Init(char port, int pin){
    25be:	fc 01       	movw	r30, r24
	_port = port;
    25c0:	60 83       	st	Z, r22
	_pin = pin;
    25c2:	41 83       	std	Z+1, r20	; 0x01
    25c4:	52 83       	std	Z+2, r21	; 0x02
	
	switch (_port){
    25c6:	63 34       	cpi	r22, 0x43	; 67
    25c8:	79 f0       	breq	.+30     	; 0x25e8 <_ZN6Output4InitEci+0x2a>
    25ca:	64 34       	cpi	r22, 0x44	; 68
    25cc:	c1 f0       	breq	.+48     	; 0x25fe <_ZN6Output4InitEci+0x40>
    25ce:	62 34       	cpi	r22, 0x42	; 66
    25d0:	01 f5       	brne	.+64     	; 0x2612 <_ZN6Output4InitEci+0x54>
		case 'B': DDRB |= (1<<(pin)); break;
    25d2:	24 b1       	in	r18, 0x04	; 4
    25d4:	81 e0       	ldi	r24, 0x01	; 1
    25d6:	90 e0       	ldi	r25, 0x00	; 0
    25d8:	02 c0       	rjmp	.+4      	; 0x25de <_ZN6Output4InitEci+0x20>
    25da:	88 0f       	add	r24, r24
    25dc:	99 1f       	adc	r25, r25
    25de:	4a 95       	dec	r20
    25e0:	e2 f7       	brpl	.-8      	; 0x25da <_ZN6Output4InitEci+0x1c>
    25e2:	82 2b       	or	r24, r18
    25e4:	84 b9       	out	0x04, r24	; 4
    25e6:	08 95       	ret
		case 'C': DDRC |= (1<<(pin)); break;
    25e8:	27 b1       	in	r18, 0x07	; 7
    25ea:	81 e0       	ldi	r24, 0x01	; 1
    25ec:	90 e0       	ldi	r25, 0x00	; 0
    25ee:	02 c0       	rjmp	.+4      	; 0x25f4 <_ZN6Output4InitEci+0x36>
    25f0:	88 0f       	add	r24, r24
    25f2:	99 1f       	adc	r25, r25
    25f4:	4a 95       	dec	r20
    25f6:	e2 f7       	brpl	.-8      	; 0x25f0 <_ZN6Output4InitEci+0x32>
    25f8:	82 2b       	or	r24, r18
    25fa:	87 b9       	out	0x07, r24	; 7
    25fc:	08 95       	ret
		case 'D': DDRD |= (1<<(pin)); break;
    25fe:	2a b1       	in	r18, 0x0a	; 10
    2600:	81 e0       	ldi	r24, 0x01	; 1
    2602:	90 e0       	ldi	r25, 0x00	; 0
    2604:	02 c0       	rjmp	.+4      	; 0x260a <_ZN6Output4InitEci+0x4c>
    2606:	88 0f       	add	r24, r24
    2608:	99 1f       	adc	r25, r25
    260a:	4a 95       	dec	r20
    260c:	e2 f7       	brpl	.-8      	; 0x2606 <_ZN6Output4InitEci+0x48>
    260e:	82 2b       	or	r24, r18
    2610:	8a b9       	out	0x0a, r24	; 10
    2612:	08 95       	ret

00002614 <_ZN5PanelC1Ev>:
    2614:	cf 93       	push	r28
    2616:	df 93       	push	r29
    2618:	ec 01       	movw	r28, r24
    261a:	0e 94 8a 06 	call	0xd14	; 0xd14 <_ZN6ButtonC1Ev>
    261e:	ce 01       	movw	r24, r28
    2620:	03 96       	adiw	r24, 0x03	; 3
    2622:	0e 94 8a 06 	call	0xd14	; 0xd14 <_ZN6ButtonC1Ev>
    2626:	ce 01       	movw	r24, r28
    2628:	06 96       	adiw	r24, 0x06	; 6
    262a:	0e 94 8a 06 	call	0xd14	; 0xd14 <_ZN6ButtonC1Ev>
    262e:	ce 01       	movw	r24, r28
    2630:	09 96       	adiw	r24, 0x09	; 9
    2632:	0e 94 8a 06 	call	0xd14	; 0xd14 <_ZN6ButtonC1Ev>
    2636:	ce 01       	movw	r24, r28
    2638:	0c 96       	adiw	r24, 0x0c	; 12
    263a:	0e 94 8a 06 	call	0xd14	; 0xd14 <_ZN6ButtonC1Ev>
    263e:	df 91       	pop	r29
    2640:	cf 91       	pop	r28
    2642:	08 95       	ret

00002644 <_ZN5Panel4InitE6ButtonS0_S0_S0_S0_>:
    2644:	8f 92       	push	r8
    2646:	9f 92       	push	r9
    2648:	af 92       	push	r10
    264a:	cf 92       	push	r12
    264c:	df 92       	push	r13
    264e:	ef 92       	push	r14
    2650:	0f 93       	push	r16
    2652:	1f 93       	push	r17
    2654:	cf 93       	push	r28
    2656:	df 93       	push	r29
    2658:	cd b7       	in	r28, 0x3d	; 61
    265a:	de b7       	in	r29, 0x3e	; 62
    265c:	fc 01       	movw	r30, r24
    265e:	40 83       	st	Z, r20
    2660:	51 83       	std	Z+1, r21	; 0x01
    2662:	62 83       	std	Z+2, r22	; 0x02
    2664:	03 83       	std	Z+3, r16	; 0x03
    2666:	14 83       	std	Z+4, r17	; 0x04
    2668:	25 83       	std	Z+5, r18	; 0x05
    266a:	c6 82       	std	Z+6, r12	; 0x06
    266c:	d7 82       	std	Z+7, r13	; 0x07
    266e:	e0 86       	std	Z+8, r14	; 0x08
    2670:	8d 85       	ldd	r24, Y+13	; 0x0d
    2672:	9e 85       	ldd	r25, Y+14	; 0x0e
    2674:	af 85       	ldd	r26, Y+15	; 0x0f
    2676:	84 87       	std	Z+12, r24	; 0x0c
    2678:	95 87       	std	Z+13, r25	; 0x0d
    267a:	a6 87       	std	Z+14, r26	; 0x0e
    267c:	81 86       	std	Z+9, r8	; 0x09
    267e:	92 86       	std	Z+10, r9	; 0x0a
    2680:	a3 86       	std	Z+11, r10	; 0x0b
    2682:	df 91       	pop	r29
    2684:	cf 91       	pop	r28
    2686:	1f 91       	pop	r17
    2688:	0f 91       	pop	r16
    268a:	ef 90       	pop	r14
    268c:	df 90       	pop	r13
    268e:	cf 90       	pop	r12
    2690:	af 90       	pop	r10
    2692:	9f 90       	pop	r9
    2694:	8f 90       	pop	r8
    2696:	08 95       	ret

00002698 <_ZN5Panel7PressedEi>:
    2698:	0f 93       	push	r16
    269a:	1f 93       	push	r17
    269c:	cf 93       	push	r28
    269e:	df 93       	push	r29
    26a0:	ec 01       	movw	r28, r24
    26a2:	8b 01       	movw	r16, r22
    26a4:	0e 94 c5 06 	call	0xd8a	; 0xd8a <_ZN6Button7PressedEi>
    26a8:	81 11       	cpse	r24, r1
    26aa:	1f c0       	rjmp	.+62     	; 0x26ea <_ZN5Panel7PressedEi+0x52>
    26ac:	b8 01       	movw	r22, r16
    26ae:	ce 01       	movw	r24, r28
    26b0:	03 96       	adiw	r24, 0x03	; 3
    26b2:	0e 94 c5 06 	call	0xd8a	; 0xd8a <_ZN6Button7PressedEi>
    26b6:	81 11       	cpse	r24, r1
    26b8:	1b c0       	rjmp	.+54     	; 0x26f0 <_ZN5Panel7PressedEi+0x58>
    26ba:	b8 01       	movw	r22, r16
    26bc:	ce 01       	movw	r24, r28
    26be:	06 96       	adiw	r24, 0x06	; 6
    26c0:	0e 94 c5 06 	call	0xd8a	; 0xd8a <_ZN6Button7PressedEi>
    26c4:	81 11       	cpse	r24, r1
    26c6:	17 c0       	rjmp	.+46     	; 0x26f6 <_ZN5Panel7PressedEi+0x5e>
    26c8:	b8 01       	movw	r22, r16
    26ca:	ce 01       	movw	r24, r28
    26cc:	0c 96       	adiw	r24, 0x0c	; 12
    26ce:	0e 94 c5 06 	call	0xd8a	; 0xd8a <_ZN6Button7PressedEi>
    26d2:	81 11       	cpse	r24, r1
    26d4:	13 c0       	rjmp	.+38     	; 0x26fc <_ZN5Panel7PressedEi+0x64>
    26d6:	b8 01       	movw	r22, r16
    26d8:	ce 01       	movw	r24, r28
    26da:	09 96       	adiw	r24, 0x09	; 9
    26dc:	0e 94 c5 06 	call	0xd8a	; 0xd8a <_ZN6Button7PressedEi>
    26e0:	81 11       	cpse	r24, r1
    26e2:	0f c0       	rjmp	.+30     	; 0x2702 <_ZN5Panel7PressedEi+0x6a>
    26e4:	8f ef       	ldi	r24, 0xFF	; 255
    26e6:	9f ef       	ldi	r25, 0xFF	; 255
    26e8:	0e c0       	rjmp	.+28     	; 0x2706 <_ZN5Panel7PressedEi+0x6e>
    26ea:	80 e0       	ldi	r24, 0x00	; 0
    26ec:	90 e0       	ldi	r25, 0x00	; 0
    26ee:	0b c0       	rjmp	.+22     	; 0x2706 <_ZN5Panel7PressedEi+0x6e>
    26f0:	81 e0       	ldi	r24, 0x01	; 1
    26f2:	90 e0       	ldi	r25, 0x00	; 0
    26f4:	08 c0       	rjmp	.+16     	; 0x2706 <_ZN5Panel7PressedEi+0x6e>
    26f6:	82 e0       	ldi	r24, 0x02	; 2
    26f8:	90 e0       	ldi	r25, 0x00	; 0
    26fa:	05 c0       	rjmp	.+10     	; 0x2706 <_ZN5Panel7PressedEi+0x6e>
    26fc:	84 e0       	ldi	r24, 0x04	; 4
    26fe:	90 e0       	ldi	r25, 0x00	; 0
    2700:	02 c0       	rjmp	.+4      	; 0x2706 <_ZN5Panel7PressedEi+0x6e>
    2702:	83 e0       	ldi	r24, 0x03	; 3
    2704:	90 e0       	ldi	r25, 0x00	; 0
    2706:	df 91       	pop	r29
    2708:	cf 91       	pop	r28
    270a:	1f 91       	pop	r17
    270c:	0f 91       	pop	r16
    270e:	08 95       	ret

00002710 <_ZN13SensorsWheelsC1Ev>:

#include <util/delay.h>
#include "SensorsWheels.h"

// default constructor
SensorsWheels::SensorsWheels()
    2710:	08 95       	ret

00002712 <_ZN13SensorsWheels4InitEv>:
{
} //SensorsWheels

void SensorsWheels::Init(){
	ADMUX |=(1<<REFS0)|(1<<MUX0);//AVCC    
    2712:	ec e7       	ldi	r30, 0x7C	; 124
    2714:	f0 e0       	ldi	r31, 0x00	; 0
    2716:	80 81       	ld	r24, Z
    2718:	81 64       	ori	r24, 0x41	; 65
    271a:	80 83       	st	Z, r24
	ADCSRA |=(1<<ADEN)|(1<<ADIE)|(1<<ADPS0)|(1<<ADPS1)|(1<<ADPS2);//  ,  ,  
    271c:	ea e7       	ldi	r30, 0x7A	; 122
    271e:	f0 e0       	ldi	r31, 0x00	; 0
    2720:	80 81       	ld	r24, Z
    2722:	8f 68       	ori	r24, 0x8F	; 143
    2724:	80 83       	st	Z, r24
    2726:	08 95       	ret

00002728 <_ZN13SensorsWheels9getParamsEi>:
	//sei ();//   
}

float SensorsWheels::getParams(int Input_number){
    2728:	fc 01       	movw	r30, r24
	ADMUX &= ~ (1<<MUX0);
    272a:	ac e7       	ldi	r26, 0x7C	; 124
    272c:	b0 e0       	ldi	r27, 0x00	; 0
    272e:	8c 91       	ld	r24, X
    2730:	8e 7f       	andi	r24, 0xFE	; 254
    2732:	8c 93       	st	X, r24
	ADMUX &= ~ (1<<MUX1);
    2734:	8c 91       	ld	r24, X
    2736:	8d 7f       	andi	r24, 0xFD	; 253
    2738:	8c 93       	st	X, r24
	ADMUX &= ~ (1<<MUX2);
    273a:	8c 91       	ld	r24, X
    273c:	8b 7f       	andi	r24, 0xFB	; 251
    273e:	8c 93       	st	X, r24
	ADMUX &= ~ (1<<MUX3);
    2740:	8c 91       	ld	r24, X
    2742:	87 7f       	andi	r24, 0xF7	; 247
    2744:	8c 93       	st	X, r24
	switch(Input_number){
    2746:	63 30       	cpi	r22, 0x03	; 3
    2748:	71 05       	cpc	r23, r1
    274a:	51 f0       	breq	.+20     	; 0x2760 <_ZN13SensorsWheels9getParamsEi+0x38>
    274c:	64 30       	cpi	r22, 0x04	; 4
    274e:	71 05       	cpc	r23, r1
    2750:	69 f0       	breq	.+26     	; 0x276c <_ZN13SensorsWheels9getParamsEi+0x44>
    2752:	62 30       	cpi	r22, 0x02	; 2
    2754:	71 05       	cpc	r23, r1
    2756:	79 f4       	brne	.+30     	; 0x2776 <_ZN13SensorsWheels9getParamsEi+0x4e>
		case(1):break;
		case(2):ADMUX |= (1<<MUX0);break;
    2758:	8c 91       	ld	r24, X
    275a:	81 60       	ori	r24, 0x01	; 1
    275c:	8c 93       	st	X, r24
    275e:	0b c0       	rjmp	.+22     	; 0x2776 <_ZN13SensorsWheels9getParamsEi+0x4e>
		case(3):ADMUX |= (1<<MUX1);break;
    2760:	ac e7       	ldi	r26, 0x7C	; 124
    2762:	b0 e0       	ldi	r27, 0x00	; 0
    2764:	8c 91       	ld	r24, X
    2766:	82 60       	ori	r24, 0x02	; 2
    2768:	8c 93       	st	X, r24
    276a:	05 c0       	rjmp	.+10     	; 0x2776 <_ZN13SensorsWheels9getParamsEi+0x4e>
		case(4):ADMUX |= (1<<MUX0)|(1<<MUX1);break;
    276c:	ac e7       	ldi	r26, 0x7C	; 124
    276e:	b0 e0       	ldi	r27, 0x00	; 0
    2770:	8c 91       	ld	r24, X
    2772:	83 60       	ori	r24, 0x03	; 3
    2774:	8c 93       	st	X, r24
	}
	
	
	ADCSRA |=(1<<ADSC);//   	
    2776:	aa e7       	ldi	r26, 0x7A	; 122
    2778:	b0 e0       	ldi	r27, 0x00	; 0
    277a:	8c 91       	ld	r24, X
    277c:	80 64       	ori	r24, 0x40	; 64
    277e:	8c 93       	st	X, r24
	ready = false;
    2780:	10 82       	st	Z, r1
	while( !ready ){
		ready = (ADCSRA & (1 << ADIF));
    2782:	81 e0       	ldi	r24, 0x01	; 1
    2784:	40 e0       	ldi	r20, 0x00	; 0
    2786:	9c 91       	ld	r25, X
    2788:	28 2f       	mov	r18, r24
    278a:	39 2f       	mov	r19, r25
    278c:	30 71       	andi	r19, 0x10	; 16
    278e:	94 ff       	sbrs	r25, 4
    2790:	24 2f       	mov	r18, r20
    2792:	20 83       	st	Z, r18
	}
	
	
	ADCSRA |=(1<<ADSC);//   	
	ready = false;
	while( !ready ){
    2794:	33 23       	and	r19, r19
    2796:	b9 f3       	breq	.-18     	; 0x2786 <_ZN13SensorsWheels9getParamsEi+0x5e>
		ready = (ADCSRA & (1 << ADIF));
	};
	float Value = ADCW*0.00489;
    2798:	60 91 78 00 	lds	r22, 0x0078	; 0x800078 <__TEXT_REGION_LENGTH__+0x7e0078>
    279c:	70 91 79 00 	lds	r23, 0x0079	; 0x800079 <__TEXT_REGION_LENGTH__+0x7e0079>
	return Value;
    27a0:	80 e0       	ldi	r24, 0x00	; 0
    27a2:	90 e0       	ldi	r25, 0x00	; 0
    27a4:	0e 94 21 16 	call	0x2c42	; 0x2c42 <__floatunsisf>
    27a8:	2b e4       	ldi	r18, 0x4B	; 75
    27aa:	3c e3       	ldi	r19, 0x3C	; 60
    27ac:	40 ea       	ldi	r20, 0xA0	; 160
    27ae:	5b e3       	ldi	r21, 0x3B	; 59
    27b0:	0e 94 d3 16 	call	0x2da6	; 0x2da6 <__mulsf3>
	
};
    27b4:	08 95       	ret

000027b6 <_ZL8send_i2ch>:
void Support::Up(int ms_time, bool support_1, bool support_2, bool support_3, bool support_4 ){
	uint8_t data = (support_1<<0)|(support_2<<2)|(support_3<<4)|(support_4<<6);
	write_i2c((I2C_ADR_PCF8574<<1), data);
	for (i=0;i<ms_time;i++){_delay_ms(1);}
	write_i2c((I2C_ADR_PCF8574<<1), 0x00);
}
    27b6:	80 93 bb 00 	sts	0x00BB, r24	; 0x8000bb <__TEXT_REGION_LENGTH__+0x7e00bb>
    27ba:	84 e8       	ldi	r24, 0x84	; 132
    27bc:	80 93 bc 00 	sts	0x00BC, r24	; 0x8000bc <__TEXT_REGION_LENGTH__+0x7e00bc>
    27c0:	ec eb       	ldi	r30, 0xBC	; 188
    27c2:	f0 e0       	ldi	r31, 0x00	; 0
    27c4:	80 81       	ld	r24, Z
    27c6:	88 23       	and	r24, r24
    27c8:	ec f7       	brge	.-6      	; 0x27c4 <_ZL8send_i2ch+0xe>
    27ca:	90 91 b9 00 	lds	r25, 0x00B9	; 0x8000b9 <__TEXT_REGION_LENGTH__+0x7e00b9>
    27ce:	98 7f       	andi	r25, 0xF8	; 248
    27d0:	98 31       	cpi	r25, 0x18	; 24
    27d2:	29 f0       	breq	.+10     	; 0x27de <_ZL8send_i2ch+0x28>
    27d4:	81 e0       	ldi	r24, 0x01	; 1
    27d6:	98 32       	cpi	r25, 0x28	; 40
    27d8:	19 f4       	brne	.+6      	; 0x27e0 <_ZL8send_i2ch+0x2a>
    27da:	80 e0       	ldi	r24, 0x00	; 0
    27dc:	08 95       	ret
    27de:	80 e0       	ldi	r24, 0x00	; 0
    27e0:	08 95       	ret

000027e2 <_ZL9write_i2chh>:
    27e2:	cf 93       	push	r28
    27e4:	94 ea       	ldi	r25, 0xA4	; 164
    27e6:	90 93 bc 00 	sts	0x00BC, r25	; 0x8000bc <__TEXT_REGION_LENGTH__+0x7e00bc>
    27ea:	ec eb       	ldi	r30, 0xBC	; 188
    27ec:	f0 e0       	ldi	r31, 0x00	; 0
    27ee:	90 81       	ld	r25, Z
    27f0:	99 23       	and	r25, r25
    27f2:	ec f7       	brge	.-6      	; 0x27ee <_ZL9write_i2chh+0xc>
    27f4:	90 91 b9 00 	lds	r25, 0x00B9	; 0x8000b9 <__TEXT_REGION_LENGTH__+0x7e00b9>
    27f8:	98 7f       	andi	r25, 0xF8	; 248
    27fa:	98 30       	cpi	r25, 0x08	; 8
    27fc:	11 f0       	breq	.+4      	; 0x2802 <_ZL9write_i2chh+0x20>
    27fe:	90 31       	cpi	r25, 0x10	; 16
    2800:	61 f4       	brne	.+24     	; 0x281a <_ZL9write_i2chh+0x38>
    2802:	c6 2f       	mov	r28, r22
    2804:	0e 94 db 13 	call	0x27b6	; 0x27b6 <_ZL8send_i2ch>
    2808:	81 30       	cpi	r24, 0x01	; 1
    280a:	39 f0       	breq	.+14     	; 0x281a <_ZL9write_i2chh+0x38>
    280c:	8c 2f       	mov	r24, r28
    280e:	0e 94 db 13 	call	0x27b6	; 0x27b6 <_ZL8send_i2ch>
    2812:	94 e9       	ldi	r25, 0x94	; 148
    2814:	90 93 bc 00 	sts	0x00BC, r25	; 0x8000bc <__TEXT_REGION_LENGTH__+0x7e00bc>
    2818:	04 c0       	rjmp	.+8      	; 0x2822 <_ZL9write_i2chh+0x40>
    281a:	84 e9       	ldi	r24, 0x94	; 148
    281c:	80 93 bc 00 	sts	0x00BC, r24	; 0x8000bc <__TEXT_REGION_LENGTH__+0x7e00bc>
    2820:	81 e0       	ldi	r24, 0x01	; 1
    2822:	cf 91       	pop	r28
    2824:	08 95       	ret

00002826 <_ZN7SupportC1Ev>:
    2826:	08 95       	ret

00002828 <_ZN7Support4InitEv>:
    2828:	60 e0       	ldi	r22, 0x00	; 0
    282a:	8e e4       	ldi	r24, 0x4E	; 78
    282c:	0e 94 f1 13 	call	0x27e2	; 0x27e2 <_ZL9write_i2chh>
    2830:	08 95       	ret

00002832 <_ZN7Support6AdjastEiiiii>:

void Support::Adjast(int ms_time, int DerWheel_1, int DerWheel_2,int DerWheel_3, int DerWheel_4){
    2832:	ef 92       	push	r14
    2834:	ff 92       	push	r15
    2836:	0f 93       	push	r16
    2838:	1f 93       	push	r17
    283a:	cf 93       	push	r28
    283c:	df 93       	push	r29
    283e:	f9 01       	movw	r30, r18
	if(ms_time>0){
    2840:	16 16       	cp	r1, r22
    2842:	17 06       	cpc	r1, r23
    2844:	0c f0       	brlt	.+2      	; 0x2848 <_ZN7Support6AdjastEiiiii+0x16>
    2846:	4f c0       	rjmp	.+158    	; 0x28e6 <_ZN7Support6AdjastEiiiii+0xb4>
		uint8_t data = 0x00;
    2848:	31 e0       	ldi	r19, 0x01	; 1
    284a:	41 30       	cpi	r20, 0x01	; 1
    284c:	51 05       	cpc	r21, r1
    284e:	09 f0       	breq	.+2      	; 0x2852 <_ZN7Support6AdjastEiiiii+0x20>
    2850:	30 e0       	ldi	r19, 0x00	; 0
		if(DerWheel_1 == UP){data |= (1<<0);};
		if(DerWheel_1 == DOWN){data |= (1<<1);};
    2852:	42 30       	cpi	r20, 0x02	; 2
    2854:	51 05       	cpc	r21, r1
    2856:	09 f4       	brne	.+2      	; 0x285a <_ZN7Support6AdjastEiiiii+0x28>
    2858:	32 60       	ori	r19, 0x02	; 2
		
		if(DerWheel_2 == UP){data |= (1<<2);};
    285a:	e1 30       	cpi	r30, 0x01	; 1
    285c:	f1 05       	cpc	r31, r1
    285e:	11 f4       	brne	.+4      	; 0x2864 <_ZN7Support6AdjastEiiiii+0x32>
    2860:	34 60       	ori	r19, 0x04	; 4
    2862:	03 c0       	rjmp	.+6      	; 0x286a <_ZN7Support6AdjastEiiiii+0x38>
		if(DerWheel_2 == DOWN){data |= (1<<3);};
    2864:	32 97       	sbiw	r30, 0x02	; 2
    2866:	09 f4       	brne	.+2      	; 0x286a <_ZN7Support6AdjastEiiiii+0x38>
    2868:	38 60       	ori	r19, 0x08	; 8
		
		if(DerWheel_3 == UP){data |= (1<<4);};
    286a:	01 30       	cpi	r16, 0x01	; 1
    286c:	11 05       	cpc	r17, r1
    286e:	11 f4       	brne	.+4      	; 0x2874 <_ZN7Support6AdjastEiiiii+0x42>
    2870:	30 61       	ori	r19, 0x10	; 16
    2872:	04 c0       	rjmp	.+8      	; 0x287c <_ZN7Support6AdjastEiiiii+0x4a>
		if(DerWheel_3 == DOWN){data |= (1<<5);};
    2874:	02 30       	cpi	r16, 0x02	; 2
    2876:	11 05       	cpc	r17, r1
    2878:	09 f4       	brne	.+2      	; 0x287c <_ZN7Support6AdjastEiiiii+0x4a>
    287a:	30 62       	ori	r19, 0x20	; 32
    287c:	8b 01       	movw	r16, r22
    287e:	ec 01       	movw	r28, r24
		
		if(DerWheel_4 == UP){data |= (1<<6);};
    2880:	81 e0       	ldi	r24, 0x01	; 1
    2882:	e8 16       	cp	r14, r24
    2884:	f1 04       	cpc	r15, r1
    2886:	19 f4       	brne	.+6      	; 0x288e <_ZN7Support6AdjastEiiiii+0x5c>
    2888:	63 2f       	mov	r22, r19
    288a:	60 64       	ori	r22, 0x40	; 64
    288c:	06 c0       	rjmp	.+12     	; 0x289a <_ZN7Support6AdjastEiiiii+0x68>
		if(DerWheel_4 == DOWN){data |= (1<<7);};
    288e:	92 e0       	ldi	r25, 0x02	; 2
    2890:	e9 16       	cp	r14, r25
    2892:	f1 04       	cpc	r15, r1
    2894:	09 f5       	brne	.+66     	; 0x28d8 <_ZN7Support6AdjastEiiiii+0xa6>
    2896:	63 2f       	mov	r22, r19
    2898:	60 68       	ori	r22, 0x80	; 128
		
		write_i2c((I2C_ADR_PCF8574<<1), data);
    289a:	8e e4       	ldi	r24, 0x4E	; 78
    289c:	0e 94 f1 13 	call	0x27e2	; 0x27e2 <_ZL9write_i2chh>
		for (i=0;i<ms_time;i++){_delay_ms(1);}
    28a0:	19 82       	std	Y+1, r1	; 0x01
    28a2:	18 82       	st	Y, r1
	#else
		//round up by default
		__ticks_dc = (uint32_t)(ceil(fabs(__tmp)));
	#endif

	__builtin_avr_delay_cycles(__ticks_dc);
    28a4:	89 ef       	ldi	r24, 0xF9	; 249
    28a6:	90 e0       	ldi	r25, 0x00	; 0
    28a8:	01 97       	sbiw	r24, 0x01	; 1
    28aa:	f1 f7       	brne	.-4      	; 0x28a8 <_ZN7Support6AdjastEiiiii+0x76>
    28ac:	00 c0       	rjmp	.+0      	; 0x28ae <_ZN7Support6AdjastEiiiii+0x7c>
    28ae:	00 00       	nop
    28b0:	28 81       	ld	r18, Y
    28b2:	39 81       	ldd	r19, Y+1	; 0x01
    28b4:	2f 5f       	subi	r18, 0xFF	; 255
    28b6:	3f 4f       	sbci	r19, 0xFF	; 255
    28b8:	39 83       	std	Y+1, r19	; 0x01
    28ba:	28 83       	st	Y, r18
    28bc:	20 17       	cp	r18, r16
    28be:	31 07       	cpc	r19, r17
    28c0:	8c f3       	brlt	.-30     	; 0x28a4 <_ZN7Support6AdjastEiiiii+0x72>
		write_i2c((I2C_ADR_PCF8574<<1), 0x00);
    28c2:	60 e0       	ldi	r22, 0x00	; 0
    28c4:	8e e4       	ldi	r24, 0x4E	; 78
    28c6:	0e 94 f1 13 	call	0x27e2	; 0x27e2 <_ZL9write_i2chh>
    28ca:	83 ed       	ldi	r24, 0xD3	; 211
    28cc:	90 e3       	ldi	r25, 0x30	; 48
    28ce:	01 97       	sbiw	r24, 0x01	; 1
    28d0:	f1 f7       	brne	.-4      	; 0x28ce <_ZN7Support6AdjastEiiiii+0x9c>
    28d2:	00 c0       	rjmp	.+0      	; 0x28d4 <_ZN7Support6AdjastEiiiii+0xa2>
    28d4:	00 00       	nop
		_delay_ms(50);
	}
	
}
    28d6:	07 c0       	rjmp	.+14     	; 0x28e6 <_ZN7Support6AdjastEiiiii+0xb4>
		if(DerWheel_3 == DOWN){data |= (1<<5);};
		
		if(DerWheel_4 == UP){data |= (1<<6);};
		if(DerWheel_4 == DOWN){data |= (1<<7);};
		
		write_i2c((I2C_ADR_PCF8574<<1), data);
    28d8:	63 2f       	mov	r22, r19
    28da:	8e e4       	ldi	r24, 0x4E	; 78
    28dc:	0e 94 f1 13 	call	0x27e2	; 0x27e2 <_ZL9write_i2chh>
		for (i=0;i<ms_time;i++){_delay_ms(1);}
    28e0:	19 82       	std	Y+1, r1	; 0x01
    28e2:	18 82       	st	Y, r1
    28e4:	df cf       	rjmp	.-66     	; 0x28a4 <_ZN7Support6AdjastEiiiii+0x72>
		write_i2c((I2C_ADR_PCF8574<<1), 0x00);
		_delay_ms(50);
	}
	
}
    28e6:	df 91       	pop	r29
    28e8:	cf 91       	pop	r28
    28ea:	1f 91       	pop	r17
    28ec:	0f 91       	pop	r16
    28ee:	ff 90       	pop	r15
    28f0:	ef 90       	pop	r14
    28f2:	08 95       	ret

000028f4 <_ZN5WheelC1Ev>:

void Wheel::set_hight(){
	
}

void Wheel::PrintLCD(){
    28f4:	43 96       	adiw	r24, 0x13	; 19
    28f6:	0e 94 88 13 	call	0x2710	; 0x2710 <_ZN13SensorsWheelsC1Ev>
    28fa:	08 95       	ret

000028fc <_ZN5Wheel4InitEi>:
    28fc:	0f 93       	push	r16
    28fe:	1f 93       	push	r17
    2900:	cf 93       	push	r28
    2902:	df 93       	push	r29
    2904:	ec 01       	movw	r28, r24
    2906:	8b 01       	movw	r16, r22
    2908:	43 96       	adiw	r24, 0x13	; 19
    290a:	0e 94 89 13 	call	0x2712	; 0x2712 <_ZN13SensorsWheels4InitEv>
    290e:	19 83       	std	Y+1, r17	; 0x01
    2910:	08 83       	st	Y, r16
    2912:	80 e0       	ldi	r24, 0x00	; 0
    2914:	90 e0       	ldi	r25, 0x00	; 0
    2916:	a0 e2       	ldi	r26, 0x20	; 32
    2918:	b0 e4       	ldi	r27, 0x40	; 64
    291a:	8a 87       	std	Y+10, r24	; 0x0a
    291c:	9b 87       	std	Y+11, r25	; 0x0b
    291e:	ac 87       	std	Y+12, r26	; 0x0c
    2920:	bd 87       	std	Y+13, r27	; 0x0d
    2922:	df 91       	pop	r29
    2924:	cf 91       	pop	r28
    2926:	1f 91       	pop	r17
    2928:	0f 91       	pop	r16
    292a:	08 95       	ret

0000292c <_ZN5Wheel9get_hightEv>:
    292c:	cf 93       	push	r28
    292e:	df 93       	push	r29
    2930:	ec 01       	movw	r28, r24
    2932:	68 81       	ld	r22, Y
    2934:	79 81       	ldd	r23, Y+1	; 0x01
    2936:	43 96       	adiw	r24, 0x13	; 19
    2938:	0e 94 94 13 	call	0x2728	; 0x2728 <_ZN13SensorsWheels9getParamsEi>
    293c:	6a 83       	std	Y+2, r22	; 0x02
    293e:	7b 83       	std	Y+3, r23	; 0x03
    2940:	8c 83       	std	Y+4, r24	; 0x04
    2942:	9d 83       	std	Y+5, r25	; 0x05
    2944:	df 91       	pop	r29
    2946:	cf 91       	pop	r28
    2948:	08 95       	ret

0000294a <_ZN5Wheel12initialHightEv>:
    294a:	cf 93       	push	r28
    294c:	df 93       	push	r29
    294e:	ec 01       	movw	r28, r24
    2950:	0e 94 96 14 	call	0x292c	; 0x292c <_ZN5Wheel9get_hightEv>
    2954:	8a 81       	ldd	r24, Y+2	; 0x02
    2956:	9b 81       	ldd	r25, Y+3	; 0x03
    2958:	ac 81       	ldd	r26, Y+4	; 0x04
    295a:	bd 81       	ldd	r27, Y+5	; 0x05
    295c:	8a 87       	std	Y+10, r24	; 0x0a
    295e:	9b 87       	std	Y+11, r25	; 0x0b
    2960:	ac 87       	std	Y+12, r26	; 0x0c
    2962:	bd 87       	std	Y+13, r27	; 0x0d
    2964:	df 91       	pop	r29
    2966:	cf 91       	pop	r28
    2968:	08 95       	ret

0000296a <_ZN5Wheel13takeDerectionEv>:
    296a:	8f 92       	push	r8
    296c:	9f 92       	push	r9
    296e:	af 92       	push	r10
    2970:	bf 92       	push	r11
    2972:	cf 92       	push	r12
    2974:	df 92       	push	r13
    2976:	ef 92       	push	r14
    2978:	ff 92       	push	r15
    297a:	cf 93       	push	r28
    297c:	df 93       	push	r29
    297e:	fc 01       	movw	r30, r24
    2980:	26 85       	ldd	r18, Z+14	; 0x0e
    2982:	22 23       	and	r18, r18
    2984:	09 f4       	brne	.+2      	; 0x2988 <_ZN5Wheel13takeDerectionEv+0x1e>
    2986:	45 c0       	rjmp	.+138    	; 0x2a12 <_ZN5Wheel13takeDerectionEv+0xa8>
    2988:	27 85       	ldd	r18, Z+15	; 0x0f
    298a:	21 11       	cpse	r18, r1
    298c:	45 c0       	rjmp	.+138    	; 0x2a18 <_ZN5Wheel13takeDerectionEv+0xae>
    298e:	ec 01       	movw	r28, r24
    2990:	0e 94 96 14 	call	0x292c	; 0x292c <_ZN5Wheel9get_hightEv>
    2994:	6b 01       	movw	r12, r22
    2996:	7c 01       	movw	r14, r24
    2998:	6a 83       	std	Y+2, r22	; 0x02
    299a:	7b 83       	std	Y+3, r23	; 0x03
    299c:	8c 83       	std	Y+4, r24	; 0x04
    299e:	9d 83       	std	Y+5, r25	; 0x05
    29a0:	20 e0       	ldi	r18, 0x00	; 0
    29a2:	30 e0       	ldi	r19, 0x00	; 0
    29a4:	46 e9       	ldi	r20, 0x96	; 150
    29a6:	53 e4       	ldi	r21, 0x43	; 67
    29a8:	6a 85       	ldd	r22, Y+10	; 0x0a
    29aa:	7b 85       	ldd	r23, Y+11	; 0x0b
    29ac:	8c 85       	ldd	r24, Y+12	; 0x0c
    29ae:	9d 85       	ldd	r25, Y+13	; 0x0d
    29b0:	0e 94 d3 16 	call	0x2da6	; 0x2da6 <__mulsf3>
    29b4:	4b 01       	movw	r8, r22
    29b6:	5c 01       	movw	r10, r24
    29b8:	20 e0       	ldi	r18, 0x00	; 0
    29ba:	30 e0       	ldi	r19, 0x00	; 0
    29bc:	46 e9       	ldi	r20, 0x96	; 150
    29be:	53 e4       	ldi	r21, 0x43	; 67
    29c0:	c7 01       	movw	r24, r14
    29c2:	b6 01       	movw	r22, r12
    29c4:	0e 94 d3 16 	call	0x2da6	; 0x2da6 <__mulsf3>
    29c8:	9b 01       	movw	r18, r22
    29ca:	ac 01       	movw	r20, r24
    29cc:	c5 01       	movw	r24, r10
    29ce:	b4 01       	movw	r22, r8
    29d0:	0e 94 79 15 	call	0x2af2	; 0x2af2 <__subsf3>
    29d4:	6c 8b       	std	Y+20, r22	; 0x14
    29d6:	7d 8b       	std	Y+21, r23	; 0x15
    29d8:	8e 8b       	std	Y+22, r24	; 0x16
    29da:	9f 8b       	std	Y+23, r25	; 0x17
    29dc:	0e 94 eb 15 	call	0x2bd6	; 0x2bd6 <__fixsfsi>
    29e0:	7a 8b       	std	Y+18, r23	; 0x12
    29e2:	69 8b       	std	Y+17, r22	; 0x11
    29e4:	79 8f       	std	Y+25, r23	; 0x19
    29e6:	68 8f       	std	Y+24, r22	; 0x18
    29e8:	18 8a       	std	Y+16, r1	; 0x10
    29ea:	77 23       	and	r23, r23
    29ec:	44 f4       	brge	.+16     	; 0x29fe <_ZN5Wheel13takeDerectionEv+0x94>
    29ee:	71 95       	neg	r23
    29f0:	61 95       	neg	r22
    29f2:	71 09       	sbc	r23, r1
    29f4:	7a 8b       	std	Y+18, r23	; 0x12
    29f6:	69 8b       	std	Y+17, r22	; 0x11
    29f8:	82 e0       	ldi	r24, 0x02	; 2
    29fa:	90 e0       	ldi	r25, 0x00	; 0
    29fc:	12 c0       	rjmp	.+36     	; 0x2a22 <_ZN5Wheel13takeDerectionEv+0xb8>
    29fe:	16 16       	cp	r1, r22
    2a00:	17 06       	cpc	r1, r23
    2a02:	6c f0       	brlt	.+26     	; 0x2a1e <_ZN5Wheel13takeDerectionEv+0xb4>
    2a04:	1a 8a       	std	Y+18, r1	; 0x12
    2a06:	19 8a       	std	Y+17, r1	; 0x11
    2a08:	81 e0       	ldi	r24, 0x01	; 1
    2a0a:	88 8b       	std	Y+16, r24	; 0x10
    2a0c:	80 e0       	ldi	r24, 0x00	; 0
    2a0e:	90 e0       	ldi	r25, 0x00	; 0
    2a10:	08 c0       	rjmp	.+16     	; 0x2a22 <_ZN5Wheel13takeDerectionEv+0xb8>
    2a12:	80 e0       	ldi	r24, 0x00	; 0
    2a14:	90 e0       	ldi	r25, 0x00	; 0
    2a16:	05 c0       	rjmp	.+10     	; 0x2a22 <_ZN5Wheel13takeDerectionEv+0xb8>
    2a18:	80 e0       	ldi	r24, 0x00	; 0
    2a1a:	90 e0       	ldi	r25, 0x00	; 0
    2a1c:	02 c0       	rjmp	.+4      	; 0x2a22 <_ZN5Wheel13takeDerectionEv+0xb8>
    2a1e:	81 e0       	ldi	r24, 0x01	; 1
    2a20:	90 e0       	ldi	r25, 0x00	; 0
    2a22:	df 91       	pop	r29
    2a24:	cf 91       	pop	r28
    2a26:	ff 90       	pop	r15
    2a28:	ef 90       	pop	r14
    2a2a:	df 90       	pop	r13
    2a2c:	cf 90       	pop	r12
    2a2e:	bf 90       	pop	r11
    2a30:	af 90       	pop	r10
    2a32:	9f 90       	pop	r9
    2a34:	8f 90       	pop	r8
    2a36:	08 95       	ret

00002a38 <_ZN5Wheel5CheckEv>:
    2a38:	cf 93       	push	r28
    2a3a:	df 93       	push	r29
    2a3c:	ec 01       	movw	r28, r24
    2a3e:	8a 81       	ldd	r24, Y+2	; 0x02
    2a40:	9b 81       	ldd	r25, Y+3	; 0x03
    2a42:	ac 81       	ldd	r26, Y+4	; 0x04
    2a44:	bd 81       	ldd	r27, Y+5	; 0x05
    2a46:	8e 83       	std	Y+6, r24	; 0x06
    2a48:	9f 83       	std	Y+7, r25	; 0x07
    2a4a:	a8 87       	std	Y+8, r26	; 0x08
    2a4c:	b9 87       	std	Y+9, r27	; 0x09
    2a4e:	ce 01       	movw	r24, r28
    2a50:	0e 94 96 14 	call	0x292c	; 0x292c <_ZN5Wheel9get_hightEv>
    2a54:	6a 83       	std	Y+2, r22	; 0x02
    2a56:	7b 83       	std	Y+3, r23	; 0x03
    2a58:	8c 83       	std	Y+4, r24	; 0x04
    2a5a:	9d 83       	std	Y+5, r25	; 0x05
    2a5c:	2e 81       	ldd	r18, Y+6	; 0x06
    2a5e:	3f 81       	ldd	r19, Y+7	; 0x07
    2a60:	48 85       	ldd	r20, Y+8	; 0x08
    2a62:	59 85       	ldd	r21, Y+9	; 0x09
    2a64:	0e 94 e6 15 	call	0x2bcc	; 0x2bcc <__cmpsf2>
    2a68:	81 11       	cpse	r24, r1
    2a6a:	04 c0       	rjmp	.+8      	; 0x2a74 <_ZN5Wheel5CheckEv+0x3c>
    2a6c:	81 e0       	ldi	r24, 0x01	; 1
    2a6e:	8f 87       	std	Y+15, r24	; 0x0f
    2a70:	80 e0       	ldi	r24, 0x00	; 0
    2a72:	02 c0       	rjmp	.+4      	; 0x2a78 <_ZN5Wheel5CheckEv+0x40>
    2a74:	1f 86       	std	Y+15, r1	; 0x0f
    2a76:	81 e0       	ldi	r24, 0x01	; 1
    2a78:	df 91       	pop	r29
    2a7a:	cf 91       	pop	r28
    2a7c:	08 95       	ret

00002a7e <_ZN5Wheel6SelectEv>:
	
}

void Wheel::Select(){
    2a7e:	fc 01       	movw	r30, r24
	selected = !selected;
    2a80:	86 85       	ldd	r24, Z+14	; 0x0e
    2a82:	91 e0       	ldi	r25, 0x01	; 1
    2a84:	98 27       	eor	r25, r24
    2a86:	96 87       	std	Z+14, r25	; 0x0e
    2a88:	08 95       	ret

00002a8a <_ZN5Wheel2UpEf>:
}

bool Wheel::Up(float step){
    2a8a:	0f 93       	push	r16
    2a8c:	1f 93       	push	r17
    2a8e:	cf 93       	push	r28
	if (!selected){return false;}
    2a90:	fc 01       	movw	r30, r24
    2a92:	c6 85       	ldd	r28, Z+14	; 0x0e
    2a94:	cc 23       	and	r28, r28
    2a96:	71 f0       	breq	.+28     	; 0x2ab4 <_ZN5Wheel2UpEf+0x2a>
    2a98:	9a 01       	movw	r18, r20
    2a9a:	ab 01       	movw	r20, r22
    2a9c:	8c 01       	movw	r16, r24
	sethight += step;
    2a9e:	62 85       	ldd	r22, Z+10	; 0x0a
    2aa0:	73 85       	ldd	r23, Z+11	; 0x0b
    2aa2:	84 85       	ldd	r24, Z+12	; 0x0c
    2aa4:	95 85       	ldd	r25, Z+13	; 0x0d
    2aa6:	0e 94 7a 15 	call	0x2af4	; 0x2af4 <__addsf3>
    2aaa:	f8 01       	movw	r30, r16
    2aac:	62 87       	std	Z+10, r22	; 0x0a
    2aae:	73 87       	std	Z+11, r23	; 0x0b
    2ab0:	84 87       	std	Z+12, r24	; 0x0c
    2ab2:	95 87       	std	Z+13, r25	; 0x0d
	return true;
}
    2ab4:	8c 2f       	mov	r24, r28
    2ab6:	cf 91       	pop	r28
    2ab8:	1f 91       	pop	r17
    2aba:	0f 91       	pop	r16
    2abc:	08 95       	ret

00002abe <_ZN5Wheel4DownEf>:

bool Wheel::Down(float step){
    2abe:	0f 93       	push	r16
    2ac0:	1f 93       	push	r17
    2ac2:	cf 93       	push	r28
	if (!selected){return false;}
    2ac4:	fc 01       	movw	r30, r24
    2ac6:	c6 85       	ldd	r28, Z+14	; 0x0e
    2ac8:	cc 23       	and	r28, r28
    2aca:	71 f0       	breq	.+28     	; 0x2ae8 <_ZN5Wheel4DownEf+0x2a>
    2acc:	9a 01       	movw	r18, r20
    2ace:	ab 01       	movw	r20, r22
    2ad0:	8c 01       	movw	r16, r24
	sethight -= step;
    2ad2:	62 85       	ldd	r22, Z+10	; 0x0a
    2ad4:	73 85       	ldd	r23, Z+11	; 0x0b
    2ad6:	84 85       	ldd	r24, Z+12	; 0x0c
    2ad8:	95 85       	ldd	r25, Z+13	; 0x0d
    2ada:	0e 94 79 15 	call	0x2af2	; 0x2af2 <__subsf3>
    2ade:	f8 01       	movw	r30, r16
    2ae0:	62 87       	std	Z+10, r22	; 0x0a
    2ae2:	73 87       	std	Z+11, r23	; 0x0b
    2ae4:	84 87       	std	Z+12, r24	; 0x0c
    2ae6:	95 87       	std	Z+13, r25	; 0x0d
	return true;
    2ae8:	8c 2f       	mov	r24, r28
    2aea:	cf 91       	pop	r28
    2aec:	1f 91       	pop	r17
    2aee:	0f 91       	pop	r16
    2af0:	08 95       	ret

00002af2 <__subsf3>:
    2af2:	50 58       	subi	r21, 0x80	; 128

00002af4 <__addsf3>:
    2af4:	bb 27       	eor	r27, r27
    2af6:	aa 27       	eor	r26, r26
    2af8:	0e 94 91 15 	call	0x2b22	; 0x2b22 <__addsf3x>
    2afc:	0c 94 99 16 	jmp	0x2d32	; 0x2d32 <__fp_round>
    2b00:	0e 94 8b 16 	call	0x2d16	; 0x2d16 <__fp_pscA>
    2b04:	38 f0       	brcs	.+14     	; 0x2b14 <__addsf3+0x20>
    2b06:	0e 94 92 16 	call	0x2d24	; 0x2d24 <__fp_pscB>
    2b0a:	20 f0       	brcs	.+8      	; 0x2b14 <__addsf3+0x20>
    2b0c:	39 f4       	brne	.+14     	; 0x2b1c <__addsf3+0x28>
    2b0e:	9f 3f       	cpi	r25, 0xFF	; 255
    2b10:	19 f4       	brne	.+6      	; 0x2b18 <__addsf3+0x24>
    2b12:	26 f4       	brtc	.+8      	; 0x2b1c <__addsf3+0x28>
    2b14:	0c 94 88 16 	jmp	0x2d10	; 0x2d10 <__fp_nan>
    2b18:	0e f4       	brtc	.+2      	; 0x2b1c <__addsf3+0x28>
    2b1a:	e0 95       	com	r30
    2b1c:	e7 fb       	bst	r30, 7
    2b1e:	0c 94 82 16 	jmp	0x2d04	; 0x2d04 <__fp_inf>

00002b22 <__addsf3x>:
    2b22:	e9 2f       	mov	r30, r25
    2b24:	0e 94 aa 16 	call	0x2d54	; 0x2d54 <__fp_split3>
    2b28:	58 f3       	brcs	.-42     	; 0x2b00 <__addsf3+0xc>
    2b2a:	ba 17       	cp	r27, r26
    2b2c:	62 07       	cpc	r22, r18
    2b2e:	73 07       	cpc	r23, r19
    2b30:	84 07       	cpc	r24, r20
    2b32:	95 07       	cpc	r25, r21
    2b34:	20 f0       	brcs	.+8      	; 0x2b3e <__addsf3x+0x1c>
    2b36:	79 f4       	brne	.+30     	; 0x2b56 <__addsf3x+0x34>
    2b38:	a6 f5       	brtc	.+104    	; 0x2ba2 <__addsf3x+0x80>
    2b3a:	0c 94 cc 16 	jmp	0x2d98	; 0x2d98 <__fp_zero>
    2b3e:	0e f4       	brtc	.+2      	; 0x2b42 <__addsf3x+0x20>
    2b40:	e0 95       	com	r30
    2b42:	0b 2e       	mov	r0, r27
    2b44:	ba 2f       	mov	r27, r26
    2b46:	a0 2d       	mov	r26, r0
    2b48:	0b 01       	movw	r0, r22
    2b4a:	b9 01       	movw	r22, r18
    2b4c:	90 01       	movw	r18, r0
    2b4e:	0c 01       	movw	r0, r24
    2b50:	ca 01       	movw	r24, r20
    2b52:	a0 01       	movw	r20, r0
    2b54:	11 24       	eor	r1, r1
    2b56:	ff 27       	eor	r31, r31
    2b58:	59 1b       	sub	r21, r25
    2b5a:	99 f0       	breq	.+38     	; 0x2b82 <__addsf3x+0x60>
    2b5c:	59 3f       	cpi	r21, 0xF9	; 249
    2b5e:	50 f4       	brcc	.+20     	; 0x2b74 <__addsf3x+0x52>
    2b60:	50 3e       	cpi	r21, 0xE0	; 224
    2b62:	68 f1       	brcs	.+90     	; 0x2bbe <__addsf3x+0x9c>
    2b64:	1a 16       	cp	r1, r26
    2b66:	f0 40       	sbci	r31, 0x00	; 0
    2b68:	a2 2f       	mov	r26, r18
    2b6a:	23 2f       	mov	r18, r19
    2b6c:	34 2f       	mov	r19, r20
    2b6e:	44 27       	eor	r20, r20
    2b70:	58 5f       	subi	r21, 0xF8	; 248
    2b72:	f3 cf       	rjmp	.-26     	; 0x2b5a <__addsf3x+0x38>
    2b74:	46 95       	lsr	r20
    2b76:	37 95       	ror	r19
    2b78:	27 95       	ror	r18
    2b7a:	a7 95       	ror	r26
    2b7c:	f0 40       	sbci	r31, 0x00	; 0
    2b7e:	53 95       	inc	r21
    2b80:	c9 f7       	brne	.-14     	; 0x2b74 <__addsf3x+0x52>
    2b82:	7e f4       	brtc	.+30     	; 0x2ba2 <__addsf3x+0x80>
    2b84:	1f 16       	cp	r1, r31
    2b86:	ba 0b       	sbc	r27, r26
    2b88:	62 0b       	sbc	r22, r18
    2b8a:	73 0b       	sbc	r23, r19
    2b8c:	84 0b       	sbc	r24, r20
    2b8e:	ba f0       	brmi	.+46     	; 0x2bbe <__addsf3x+0x9c>
    2b90:	91 50       	subi	r25, 0x01	; 1
    2b92:	a1 f0       	breq	.+40     	; 0x2bbc <__addsf3x+0x9a>
    2b94:	ff 0f       	add	r31, r31
    2b96:	bb 1f       	adc	r27, r27
    2b98:	66 1f       	adc	r22, r22
    2b9a:	77 1f       	adc	r23, r23
    2b9c:	88 1f       	adc	r24, r24
    2b9e:	c2 f7       	brpl	.-16     	; 0x2b90 <__addsf3x+0x6e>
    2ba0:	0e c0       	rjmp	.+28     	; 0x2bbe <__addsf3x+0x9c>
    2ba2:	ba 0f       	add	r27, r26
    2ba4:	62 1f       	adc	r22, r18
    2ba6:	73 1f       	adc	r23, r19
    2ba8:	84 1f       	adc	r24, r20
    2baa:	48 f4       	brcc	.+18     	; 0x2bbe <__addsf3x+0x9c>
    2bac:	87 95       	ror	r24
    2bae:	77 95       	ror	r23
    2bb0:	67 95       	ror	r22
    2bb2:	b7 95       	ror	r27
    2bb4:	f7 95       	ror	r31
    2bb6:	9e 3f       	cpi	r25, 0xFE	; 254
    2bb8:	08 f0       	brcs	.+2      	; 0x2bbc <__addsf3x+0x9a>
    2bba:	b0 cf       	rjmp	.-160    	; 0x2b1c <__addsf3+0x28>
    2bbc:	93 95       	inc	r25
    2bbe:	88 0f       	add	r24, r24
    2bc0:	08 f0       	brcs	.+2      	; 0x2bc4 <__addsf3x+0xa2>
    2bc2:	99 27       	eor	r25, r25
    2bc4:	ee 0f       	add	r30, r30
    2bc6:	97 95       	ror	r25
    2bc8:	87 95       	ror	r24
    2bca:	08 95       	ret

00002bcc <__cmpsf2>:
    2bcc:	0e 94 5e 16 	call	0x2cbc	; 0x2cbc <__fp_cmp>
    2bd0:	08 f4       	brcc	.+2      	; 0x2bd4 <__cmpsf2+0x8>
    2bd2:	81 e0       	ldi	r24, 0x01	; 1
    2bd4:	08 95       	ret

00002bd6 <__fixsfsi>:
    2bd6:	0e 94 f2 15 	call	0x2be4	; 0x2be4 <__fixunssfsi>
    2bda:	68 94       	set
    2bdc:	b1 11       	cpse	r27, r1
    2bde:	0c 94 cd 16 	jmp	0x2d9a	; 0x2d9a <__fp_szero>
    2be2:	08 95       	ret

00002be4 <__fixunssfsi>:
    2be4:	0e 94 b2 16 	call	0x2d64	; 0x2d64 <__fp_splitA>
    2be8:	88 f0       	brcs	.+34     	; 0x2c0c <__fixunssfsi+0x28>
    2bea:	9f 57       	subi	r25, 0x7F	; 127
    2bec:	98 f0       	brcs	.+38     	; 0x2c14 <__fixunssfsi+0x30>
    2bee:	b9 2f       	mov	r27, r25
    2bf0:	99 27       	eor	r25, r25
    2bf2:	b7 51       	subi	r27, 0x17	; 23
    2bf4:	b0 f0       	brcs	.+44     	; 0x2c22 <__fixunssfsi+0x3e>
    2bf6:	e1 f0       	breq	.+56     	; 0x2c30 <__fixunssfsi+0x4c>
    2bf8:	66 0f       	add	r22, r22
    2bfa:	77 1f       	adc	r23, r23
    2bfc:	88 1f       	adc	r24, r24
    2bfe:	99 1f       	adc	r25, r25
    2c00:	1a f0       	brmi	.+6      	; 0x2c08 <__fixunssfsi+0x24>
    2c02:	ba 95       	dec	r27
    2c04:	c9 f7       	brne	.-14     	; 0x2bf8 <__fixunssfsi+0x14>
    2c06:	14 c0       	rjmp	.+40     	; 0x2c30 <__fixunssfsi+0x4c>
    2c08:	b1 30       	cpi	r27, 0x01	; 1
    2c0a:	91 f0       	breq	.+36     	; 0x2c30 <__fixunssfsi+0x4c>
    2c0c:	0e 94 cc 16 	call	0x2d98	; 0x2d98 <__fp_zero>
    2c10:	b1 e0       	ldi	r27, 0x01	; 1
    2c12:	08 95       	ret
    2c14:	0c 94 cc 16 	jmp	0x2d98	; 0x2d98 <__fp_zero>
    2c18:	67 2f       	mov	r22, r23
    2c1a:	78 2f       	mov	r23, r24
    2c1c:	88 27       	eor	r24, r24
    2c1e:	b8 5f       	subi	r27, 0xF8	; 248
    2c20:	39 f0       	breq	.+14     	; 0x2c30 <__fixunssfsi+0x4c>
    2c22:	b9 3f       	cpi	r27, 0xF9	; 249
    2c24:	cc f3       	brlt	.-14     	; 0x2c18 <__fixunssfsi+0x34>
    2c26:	86 95       	lsr	r24
    2c28:	77 95       	ror	r23
    2c2a:	67 95       	ror	r22
    2c2c:	b3 95       	inc	r27
    2c2e:	d9 f7       	brne	.-10     	; 0x2c26 <__fixunssfsi+0x42>
    2c30:	3e f4       	brtc	.+14     	; 0x2c40 <__fixunssfsi+0x5c>
    2c32:	90 95       	com	r25
    2c34:	80 95       	com	r24
    2c36:	70 95       	com	r23
    2c38:	61 95       	neg	r22
    2c3a:	7f 4f       	sbci	r23, 0xFF	; 255
    2c3c:	8f 4f       	sbci	r24, 0xFF	; 255
    2c3e:	9f 4f       	sbci	r25, 0xFF	; 255
    2c40:	08 95       	ret

00002c42 <__floatunsisf>:
    2c42:	e8 94       	clt
    2c44:	09 c0       	rjmp	.+18     	; 0x2c58 <__floatsisf+0x12>

00002c46 <__floatsisf>:
    2c46:	97 fb       	bst	r25, 7
    2c48:	3e f4       	brtc	.+14     	; 0x2c58 <__floatsisf+0x12>
    2c4a:	90 95       	com	r25
    2c4c:	80 95       	com	r24
    2c4e:	70 95       	com	r23
    2c50:	61 95       	neg	r22
    2c52:	7f 4f       	sbci	r23, 0xFF	; 255
    2c54:	8f 4f       	sbci	r24, 0xFF	; 255
    2c56:	9f 4f       	sbci	r25, 0xFF	; 255
    2c58:	99 23       	and	r25, r25
    2c5a:	a9 f0       	breq	.+42     	; 0x2c86 <__floatsisf+0x40>
    2c5c:	f9 2f       	mov	r31, r25
    2c5e:	96 e9       	ldi	r25, 0x96	; 150
    2c60:	bb 27       	eor	r27, r27
    2c62:	93 95       	inc	r25
    2c64:	f6 95       	lsr	r31
    2c66:	87 95       	ror	r24
    2c68:	77 95       	ror	r23
    2c6a:	67 95       	ror	r22
    2c6c:	b7 95       	ror	r27
    2c6e:	f1 11       	cpse	r31, r1
    2c70:	f8 cf       	rjmp	.-16     	; 0x2c62 <__floatsisf+0x1c>
    2c72:	fa f4       	brpl	.+62     	; 0x2cb2 <__floatsisf+0x6c>
    2c74:	bb 0f       	add	r27, r27
    2c76:	11 f4       	brne	.+4      	; 0x2c7c <__floatsisf+0x36>
    2c78:	60 ff       	sbrs	r22, 0
    2c7a:	1b c0       	rjmp	.+54     	; 0x2cb2 <__floatsisf+0x6c>
    2c7c:	6f 5f       	subi	r22, 0xFF	; 255
    2c7e:	7f 4f       	sbci	r23, 0xFF	; 255
    2c80:	8f 4f       	sbci	r24, 0xFF	; 255
    2c82:	9f 4f       	sbci	r25, 0xFF	; 255
    2c84:	16 c0       	rjmp	.+44     	; 0x2cb2 <__floatsisf+0x6c>
    2c86:	88 23       	and	r24, r24
    2c88:	11 f0       	breq	.+4      	; 0x2c8e <__floatsisf+0x48>
    2c8a:	96 e9       	ldi	r25, 0x96	; 150
    2c8c:	11 c0       	rjmp	.+34     	; 0x2cb0 <__floatsisf+0x6a>
    2c8e:	77 23       	and	r23, r23
    2c90:	21 f0       	breq	.+8      	; 0x2c9a <__floatsisf+0x54>
    2c92:	9e e8       	ldi	r25, 0x8E	; 142
    2c94:	87 2f       	mov	r24, r23
    2c96:	76 2f       	mov	r23, r22
    2c98:	05 c0       	rjmp	.+10     	; 0x2ca4 <__floatsisf+0x5e>
    2c9a:	66 23       	and	r22, r22
    2c9c:	71 f0       	breq	.+28     	; 0x2cba <__floatsisf+0x74>
    2c9e:	96 e8       	ldi	r25, 0x86	; 134
    2ca0:	86 2f       	mov	r24, r22
    2ca2:	70 e0       	ldi	r23, 0x00	; 0
    2ca4:	60 e0       	ldi	r22, 0x00	; 0
    2ca6:	2a f0       	brmi	.+10     	; 0x2cb2 <__floatsisf+0x6c>
    2ca8:	9a 95       	dec	r25
    2caa:	66 0f       	add	r22, r22
    2cac:	77 1f       	adc	r23, r23
    2cae:	88 1f       	adc	r24, r24
    2cb0:	da f7       	brpl	.-10     	; 0x2ca8 <__floatsisf+0x62>
    2cb2:	88 0f       	add	r24, r24
    2cb4:	96 95       	lsr	r25
    2cb6:	87 95       	ror	r24
    2cb8:	97 f9       	bld	r25, 7
    2cba:	08 95       	ret

00002cbc <__fp_cmp>:
    2cbc:	99 0f       	add	r25, r25
    2cbe:	00 08       	sbc	r0, r0
    2cc0:	55 0f       	add	r21, r21
    2cc2:	aa 0b       	sbc	r26, r26
    2cc4:	e0 e8       	ldi	r30, 0x80	; 128
    2cc6:	fe ef       	ldi	r31, 0xFE	; 254
    2cc8:	16 16       	cp	r1, r22
    2cca:	17 06       	cpc	r1, r23
    2ccc:	e8 07       	cpc	r30, r24
    2cce:	f9 07       	cpc	r31, r25
    2cd0:	c0 f0       	brcs	.+48     	; 0x2d02 <__fp_cmp+0x46>
    2cd2:	12 16       	cp	r1, r18
    2cd4:	13 06       	cpc	r1, r19
    2cd6:	e4 07       	cpc	r30, r20
    2cd8:	f5 07       	cpc	r31, r21
    2cda:	98 f0       	brcs	.+38     	; 0x2d02 <__fp_cmp+0x46>
    2cdc:	62 1b       	sub	r22, r18
    2cde:	73 0b       	sbc	r23, r19
    2ce0:	84 0b       	sbc	r24, r20
    2ce2:	95 0b       	sbc	r25, r21
    2ce4:	39 f4       	brne	.+14     	; 0x2cf4 <__fp_cmp+0x38>
    2ce6:	0a 26       	eor	r0, r26
    2ce8:	61 f0       	breq	.+24     	; 0x2d02 <__fp_cmp+0x46>
    2cea:	23 2b       	or	r18, r19
    2cec:	24 2b       	or	r18, r20
    2cee:	25 2b       	or	r18, r21
    2cf0:	21 f4       	brne	.+8      	; 0x2cfa <__fp_cmp+0x3e>
    2cf2:	08 95       	ret
    2cf4:	0a 26       	eor	r0, r26
    2cf6:	09 f4       	brne	.+2      	; 0x2cfa <__fp_cmp+0x3e>
    2cf8:	a1 40       	sbci	r26, 0x01	; 1
    2cfa:	a6 95       	lsr	r26
    2cfc:	8f ef       	ldi	r24, 0xFF	; 255
    2cfe:	81 1d       	adc	r24, r1
    2d00:	81 1d       	adc	r24, r1
    2d02:	08 95       	ret

00002d04 <__fp_inf>:
    2d04:	97 f9       	bld	r25, 7
    2d06:	9f 67       	ori	r25, 0x7F	; 127
    2d08:	80 e8       	ldi	r24, 0x80	; 128
    2d0a:	70 e0       	ldi	r23, 0x00	; 0
    2d0c:	60 e0       	ldi	r22, 0x00	; 0
    2d0e:	08 95       	ret

00002d10 <__fp_nan>:
    2d10:	9f ef       	ldi	r25, 0xFF	; 255
    2d12:	80 ec       	ldi	r24, 0xC0	; 192
    2d14:	08 95       	ret

00002d16 <__fp_pscA>:
    2d16:	00 24       	eor	r0, r0
    2d18:	0a 94       	dec	r0
    2d1a:	16 16       	cp	r1, r22
    2d1c:	17 06       	cpc	r1, r23
    2d1e:	18 06       	cpc	r1, r24
    2d20:	09 06       	cpc	r0, r25
    2d22:	08 95       	ret

00002d24 <__fp_pscB>:
    2d24:	00 24       	eor	r0, r0
    2d26:	0a 94       	dec	r0
    2d28:	12 16       	cp	r1, r18
    2d2a:	13 06       	cpc	r1, r19
    2d2c:	14 06       	cpc	r1, r20
    2d2e:	05 06       	cpc	r0, r21
    2d30:	08 95       	ret

00002d32 <__fp_round>:
    2d32:	09 2e       	mov	r0, r25
    2d34:	03 94       	inc	r0
    2d36:	00 0c       	add	r0, r0
    2d38:	11 f4       	brne	.+4      	; 0x2d3e <__fp_round+0xc>
    2d3a:	88 23       	and	r24, r24
    2d3c:	52 f0       	brmi	.+20     	; 0x2d52 <__fp_round+0x20>
    2d3e:	bb 0f       	add	r27, r27
    2d40:	40 f4       	brcc	.+16     	; 0x2d52 <__fp_round+0x20>
    2d42:	bf 2b       	or	r27, r31
    2d44:	11 f4       	brne	.+4      	; 0x2d4a <__fp_round+0x18>
    2d46:	60 ff       	sbrs	r22, 0
    2d48:	04 c0       	rjmp	.+8      	; 0x2d52 <__fp_round+0x20>
    2d4a:	6f 5f       	subi	r22, 0xFF	; 255
    2d4c:	7f 4f       	sbci	r23, 0xFF	; 255
    2d4e:	8f 4f       	sbci	r24, 0xFF	; 255
    2d50:	9f 4f       	sbci	r25, 0xFF	; 255
    2d52:	08 95       	ret

00002d54 <__fp_split3>:
    2d54:	57 fd       	sbrc	r21, 7
    2d56:	90 58       	subi	r25, 0x80	; 128
    2d58:	44 0f       	add	r20, r20
    2d5a:	55 1f       	adc	r21, r21
    2d5c:	59 f0       	breq	.+22     	; 0x2d74 <__fp_splitA+0x10>
    2d5e:	5f 3f       	cpi	r21, 0xFF	; 255
    2d60:	71 f0       	breq	.+28     	; 0x2d7e <__fp_splitA+0x1a>
    2d62:	47 95       	ror	r20

00002d64 <__fp_splitA>:
    2d64:	88 0f       	add	r24, r24
    2d66:	97 fb       	bst	r25, 7
    2d68:	99 1f       	adc	r25, r25
    2d6a:	61 f0       	breq	.+24     	; 0x2d84 <__fp_splitA+0x20>
    2d6c:	9f 3f       	cpi	r25, 0xFF	; 255
    2d6e:	79 f0       	breq	.+30     	; 0x2d8e <__fp_splitA+0x2a>
    2d70:	87 95       	ror	r24
    2d72:	08 95       	ret
    2d74:	12 16       	cp	r1, r18
    2d76:	13 06       	cpc	r1, r19
    2d78:	14 06       	cpc	r1, r20
    2d7a:	55 1f       	adc	r21, r21
    2d7c:	f2 cf       	rjmp	.-28     	; 0x2d62 <__fp_split3+0xe>
    2d7e:	46 95       	lsr	r20
    2d80:	f1 df       	rcall	.-30     	; 0x2d64 <__fp_splitA>
    2d82:	08 c0       	rjmp	.+16     	; 0x2d94 <__fp_splitA+0x30>
    2d84:	16 16       	cp	r1, r22
    2d86:	17 06       	cpc	r1, r23
    2d88:	18 06       	cpc	r1, r24
    2d8a:	99 1f       	adc	r25, r25
    2d8c:	f1 cf       	rjmp	.-30     	; 0x2d70 <__fp_splitA+0xc>
    2d8e:	86 95       	lsr	r24
    2d90:	71 05       	cpc	r23, r1
    2d92:	61 05       	cpc	r22, r1
    2d94:	08 94       	sec
    2d96:	08 95       	ret

00002d98 <__fp_zero>:
    2d98:	e8 94       	clt

00002d9a <__fp_szero>:
    2d9a:	bb 27       	eor	r27, r27
    2d9c:	66 27       	eor	r22, r22
    2d9e:	77 27       	eor	r23, r23
    2da0:	cb 01       	movw	r24, r22
    2da2:	97 f9       	bld	r25, 7
    2da4:	08 95       	ret

00002da6 <__mulsf3>:
    2da6:	0e 94 e6 16 	call	0x2dcc	; 0x2dcc <__mulsf3x>
    2daa:	0c 94 99 16 	jmp	0x2d32	; 0x2d32 <__fp_round>
    2dae:	0e 94 8b 16 	call	0x2d16	; 0x2d16 <__fp_pscA>
    2db2:	38 f0       	brcs	.+14     	; 0x2dc2 <__mulsf3+0x1c>
    2db4:	0e 94 92 16 	call	0x2d24	; 0x2d24 <__fp_pscB>
    2db8:	20 f0       	brcs	.+8      	; 0x2dc2 <__mulsf3+0x1c>
    2dba:	95 23       	and	r25, r21
    2dbc:	11 f0       	breq	.+4      	; 0x2dc2 <__mulsf3+0x1c>
    2dbe:	0c 94 82 16 	jmp	0x2d04	; 0x2d04 <__fp_inf>
    2dc2:	0c 94 88 16 	jmp	0x2d10	; 0x2d10 <__fp_nan>
    2dc6:	11 24       	eor	r1, r1
    2dc8:	0c 94 cd 16 	jmp	0x2d9a	; 0x2d9a <__fp_szero>

00002dcc <__mulsf3x>:
    2dcc:	0e 94 aa 16 	call	0x2d54	; 0x2d54 <__fp_split3>
    2dd0:	70 f3       	brcs	.-36     	; 0x2dae <__mulsf3+0x8>

00002dd2 <__mulsf3_pse>:
    2dd2:	95 9f       	mul	r25, r21
    2dd4:	c1 f3       	breq	.-16     	; 0x2dc6 <__mulsf3+0x20>
    2dd6:	95 0f       	add	r25, r21
    2dd8:	50 e0       	ldi	r21, 0x00	; 0
    2dda:	55 1f       	adc	r21, r21
    2ddc:	62 9f       	mul	r22, r18
    2dde:	f0 01       	movw	r30, r0
    2de0:	72 9f       	mul	r23, r18
    2de2:	bb 27       	eor	r27, r27
    2de4:	f0 0d       	add	r31, r0
    2de6:	b1 1d       	adc	r27, r1
    2de8:	63 9f       	mul	r22, r19
    2dea:	aa 27       	eor	r26, r26
    2dec:	f0 0d       	add	r31, r0
    2dee:	b1 1d       	adc	r27, r1
    2df0:	aa 1f       	adc	r26, r26
    2df2:	64 9f       	mul	r22, r20
    2df4:	66 27       	eor	r22, r22
    2df6:	b0 0d       	add	r27, r0
    2df8:	a1 1d       	adc	r26, r1
    2dfa:	66 1f       	adc	r22, r22
    2dfc:	82 9f       	mul	r24, r18
    2dfe:	22 27       	eor	r18, r18
    2e00:	b0 0d       	add	r27, r0
    2e02:	a1 1d       	adc	r26, r1
    2e04:	62 1f       	adc	r22, r18
    2e06:	73 9f       	mul	r23, r19
    2e08:	b0 0d       	add	r27, r0
    2e0a:	a1 1d       	adc	r26, r1
    2e0c:	62 1f       	adc	r22, r18
    2e0e:	83 9f       	mul	r24, r19
    2e10:	a0 0d       	add	r26, r0
    2e12:	61 1d       	adc	r22, r1
    2e14:	22 1f       	adc	r18, r18
    2e16:	74 9f       	mul	r23, r20
    2e18:	33 27       	eor	r19, r19
    2e1a:	a0 0d       	add	r26, r0
    2e1c:	61 1d       	adc	r22, r1
    2e1e:	23 1f       	adc	r18, r19
    2e20:	84 9f       	mul	r24, r20
    2e22:	60 0d       	add	r22, r0
    2e24:	21 1d       	adc	r18, r1
    2e26:	82 2f       	mov	r24, r18
    2e28:	76 2f       	mov	r23, r22
    2e2a:	6a 2f       	mov	r22, r26
    2e2c:	11 24       	eor	r1, r1
    2e2e:	9f 57       	subi	r25, 0x7F	; 127
    2e30:	50 40       	sbci	r21, 0x00	; 0
    2e32:	9a f0       	brmi	.+38     	; 0x2e5a <__mulsf3_pse+0x88>
    2e34:	f1 f0       	breq	.+60     	; 0x2e72 <__mulsf3_pse+0xa0>
    2e36:	88 23       	and	r24, r24
    2e38:	4a f0       	brmi	.+18     	; 0x2e4c <__mulsf3_pse+0x7a>
    2e3a:	ee 0f       	add	r30, r30
    2e3c:	ff 1f       	adc	r31, r31
    2e3e:	bb 1f       	adc	r27, r27
    2e40:	66 1f       	adc	r22, r22
    2e42:	77 1f       	adc	r23, r23
    2e44:	88 1f       	adc	r24, r24
    2e46:	91 50       	subi	r25, 0x01	; 1
    2e48:	50 40       	sbci	r21, 0x00	; 0
    2e4a:	a9 f7       	brne	.-22     	; 0x2e36 <__mulsf3_pse+0x64>
    2e4c:	9e 3f       	cpi	r25, 0xFE	; 254
    2e4e:	51 05       	cpc	r21, r1
    2e50:	80 f0       	brcs	.+32     	; 0x2e72 <__mulsf3_pse+0xa0>
    2e52:	0c 94 82 16 	jmp	0x2d04	; 0x2d04 <__fp_inf>
    2e56:	0c 94 cd 16 	jmp	0x2d9a	; 0x2d9a <__fp_szero>
    2e5a:	5f 3f       	cpi	r21, 0xFF	; 255
    2e5c:	e4 f3       	brlt	.-8      	; 0x2e56 <__mulsf3_pse+0x84>
    2e5e:	98 3e       	cpi	r25, 0xE8	; 232
    2e60:	d4 f3       	brlt	.-12     	; 0x2e56 <__mulsf3_pse+0x84>
    2e62:	86 95       	lsr	r24
    2e64:	77 95       	ror	r23
    2e66:	67 95       	ror	r22
    2e68:	b7 95       	ror	r27
    2e6a:	f7 95       	ror	r31
    2e6c:	e7 95       	ror	r30
    2e6e:	9f 5f       	subi	r25, 0xFF	; 255
    2e70:	c1 f7       	brne	.-16     	; 0x2e62 <__mulsf3_pse+0x90>
    2e72:	fe 2b       	or	r31, r30
    2e74:	88 0f       	add	r24, r24
    2e76:	91 1d       	adc	r25, r1
    2e78:	96 95       	lsr	r25
    2e7a:	87 95       	ror	r24
    2e7c:	97 f9       	bld	r25, 7
    2e7e:	08 95       	ret

00002e80 <__divmodhi4>:
    2e80:	97 fb       	bst	r25, 7
    2e82:	07 2e       	mov	r0, r23
    2e84:	16 f4       	brtc	.+4      	; 0x2e8a <__divmodhi4+0xa>
    2e86:	00 94       	com	r0
    2e88:	07 d0       	rcall	.+14     	; 0x2e98 <__divmodhi4_neg1>
    2e8a:	77 fd       	sbrc	r23, 7
    2e8c:	09 d0       	rcall	.+18     	; 0x2ea0 <__divmodhi4_neg2>
    2e8e:	0e 94 54 17 	call	0x2ea8	; 0x2ea8 <__udivmodhi4>
    2e92:	07 fc       	sbrc	r0, 7
    2e94:	05 d0       	rcall	.+10     	; 0x2ea0 <__divmodhi4_neg2>
    2e96:	3e f4       	brtc	.+14     	; 0x2ea6 <__divmodhi4_exit>

00002e98 <__divmodhi4_neg1>:
    2e98:	90 95       	com	r25
    2e9a:	81 95       	neg	r24
    2e9c:	9f 4f       	sbci	r25, 0xFF	; 255
    2e9e:	08 95       	ret

00002ea0 <__divmodhi4_neg2>:
    2ea0:	70 95       	com	r23
    2ea2:	61 95       	neg	r22
    2ea4:	7f 4f       	sbci	r23, 0xFF	; 255

00002ea6 <__divmodhi4_exit>:
    2ea6:	08 95       	ret

00002ea8 <__udivmodhi4>:
    2ea8:	aa 1b       	sub	r26, r26
    2eaa:	bb 1b       	sub	r27, r27
    2eac:	51 e1       	ldi	r21, 0x11	; 17
    2eae:	07 c0       	rjmp	.+14     	; 0x2ebe <__udivmodhi4_ep>

00002eb0 <__udivmodhi4_loop>:
    2eb0:	aa 1f       	adc	r26, r26
    2eb2:	bb 1f       	adc	r27, r27
    2eb4:	a6 17       	cp	r26, r22
    2eb6:	b7 07       	cpc	r27, r23
    2eb8:	10 f0       	brcs	.+4      	; 0x2ebe <__udivmodhi4_ep>
    2eba:	a6 1b       	sub	r26, r22
    2ebc:	b7 0b       	sbc	r27, r23

00002ebe <__udivmodhi4_ep>:
    2ebe:	88 1f       	adc	r24, r24
    2ec0:	99 1f       	adc	r25, r25
    2ec2:	5a 95       	dec	r21
    2ec4:	a9 f7       	brne	.-22     	; 0x2eb0 <__udivmodhi4_loop>
    2ec6:	80 95       	com	r24
    2ec8:	90 95       	com	r25
    2eca:	bc 01       	movw	r22, r24
    2ecc:	cd 01       	movw	r24, r26
    2ece:	08 95       	ret

00002ed0 <__tablejump2__>:
    2ed0:	ee 0f       	add	r30, r30
    2ed2:	ff 1f       	adc	r31, r31
    2ed4:	05 90       	lpm	r0, Z+
    2ed6:	f4 91       	lpm	r31, Z
    2ed8:	e0 2d       	mov	r30, r0
    2eda:	09 94       	ijmp

00002edc <_exit>:
    2edc:	f8 94       	cli

00002ede <__stop_program>:
    2ede:	ff cf       	rjmp	.-2      	; 0x2ede <__stop_program>
