
CarSupport.elf:     file format elf32-avr

Sections:
Idx Name          Size      VMA       LMA       File off  Algn
  0 .data         000001a4  00800100  00004b14  00004bc8  2**0
                  CONTENTS, ALLOC, LOAD, DATA
  1 .text         00004b14  00000000  00000000  000000b4  2**1
                  CONTENTS, ALLOC, LOAD, READONLY, CODE
  2 .bss          000003b4  008002a4  008002a4  00004d6c  2**0
                  ALLOC
  3 .eeprom       0000004d  00810000  00810000  00004d6c  2**0
                  CONTENTS, ALLOC, LOAD, DATA
  4 .comment      00000030  00000000  00000000  00004db9  2**0
                  CONTENTS, READONLY
  5 .note.gnu.avr.deviceinfo 0000003c  00000000  00000000  00004dec  2**2
                  CONTENTS, READONLY
  6 .debug_aranges 00000580  00000000  00000000  00004e28  2**3
                  CONTENTS, READONLY, DEBUGGING
  7 .debug_info   0000dd03  00000000  00000000  000053a8  2**0
                  CONTENTS, READONLY, DEBUGGING
  8 .debug_abbrev 00001f49  00000000  00000000  000130ab  2**0
                  CONTENTS, READONLY, DEBUGGING
  9 .debug_line   0000377b  00000000  00000000  00014ff4  2**0
                  CONTENTS, READONLY, DEBUGGING
 10 .debug_frame  000010cc  00000000  00000000  00018770  2**2
                  CONTENTS, READONLY, DEBUGGING
 11 .debug_str    00001f90  00000000  00000000  0001983c  2**0
                  CONTENTS, READONLY, DEBUGGING
 12 .debug_loc    00006077  00000000  00000000  0001b7cc  2**0
                  CONTENTS, READONLY, DEBUGGING
 13 .debug_ranges 00000450  00000000  00000000  00021843  2**0
                  CONTENTS, READONLY, DEBUGGING

Disassembly of section .text:

00000000 <__vectors>:
       0:	0c 94 51 04 	jmp	0x8a2	; 0x8a2 <__ctors_end>
       4:	0c 94 79 04 	jmp	0x8f2	; 0x8f2 <__bad_interrupt>
       8:	0c 94 79 04 	jmp	0x8f2	; 0x8f2 <__bad_interrupt>
       c:	0c 94 79 04 	jmp	0x8f2	; 0x8f2 <__bad_interrupt>
      10:	0c 94 79 04 	jmp	0x8f2	; 0x8f2 <__bad_interrupt>
      14:	0c 94 79 04 	jmp	0x8f2	; 0x8f2 <__bad_interrupt>
      18:	0c 94 79 04 	jmp	0x8f2	; 0x8f2 <__bad_interrupt>
      1c:	0c 94 79 04 	jmp	0x8f2	; 0x8f2 <__bad_interrupt>
      20:	0c 94 79 04 	jmp	0x8f2	; 0x8f2 <__bad_interrupt>
      24:	0c 94 79 04 	jmp	0x8f2	; 0x8f2 <__bad_interrupt>
      28:	0c 94 79 04 	jmp	0x8f2	; 0x8f2 <__bad_interrupt>
      2c:	0c 94 79 04 	jmp	0x8f2	; 0x8f2 <__bad_interrupt>
      30:	0c 94 79 04 	jmp	0x8f2	; 0x8f2 <__bad_interrupt>
      34:	0c 94 79 04 	jmp	0x8f2	; 0x8f2 <__bad_interrupt>
      38:	0c 94 79 04 	jmp	0x8f2	; 0x8f2 <__bad_interrupt>
      3c:	0c 94 79 04 	jmp	0x8f2	; 0x8f2 <__bad_interrupt>
      40:	0c 94 79 04 	jmp	0x8f2	; 0x8f2 <__bad_interrupt>
      44:	0c 94 79 04 	jmp	0x8f2	; 0x8f2 <__bad_interrupt>
      48:	0c 94 79 04 	jmp	0x8f2	; 0x8f2 <__bad_interrupt>
      4c:	0c 94 79 04 	jmp	0x8f2	; 0x8f2 <__bad_interrupt>
      50:	0c 94 79 04 	jmp	0x8f2	; 0x8f2 <__bad_interrupt>
      54:	0c 94 79 04 	jmp	0x8f2	; 0x8f2 <__bad_interrupt>
      58:	0c 94 79 04 	jmp	0x8f2	; 0x8f2 <__bad_interrupt>
      5c:	0c 94 79 04 	jmp	0x8f2	; 0x8f2 <__bad_interrupt>
      60:	0c 94 79 04 	jmp	0x8f2	; 0x8f2 <__bad_interrupt>
      64:	0c 94 79 04 	jmp	0x8f2	; 0x8f2 <__bad_interrupt>
      68:	d1 09       	sbc	r29, r1
      6a:	d5 09       	sbc	r29, r5
      6c:	da 09       	sbc	r29, r10
      6e:	df 09       	sbc	r29, r15
      70:	e4 09       	sbc	r30, r4
      72:	e9 09       	sbc	r30, r9
      74:	ee 09       	sbc	r30, r14
      76:	f3 09       	sbc	r31, r3
      78:	f9 09       	sbc	r31, r9
      7a:	ff 09       	sbc	r31, r15
      7c:	05 0a       	sbc	r0, r21
      7e:	17 0b       	sbc	r17, r23
      80:	1a 0b       	sbc	r17, r26
      82:	1d 0b       	sbc	r17, r29
      84:	20 0b       	sbc	r18, r16
      86:	23 0b       	sbc	r18, r19
      88:	26 0b       	sbc	r18, r22
      8a:	29 0b       	sbc	r18, r25
      8c:	2c 0b       	sbc	r18, r28
      8e:	2f 0b       	sbc	r18, r31
      90:	6d 1d       	adc	r22, r13
      92:	75 1d       	adc	r23, r5
      94:	7d 1d       	adc	r23, r13
      96:	85 1d       	adc	r24, r5
      98:	8d 1d       	adc	r24, r13
      9a:	95 1d       	adc	r25, r5
      9c:	a5 1d       	adc	r26, r5
      9e:	9d 1d       	adc	r25, r13
      a0:	ad 1d       	adc	r26, r13
      a2:	b5 1d       	adc	r27, r5
      a4:	bd 1d       	adc	r27, r13
      a6:	c5 1d       	adc	r28, r5
      a8:	cd 1d       	adc	r28, r13
      aa:	d5 1d       	adc	r29, r5
      ac:	dd 1d       	adc	r29, r13
      ae:	e5 1d       	adc	r30, r5
      b0:	ed 1d       	adc	r30, r13
      b2:	62 1e       	adc	r6, r18
      b4:	83 1e       	adc	r8, r19
      b6:	93 1e       	adc	r9, r19
      b8:	9b 1e       	adc	r9, r27
      ba:	8b 1e       	adc	r8, r27
      bc:	6d 1e       	adc	r6, r29
      be:	78 1e       	adc	r7, r24
      c0:	a3 1e       	adc	r10, r19
      c2:	ea 1e       	adc	r14, r26
      c4:	f6 1e       	adc	r15, r22
      c6:	f0 1e       	adc	r15, r16
      c8:	fc 1e       	adc	r15, r28
      ca:	02 1f       	adc	r16, r18
      cc:	08 1f       	adc	r16, r24
      ce:	0e 1f       	adc	r16, r30
      d0:	14 1f       	adc	r17, r20
      d2:	1a 1f       	adc	r17, r26

000000d4 <__trampolines_end>:
      d4:	0a d7       	rcall	.+3604   	; 0xeea <_ZN8Activity14Malfaction_setER5PanelR7Carrage+0x188>
      d6:	23 3c       	cpi	r18, 0xC3	; 195
      d8:	0a d7       	rcall	.+3604   	; 0xeee <_ZN8Activity14Malfaction_setER5PanelR7Carrage+0x18c>
      da:	a3 3c       	cpi	r26, 0xC3	; 195
      dc:	8f c2       	rjmp	.+1310   	; 0x5fc <__LOCK_REGION_LENGTH__+0x1fc>
      de:	f5 3c       	cpi	r31, 0xC5	; 197
      e0:	0a d7       	rcall	.+3604   	; 0xef6 <_ZN8Activity14Malfaction_setER5PanelR7Carrage+0x194>
      e2:	23 3d       	cpi	r18, 0xD3	; 211
      e4:	cd cc       	rjmp	.-1638   	; 0xfffffa80 <__eeprom_end+0xff7efa33>
      e6:	4c 3d       	cpi	r20, 0xDC	; 220
      e8:	8f c2       	rjmp	.+1310   	; 0x608 <__LOCK_REGION_LENGTH__+0x208>
      ea:	75 3d       	cpi	r23, 0xD5	; 213
      ec:	29 5c       	subi	r18, 0xC9	; 201
      ee:	8f 3d       	cpi	r24, 0xDF	; 223
      f0:	0a d7       	rcall	.+3604   	; 0xf06 <_ZN8Activity14Malfaction_setER5PanelR7Carrage+0x1a4>
      f2:	a3 3d       	cpi	r26, 0xD3	; 211
      f4:	ec 51       	subi	r30, 0x1C	; 28
      f6:	b8 3d       	cpi	r27, 0xD8	; 216
      f8:	cd cc       	rjmp	.-1638   	; 0xfffffa94 <__eeprom_end+0xff7efa47>
      fa:	cc 3d       	cpi	r28, 0xDC	; 220
      fc:	8f c2       	rjmp	.+1310   	; 0x61c <__LOCK_REGION_LENGTH__+0x21c>
      fe:	f5 3d       	cpi	r31, 0xD5	; 213
     100:	9a 99       	sbic	0x13, 2	; 19
     102:	19 3e       	cpi	r17, 0xE9	; 233
     104:	cd cc       	rjmp	.-1638   	; 0xfffffaa0 <__eeprom_end+0xff7efa53>
     106:	4c 3e       	cpi	r20, 0xEC	; 236
     108:	9a 99       	sbic	0x13, 2	; 19
     10a:	99 3e       	cpi	r25, 0xE9	; 233
     10c:	00 00       	nop
     10e:	00 3f       	cpi	r16, 0xF0	; 240
     110:	00 00       	nop
     112:	40 3f       	cpi	r20, 0xF0	; 240
     114:	00 00       	nop
     116:	80 3f       	cpi	r24, 0xF0	; 240
     118:	00 00       	nop
     11a:	c0 3f       	cpi	r28, 0xF0	; 240
     11c:	00 00       	nop
     11e:	00 40       	sbci	r16, 0x00	; 0
     120:	00 00       	nop
     122:	40 40       	sbci	r20, 0x00	; 0

00000124 <_ZL10StepLevels>:
     124:	c0 c0 e0 a0 a0 a0 90 90 90 90 88 88 88 84 84 84     ................
     134:	84 82 82 82 82 81 81 ff c0 c0 e0 e0 a0 a0 90 90     ................
     144:	90 90 88 88 88 84 84 84 84 82 82 82 82 81 81 ff     ................
     154:	c0 c0 e0 e0 e0 a0 90 90 90 90 88 88 88 84 84 84     ................
     164:	84 82 82 82 82 81 81 ff c0 c0 e0 e0 e0 e0 f0 90     ................
     174:	90 90 88 88 88 84 84 84 84 82 82 82 82 81 81 ff     ................
     184:	c0 c0 e0 e0 e0 e0 f0 f0 90 90 88 88 88 84 84 84     ................
     194:	84 82 82 82 82 81 81 ff c0 c0 e0 e0 e0 e0 f0 f0     ................
     1a4:	f0 90 88 88 88 84 84 84 84 82 82 82 82 81 81 ff     ................
     1b4:	c0 c0 e0 e0 e0 e0 f0 f0 f0 f0 88 88 88 84 84 84     ................
     1c4:	84 82 82 82 82 81 81 ff c0 c0 e0 e0 e0 e0 f0 f0     ................
     1d4:	f0 f0 f8 88 88 84 84 84 84 82 82 82 82 81 81 ff     ................
     1e4:	c0 c0 e0 e0 e0 e0 f0 f0 f0 f0 f8 f8 88 84 84 84     ................
     1f4:	84 82 82 82 82 81 81 ff c0 c0 e0 e0 e0 e0 f0 f0     ................
     204:	f0 f0 f8 f8 f8 84 84 84 84 82 82 82 82 81 81 ff     ................
     214:	c0 c0 e0 e0 e0 e0 f0 f0 f0 f0 f8 f8 f8 fc 84 84     ................
     224:	84 82 82 82 82 81 81 ff c0 c0 e0 e0 e0 e0 f0 f0     ................
     234:	f0 f0 f8 f8 f8 fc fc 84 84 82 82 82 82 81 81 ff     ................
     244:	c0 c0 e0 e0 e0 e0 f0 f0 f0 f0 f8 f8 f8 fc fc fc     ................
     254:	84 82 82 82 82 81 81 ff c0 c0 e0 e0 e0 e0 f0 f0     ................
     264:	f0 f0 f8 f8 f8 fc fc fc fc 82 82 82 82 81 81 ff     ................
     274:	c0 c0 e0 e0 e0 e0 f0 f0 f0 f0 f8 f8 f8 fc fc fc     ................
     284:	fc fe 82 82 82 81 81 ff c0 c0 e0 e0 e0 e0 f0 f0     ................
     294:	f0 f0 f8 f8 f8 fc fc fc fc fe fe 82 82 81 81 ff     ................
     2a4:	c0 c0 e0 e0 e0 e0 f0 f0 f0 f0 f8 f8 f8 fc fc fc     ................
     2b4:	fc fe fe fe 82 81 81 ff c0 c0 e0 e0 e0 e0 f0 f0     ................
     2c4:	f0 f0 f8 f8 f8 fc fc fc fc fe fe fe fe 81 81 ff     ................
     2d4:	c0 c0 e0 e0 e0 e0 f0 f0 f0 f0 f8 f8 f8 fc fc fc     ................
     2e4:	fc fe fe fe fe ff 81 ff c0 c0 e0 e0 e0 e0 f0 f0     ................
     2f4:	f0 f0 f8 f8 f8 fc fc fc fc fe fe fe fe ff ff ff     ................

00000304 <_ZL10FontLookup>:
	...
     30c:	00 5f 00 00 00 00 00 07 00 07 00 00 00 14 7f 14     ._..............
     31c:	7f 14 00 00 24 2a 7f 2a 12 00 00 4c 2c 10 68 64     ....$*.*...L,.hd
     32c:	00 00 36 49 55 22 50 00 00 00 05 03 00 00 00 00     ..6IU"P.........
     33c:	00 1c 22 41 00 00 00 00 41 22 1c 00 00 00 14 08     .."A....A"......
     34c:	3e 08 14 00 00 08 08 3e 08 08 00 00 00 00 50 30     >......>......P0
     35c:	00 00 00 10 10 10 10 10 00 00 00 60 60 00 00 00     ...........``...
     36c:	00 20 10 08 04 02 00 00 3e 51 49 45 3e 00 00 00     . ......>QIE>...
     37c:	42 7f 40 00 00 00 42 61 51 49 46 00 00 21 41 45     B.@...BaQIF..!AE
     38c:	4b 31 00 00 18 14 12 7f 10 00 00 27 45 45 45 39     K1.........'EEE9
     39c:	00 00 3c 4a 49 49 30 00 00 01 71 09 05 03 00 00     ..<JII0...q.....
     3ac:	36 49 49 49 36 00 00 06 49 49 29 1e 00 00 00 36     6III6...II)....6
     3bc:	36 00 00 00 00 00 56 36 00 00 00 00 08 14 22 41     6.....V6......"A
     3cc:	00 00 00 14 14 14 14 14 00 00 00 41 22 14 08 00     ...........A"...
     3dc:	00 02 01 51 09 06 00 00 32 49 79 41 3e 00 00 7e     ...Q....2IyA>..~
     3ec:	11 11 11 7e 00 00 7f 49 49 49 36 00 00 3e 41 41     ...~...III6..>AA
     3fc:	41 22 00 00 7f 41 41 22 1c 00 00 7f 49 49 49 41     A"...AA"....IIIA
     40c:	00 00 7f 09 09 09 01 00 00 3e 41 49 49 7a 00 00     .........>AIIz..
     41c:	7f 08 08 08 7f 00 00 00 41 7f 41 00 00 00 20 40     ........A.A... @
     42c:	41 3f 01 00 00 7f 08 14 22 41 00 00 7f 40 40 40     A?......"A...@@@
     43c:	40 00 00 7f 02 0c 02 7f 00 00 7f 04 08 10 7f 00     @...............
     44c:	00 3e 41 41 41 3e 00 00 7f 09 09 09 06 00 00 3e     .>AAA>.........>
     45c:	41 51 21 5e 00 00 7f 09 19 29 46 00 00 46 49 49     AQ!^.....)F..FII
     46c:	49 31 00 00 01 01 7f 01 01 00 00 3f 40 40 40 3f     I1.........?@@@?
     47c:	00 00 1f 20 40 20 1f 00 00 3f 40 38 40 3f 00 00     ... @ ...?@8@?..
     48c:	63 14 08 14 63 00 00 07 08 70 08 07 00 00 61 51     c...c....p....aQ
     49c:	49 45 43 00 00 00 7f 41 41 00 00 00 02 04 08 10     IEC....AA.......
     4ac:	20 00 00 00 41 41 7f 00 00 00 04 02 01 02 04 00      ...AA..........
     4bc:	00 40 40 40 40 40 00 00 00 01 02 04 00 00 00 20     .@@@@@......... 
     4cc:	54 54 54 78 00 00 7f 48 44 44 38 00 00 38 44 44     TTTx...HDD8..8DD
     4dc:	44 20 00 00 38 44 44 48 7f 00 00 38 54 54 54 18     D ..8DDH...8TTT.
     4ec:	00 00 08 7e 09 01 02 00 00 0c 52 52 52 3e 00 00     ...~......RRR>..
     4fc:	7f 08 04 04 78 00 00 00 44 7d 40 00 00 00 20 40     ....x...D}@... @
     50c:	44 3d 00 00 00 7f 10 28 44 00 00 00 00 41 7f 40     D=.....(D....A.@
     51c:	00 00 00 7c 04 18 04 78 00 00 7c 08 04 04 78 00     ...|...x..|...x.
     52c:	00 38 44 44 44 38 00 00 7c 14 14 14 08 00 00 08     .8DDD8..|.......
     53c:	14 14 18 7c 00 00 7c 08 04 04 08 00 00 48 54 54     ...|..|......HTT
     54c:	54 20 00 00 04 3f 44 40 20 00 00 3c 40 40 20 7c     T ...?D@ ..<@@ |
     55c:	00 00 1c 20 40 20 1c 00 00 3c 40 30 40 3c 00 00     ... @ ...<@0@<..
     56c:	44 28 10 28 44 00 00 0c 50 50 50 3c 00 00 44 64     D(.(D...PPP<..Dd
     57c:	54 4c 44 00 00 00 08 36 41 00 00 00 00 00 7f 00     TLD....6A.......
     58c:	00 00 00 00 41 36 08 00 00 00 08 04 08 10 08 00     ....A6..........
     59c:	00 ff ff ff ff ff 00 00 00 00 e0 f0 f8 f8 00 f8     ................
     5ac:	f8 f0 e0 00 00 00 00 00 ff ff ff ff 00 ff ff ff     ................
     5bc:	ff 00 00 00 00 00 07 0f 1f 1f 00 1f 1f 0f 07 00     ................
     5cc:	00 00 00 00 e0 10 08 08 00 08 08 10 e0 00 00 00     ................
     5dc:	00 00 ff 00 00 00 00 00 00 00 ff 00 00 00 00 00     ................
     5ec:	07 08 10 10 00 10 10 08 07 00 00 00 40 80 e0 10     ............@...
     5fc:	08 08 00 08 08 10 e0 80 40 00 00 00 ff 42 24 18     ........@....B$.
     60c:	00 18 24 42 ff 00 00 00 02 01 07 08 10 10 00 10     ..$B............
     61c:	10 08 07 01 02 00 00 00 60 50 48 44 00 44 48 50     ........`PHD.DHP
     62c:	60 00 00 00 00 00 06 0a 12 22 00 22 12 0a 06 00     `........"."....
     63c:	00 00 00 00 60 70 78 7c 00 7c 78 70 60 00 00 00     ....`px|.|xp`...
     64c:	00 00 06 0e 1e 3e 00 3e 1e 0e 06 00 00 00 18 3c     .....>.>.......<
     65c:	7e e7 00 00 00 00 00 e7 7e 3c 18 00 00 00 20 30     ~.......~<.... 0
     66c:	38 1c 00 1c 38 30 20 00 00 00 00 00 2a 2a 2a 2a     8...80 .....****
     67c:	00 2a 2a 2a 2a 2a 00 00 00 00 00 00 00 03 00 00     .*****..........
     68c:	18 3c 7e e7 00 00 00 e7 7e 3c 18 00 00 00 00 00     .<~.....~<......
     69c:	e7 e7 42 00 42 e7 e7 00 00 00 00 00 00 08 18 38     ..B.B..........8
     6ac:	70 00 70 38 18 08 00 00 00 40 80 e0 f0 f8 f8 00     p.p8.....@......
     6bc:	f8 f8 f0 e0 80 40 00 00 00 7e bd db e7 00 e7 db     .....@...~......
     6cc:	bd 7e 00 00 00 02 01 07 0f 1f 1f 00 1f 1f 0f 07     .~..............
     6dc:	01 02 00 7c 12 11 12 7c 00 00 7f 49 49 49 31 00     ...|...|...III1.
     6ec:	00 7f 49 49 49 36 00 00 7f 01 01 01 01 00 00 60     ..III6.........`
     6fc:	3f 21 3f 60 00 00 7f 49 49 49 41 00 00 77 08 7f     ?!?`...IIIA..w..
     70c:	08 77 00 00 22 41 49 49 36 00 00 7f 10 08 04 7f     .w.."AII6.......
     71c:	00 00 7e 10 09 04 7e 00 00 7f 08 14 22 41 00 00     ..~...~....."A..
     72c:	40 3e 01 01 7f 00 00 7f 02 0c 02 7f 00 00 7f 08     @>..............
     73c:	08 08 7f 00 00 3e 41 41 41 3e 00 00 7f 01 01 01     .....>AAA>......
     74c:	7f 00 00 7f 09 09 09 06 00 00 3e 41 41 41 22 00     ..........>AAA".
     75c:	00 01 01 7f 01 01 00 00 07 48 48 48 3f 00 00 0e     .........HHH?...
     76c:	11 7f 11 0e 00 00 63 14 08 14 63 00 00 3f 20 20     ......c...c..?  
     77c:	3f 60 00 00 07 08 08 08 7f 00 00 7f 40 7e 40 7f     ?`..........@~@.
     78c:	00 00 3f 20 3f 20 7f 00 00 01 7f 48 48 30 00 00     ..? ? .....HH0..
     79c:	7f 48 30 00 7f 00 00 00 7f 48 48 30 00 00 22 41     .H0......HH0.."A
     7ac:	49 49 3e 00 00 7f 08 3e 41 3e 00 00 46 29 19 09     II>....>A>..F)..
     7bc:	7f 00 00 20 54 54 54 78 00 00 3c 4a 4a 4a 31 00     ... TTTx..<JJJ1.
     7cc:	00 7c 54 54 28 00 00 00 7c 04 04 0c 00 00 00 60     .|TT(...|......`
     7dc:	3c 24 3c 60 00 00 38 54 54 54 18 00 00 6c 10 7c     <$<`..8TTT...l.|
     7ec:	10 6c 00 00 00 44 54 54 28 00 00 7c 20 10 08 7c     .l...DTT(..| ..|
     7fc:	00 00 7c 21 12 09 7c 00 00 7c 10 28 44 00 00 00     ..|!..|..|.(D...
     80c:	40 38 04 04 7c 00 00 7c 08 10 08 7c 00 00 7c 10     @8..|..|...|..|.
     81c:	10 10 7c 00 00 38 44 44 44 38 00 00 7c 04 04 04     ..|..8DDD8..|...
     82c:	7c 00 00 7c 14 14 14 08 00 00 38 44 44 44 00 00     |..|......8DDD..
     83c:	00 04 04 7c 04 04 00 00 0c 50 50 50 3c 00 00 08     ...|.....PPP<...
     84c:	14 7c 14 08 00 00 44 28 10 28 44 00 00 3c 20 20     .|....D(.(D..<  
     85c:	3c 60 00 00 0c 10 10 10 7c 00 00 7c 40 7c 40 7c     <`......|..|@|@|
     86c:	00 00 3c 20 3c 20 7c 00 00 04 7c 50 50 20 00 00     ..< < |...|PP ..
     87c:	7c 50 20 00 7c 00 00 00 7c 50 50 20 00 00 28 44     |P .|...|PP ..(D
     88c:	54 54 38 00 00 7c 10 38 44 38 00 00 48 54 34 14     TT8..|.8D8..HT4.
     89c:	7c 00 00 00                                         |...

000008a0 <__ctors_start>:
     8a0:	5f 17       	cp	r21, r31

000008a2 <__ctors_end>:
     8a2:	11 24       	eor	r1, r1
     8a4:	1f be       	out	0x3f, r1	; 63
     8a6:	cf ef       	ldi	r28, 0xFF	; 255
     8a8:	d8 e0       	ldi	r29, 0x08	; 8
     8aa:	de bf       	out	0x3e, r29	; 62
     8ac:	cd bf       	out	0x3d, r28	; 61

000008ae <__do_copy_data>:
     8ae:	12 e0       	ldi	r17, 0x02	; 2
     8b0:	a0 e0       	ldi	r26, 0x00	; 0
     8b2:	b1 e0       	ldi	r27, 0x01	; 1
     8b4:	e4 e1       	ldi	r30, 0x14	; 20
     8b6:	fb e4       	ldi	r31, 0x4B	; 75
     8b8:	02 c0       	rjmp	.+4      	; 0x8be <__do_copy_data+0x10>
     8ba:	05 90       	lpm	r0, Z+
     8bc:	0d 92       	st	X+, r0
     8be:	a4 3a       	cpi	r26, 0xA4	; 164
     8c0:	b1 07       	cpc	r27, r17
     8c2:	d9 f7       	brne	.-10     	; 0x8ba <__do_copy_data+0xc>

000008c4 <__do_clear_bss>:
     8c4:	26 e0       	ldi	r18, 0x06	; 6
     8c6:	a4 ea       	ldi	r26, 0xA4	; 164
     8c8:	b2 e0       	ldi	r27, 0x02	; 2
     8ca:	01 c0       	rjmp	.+2      	; 0x8ce <.do_clear_bss_start>

000008cc <.do_clear_bss_loop>:
     8cc:	1d 92       	st	X+, r1

000008ce <.do_clear_bss_start>:
     8ce:	a8 35       	cpi	r26, 0x58	; 88
     8d0:	b2 07       	cpc	r27, r18
     8d2:	e1 f7       	brne	.-8      	; 0x8cc <.do_clear_bss_loop>

000008d4 <__do_global_ctors>:
     8d4:	14 e0       	ldi	r17, 0x04	; 4
     8d6:	c1 e5       	ldi	r28, 0x51	; 81
     8d8:	d4 e0       	ldi	r29, 0x04	; 4
     8da:	04 c0       	rjmp	.+8      	; 0x8e4 <__do_global_ctors+0x10>
     8dc:	21 97       	sbiw	r28, 0x01	; 1
     8de:	fe 01       	movw	r30, r28
     8e0:	0e 94 35 25 	call	0x4a6a	; 0x4a6a <__tablejump2__>
     8e4:	c0 35       	cpi	r28, 0x50	; 80
     8e6:	d1 07       	cpc	r29, r17
     8e8:	c9 f7       	brne	.-14     	; 0x8dc <__do_global_ctors+0x8>
     8ea:	0e 94 3c 17 	call	0x2e78	; 0x2e78 <main>
     8ee:	0c 94 88 25 	jmp	0x4b10	; 0x4b10 <_exit>

000008f2 <__bad_interrupt>:
     8f2:	0c 94 00 00 	jmp	0	; 0x0 <__vectors>

000008f6 <_ZN8ActivityC1Ev>:
#include "Activity.h"



// default constructor
Activity::Activity()
     8f6:	08 95       	ret

000008f8 <_ZN8Activity12Tunning_rateER5PanelR7Carrage>:
	}
	return true;
	
}

bool Activity::Tunning_rate(Panel &panel, Carrage &carrage){
     8f8:	cf 92       	push	r12
     8fa:	df 92       	push	r13
     8fc:	ef 92       	push	r14
     8fe:	ff 92       	push	r15
     900:	0f 93       	push	r16
     902:	1f 93       	push	r17
     904:	cf 93       	push	r28
     906:	df 93       	push	r29
     908:	ec 01       	movw	r28, r24
     90a:	cb 01       	movw	r24, r22
     90c:	8a 01       	movw	r16, r20
	int pressed = panel.Pressed(100);
     90e:	64 e6       	ldi	r22, 0x64	; 100
     910:	70 e0       	ldi	r23, 0x00	; 0
     912:	0e 94 7d 1f 	call	0x3efa	; 0x3efa <_ZN5Panel7PressedEi>
	if (pressed == B_W_UP_){return false;}
     916:	9c 01       	movw	r18, r24
     918:	25 50       	subi	r18, 0x05	; 5
     91a:	31 09       	sbc	r19, r1
     91c:	22 30       	cpi	r18, 0x02	; 2
     91e:	31 05       	cpc	r19, r1
     920:	08 f4       	brcc	.+2      	; 0x924 <__stack+0x25>
     922:	aa c0       	rjmp	.+340    	; 0xa78 <__stack+0x179>
	if (pressed == B_W_DOWN){return false;}
	if (pressed == B_NOTHING ){button_step=0;return false;}
     924:	8f 3f       	cpi	r24, 0xFF	; 255
     926:	2f ef       	ldi	r18, 0xFF	; 255
     928:	92 07       	cpc	r25, r18
     92a:	29 f4       	brne	.+10     	; 0x936 <__stack+0x37>
     92c:	1b 82       	std	Y+3, r1	; 0x03
     92e:	1c 82       	std	Y+4, r1	; 0x04
     930:	1d 82       	std	Y+5, r1	; 0x05
     932:	1e 82       	std	Y+6, r1	; 0x06
     934:	a1 c0       	rjmp	.+322    	; 0xa78 <__stack+0x179>
	if(Cursor==EXIT_TUNING&&pressed==B_OK___){Statment = SCREEN_MENU;Cursor=SETTINGS_TUNING;SettingsSaveFlag = true;return false;}
     936:	2f 81       	ldd	r18, Y+7	; 0x07
     938:	22 31       	cpi	r18, 0x12	; 18
     93a:	59 f4       	brne	.+22     	; 0x952 <__stack+0x53>
     93c:	00 97       	sbiw	r24, 0x00	; 0
     93e:	09 f0       	breq	.+2      	; 0x942 <__stack+0x43>
     940:	a0 c0       	rjmp	.+320    	; 0xa82 <__stack+0x183>
     942:	81 e0       	ldi	r24, 0x01	; 1
     944:	88 83       	st	Y, r24
     946:	9c e0       	ldi	r25, 0x0C	; 12
     948:	9f 83       	std	Y+7, r25	; 0x07
     94a:	c8 56       	subi	r28, 0x68	; 104
     94c:	df 4f       	sbci	r29, 0xFF	; 255
     94e:	88 83       	st	Y, r24
     950:	93 c0       	rjmp	.+294    	; 0xa78 <__stack+0x179>
	switch(pressed){
     952:	82 30       	cpi	r24, 0x02	; 2
     954:	91 05       	cpc	r25, r1
     956:	09 f4       	brne	.+2      	; 0x95a <__stack+0x5b>
     958:	53 c0       	rjmp	.+166    	; 0xa00 <__stack+0x101>
     95a:	24 f4       	brge	.+8      	; 0x964 <__stack+0x65>
     95c:	01 97       	sbiw	r24, 0x01	; 1
     95e:	09 f4       	brne	.+2      	; 0x962 <__stack+0x63>
     960:	52 c0       	rjmp	.+164    	; 0xa06 <__stack+0x107>
     962:	53 c0       	rjmp	.+166    	; 0xa0a <__stack+0x10b>
     964:	83 30       	cpi	r24, 0x03	; 3
     966:	91 05       	cpc	r25, r1
     968:	19 f0       	breq	.+6      	; 0x970 <__stack+0x71>
     96a:	04 97       	sbiw	r24, 0x04	; 4
     96c:	31 f1       	breq	.+76     	; 0x9ba <__stack+0xbb>
     96e:	4d c0       	rjmp	.+154    	; 0xa0a <__stack+0x10b>
		case(B_LEFT_):carrage.tunning-=(0.01+button_step);button_step=0.09; break;
     970:	78 01       	movw	r14, r16
     972:	8e ea       	ldi	r24, 0xAE	; 174
     974:	e8 0e       	add	r14, r24
     976:	f1 1c       	adc	r15, r1
     978:	2a e0       	ldi	r18, 0x0A	; 10
     97a:	37 ed       	ldi	r19, 0xD7	; 215
     97c:	43 e2       	ldi	r20, 0x23	; 35
     97e:	5c e3       	ldi	r21, 0x3C	; 60
     980:	6b 81       	ldd	r22, Y+3	; 0x03
     982:	7c 81       	ldd	r23, Y+4	; 0x04
     984:	8d 81       	ldd	r24, Y+5	; 0x05
     986:	9e 81       	ldd	r25, Y+6	; 0x06
     988:	0e 94 e4 22 	call	0x45c8	; 0x45c8 <__addsf3>
     98c:	9b 01       	movw	r18, r22
     98e:	ac 01       	movw	r20, r24
     990:	f7 01       	movw	r30, r14
     992:	60 81       	ld	r22, Z
     994:	71 81       	ldd	r23, Z+1	; 0x01
     996:	82 81       	ldd	r24, Z+2	; 0x02
     998:	93 81       	ldd	r25, Z+3	; 0x03
     99a:	0e 94 e3 22 	call	0x45c6	; 0x45c6 <__subsf3>
     99e:	f7 01       	movw	r30, r14
     9a0:	60 83       	st	Z, r22
     9a2:	71 83       	std	Z+1, r23	; 0x01
     9a4:	82 83       	std	Z+2, r24	; 0x02
     9a6:	93 83       	std	Z+3, r25	; 0x03
     9a8:	8c ee       	ldi	r24, 0xEC	; 236
     9aa:	91 e5       	ldi	r25, 0x51	; 81
     9ac:	a8 eb       	ldi	r26, 0xB8	; 184
     9ae:	bd e3       	ldi	r27, 0x3D	; 61
     9b0:	8b 83       	std	Y+3, r24	; 0x03
     9b2:	9c 83       	std	Y+4, r25	; 0x04
     9b4:	ad 83       	std	Y+5, r26	; 0x05
     9b6:	be 83       	std	Y+6, r27	; 0x06
     9b8:	28 c0       	rjmp	.+80     	; 0xa0a <__stack+0x10b>
		case(B_RIGHT):carrage.tunning+=(0.01+button_step);button_step=0.09; break;
     9ba:	78 01       	movw	r14, r16
     9bc:	fe ea       	ldi	r31, 0xAE	; 174
     9be:	ef 0e       	add	r14, r31
     9c0:	f1 1c       	adc	r15, r1
     9c2:	2a e0       	ldi	r18, 0x0A	; 10
     9c4:	37 ed       	ldi	r19, 0xD7	; 215
     9c6:	43 e2       	ldi	r20, 0x23	; 35
     9c8:	5c e3       	ldi	r21, 0x3C	; 60
     9ca:	6b 81       	ldd	r22, Y+3	; 0x03
     9cc:	7c 81       	ldd	r23, Y+4	; 0x04
     9ce:	8d 81       	ldd	r24, Y+5	; 0x05
     9d0:	9e 81       	ldd	r25, Y+6	; 0x06
     9d2:	0e 94 e4 22 	call	0x45c8	; 0x45c8 <__addsf3>
     9d6:	f7 01       	movw	r30, r14
     9d8:	20 81       	ld	r18, Z
     9da:	31 81       	ldd	r19, Z+1	; 0x01
     9dc:	42 81       	ldd	r20, Z+2	; 0x02
     9de:	53 81       	ldd	r21, Z+3	; 0x03
     9e0:	0e 94 e4 22 	call	0x45c8	; 0x45c8 <__addsf3>
     9e4:	f7 01       	movw	r30, r14
     9e6:	60 83       	st	Z, r22
     9e8:	71 83       	std	Z+1, r23	; 0x01
     9ea:	82 83       	std	Z+2, r24	; 0x02
     9ec:	93 83       	std	Z+3, r25	; 0x03
     9ee:	8c ee       	ldi	r24, 0xEC	; 236
     9f0:	91 e5       	ldi	r25, 0x51	; 81
     9f2:	a8 eb       	ldi	r26, 0xB8	; 184
     9f4:	bd e3       	ldi	r27, 0x3D	; 61
     9f6:	8b 83       	std	Y+3, r24	; 0x03
     9f8:	9c 83       	std	Y+4, r25	; 0x04
     9fa:	ad 83       	std	Y+5, r26	; 0x05
     9fc:	be 83       	std	Y+6, r27	; 0x06
     9fe:	05 c0       	rjmp	.+10     	; 0xa0a <__stack+0x10b>
		case(B_DOWN_):Cursor++;break;
     a00:	2f 5f       	subi	r18, 0xFF	; 255
     a02:	2f 83       	std	Y+7, r18	; 0x07
     a04:	02 c0       	rjmp	.+4      	; 0xa0a <__stack+0x10b>
		case(B_UP___):Cursor--;break;
     a06:	21 50       	subi	r18, 0x01	; 1
     a08:	2f 83       	std	Y+7, r18	; 0x07
	}
	
	if(Cursor<=TUNING ){Cursor=TUNING ;}
     a0a:	8f 81       	ldd	r24, Y+7	; 0x07
     a0c:	82 31       	cpi	r24, 0x12	; 18
     a0e:	b0 f5       	brcc	.+108    	; 0xa7c <__stack+0x17d>
     a10:	81 e1       	ldi	r24, 0x11	; 17
     a12:	8f 83       	std	Y+7, r24	; 0x07
	if(Cursor>=EXIT_TUNING){Cursor=EXIT_TUNING ;}
	if (carrage.tunning <= 0){carrage.tunning = 0.01;}
     a14:	f8 01       	movw	r30, r16
     a16:	e2 55       	subi	r30, 0x52	; 82
     a18:	ff 4f       	sbci	r31, 0xFF	; 255
     a1a:	c0 80       	ld	r12, Z
     a1c:	d1 80       	ldd	r13, Z+1	; 0x01
     a1e:	e2 80       	ldd	r14, Z+2	; 0x02
     a20:	f3 80       	ldd	r15, Z+3	; 0x03
     a22:	20 e0       	ldi	r18, 0x00	; 0
     a24:	30 e0       	ldi	r19, 0x00	; 0
     a26:	a9 01       	movw	r20, r18
     a28:	c7 01       	movw	r24, r14
     a2a:	b6 01       	movw	r22, r12
     a2c:	0e 94 50 23 	call	0x46a0	; 0x46a0 <__cmpsf2>
     a30:	18 16       	cp	r1, r24
     a32:	64 f0       	brlt	.+24     	; 0xa4c <__stack+0x14d>
     a34:	f8 01       	movw	r30, r16
     a36:	e2 55       	subi	r30, 0x52	; 82
     a38:	ff 4f       	sbci	r31, 0xFF	; 255
     a3a:	8a e0       	ldi	r24, 0x0A	; 10
     a3c:	97 ed       	ldi	r25, 0xD7	; 215
     a3e:	a3 e2       	ldi	r26, 0x23	; 35
     a40:	bc e3       	ldi	r27, 0x3C	; 60
     a42:	80 83       	st	Z, r24
     a44:	91 83       	std	Z+1, r25	; 0x01
     a46:	a2 83       	std	Z+2, r26	; 0x02
     a48:	b3 83       	std	Z+3, r27	; 0x03
     a4a:	15 c0       	rjmp	.+42     	; 0xa76 <__stack+0x177>
	if (carrage.tunning >= 3){carrage.tunning = 3.00;}
     a4c:	20 e0       	ldi	r18, 0x00	; 0
     a4e:	30 e0       	ldi	r19, 0x00	; 0
     a50:	40 e4       	ldi	r20, 0x40	; 64
     a52:	50 e4       	ldi	r21, 0x40	; 64
     a54:	c7 01       	movw	r24, r14
     a56:	b6 01       	movw	r22, r12
     a58:	0e 94 af 24 	call	0x495e	; 0x495e <__gesf2>
     a5c:	88 23       	and	r24, r24
     a5e:	5c f0       	brlt	.+22     	; 0xa76 <__stack+0x177>
     a60:	f8 01       	movw	r30, r16
     a62:	e2 55       	subi	r30, 0x52	; 82
     a64:	ff 4f       	sbci	r31, 0xFF	; 255
     a66:	80 e0       	ldi	r24, 0x00	; 0
     a68:	90 e0       	ldi	r25, 0x00	; 0
     a6a:	a0 e4       	ldi	r26, 0x40	; 64
     a6c:	b0 e4       	ldi	r27, 0x40	; 64
     a6e:	80 83       	st	Z, r24
     a70:	91 83       	std	Z+1, r25	; 0x01
     a72:	a2 83       	std	Z+2, r26	; 0x02
     a74:	b3 83       	std	Z+3, r27	; 0x03
}
     a76:	16 c0       	rjmp	.+44     	; 0xaa4 <__stack+0x1a5>
     a78:	80 e0       	ldi	r24, 0x00	; 0
     a7a:	14 c0       	rjmp	.+40     	; 0xaa4 <__stack+0x1a5>
		case(B_DOWN_):Cursor++;break;
		case(B_UP___):Cursor--;break;
	}
	
	if(Cursor<=TUNING ){Cursor=TUNING ;}
	if(Cursor>=EXIT_TUNING){Cursor=EXIT_TUNING ;}
     a7c:	82 e1       	ldi	r24, 0x12	; 18
     a7e:	8f 83       	std	Y+7, r24	; 0x07
     a80:	c9 cf       	rjmp	.-110    	; 0xa14 <__stack+0x115>
	int pressed = panel.Pressed(100);
	if (pressed == B_W_UP_){return false;}
	if (pressed == B_W_DOWN){return false;}
	if (pressed == B_NOTHING ){button_step=0;return false;}
	if(Cursor==EXIT_TUNING&&pressed==B_OK___){Statment = SCREEN_MENU;Cursor=SETTINGS_TUNING;SettingsSaveFlag = true;return false;}
	switch(pressed){
     a82:	82 30       	cpi	r24, 0x02	; 2
     a84:	91 05       	cpc	r25, r1
     a86:	09 f4       	brne	.+2      	; 0xa8a <__stack+0x18b>
     a88:	bb cf       	rjmp	.-138    	; 0xa00 <__stack+0x101>
     a8a:	24 f4       	brge	.+8      	; 0xa94 <__stack+0x195>
     a8c:	01 97       	sbiw	r24, 0x01	; 1
     a8e:	09 f4       	brne	.+2      	; 0xa92 <__stack+0x193>
     a90:	ba cf       	rjmp	.-140    	; 0xa06 <__stack+0x107>
     a92:	f4 cf       	rjmp	.-24     	; 0xa7c <__stack+0x17d>
     a94:	83 30       	cpi	r24, 0x03	; 3
     a96:	91 05       	cpc	r25, r1
     a98:	09 f4       	brne	.+2      	; 0xa9c <__stack+0x19d>
     a9a:	6a cf       	rjmp	.-300    	; 0x970 <__stack+0x71>
     a9c:	04 97       	sbiw	r24, 0x04	; 4
     a9e:	09 f4       	brne	.+2      	; 0xaa2 <__stack+0x1a3>
     aa0:	8c cf       	rjmp	.-232    	; 0x9ba <__stack+0xbb>
     aa2:	ec cf       	rjmp	.-40     	; 0xa7c <__stack+0x17d>
	
	if(Cursor<=TUNING ){Cursor=TUNING ;}
	if(Cursor>=EXIT_TUNING){Cursor=EXIT_TUNING ;}
	if (carrage.tunning <= 0){carrage.tunning = 0.01;}
	if (carrage.tunning >= 3){carrage.tunning = 3.00;}
}
     aa4:	df 91       	pop	r29
     aa6:	cf 91       	pop	r28
     aa8:	1f 91       	pop	r17
     aaa:	0f 91       	pop	r16
     aac:	ff 90       	pop	r15
     aae:	ef 90       	pop	r14
     ab0:	df 90       	pop	r13
     ab2:	cf 90       	pop	r12
     ab4:	08 95       	ret

00000ab6 <_ZN8Activity10Limits_setER5PanelR7Carrage>:

bool Activity::Limits_set(Panel &panel, Carrage &carrage){
     ab6:	cf 92       	push	r12
     ab8:	df 92       	push	r13
     aba:	ef 92       	push	r14
     abc:	ff 92       	push	r15
     abe:	0f 93       	push	r16
     ac0:	1f 93       	push	r17
     ac2:	cf 93       	push	r28
     ac4:	df 93       	push	r29
     ac6:	ec 01       	movw	r28, r24
     ac8:	cb 01       	movw	r24, r22
     aca:	8a 01       	movw	r16, r20
	int pressed = panel.Pressed(100);
     acc:	64 e6       	ldi	r22, 0x64	; 100
     ace:	70 e0       	ldi	r23, 0x00	; 0
     ad0:	0e 94 7d 1f 	call	0x3efa	; 0x3efa <_ZN5Panel7PressedEi>
	if (pressed == B_W_UP_){return false;}
     ad4:	9c 01       	movw	r18, r24
     ad6:	25 50       	subi	r18, 0x05	; 5
     ad8:	31 09       	sbc	r19, r1
     ada:	22 30       	cpi	r18, 0x02	; 2
     adc:	31 05       	cpc	r19, r1
     ade:	08 f4       	brcc	.+2      	; 0xae2 <_ZN8Activity10Limits_setER5PanelR7Carrage+0x2c>
     ae0:	24 c1       	rjmp	.+584    	; 0xd2a <_ZN8Activity10Limits_setER5PanelR7Carrage+0x274>
	if (pressed == B_W_DOWN){return false;}
	if (pressed == B_NOTHING ){button_step=0;return false;}
     ae2:	8f 3f       	cpi	r24, 0xFF	; 255
     ae4:	2f ef       	ldi	r18, 0xFF	; 255
     ae6:	92 07       	cpc	r25, r18
     ae8:	29 f4       	brne	.+10     	; 0xaf4 <_ZN8Activity10Limits_setER5PanelR7Carrage+0x3e>
     aea:	1b 82       	std	Y+3, r1	; 0x03
     aec:	1c 82       	std	Y+4, r1	; 0x04
     aee:	1d 82       	std	Y+5, r1	; 0x05
     af0:	1e 82       	std	Y+6, r1	; 0x06
     af2:	1b c1       	rjmp	.+566    	; 0xd2a <_ZN8Activity10Limits_setER5PanelR7Carrage+0x274>
	if(Cursor==EXIT_LIMITS&&pressed==B_OK___){Statment = SCREEN_MENU;Cursor=SETTINGS_LIMITS;SettingsSaveFlag = true;return false;}
     af4:	2f 81       	ldd	r18, Y+7	; 0x07
     af6:	25 31       	cpi	r18, 0x15	; 21
     af8:	59 f4       	brne	.+22     	; 0xb10 <_ZN8Activity10Limits_setER5PanelR7Carrage+0x5a>
     afa:	00 97       	sbiw	r24, 0x00	; 0
     afc:	09 f0       	breq	.+2      	; 0xb00 <_ZN8Activity10Limits_setER5PanelR7Carrage+0x4a>
     afe:	17 c1       	rjmp	.+558    	; 0xd2e <_ZN8Activity10Limits_setER5PanelR7Carrage+0x278>
     b00:	81 e0       	ldi	r24, 0x01	; 1
     b02:	88 83       	st	Y, r24
     b04:	9d e0       	ldi	r25, 0x0D	; 13
     b06:	9f 83       	std	Y+7, r25	; 0x07
     b08:	c8 56       	subi	r28, 0x68	; 104
     b0a:	df 4f       	sbci	r29, 0xFF	; 255
     b0c:	88 83       	st	Y, r24
     b0e:	0d c1       	rjmp	.+538    	; 0xd2a <_ZN8Activity10Limits_setER5PanelR7Carrage+0x274>
	switch(pressed){
     b10:	82 30       	cpi	r24, 0x02	; 2
     b12:	91 05       	cpc	r25, r1
     b14:	09 f4       	brne	.+2      	; 0xb18 <_ZN8Activity10Limits_setER5PanelR7Carrage+0x62>
     b16:	90 c0       	rjmp	.+288    	; 0xc38 <_ZN8Activity10Limits_setER5PanelR7Carrage+0x182>
     b18:	24 f4       	brge	.+8      	; 0xb22 <_ZN8Activity10Limits_setER5PanelR7Carrage+0x6c>
     b1a:	01 97       	sbiw	r24, 0x01	; 1
     b1c:	09 f4       	brne	.+2      	; 0xb20 <_ZN8Activity10Limits_setER5PanelR7Carrage+0x6a>
     b1e:	8f c0       	rjmp	.+286    	; 0xc3e <_ZN8Activity10Limits_setER5PanelR7Carrage+0x188>
     b20:	90 c0       	rjmp	.+288    	; 0xc42 <_ZN8Activity10Limits_setER5PanelR7Carrage+0x18c>
     b22:	83 30       	cpi	r24, 0x03	; 3
     b24:	91 05       	cpc	r25, r1
     b26:	21 f0       	breq	.+8      	; 0xb30 <_ZN8Activity10Limits_setER5PanelR7Carrage+0x7a>
     b28:	04 97       	sbiw	r24, 0x04	; 4
     b2a:	09 f4       	brne	.+2      	; 0xb2e <_ZN8Activity10Limits_setER5PanelR7Carrage+0x78>
     b2c:	45 c0       	rjmp	.+138    	; 0xbb8 <_ZN8Activity10Limits_setER5PanelR7Carrage+0x102>
     b2e:	89 c0       	rjmp	.+274    	; 0xc42 <_ZN8Activity10Limits_setER5PanelR7Carrage+0x18c>
		case(B_LEFT_):if(Cursor==LIMITS_MIN){carrage.min-=(0.01+button_step);}else{carrage.max-=(0.01+button_step);};button_step=0.09; break;
     b30:	23 31       	cpi	r18, 0x13	; 19
     b32:	e9 f4       	brne	.+58     	; 0xb6e <_ZN8Activity10Limits_setER5PanelR7Carrage+0xb8>
     b34:	78 01       	movw	r14, r16
     b36:	82 eb       	ldi	r24, 0xB2	; 178
     b38:	e8 0e       	add	r14, r24
     b3a:	f1 1c       	adc	r15, r1
     b3c:	2a e0       	ldi	r18, 0x0A	; 10
     b3e:	37 ed       	ldi	r19, 0xD7	; 215
     b40:	43 e2       	ldi	r20, 0x23	; 35
     b42:	5c e3       	ldi	r21, 0x3C	; 60
     b44:	6b 81       	ldd	r22, Y+3	; 0x03
     b46:	7c 81       	ldd	r23, Y+4	; 0x04
     b48:	8d 81       	ldd	r24, Y+5	; 0x05
     b4a:	9e 81       	ldd	r25, Y+6	; 0x06
     b4c:	0e 94 e4 22 	call	0x45c8	; 0x45c8 <__addsf3>
     b50:	9b 01       	movw	r18, r22
     b52:	ac 01       	movw	r20, r24
     b54:	f7 01       	movw	r30, r14
     b56:	60 81       	ld	r22, Z
     b58:	71 81       	ldd	r23, Z+1	; 0x01
     b5a:	82 81       	ldd	r24, Z+2	; 0x02
     b5c:	93 81       	ldd	r25, Z+3	; 0x03
     b5e:	0e 94 e3 22 	call	0x45c6	; 0x45c6 <__subsf3>
     b62:	f7 01       	movw	r30, r14
     b64:	60 83       	st	Z, r22
     b66:	71 83       	std	Z+1, r23	; 0x01
     b68:	82 83       	std	Z+2, r24	; 0x02
     b6a:	93 83       	std	Z+3, r25	; 0x03
     b6c:	1c c0       	rjmp	.+56     	; 0xba6 <_ZN8Activity10Limits_setER5PanelR7Carrage+0xf0>
     b6e:	78 01       	movw	r14, r16
     b70:	f6 eb       	ldi	r31, 0xB6	; 182
     b72:	ef 0e       	add	r14, r31
     b74:	f1 1c       	adc	r15, r1
     b76:	2a e0       	ldi	r18, 0x0A	; 10
     b78:	37 ed       	ldi	r19, 0xD7	; 215
     b7a:	43 e2       	ldi	r20, 0x23	; 35
     b7c:	5c e3       	ldi	r21, 0x3C	; 60
     b7e:	6b 81       	ldd	r22, Y+3	; 0x03
     b80:	7c 81       	ldd	r23, Y+4	; 0x04
     b82:	8d 81       	ldd	r24, Y+5	; 0x05
     b84:	9e 81       	ldd	r25, Y+6	; 0x06
     b86:	0e 94 e4 22 	call	0x45c8	; 0x45c8 <__addsf3>
     b8a:	9b 01       	movw	r18, r22
     b8c:	ac 01       	movw	r20, r24
     b8e:	f7 01       	movw	r30, r14
     b90:	60 81       	ld	r22, Z
     b92:	71 81       	ldd	r23, Z+1	; 0x01
     b94:	82 81       	ldd	r24, Z+2	; 0x02
     b96:	93 81       	ldd	r25, Z+3	; 0x03
     b98:	0e 94 e3 22 	call	0x45c6	; 0x45c6 <__subsf3>
     b9c:	f7 01       	movw	r30, r14
     b9e:	60 83       	st	Z, r22
     ba0:	71 83       	std	Z+1, r23	; 0x01
     ba2:	82 83       	std	Z+2, r24	; 0x02
     ba4:	93 83       	std	Z+3, r25	; 0x03
     ba6:	8c ee       	ldi	r24, 0xEC	; 236
     ba8:	91 e5       	ldi	r25, 0x51	; 81
     baa:	a8 eb       	ldi	r26, 0xB8	; 184
     bac:	bd e3       	ldi	r27, 0x3D	; 61
     bae:	8b 83       	std	Y+3, r24	; 0x03
     bb0:	9c 83       	std	Y+4, r25	; 0x04
     bb2:	ad 83       	std	Y+5, r26	; 0x05
     bb4:	be 83       	std	Y+6, r27	; 0x06
     bb6:	45 c0       	rjmp	.+138    	; 0xc42 <_ZN8Activity10Limits_setER5PanelR7Carrage+0x18c>
		case(B_RIGHT):if(Cursor==LIMITS_MIN){carrage.min+=(0.01+button_step);}else{carrage.max+=(0.01+button_step);};button_step=0.09; break;
     bb8:	23 31       	cpi	r18, 0x13	; 19
     bba:	d9 f4       	brne	.+54     	; 0xbf2 <_ZN8Activity10Limits_setER5PanelR7Carrage+0x13c>
     bbc:	78 01       	movw	r14, r16
     bbe:	f2 eb       	ldi	r31, 0xB2	; 178
     bc0:	ef 0e       	add	r14, r31
     bc2:	f1 1c       	adc	r15, r1
     bc4:	2a e0       	ldi	r18, 0x0A	; 10
     bc6:	37 ed       	ldi	r19, 0xD7	; 215
     bc8:	43 e2       	ldi	r20, 0x23	; 35
     bca:	5c e3       	ldi	r21, 0x3C	; 60
     bcc:	6b 81       	ldd	r22, Y+3	; 0x03
     bce:	7c 81       	ldd	r23, Y+4	; 0x04
     bd0:	8d 81       	ldd	r24, Y+5	; 0x05
     bd2:	9e 81       	ldd	r25, Y+6	; 0x06
     bd4:	0e 94 e4 22 	call	0x45c8	; 0x45c8 <__addsf3>
     bd8:	f7 01       	movw	r30, r14
     bda:	20 81       	ld	r18, Z
     bdc:	31 81       	ldd	r19, Z+1	; 0x01
     bde:	42 81       	ldd	r20, Z+2	; 0x02
     be0:	53 81       	ldd	r21, Z+3	; 0x03
     be2:	0e 94 e4 22 	call	0x45c8	; 0x45c8 <__addsf3>
     be6:	f7 01       	movw	r30, r14
     be8:	60 83       	st	Z, r22
     bea:	71 83       	std	Z+1, r23	; 0x01
     bec:	82 83       	std	Z+2, r24	; 0x02
     bee:	93 83       	std	Z+3, r25	; 0x03
     bf0:	1a c0       	rjmp	.+52     	; 0xc26 <_ZN8Activity10Limits_setER5PanelR7Carrage+0x170>
     bf2:	78 01       	movw	r14, r16
     bf4:	f6 eb       	ldi	r31, 0xB6	; 182
     bf6:	ef 0e       	add	r14, r31
     bf8:	f1 1c       	adc	r15, r1
     bfa:	2a e0       	ldi	r18, 0x0A	; 10
     bfc:	37 ed       	ldi	r19, 0xD7	; 215
     bfe:	43 e2       	ldi	r20, 0x23	; 35
     c00:	5c e3       	ldi	r21, 0x3C	; 60
     c02:	6b 81       	ldd	r22, Y+3	; 0x03
     c04:	7c 81       	ldd	r23, Y+4	; 0x04
     c06:	8d 81       	ldd	r24, Y+5	; 0x05
     c08:	9e 81       	ldd	r25, Y+6	; 0x06
     c0a:	0e 94 e4 22 	call	0x45c8	; 0x45c8 <__addsf3>
     c0e:	f7 01       	movw	r30, r14
     c10:	20 81       	ld	r18, Z
     c12:	31 81       	ldd	r19, Z+1	; 0x01
     c14:	42 81       	ldd	r20, Z+2	; 0x02
     c16:	53 81       	ldd	r21, Z+3	; 0x03
     c18:	0e 94 e4 22 	call	0x45c8	; 0x45c8 <__addsf3>
     c1c:	f7 01       	movw	r30, r14
     c1e:	60 83       	st	Z, r22
     c20:	71 83       	std	Z+1, r23	; 0x01
     c22:	82 83       	std	Z+2, r24	; 0x02
     c24:	93 83       	std	Z+3, r25	; 0x03
     c26:	8c ee       	ldi	r24, 0xEC	; 236
     c28:	91 e5       	ldi	r25, 0x51	; 81
     c2a:	a8 eb       	ldi	r26, 0xB8	; 184
     c2c:	bd e3       	ldi	r27, 0x3D	; 61
     c2e:	8b 83       	std	Y+3, r24	; 0x03
     c30:	9c 83       	std	Y+4, r25	; 0x04
     c32:	ad 83       	std	Y+5, r26	; 0x05
     c34:	be 83       	std	Y+6, r27	; 0x06
     c36:	05 c0       	rjmp	.+10     	; 0xc42 <_ZN8Activity10Limits_setER5PanelR7Carrage+0x18c>
		case(B_DOWN_):Cursor++;break;
     c38:	2f 5f       	subi	r18, 0xFF	; 255
     c3a:	2f 83       	std	Y+7, r18	; 0x07
     c3c:	02 c0       	rjmp	.+4      	; 0xc42 <_ZN8Activity10Limits_setER5PanelR7Carrage+0x18c>
		case(B_UP___):Cursor--;break;
     c3e:	21 50       	subi	r18, 0x01	; 1
     c40:	2f 83       	std	Y+7, r18	; 0x07
	}
	if(Cursor<=LIMITS_MIN){Cursor=LIMITS_MIN;}
     c42:	8f 81       	ldd	r24, Y+7	; 0x07
     c44:	84 31       	cpi	r24, 0x14	; 20
     c46:	18 f4       	brcc	.+6      	; 0xc4e <_ZN8Activity10Limits_setER5PanelR7Carrage+0x198>
     c48:	83 e1       	ldi	r24, 0x13	; 19
     c4a:	8f 83       	std	Y+7, r24	; 0x07
     c4c:	05 c0       	rjmp	.+10     	; 0xc58 <_ZN8Activity10Limits_setER5PanelR7Carrage+0x1a2>
	if(Cursor>=EXIT_LIMITS){Cursor=EXIT_LIMITS;}
     c4e:	8f 81       	ldd	r24, Y+7	; 0x07
     c50:	85 31       	cpi	r24, 0x15	; 21
     c52:	10 f0       	brcs	.+4      	; 0xc58 <_ZN8Activity10Limits_setER5PanelR7Carrage+0x1a2>
     c54:	85 e1       	ldi	r24, 0x15	; 21
     c56:	8f 83       	std	Y+7, r24	; 0x07
	if (carrage.min <= 0){carrage.min = 0.00;}
     c58:	20 e0       	ldi	r18, 0x00	; 0
     c5a:	30 e0       	ldi	r19, 0x00	; 0
     c5c:	a9 01       	movw	r20, r18
     c5e:	f8 01       	movw	r30, r16
     c60:	ee 54       	subi	r30, 0x4E	; 78
     c62:	ff 4f       	sbci	r31, 0xFF	; 255
     c64:	60 81       	ld	r22, Z
     c66:	71 81       	ldd	r23, Z+1	; 0x01
     c68:	82 81       	ldd	r24, Z+2	; 0x02
     c6a:	93 81       	ldd	r25, Z+3	; 0x03
     c6c:	0e 94 50 23 	call	0x46a0	; 0x46a0 <__cmpsf2>
     c70:	18 16       	cp	r1, r24
     c72:	3c f0       	brlt	.+14     	; 0xc82 <_ZN8Activity10Limits_setER5PanelR7Carrage+0x1cc>
     c74:	f8 01       	movw	r30, r16
     c76:	ee 54       	subi	r30, 0x4E	; 78
     c78:	ff 4f       	sbci	r31, 0xFF	; 255
     c7a:	10 82       	st	Z, r1
     c7c:	11 82       	std	Z+1, r1	; 0x01
     c7e:	12 82       	std	Z+2, r1	; 0x02
     c80:	13 82       	std	Z+3, r1	; 0x03
	if (carrage.max >= 5){carrage.max = 5.00;}
     c82:	20 e0       	ldi	r18, 0x00	; 0
     c84:	30 e0       	ldi	r19, 0x00	; 0
     c86:	40 ea       	ldi	r20, 0xA0	; 160
     c88:	50 e4       	ldi	r21, 0x40	; 64
     c8a:	f8 01       	movw	r30, r16
     c8c:	ea 54       	subi	r30, 0x4A	; 74
     c8e:	ff 4f       	sbci	r31, 0xFF	; 255
     c90:	60 81       	ld	r22, Z
     c92:	71 81       	ldd	r23, Z+1	; 0x01
     c94:	82 81       	ldd	r24, Z+2	; 0x02
     c96:	93 81       	ldd	r25, Z+3	; 0x03
     c98:	0e 94 af 24 	call	0x495e	; 0x495e <__gesf2>
     c9c:	88 23       	and	r24, r24
     c9e:	5c f0       	brlt	.+22     	; 0xcb6 <_ZN8Activity10Limits_setER5PanelR7Carrage+0x200>
     ca0:	80 e0       	ldi	r24, 0x00	; 0
     ca2:	90 e0       	ldi	r25, 0x00	; 0
     ca4:	a0 ea       	ldi	r26, 0xA0	; 160
     ca6:	b0 e4       	ldi	r27, 0x40	; 64
     ca8:	f8 01       	movw	r30, r16
     caa:	ea 54       	subi	r30, 0x4A	; 74
     cac:	ff 4f       	sbci	r31, 0xFF	; 255
     cae:	80 83       	st	Z, r24
     cb0:	91 83       	std	Z+1, r25	; 0x01
     cb2:	a2 83       	std	Z+2, r26	; 0x02
     cb4:	b3 83       	std	Z+3, r27	; 0x03
	switch(Cursor){
     cb6:	8f 81       	ldd	r24, Y+7	; 0x07
     cb8:	83 31       	cpi	r24, 0x13	; 19
     cba:	19 f0       	breq	.+6      	; 0xcc2 <_ZN8Activity10Limits_setER5PanelR7Carrage+0x20c>
     cbc:	84 31       	cpi	r24, 0x14	; 20
     cbe:	d9 f0       	breq	.+54     	; 0xcf6 <_ZN8Activity10Limits_setER5PanelR7Carrage+0x240>
     cc0:	33 c0       	rjmp	.+102    	; 0xd28 <_ZN8Activity10Limits_setER5PanelR7Carrage+0x272>
		case(LIMITS_MIN):if (carrage.min >= carrage.max){carrage.min = carrage.max;};break;
     cc2:	f8 01       	movw	r30, r16
     cc4:	ea 54       	subi	r30, 0x4A	; 74
     cc6:	ff 4f       	sbci	r31, 0xFF	; 255
     cc8:	c0 80       	ld	r12, Z
     cca:	d1 80       	ldd	r13, Z+1	; 0x01
     ccc:	e2 80       	ldd	r14, Z+2	; 0x02
     cce:	f3 80       	ldd	r15, Z+3	; 0x03
     cd0:	a7 01       	movw	r20, r14
     cd2:	96 01       	movw	r18, r12
     cd4:	34 97       	sbiw	r30, 0x04	; 4
     cd6:	60 81       	ld	r22, Z
     cd8:	71 81       	ldd	r23, Z+1	; 0x01
     cda:	82 81       	ldd	r24, Z+2	; 0x02
     cdc:	93 81       	ldd	r25, Z+3	; 0x03
     cde:	0e 94 af 24 	call	0x495e	; 0x495e <__gesf2>
     ce2:	88 23       	and	r24, r24
     ce4:	0c f1       	brlt	.+66     	; 0xd28 <_ZN8Activity10Limits_setER5PanelR7Carrage+0x272>
     ce6:	f8 01       	movw	r30, r16
     ce8:	ee 54       	subi	r30, 0x4E	; 78
     cea:	ff 4f       	sbci	r31, 0xFF	; 255
     cec:	c0 82       	st	Z, r12
     cee:	d1 82       	std	Z+1, r13	; 0x01
     cf0:	e2 82       	std	Z+2, r14	; 0x02
     cf2:	f3 82       	std	Z+3, r15	; 0x03
     cf4:	19 c0       	rjmp	.+50     	; 0xd28 <_ZN8Activity10Limits_setER5PanelR7Carrage+0x272>
		case(LIMITS_MAX):if (carrage.max <= carrage.min){carrage.max = carrage.min;};break;
     cf6:	f8 01       	movw	r30, r16
     cf8:	ee 54       	subi	r30, 0x4E	; 78
     cfa:	ff 4f       	sbci	r31, 0xFF	; 255
     cfc:	c0 80       	ld	r12, Z
     cfe:	d1 80       	ldd	r13, Z+1	; 0x01
     d00:	e2 80       	ldd	r14, Z+2	; 0x02
     d02:	f3 80       	ldd	r15, Z+3	; 0x03
     d04:	a7 01       	movw	r20, r14
     d06:	96 01       	movw	r18, r12
     d08:	34 96       	adiw	r30, 0x04	; 4
     d0a:	60 81       	ld	r22, Z
     d0c:	71 81       	ldd	r23, Z+1	; 0x01
     d0e:	82 81       	ldd	r24, Z+2	; 0x02
     d10:	93 81       	ldd	r25, Z+3	; 0x03
     d12:	0e 94 50 23 	call	0x46a0	; 0x46a0 <__cmpsf2>
     d16:	18 16       	cp	r1, r24
     d18:	3c f0       	brlt	.+14     	; 0xd28 <_ZN8Activity10Limits_setER5PanelR7Carrage+0x272>
     d1a:	f8 01       	movw	r30, r16
     d1c:	ea 54       	subi	r30, 0x4A	; 74
     d1e:	ff 4f       	sbci	r31, 0xFF	; 255
     d20:	c0 82       	st	Z, r12
     d22:	d1 82       	std	Z+1, r13	; 0x01
     d24:	e2 82       	std	Z+2, r14	; 0x02
     d26:	f3 82       	std	Z+3, r15	; 0x03
	}

}
     d28:	13 c0       	rjmp	.+38     	; 0xd50 <_ZN8Activity10Limits_setER5PanelR7Carrage+0x29a>
     d2a:	80 e0       	ldi	r24, 0x00	; 0
     d2c:	11 c0       	rjmp	.+34     	; 0xd50 <_ZN8Activity10Limits_setER5PanelR7Carrage+0x29a>
	int pressed = panel.Pressed(100);
	if (pressed == B_W_UP_){return false;}
	if (pressed == B_W_DOWN){return false;}
	if (pressed == B_NOTHING ){button_step=0;return false;}
	if(Cursor==EXIT_LIMITS&&pressed==B_OK___){Statment = SCREEN_MENU;Cursor=SETTINGS_LIMITS;SettingsSaveFlag = true;return false;}
	switch(pressed){
     d2e:	82 30       	cpi	r24, 0x02	; 2
     d30:	91 05       	cpc	r25, r1
     d32:	09 f4       	brne	.+2      	; 0xd36 <_ZN8Activity10Limits_setER5PanelR7Carrage+0x280>
     d34:	81 cf       	rjmp	.-254    	; 0xc38 <_ZN8Activity10Limits_setER5PanelR7Carrage+0x182>
     d36:	24 f4       	brge	.+8      	; 0xd40 <_ZN8Activity10Limits_setER5PanelR7Carrage+0x28a>
     d38:	01 97       	sbiw	r24, 0x01	; 1
     d3a:	09 f4       	brne	.+2      	; 0xd3e <_ZN8Activity10Limits_setER5PanelR7Carrage+0x288>
     d3c:	80 cf       	rjmp	.-256    	; 0xc3e <_ZN8Activity10Limits_setER5PanelR7Carrage+0x188>
     d3e:	87 cf       	rjmp	.-242    	; 0xc4e <_ZN8Activity10Limits_setER5PanelR7Carrage+0x198>
     d40:	83 30       	cpi	r24, 0x03	; 3
     d42:	91 05       	cpc	r25, r1
     d44:	09 f4       	brne	.+2      	; 0xd48 <_ZN8Activity10Limits_setER5PanelR7Carrage+0x292>
     d46:	f4 ce       	rjmp	.-536    	; 0xb30 <_ZN8Activity10Limits_setER5PanelR7Carrage+0x7a>
     d48:	04 97       	sbiw	r24, 0x04	; 4
     d4a:	09 f4       	brne	.+2      	; 0xd4e <_ZN8Activity10Limits_setER5PanelR7Carrage+0x298>
     d4c:	35 cf       	rjmp	.-406    	; 0xbb8 <_ZN8Activity10Limits_setER5PanelR7Carrage+0x102>
     d4e:	7f cf       	rjmp	.-258    	; 0xc4e <_ZN8Activity10Limits_setER5PanelR7Carrage+0x198>
	switch(Cursor){
		case(LIMITS_MIN):if (carrage.min >= carrage.max){carrage.min = carrage.max;};break;
		case(LIMITS_MAX):if (carrage.max <= carrage.min){carrage.max = carrage.min;};break;
	}

}
     d50:	df 91       	pop	r29
     d52:	cf 91       	pop	r28
     d54:	1f 91       	pop	r17
     d56:	0f 91       	pop	r16
     d58:	ff 90       	pop	r15
     d5a:	ef 90       	pop	r14
     d5c:	df 90       	pop	r13
     d5e:	cf 90       	pop	r12
     d60:	08 95       	ret

00000d62 <_ZN8Activity14Malfaction_setER5PanelR7Carrage>:

bool Activity::Malfaction_set(Panel &panel, Carrage &carrage){
     d62:	cf 92       	push	r12
     d64:	df 92       	push	r13
     d66:	ef 92       	push	r14
     d68:	ff 92       	push	r15
     d6a:	0f 93       	push	r16
     d6c:	1f 93       	push	r17
     d6e:	cf 93       	push	r28
     d70:	df 93       	push	r29
     d72:	ec 01       	movw	r28, r24
     d74:	cb 01       	movw	r24, r22
     d76:	8a 01       	movw	r16, r20
	int pressed = panel.Pressed(100);
     d78:	64 e6       	ldi	r22, 0x64	; 100
     d7a:	70 e0       	ldi	r23, 0x00	; 0
     d7c:	0e 94 7d 1f 	call	0x3efa	; 0x3efa <_ZN5Panel7PressedEi>
	if (pressed == B_W_UP_){return false;}
     d80:	9c 01       	movw	r18, r24
     d82:	25 50       	subi	r18, 0x05	; 5
     d84:	31 09       	sbc	r19, r1
     d86:	22 30       	cpi	r18, 0x02	; 2
     d88:	31 05       	cpc	r19, r1
     d8a:	08 f4       	brcc	.+2      	; 0xd8e <_ZN8Activity14Malfaction_setER5PanelR7Carrage+0x2c>
     d8c:	cf c0       	rjmp	.+414    	; 0xf2c <_ZN8Activity14Malfaction_setER5PanelR7Carrage+0x1ca>
	if (pressed == B_W_DOWN){return false;}
	if (pressed == B_NOTHING ){button_step=0;return false;}
     d8e:	8f 3f       	cpi	r24, 0xFF	; 255
     d90:	2f ef       	ldi	r18, 0xFF	; 255
     d92:	92 07       	cpc	r25, r18
     d94:	29 f4       	brne	.+10     	; 0xda0 <_ZN8Activity14Malfaction_setER5PanelR7Carrage+0x3e>
     d96:	1b 82       	std	Y+3, r1	; 0x03
     d98:	1c 82       	std	Y+4, r1	; 0x04
     d9a:	1d 82       	std	Y+5, r1	; 0x05
     d9c:	1e 82       	std	Y+6, r1	; 0x06
     d9e:	c6 c0       	rjmp	.+396    	; 0xf2c <_ZN8Activity14Malfaction_setER5PanelR7Carrage+0x1ca>
	switch(pressed){
     da0:	81 30       	cpi	r24, 0x01	; 1
     da2:	91 05       	cpc	r25, r1
     da4:	39 f0       	breq	.+14     	; 0xdb4 <_ZN8Activity14Malfaction_setER5PanelR7Carrage+0x52>
     da6:	82 30       	cpi	r24, 0x02	; 2
     da8:	91 05       	cpc	r25, r1
     daa:	39 f4       	brne	.+14     	; 0xdba <_ZN8Activity14Malfaction_setER5PanelR7Carrage+0x58>
		case(B_DOWN_):Cursor++;break;
     dac:	2f 81       	ldd	r18, Y+7	; 0x07
     dae:	2f 5f       	subi	r18, 0xFF	; 255
     db0:	2f 83       	std	Y+7, r18	; 0x07
     db2:	03 c0       	rjmp	.+6      	; 0xdba <_ZN8Activity14Malfaction_setER5PanelR7Carrage+0x58>
		case(B_UP___):Cursor--;break;
     db4:	2f 81       	ldd	r18, Y+7	; 0x07
     db6:	21 50       	subi	r18, 0x01	; 1
     db8:	2f 83       	std	Y+7, r18	; 0x07
	}
	if(Cursor<=TIME_MALFACTION){Cursor=TIME_MALFACTION;}
     dba:	2f 81       	ldd	r18, Y+7	; 0x07
     dbc:	27 31       	cpi	r18, 0x17	; 23
     dbe:	18 f4       	brcc	.+6      	; 0xdc6 <_ZN8Activity14Malfaction_setER5PanelR7Carrage+0x64>
     dc0:	26 e1       	ldi	r18, 0x16	; 22
     dc2:	2f 83       	std	Y+7, r18	; 0x07
     dc4:	12 c0       	rjmp	.+36     	; 0xdea <_ZN8Activity14Malfaction_setER5PanelR7Carrage+0x88>
	if(Cursor>=EXIT_MALFACTION){Cursor=EXIT_MALFACTION;}
     dc6:	28 31       	cpi	r18, 0x18	; 24
     dc8:	18 f0       	brcs	.+6      	; 0xdd0 <_ZN8Activity14Malfaction_setER5PanelR7Carrage+0x6e>
     dca:	28 e1       	ldi	r18, 0x18	; 24
     dcc:	2f 83       	std	Y+7, r18	; 0x07
     dce:	63 c0       	rjmp	.+198    	; 0xe96 <_ZN8Activity14Malfaction_setER5PanelR7Carrage+0x134>
	
	if(Cursor==ONOF_MALFACTION){
     dd0:	2f 81       	ldd	r18, Y+7	; 0x07
     dd2:	27 31       	cpi	r18, 0x17	; 23
     dd4:	51 f4       	brne	.+20     	; 0xdea <_ZN8Activity14Malfaction_setER5PanelR7Carrage+0x88>
		switch(pressed){
     dd6:	00 97       	sbiw	r24, 0x00	; 0
     dd8:	41 f4       	brne	.+16     	; 0xdea <_ZN8Activity14Malfaction_setER5PanelR7Carrage+0x88>
			case(B_OK___):carrage.switch_malfaction(); break;
     dda:	c8 01       	movw	r24, r16
     ddc:	0e 94 40 12 	call	0x2480	; 0x2480 <_ZN7Carrage17switch_malfactionEv>
		switch(pressed){
			case(B_LEFT_):carrage.countToMalfunctionLimit-=(1+button_step);button_step=9; break;
			case(B_RIGHT):carrage.countToMalfunctionLimit+=(1+button_step);button_step=9; break;
		}
	}
	if(Cursor==EXIT_MALFACTION){
     de0:	8f 81       	ldd	r24, Y+7	; 0x07
     de2:	88 31       	cpi	r24, 0x18	; 24
     de4:	09 f0       	breq	.+2      	; 0xde8 <_ZN8Activity14Malfaction_setER5PanelR7Carrage+0x86>
     de6:	6f c0       	rjmp	.+222    	; 0xec6 <_ZN8Activity14Malfaction_setER5PanelR7Carrage+0x164>
     de8:	5e c0       	rjmp	.+188    	; 0xea6 <_ZN8Activity14Malfaction_setER5PanelR7Carrage+0x144>
	if(Cursor==ONOF_MALFACTION){
		switch(pressed){
			case(B_OK___):carrage.switch_malfaction(); break;
		}
	}
	if(Cursor==TIME_MALFACTION){
     dea:	2f 81       	ldd	r18, Y+7	; 0x07
     dec:	26 31       	cpi	r18, 0x16	; 22
     dee:	09 f0       	breq	.+2      	; 0xdf2 <_ZN8Activity14Malfaction_setER5PanelR7Carrage+0x90>
     df0:	52 c0       	rjmp	.+164    	; 0xe96 <_ZN8Activity14Malfaction_setER5PanelR7Carrage+0x134>
		switch(pressed){
     df2:	83 30       	cpi	r24, 0x03	; 3
     df4:	91 05       	cpc	r25, r1
     df6:	21 f0       	breq	.+8      	; 0xe00 <_ZN8Activity14Malfaction_setER5PanelR7Carrage+0x9e>
     df8:	84 30       	cpi	r24, 0x04	; 4
     dfa:	91 05       	cpc	r25, r1
     dfc:	31 f1       	breq	.+76     	; 0xe4a <_ZN8Activity14Malfaction_setER5PanelR7Carrage+0xe8>
     dfe:	4b c0       	rjmp	.+150    	; 0xe96 <_ZN8Activity14Malfaction_setER5PanelR7Carrage+0x134>
			case(B_LEFT_):carrage.countToMalfunctionLimit-=(1+button_step);button_step=9; break;
     e00:	78 01       	movw	r14, r16
     e02:	8a eb       	ldi	r24, 0xBA	; 186
     e04:	e8 0e       	add	r14, r24
     e06:	f1 1c       	adc	r15, r1
     e08:	20 e0       	ldi	r18, 0x00	; 0
     e0a:	30 e0       	ldi	r19, 0x00	; 0
     e0c:	40 e8       	ldi	r20, 0x80	; 128
     e0e:	5f e3       	ldi	r21, 0x3F	; 63
     e10:	6b 81       	ldd	r22, Y+3	; 0x03
     e12:	7c 81       	ldd	r23, Y+4	; 0x04
     e14:	8d 81       	ldd	r24, Y+5	; 0x05
     e16:	9e 81       	ldd	r25, Y+6	; 0x06
     e18:	0e 94 e4 22 	call	0x45c8	; 0x45c8 <__addsf3>
     e1c:	9b 01       	movw	r18, r22
     e1e:	ac 01       	movw	r20, r24
     e20:	f7 01       	movw	r30, r14
     e22:	60 81       	ld	r22, Z
     e24:	71 81       	ldd	r23, Z+1	; 0x01
     e26:	82 81       	ldd	r24, Z+2	; 0x02
     e28:	93 81       	ldd	r25, Z+3	; 0x03
     e2a:	0e 94 e3 22 	call	0x45c6	; 0x45c6 <__subsf3>
     e2e:	f7 01       	movw	r30, r14
     e30:	60 83       	st	Z, r22
     e32:	71 83       	std	Z+1, r23	; 0x01
     e34:	82 83       	std	Z+2, r24	; 0x02
     e36:	93 83       	std	Z+3, r25	; 0x03
     e38:	80 e0       	ldi	r24, 0x00	; 0
     e3a:	90 e0       	ldi	r25, 0x00	; 0
     e3c:	a0 e1       	ldi	r26, 0x10	; 16
     e3e:	b1 e4       	ldi	r27, 0x41	; 65
     e40:	8b 83       	std	Y+3, r24	; 0x03
     e42:	9c 83       	std	Y+4, r25	; 0x04
     e44:	ad 83       	std	Y+5, r26	; 0x05
     e46:	be 83       	std	Y+6, r27	; 0x06
     e48:	3e c0       	rjmp	.+124    	; 0xec6 <_ZN8Activity14Malfaction_setER5PanelR7Carrage+0x164>
			case(B_RIGHT):carrage.countToMalfunctionLimit+=(1+button_step);button_step=9; break;
     e4a:	78 01       	movw	r14, r16
     e4c:	fa eb       	ldi	r31, 0xBA	; 186
     e4e:	ef 0e       	add	r14, r31
     e50:	f1 1c       	adc	r15, r1
     e52:	20 e0       	ldi	r18, 0x00	; 0
     e54:	30 e0       	ldi	r19, 0x00	; 0
     e56:	40 e8       	ldi	r20, 0x80	; 128
     e58:	5f e3       	ldi	r21, 0x3F	; 63
     e5a:	6b 81       	ldd	r22, Y+3	; 0x03
     e5c:	7c 81       	ldd	r23, Y+4	; 0x04
     e5e:	8d 81       	ldd	r24, Y+5	; 0x05
     e60:	9e 81       	ldd	r25, Y+6	; 0x06
     e62:	0e 94 e4 22 	call	0x45c8	; 0x45c8 <__addsf3>
     e66:	f7 01       	movw	r30, r14
     e68:	20 81       	ld	r18, Z
     e6a:	31 81       	ldd	r19, Z+1	; 0x01
     e6c:	42 81       	ldd	r20, Z+2	; 0x02
     e6e:	53 81       	ldd	r21, Z+3	; 0x03
     e70:	0e 94 e4 22 	call	0x45c8	; 0x45c8 <__addsf3>
     e74:	f7 01       	movw	r30, r14
     e76:	60 83       	st	Z, r22
     e78:	71 83       	std	Z+1, r23	; 0x01
     e7a:	82 83       	std	Z+2, r24	; 0x02
     e7c:	93 83       	std	Z+3, r25	; 0x03
     e7e:	80 e0       	ldi	r24, 0x00	; 0
     e80:	90 e0       	ldi	r25, 0x00	; 0
     e82:	a0 e1       	ldi	r26, 0x10	; 16
     e84:	b1 e4       	ldi	r27, 0x41	; 65
     e86:	8b 83       	std	Y+3, r24	; 0x03
     e88:	9c 83       	std	Y+4, r25	; 0x04
     e8a:	ad 83       	std	Y+5, r26	; 0x05
     e8c:	be 83       	std	Y+6, r27	; 0x06
		}
	}
	if(Cursor==EXIT_MALFACTION){
     e8e:	8f 81       	ldd	r24, Y+7	; 0x07
     e90:	88 31       	cpi	r24, 0x18	; 24
     e92:	c9 f4       	brne	.+50     	; 0xec6 <_ZN8Activity14Malfaction_setER5PanelR7Carrage+0x164>
     e94:	10 c0       	rjmp	.+32     	; 0xeb6 <_ZN8Activity14Malfaction_setER5PanelR7Carrage+0x154>
     e96:	2f 81       	ldd	r18, Y+7	; 0x07
     e98:	28 31       	cpi	r18, 0x18	; 24
     e9a:	a9 f4       	brne	.+42     	; 0xec6 <_ZN8Activity14Malfaction_setER5PanelR7Carrage+0x164>
		switch(pressed){
     e9c:	00 97       	sbiw	r24, 0x00	; 0
     e9e:	19 f0       	breq	.+6      	; 0xea6 <_ZN8Activity14Malfaction_setER5PanelR7Carrage+0x144>
     ea0:	04 97       	sbiw	r24, 0x04	; 4
     ea2:	89 f4       	brne	.+34     	; 0xec6 <_ZN8Activity14Malfaction_setER5PanelR7Carrage+0x164>
     ea4:	08 c0       	rjmp	.+16     	; 0xeb6 <_ZN8Activity14Malfaction_setER5PanelR7Carrage+0x154>
			case(B_OK___):Statment = SCREEN_MENU;Cursor=SETTINGS_TEST_MALFACTION;SettingsSaveFlag = true;return false; break;
     ea6:	81 e0       	ldi	r24, 0x01	; 1
     ea8:	88 83       	st	Y, r24
     eaa:	9e e0       	ldi	r25, 0x0E	; 14
     eac:	9f 83       	std	Y+7, r25	; 0x07
     eae:	c8 56       	subi	r28, 0x68	; 104
     eb0:	df 4f       	sbci	r29, 0xFF	; 255
     eb2:	88 83       	st	Y, r24
     eb4:	3b c0       	rjmp	.+118    	; 0xf2c <_ZN8Activity14Malfaction_setER5PanelR7Carrage+0x1ca>
			case(B_RIGHT):Statment = SCREEN_MENU;Cursor=SETTINGS_TEST_MALFACTION;SettingsSaveFlag = true;return false; break;
     eb6:	81 e0       	ldi	r24, 0x01	; 1
     eb8:	88 83       	st	Y, r24
     eba:	9e e0       	ldi	r25, 0x0E	; 14
     ebc:	9f 83       	std	Y+7, r25	; 0x07
     ebe:	c8 56       	subi	r28, 0x68	; 104
     ec0:	df 4f       	sbci	r29, 0xFF	; 255
     ec2:	88 83       	st	Y, r24
     ec4:	33 c0       	rjmp	.+102    	; 0xf2c <_ZN8Activity14Malfaction_setER5PanelR7Carrage+0x1ca>
		}
	}
	if (carrage.countToMalfunctionLimit <= 5){carrage.countToMalfunctionLimit = 5;}
     ec6:	f8 01       	movw	r30, r16
     ec8:	e6 54       	subi	r30, 0x46	; 70
     eca:	ff 4f       	sbci	r31, 0xFF	; 255
     ecc:	c0 80       	ld	r12, Z
     ece:	d1 80       	ldd	r13, Z+1	; 0x01
     ed0:	e2 80       	ldd	r14, Z+2	; 0x02
     ed2:	f3 80       	ldd	r15, Z+3	; 0x03
     ed4:	20 e0       	ldi	r18, 0x00	; 0
     ed6:	30 e0       	ldi	r19, 0x00	; 0
     ed8:	40 ea       	ldi	r20, 0xA0	; 160
     eda:	50 e4       	ldi	r21, 0x40	; 64
     edc:	c7 01       	movw	r24, r14
     ede:	b6 01       	movw	r22, r12
     ee0:	0e 94 50 23 	call	0x46a0	; 0x46a0 <__cmpsf2>
     ee4:	18 16       	cp	r1, r24
     ee6:	64 f0       	brlt	.+24     	; 0xf00 <_ZN8Activity14Malfaction_setER5PanelR7Carrage+0x19e>
     ee8:	f8 01       	movw	r30, r16
     eea:	e6 54       	subi	r30, 0x46	; 70
     eec:	ff 4f       	sbci	r31, 0xFF	; 255
     eee:	80 e0       	ldi	r24, 0x00	; 0
     ef0:	90 e0       	ldi	r25, 0x00	; 0
     ef2:	a0 ea       	ldi	r26, 0xA0	; 160
     ef4:	b0 e4       	ldi	r27, 0x40	; 64
     ef6:	80 83       	st	Z, r24
     ef8:	91 83       	std	Z+1, r25	; 0x01
     efa:	a2 83       	std	Z+2, r26	; 0x02
     efc:	b3 83       	std	Z+3, r27	; 0x03
     efe:	15 c0       	rjmp	.+42     	; 0xf2a <_ZN8Activity14Malfaction_setER5PanelR7Carrage+0x1c8>
	if (carrage.countToMalfunctionLimit >= 999){carrage.countToMalfunctionLimit = 999;}
     f00:	20 e0       	ldi	r18, 0x00	; 0
     f02:	30 ec       	ldi	r19, 0xC0	; 192
     f04:	49 e7       	ldi	r20, 0x79	; 121
     f06:	54 e4       	ldi	r21, 0x44	; 68
     f08:	c7 01       	movw	r24, r14
     f0a:	b6 01       	movw	r22, r12
     f0c:	0e 94 af 24 	call	0x495e	; 0x495e <__gesf2>
     f10:	88 23       	and	r24, r24
     f12:	5c f0       	brlt	.+22     	; 0xf2a <_ZN8Activity14Malfaction_setER5PanelR7Carrage+0x1c8>
     f14:	f8 01       	movw	r30, r16
     f16:	e6 54       	subi	r30, 0x46	; 70
     f18:	ff 4f       	sbci	r31, 0xFF	; 255
     f1a:	80 e0       	ldi	r24, 0x00	; 0
     f1c:	90 ec       	ldi	r25, 0xC0	; 192
     f1e:	a9 e7       	ldi	r26, 0x79	; 121
     f20:	b4 e4       	ldi	r27, 0x44	; 68
     f22:	80 83       	st	Z, r24
     f24:	91 83       	std	Z+1, r25	; 0x01
     f26:	a2 83       	std	Z+2, r26	; 0x02
     f28:	b3 83       	std	Z+3, r27	; 0x03
}
     f2a:	01 c0       	rjmp	.+2      	; 0xf2e <_ZN8Activity14Malfaction_setER5PanelR7Carrage+0x1cc>
     f2c:	80 e0       	ldi	r24, 0x00	; 0
     f2e:	df 91       	pop	r29
     f30:	cf 91       	pop	r28
     f32:	1f 91       	pop	r17
     f34:	0f 91       	pop	r16
     f36:	ff 90       	pop	r15
     f38:	ef 90       	pop	r14
     f3a:	df 90       	pop	r13
     f3c:	cf 90       	pop	r12
     f3e:	08 95       	ret

00000f40 <_ZN8Activity6ErrorsER5PanelR7Carrage>:

bool Activity::Errors(Panel &panel, Carrage &carrage){
     f40:	0f 93       	push	r16
     f42:	1f 93       	push	r17
     f44:	cf 93       	push	r28
     f46:	df 93       	push	r29
     f48:	ec 01       	movw	r28, r24
     f4a:	cb 01       	movw	r24, r22
     f4c:	8a 01       	movw	r16, r20
	int pressed = panel.Pressed(100);
     f4e:	64 e6       	ldi	r22, 0x64	; 100
     f50:	70 e0       	ldi	r23, 0x00	; 0
     f52:	0e 94 7d 1f 	call	0x3efa	; 0x3efa <_ZN5Panel7PressedEi>
	if (pressed == B_W_UP_){return false;}
     f56:	9c 01       	movw	r18, r24
     f58:	25 50       	subi	r18, 0x05	; 5
     f5a:	31 09       	sbc	r19, r1
     f5c:	22 30       	cpi	r18, 0x02	; 2
     f5e:	31 05       	cpc	r19, r1
     f60:	08 f4       	brcc	.+2      	; 0xf64 <_ZN8Activity6ErrorsER5PanelR7Carrage+0x24>
     f62:	68 c0       	rjmp	.+208    	; 0x1034 <_ZN8Activity6ErrorsER5PanelR7Carrage+0xf4>
	if (pressed == B_W_DOWN){return false;}
	if (pressed == B_NOTHING ){return false;}
     f64:	8f 3f       	cpi	r24, 0xFF	; 255
     f66:	2f ef       	ldi	r18, 0xFF	; 255
     f68:	92 07       	cpc	r25, r18
     f6a:	09 f4       	brne	.+2      	; 0xf6e <_ZN8Activity6ErrorsER5PanelR7Carrage+0x2e>
     f6c:	63 c0       	rjmp	.+198    	; 0x1034 <_ZN8Activity6ErrorsER5PanelR7Carrage+0xf4>
	if(pressed == B_OK___&&Cursor==ERRORS_RESET){carrage.errorsReset();return false;}
     f6e:	00 97       	sbiw	r24, 0x00	; 0
     f70:	39 f4       	brne	.+14     	; 0xf80 <_ZN8Activity6ErrorsER5PanelR7Carrage+0x40>
     f72:	8f 81       	ldd	r24, Y+7	; 0x07
     f74:	8d 31       	cpi	r24, 0x1D	; 29
     f76:	a1 f4       	brne	.+40     	; 0xfa0 <_ZN8Activity6ErrorsER5PanelR7Carrage+0x60>
     f78:	c8 01       	movw	r24, r16
     f7a:	0e 94 48 12 	call	0x2490	; 0x2490 <_ZN7Carrage11errorsResetEv>
     f7e:	5a c0       	rjmp	.+180    	; 0x1034 <_ZN8Activity6ErrorsER5PanelR7Carrage+0xf4>
	if(pressed == B_RIGHT&&Cursor==ERRORS_RESET){Cursor++;return false;}
     f80:	84 30       	cpi	r24, 0x04	; 4
     f82:	91 05       	cpc	r25, r1
     f84:	31 f4       	brne	.+12     	; 0xf92 <_ZN8Activity6ErrorsER5PanelR7Carrage+0x52>
     f86:	8f 81       	ldd	r24, Y+7	; 0x07
     f88:	8d 31       	cpi	r24, 0x1D	; 29
     f8a:	91 f4       	brne	.+36     	; 0xfb0 <_ZN8Activity6ErrorsER5PanelR7Carrage+0x70>
     f8c:	8e e1       	ldi	r24, 0x1E	; 30
     f8e:	8f 83       	std	Y+7, r24	; 0x07
     f90:	51 c0       	rjmp	.+162    	; 0x1034 <_ZN8Activity6ErrorsER5PanelR7Carrage+0xf4>
	if(pressed == B_DOWN_&&Cursor==ERRORS_RESET){return false;}
     f92:	82 30       	cpi	r24, 0x02	; 2
     f94:	91 05       	cpc	r25, r1
     f96:	81 f4       	brne	.+32     	; 0xfb8 <_ZN8Activity6ErrorsER5PanelR7Carrage+0x78>
     f98:	8f 81       	ldd	r24, Y+7	; 0x07
     f9a:	8d 31       	cpi	r24, 0x1D	; 29
     f9c:	c9 f5       	brne	.+114    	; 0x1010 <_ZN8Activity6ErrorsER5PanelR7Carrage+0xd0>
     f9e:	4a c0       	rjmp	.+148    	; 0x1034 <_ZN8Activity6ErrorsER5PanelR7Carrage+0xf4>
	if(pressed == B_OK___&&Cursor==ERRORS_EXIT){Statment = SCREEN_MENU;Cursor=SETTINGS_RESET_ERRORS;return false;}
     fa0:	8f 81       	ldd	r24, Y+7	; 0x07
     fa2:	8e 31       	cpi	r24, 0x1E	; 30
     fa4:	51 f5       	brne	.+84     	; 0xffa <_ZN8Activity6ErrorsER5PanelR7Carrage+0xba>
     fa6:	81 e0       	ldi	r24, 0x01	; 1
     fa8:	88 83       	st	Y, r24
     faa:	8f e0       	ldi	r24, 0x0F	; 15
     fac:	8f 83       	std	Y+7, r24	; 0x07
     fae:	42 c0       	rjmp	.+132    	; 0x1034 <_ZN8Activity6ErrorsER5PanelR7Carrage+0xf4>
	if(pressed == B_RIGHT&&Cursor==ERRORS_EXIT){return false;}
     fb0:	8f 81       	ldd	r24, Y+7	; 0x07
     fb2:	8e 31       	cpi	r24, 0x1E	; 30
     fb4:	51 f5       	brne	.+84     	; 0x100a <_ZN8Activity6ErrorsER5PanelR7Carrage+0xca>
     fb6:	3e c0       	rjmp	.+124    	; 0x1034 <_ZN8Activity6ErrorsER5PanelR7Carrage+0xf4>
	if(pressed == B_LEFT_&&Cursor==ERRORS_EXIT){Cursor--;return false;}
     fb8:	83 30       	cpi	r24, 0x03	; 3
     fba:	91 05       	cpc	r25, r1
     fbc:	31 f4       	brne	.+12     	; 0xfca <_ZN8Activity6ErrorsER5PanelR7Carrage+0x8a>
     fbe:	8f 81       	ldd	r24, Y+7	; 0x07
     fc0:	8e 31       	cpi	r24, 0x1E	; 30
     fc2:	f1 f4       	brne	.+60     	; 0x1000 <_ZN8Activity6ErrorsER5PanelR7Carrage+0xc0>
     fc4:	8d e1       	ldi	r24, 0x1D	; 29
     fc6:	8f 83       	std	Y+7, r24	; 0x07
     fc8:	35 c0       	rjmp	.+106    	; 0x1034 <_ZN8Activity6ErrorsER5PanelR7Carrage+0xf4>
	if(pressed == B_UP___&&Cursor==ERRORS_EXIT){Cursor-=2;return false;}
     fca:	81 30       	cpi	r24, 0x01	; 1
     fcc:	91 05       	cpc	r25, r1
     fce:	31 f4       	brne	.+12     	; 0xfdc <_ZN8Activity6ErrorsER5PanelR7Carrage+0x9c>
     fd0:	8f 81       	ldd	r24, Y+7	; 0x07
     fd2:	8e 31       	cpi	r24, 0x1E	; 30
     fd4:	09 f5       	brne	.+66     	; 0x1018 <_ZN8Activity6ErrorsER5PanelR7Carrage+0xd8>
     fd6:	8c e1       	ldi	r24, 0x1C	; 28
     fd8:	8f 83       	std	Y+7, r24	; 0x07
     fda:	2c c0       	rjmp	.+88     	; 0x1034 <_ZN8Activity6ErrorsER5PanelR7Carrage+0xf4>
	switch(pressed){
     fdc:	82 30       	cpi	r24, 0x02	; 2
     fde:	91 05       	cpc	r25, r1
     fe0:	b9 f0       	breq	.+46     	; 0x1010 <_ZN8Activity6ErrorsER5PanelR7Carrage+0xd0>
     fe2:	2c f4       	brge	.+10     	; 0xfee <_ZN8Activity6ErrorsER5PanelR7Carrage+0xae>
     fe4:	00 97       	sbiw	r24, 0x00	; 0
     fe6:	49 f0       	breq	.+18     	; 0xffa <_ZN8Activity6ErrorsER5PanelR7Carrage+0xba>
     fe8:	01 97       	sbiw	r24, 0x01	; 1
     fea:	b1 f0       	breq	.+44     	; 0x1018 <_ZN8Activity6ErrorsER5PanelR7Carrage+0xd8>
     fec:	18 c0       	rjmp	.+48     	; 0x101e <_ZN8Activity6ErrorsER5PanelR7Carrage+0xde>
     fee:	83 30       	cpi	r24, 0x03	; 3
     ff0:	91 05       	cpc	r25, r1
     ff2:	31 f0       	breq	.+12     	; 0x1000 <_ZN8Activity6ErrorsER5PanelR7Carrage+0xc0>
     ff4:	04 97       	sbiw	r24, 0x04	; 4
     ff6:	99 f4       	brne	.+38     	; 0x101e <_ZN8Activity6ErrorsER5PanelR7Carrage+0xde>
     ff8:	08 c0       	rjmp	.+16     	; 0x100a <_ZN8Activity6ErrorsER5PanelR7Carrage+0xca>
		case(B_OK___):Statment=SCREEN_ERROR_WHEEL; break;
     ffa:	87 e0       	ldi	r24, 0x07	; 7
     ffc:	88 83       	st	Y, r24
     ffe:	0f c0       	rjmp	.+30     	; 0x101e <_ZN8Activity6ErrorsER5PanelR7Carrage+0xde>
		case(B_LEFT_):Statment = SCREEN_MENU;Cursor=SETTINGS_RESET_ERRORS;return false; break;
    1000:	81 e0       	ldi	r24, 0x01	; 1
    1002:	88 83       	st	Y, r24
    1004:	8f e0       	ldi	r24, 0x0F	; 15
    1006:	8f 83       	std	Y+7, r24	; 0x07
    1008:	15 c0       	rjmp	.+42     	; 0x1034 <_ZN8Activity6ErrorsER5PanelR7Carrage+0xf4>
		case(B_RIGHT):Statment=SCREEN_ERROR_WHEEL; break;
    100a:	87 e0       	ldi	r24, 0x07	; 7
    100c:	88 83       	st	Y, r24
    100e:	07 c0       	rjmp	.+14     	; 0x101e <_ZN8Activity6ErrorsER5PanelR7Carrage+0xde>
		case(B_DOWN_):Cursor++;break;
    1010:	8f 81       	ldd	r24, Y+7	; 0x07
    1012:	8f 5f       	subi	r24, 0xFF	; 255
    1014:	8f 83       	std	Y+7, r24	; 0x07
    1016:	03 c0       	rjmp	.+6      	; 0x101e <_ZN8Activity6ErrorsER5PanelR7Carrage+0xde>
		case(B_UP___):Cursor--;break;
    1018:	8f 81       	ldd	r24, Y+7	; 0x07
    101a:	81 50       	subi	r24, 0x01	; 1
    101c:	8f 83       	std	Y+7, r24	; 0x07
	}
	
	if(Cursor<=ERRORS_WHEEL1){Cursor = ERRORS_WHEEL1;};
    101e:	8f 81       	ldd	r24, Y+7	; 0x07
    1020:	8a 31       	cpi	r24, 0x1A	; 26
    1022:	18 f4       	brcc	.+6      	; 0x102a <_ZN8Activity6ErrorsER5PanelR7Carrage+0xea>
    1024:	89 e1       	ldi	r24, 0x19	; 25
    1026:	8f 83       	std	Y+7, r24	; 0x07
    1028:	04 c0       	rjmp	.+8      	; 0x1032 <_ZN8Activity6ErrorsER5PanelR7Carrage+0xf2>
	if(Cursor>=ERRORS_EXIT){Cursor = ERRORS_EXIT;};
    102a:	8e 31       	cpi	r24, 0x1E	; 30
    102c:	10 f0       	brcs	.+4      	; 0x1032 <_ZN8Activity6ErrorsER5PanelR7Carrage+0xf2>
    102e:	8e e1       	ldi	r24, 0x1E	; 30
    1030:	8f 83       	std	Y+7, r24	; 0x07

}
    1032:	01 c0       	rjmp	.+2      	; 0x1036 <_ZN8Activity6ErrorsER5PanelR7Carrage+0xf6>
    1034:	80 e0       	ldi	r24, 0x00	; 0
    1036:	df 91       	pop	r29
    1038:	cf 91       	pop	r28
    103a:	1f 91       	pop	r17
    103c:	0f 91       	pop	r16
    103e:	08 95       	ret

00001040 <_ZN8Activity5ErrorER5PanelR7Carrage>:

bool Activity::Error(Panel &panel, Carrage &carrage){
    1040:	cf 93       	push	r28
    1042:	df 93       	push	r29
    1044:	ec 01       	movw	r28, r24
    1046:	cb 01       	movw	r24, r22
	int pressed = panel.Pressed(100);
    1048:	64 e6       	ldi	r22, 0x64	; 100
    104a:	70 e0       	ldi	r23, 0x00	; 0
    104c:	0e 94 7d 1f 	call	0x3efa	; 0x3efa <_ZN5Panel7PressedEi>
	if (pressed == B_W_UP_){return false;}
    1050:	9c 01       	movw	r18, r24
    1052:	25 50       	subi	r18, 0x05	; 5
    1054:	31 09       	sbc	r19, r1
    1056:	22 30       	cpi	r18, 0x02	; 2
    1058:	31 05       	cpc	r19, r1
    105a:	28 f0       	brcs	.+10     	; 0x1066 <_ZN8Activity5ErrorER5PanelR7Carrage+0x26>
	if (pressed == B_W_DOWN){return false;}
	if (pressed == B_NOTHING ){return false;}
    105c:	01 96       	adiw	r24, 0x01	; 1
    105e:	19 f0       	breq	.+6      	; 0x1066 <_ZN8Activity5ErrorER5PanelR7Carrage+0x26>
	if (!(pressed == B_NOTHING)){Statment=SCREEN_SET_ERRORS;}
    1060:	86 e0       	ldi	r24, 0x06	; 6
    1062:	88 83       	st	Y, r24
	}
    1064:	01 c0       	rjmp	.+2      	; 0x1068 <_ZN8Activity5ErrorER5PanelR7Carrage+0x28>
    1066:	80 e0       	ldi	r24, 0x00	; 0
    1068:	df 91       	pop	r29
    106a:	cf 91       	pop	r28
    106c:	08 95       	ret

0000106e <_ZN8Activity4InitEv>:

void Activity::Init(){
    106e:	cf 93       	push	r28
    1070:	df 93       	push	r29
    1072:	fc 01       	movw	r30, r24
	
	SaveFlag = false;
    1074:	dc 01       	movw	r26, r24
    1076:	aa 56       	subi	r26, 0x6A	; 106
    1078:	bf 4f       	sbci	r27, 0xFF	; 255
    107a:	1c 92       	st	X, r1
	SetFlag = false;
    107c:	11 96       	adiw	r26, 0x01	; 1
    107e:	1c 92       	st	X, r1
	Step = 9;
    1080:	89 e0       	ldi	r24, 0x09	; 9
    1082:	90 e0       	ldi	r25, 0x00	; 0
    1084:	92 83       	std	Z+2, r25	; 0x02
    1086:	81 83       	std	Z+1, r24	; 0x01
	
	Cursor = MENU;
    1088:	17 82       	std	Z+7, r1	; 0x07
	
	Statment = SCREEN_MAIN;
    108a:	10 82       	st	Z, r1
	//cursors map
	Main_Screen_cursor_pathes[MENU][B_LEFT_] = LEFTUP;
    108c:	21 e0       	ldi	r18, 0x01	; 1
    108e:	23 87       	std	Z+11, r18	; 0x0b
	Main_Screen_cursor_pathes[MENU][B_RIGHT] = RIGHTUP;
    1090:	92 e0       	ldi	r25, 0x02	; 2
    1092:	94 87       	std	Z+12, r25	; 0x0c
	Main_Screen_cursor_pathes[MENU][B_UP___] = ACTION_MENU;
    1094:	86 e6       	ldi	r24, 0x66	; 102
    1096:	81 87       	std	Z+9, r24	; 0x09
	Main_Screen_cursor_pathes[MENU][B_DOWN_] = ADJUST;
    1098:	a5 e0       	ldi	r26, 0x05	; 5
    109a:	a2 87       	std	Z+10, r26	; 0x0a
	Main_Screen_cursor_pathes[MENU][B_OK___] = ACTION_MENU;
    109c:	80 87       	std	Z+8, r24	; 0x08
	
	Main_Screen_cursor_pathes[LEFTUP][B_LEFT_] = LEFTUP;
    109e:	21 8b       	std	Z+17, r18	; 0x11
	Main_Screen_cursor_pathes[LEFTUP][B_RIGHT] = MENU;
    10a0:	12 8a       	std	Z+18, r1	; 0x12
	Main_Screen_cursor_pathes[LEFTUP][B_UP___] = LEFTUP;
    10a2:	27 87       	std	Z+15, r18	; 0x0f
	Main_Screen_cursor_pathes[LEFTUP][B_DOWN_] = LEFTDOWN;
    10a4:	34 e0       	ldi	r19, 0x04	; 4
    10a6:	30 8b       	std	Z+16, r19	; 0x10
	Main_Screen_cursor_pathes[LEFTUP][B_OK___] = ACTION_WHEEL;
    10a8:	84 e6       	ldi	r24, 0x64	; 100
    10aa:	86 87       	std	Z+14, r24	; 0x0e
	
	Main_Screen_cursor_pathes[LEFTDOWN][B_LEFT_] = LEFTDOWN;
    10ac:	33 a3       	std	Z+35, r19	; 0x23
	Main_Screen_cursor_pathes[LEFTDOWN][B_RIGHT] = CARRAGE;
    10ae:	56 e0       	ldi	r21, 0x06	; 6
    10b0:	54 a3       	std	Z+36, r21	; 0x24
	Main_Screen_cursor_pathes[LEFTDOWN][B_UP___] = LEFTUP;
    10b2:	21 a3       	std	Z+33, r18	; 0x21
	Main_Screen_cursor_pathes[LEFTDOWN][B_DOWN_] = LEFTDOWN;
    10b4:	32 a3       	std	Z+34, r19	; 0x22
	Main_Screen_cursor_pathes[LEFTDOWN][B_OK___] = ACTION_WHEEL;
    10b6:	80 a3       	std	Z+32, r24	; 0x20
	
	Main_Screen_cursor_pathes[ADJUST][B_LEFT_] = LEFTDOWN;
    10b8:	31 a7       	std	Z+41, r19	; 0x29
	Main_Screen_cursor_pathes[ADJUST][B_RIGHT] = RIGHTDOWN;
    10ba:	43 e0       	ldi	r20, 0x03	; 3
    10bc:	42 a7       	std	Z+42, r20	; 0x2a
	Main_Screen_cursor_pathes[ADJUST][B_UP___] = MENU;
    10be:	17 a2       	std	Z+39, r1	; 0x27
	Main_Screen_cursor_pathes[ADJUST][B_DOWN_] = CARRAGE;
    10c0:	50 a7       	std	Z+40, r21	; 0x28
	Main_Screen_cursor_pathes[ADJUST][B_OK___] = ACTION_ADJUST;
    10c2:	65 e6       	ldi	r22, 0x65	; 101
    10c4:	66 a3       	std	Z+38, r22	; 0x26
	
	Main_Screen_cursor_pathes[RIGHTDOWN][B_LEFT_] = CARRAGE;
    10c6:	55 8f       	std	Z+29, r21	; 0x1d
	Main_Screen_cursor_pathes[RIGHTDOWN][B_RIGHT] = RIGHTDOWN;
    10c8:	46 8f       	std	Z+30, r20	; 0x1e
	Main_Screen_cursor_pathes[RIGHTDOWN][B_UP___] = RIGHTUP;
    10ca:	93 8f       	std	Z+27, r25	; 0x1b
	Main_Screen_cursor_pathes[RIGHTDOWN][B_DOWN_] = RIGHTDOWN;
    10cc:	44 8f       	std	Z+28, r20	; 0x1c
	Main_Screen_cursor_pathes[RIGHTDOWN][B_OK___] = ACTION_WHEEL;
    10ce:	82 8f       	std	Z+26, r24	; 0x1a
	
	Main_Screen_cursor_pathes[RIGHTUP][B_LEFT_] = MENU;
    10d0:	17 8a       	std	Z+23, r1	; 0x17
	Main_Screen_cursor_pathes[RIGHTUP][B_RIGHT] = RIGHTUP;
    10d2:	90 8f       	std	Z+24, r25	; 0x18
	Main_Screen_cursor_pathes[RIGHTUP][B_UP___] = RIGHTUP;
    10d4:	95 8b       	std	Z+21, r25	; 0x15
	Main_Screen_cursor_pathes[RIGHTUP][B_DOWN_] = RIGHTDOWN;
    10d6:	46 8b       	std	Z+22, r20	; 0x16
	Main_Screen_cursor_pathes[RIGHTUP][B_OK___] = ACTION_WHEEL;
    10d8:	84 8b       	std	Z+20, r24	; 0x14
	
	Main_Screen_cursor_pathes[CARRAGE][B_LEFT_] = LEFTDOWN;
    10da:	37 a7       	std	Z+47, r19	; 0x2f
	Main_Screen_cursor_pathes[CARRAGE][B_RIGHT] = RIGHTDOWN;
    10dc:	40 ab       	std	Z+48, r20	; 0x30
	Main_Screen_cursor_pathes[CARRAGE][B_UP___] = ADJUST;
    10de:	a5 a7       	std	Z+45, r26	; 0x2d
	Main_Screen_cursor_pathes[CARRAGE][B_DOWN_] = ACTION_ALL_WHEEL;
    10e0:	82 e7       	ldi	r24, 0x72	; 114
    10e2:	86 a7       	std	Z+46, r24	; 0x2e
	Main_Screen_cursor_pathes[CARRAGE][B_OK___] = ACTION_ALL_WHEEL;
    10e4:	84 a7       	std	Z+44, r24	; 0x2c
	
	//******************************
	//   Menu_Screen_cursor_pathes *
	//   MAIN MENU				   *
	//******************************
	Menu_Screen_cursor_pathes[SAVE][B_LEFT_] = ACTION_MENU_EXIT;
    10e6:	87 e6       	ldi	r24, 0x67	; 103
    10e8:	85 ab       	std	Z+53, r24	; 0x35
	Menu_Screen_cursor_pathes[SAVE][B_RIGHT] = PARKING_SAVE;
    10ea:	36 ab       	std	Z+54, r19	; 0x36
	Menu_Screen_cursor_pathes[SAVE][B_UP___] = SAVE;
    10ec:	13 aa       	std	Z+51, r1	; 0x33
	Menu_Screen_cursor_pathes[SAVE][B_DOWN_] = SETPOSITION;
    10ee:	24 ab       	std	Z+52, r18	; 0x34
	Menu_Screen_cursor_pathes[SAVE][B_OK___] = PARKING_SAVE;
    10f0:	32 ab       	std	Z+50, r19	; 0x32
	
	Menu_Screen_cursor_pathes[SETPOSITION][B_LEFT_] = ACTION_MENU_EXIT;
    10f2:	82 af       	std	Z+58, r24	; 0x3a
	Menu_Screen_cursor_pathes[SETPOSITION][B_RIGHT] = PARKING_SET;
    10f4:	78 e0       	ldi	r23, 0x08	; 8
    10f6:	73 af       	std	Z+59, r23	; 0x3b
	Menu_Screen_cursor_pathes[SETPOSITION][B_UP___] = SAVE;
    10f8:	10 ae       	std	Z+56, r1	; 0x38
	Menu_Screen_cursor_pathes[SETPOSITION][B_DOWN_] = SETTINGS;
    10fa:	91 af       	std	Z+57, r25	; 0x39
	Menu_Screen_cursor_pathes[SETPOSITION][B_OK___] = PARKING_SET;
    10fc:	77 ab       	std	Z+55, r23	; 0x37
	
	Menu_Screen_cursor_pathes[SETTINGS][B_LEFT_] = ACTION_MENU_EXIT;
    10fe:	87 af       	std	Z+63, r24	; 0x3f
	Menu_Screen_cursor_pathes[SETTINGS][B_RIGHT] = SETTINGS_TUNING;
    1100:	ef 01       	movw	r28, r30
    1102:	c0 5c       	subi	r28, 0xC0	; 192
    1104:	df 4f       	sbci	r29, 0xFF	; 255
    1106:	6c e0       	ldi	r22, 0x0C	; 12
    1108:	68 83       	st	Y, r22
	Menu_Screen_cursor_pathes[SETTINGS][B_UP___] = SETPOSITION;
    110a:	25 af       	std	Z+61, r18	; 0x3d
	Menu_Screen_cursor_pathes[SETTINGS][B_DOWN_] = EXIT_1;
    110c:	46 af       	std	Z+62, r20	; 0x3e
	Menu_Screen_cursor_pathes[SETTINGS][B_OK___] = SETTINGS_TUNING;
    110e:	64 af       	std	Z+60, r22	; 0x3c
	
	Menu_Screen_cursor_pathes[EXIT_1][B_LEFT_] = ACTION_MENU_EXIT;
    1110:	24 96       	adiw	r28, 0x04	; 4
    1112:	88 83       	st	Y, r24
	Menu_Screen_cursor_pathes[EXIT_1][B_RIGHT] = ACTION_MENU_EXIT;
    1114:	21 96       	adiw	r28, 0x01	; 1
    1116:	88 83       	st	Y, r24
	Menu_Screen_cursor_pathes[EXIT_1][B_UP___] = SETTINGS;
    1118:	23 97       	sbiw	r28, 0x03	; 3
    111a:	98 83       	st	Y, r25
	Menu_Screen_cursor_pathes[EXIT_1][B_DOWN_] = EXIT_1;
    111c:	21 96       	adiw	r28, 0x01	; 1
    111e:	48 83       	st	Y, r20
	Menu_Screen_cursor_pathes[EXIT_1][B_OK___] = ACTION_MENU_EXIT;
    1120:	22 97       	sbiw	r28, 0x02	; 2
    1122:	88 83       	st	Y, r24
	//*************
	//* SAVE      *
	//*************
	Menu_Screen_cursor_pathes[PARKING_SAVE][B_LEFT_] = SAVE;
    1124:	28 96       	adiw	r28, 0x08	; 8
    1126:	18 82       	st	Y, r1
	Menu_Screen_cursor_pathes[PARKING_SAVE][B_RIGHT] = ACTION_PARKING_SAVE;
    1128:	21 96       	adiw	r28, 0x01	; 1
    112a:	48 e6       	ldi	r20, 0x68	; 104
    112c:	48 83       	st	Y, r20
	Menu_Screen_cursor_pathes[PARKING_SAVE][B_UP___] = PARKING_SAVE;
    112e:	23 97       	sbiw	r28, 0x03	; 3
    1130:	38 83       	st	Y, r19
	Menu_Screen_cursor_pathes[PARKING_SAVE][B_DOWN_] = HIGHTPOSITION_SAVE;
    1132:	21 96       	adiw	r28, 0x01	; 1
    1134:	a8 83       	st	Y, r26
	Menu_Screen_cursor_pathes[PARKING_SAVE][B_OK___] = ACTION_PARKING_SAVE;
    1136:	22 97       	sbiw	r28, 0x02	; 2
    1138:	48 83       	st	Y, r20
	
	Menu_Screen_cursor_pathes[HIGHTPOSITION_SAVE][B_LEFT_] = SAVE;
    113a:	28 96       	adiw	r28, 0x08	; 8
    113c:	18 82       	st	Y, r1
	Menu_Screen_cursor_pathes[HIGHTPOSITION_SAVE][B_RIGHT] = ACTION_HIGHTPOSITION_SAVE;
    113e:	21 96       	adiw	r28, 0x01	; 1
    1140:	49 e6       	ldi	r20, 0x69	; 105
    1142:	48 83       	st	Y, r20
	Menu_Screen_cursor_pathes[HIGHTPOSITION_SAVE][B_UP___] = PARKING_SAVE;
    1144:	23 97       	sbiw	r28, 0x03	; 3
    1146:	38 83       	st	Y, r19
	Menu_Screen_cursor_pathes[HIGHTPOSITION_SAVE][B_DOWN_] = LOWPOSITION_SAVE;
    1148:	21 96       	adiw	r28, 0x01	; 1
    114a:	58 83       	st	Y, r21
	Menu_Screen_cursor_pathes[HIGHTPOSITION_SAVE][B_OK___] = ACTION_HIGHTPOSITION_SAVE;
    114c:	22 97       	sbiw	r28, 0x02	; 2
    114e:	48 83       	st	Y, r20
	
	Menu_Screen_cursor_pathes[LOWPOSITION_SAVE][B_LEFT_] = SAVE;
    1150:	28 96       	adiw	r28, 0x08	; 8
    1152:	18 82       	st	Y, r1
	Menu_Screen_cursor_pathes[LOWPOSITION_SAVE][B_RIGHT] = ACTION_LOWPOSITION_SAVE;
    1154:	21 96       	adiw	r28, 0x01	; 1
    1156:	4a e6       	ldi	r20, 0x6A	; 106
    1158:	48 83       	st	Y, r20
	Menu_Screen_cursor_pathes[LOWPOSITION_SAVE][B_UP___] = HIGHTPOSITION_SAVE;
    115a:	23 97       	sbiw	r28, 0x03	; 3
    115c:	a8 83       	st	Y, r26
	Menu_Screen_cursor_pathes[LOWPOSITION_SAVE][B_DOWN_] = EXIT_SAVE;
    115e:	df 01       	movw	r26, r30
    1160:	ae 5a       	subi	r26, 0xAE	; 174
    1162:	bf 4f       	sbci	r27, 0xFF	; 255
    1164:	37 e0       	ldi	r19, 0x07	; 7
    1166:	3c 93       	st	X, r19
	Menu_Screen_cursor_pathes[LOWPOSITION_SAVE][B_OK___] = ACTION_LOWPOSITION_SAVE;
    1168:	12 97       	sbiw	r26, 0x02	; 2
    116a:	4c 93       	st	X, r20
	
	Menu_Screen_cursor_pathes[EXIT_SAVE][B_LEFT_] = SAVE;
    116c:	18 96       	adiw	r26, 0x08	; 8
    116e:	1c 92       	st	X, r1
	Menu_Screen_cursor_pathes[EXIT_SAVE][B_RIGHT] = ACTION_MENU_EXIT;
    1170:	11 96       	adiw	r26, 0x01	; 1
    1172:	8c 93       	st	X, r24
	Menu_Screen_cursor_pathes[EXIT_SAVE][B_UP___] = LOWPOSITION_SAVE;
    1174:	13 97       	sbiw	r26, 0x03	; 3
    1176:	5c 93       	st	X, r21
	Menu_Screen_cursor_pathes[EXIT_SAVE][B_DOWN_] = EXIT_SAVE;
    1178:	11 96       	adiw	r26, 0x01	; 1
    117a:	3c 93       	st	X, r19
	Menu_Screen_cursor_pathes[EXIT_SAVE][B_OK___] = ACTION_MENU_EXIT;
    117c:	12 97       	sbiw	r26, 0x02	; 2
    117e:	8c 93       	st	X, r24
	//*************
	//* SET       *
	//*************
	Menu_Screen_cursor_pathes[PARKING_SET][B_LEFT_] = SETPOSITION;
    1180:	18 96       	adiw	r26, 0x08	; 8
    1182:	2c 93       	st	X, r18
	Menu_Screen_cursor_pathes[PARKING_SET][B_RIGHT] = ACTION_PARKING_SET;
    1184:	11 96       	adiw	r26, 0x01	; 1
    1186:	4b e6       	ldi	r20, 0x6B	; 107
    1188:	4c 93       	st	X, r20
	Menu_Screen_cursor_pathes[PARKING_SET][B_UP___] = PARKING_SET;
    118a:	13 97       	sbiw	r26, 0x03	; 3
    118c:	7c 93       	st	X, r23
	Menu_Screen_cursor_pathes[PARKING_SET][B_DOWN_] = HIGHTPOSITION_SET;
    118e:	11 96       	adiw	r26, 0x01	; 1
    1190:	39 e0       	ldi	r19, 0x09	; 9
    1192:	3c 93       	st	X, r19
	Menu_Screen_cursor_pathes[PARKING_SET][B_OK___] = ACTION_PARKING_SET;
    1194:	12 97       	sbiw	r26, 0x02	; 2
    1196:	4c 93       	st	X, r20
	
	Menu_Screen_cursor_pathes[HIGHTPOSITION_SET][B_LEFT_] = SETPOSITION;
    1198:	18 96       	adiw	r26, 0x08	; 8
    119a:	2c 93       	st	X, r18
	Menu_Screen_cursor_pathes[HIGHTPOSITION_SET][B_RIGHT] = ACTION_HIGHTPOSITION_SET;
    119c:	11 96       	adiw	r26, 0x01	; 1
    119e:	5c e6       	ldi	r21, 0x6C	; 108
    11a0:	5c 93       	st	X, r21
	Menu_Screen_cursor_pathes[HIGHTPOSITION_SET][B_UP___] = PARKING_SET;
    11a2:	13 97       	sbiw	r26, 0x03	; 3
    11a4:	7c 93       	st	X, r23
	Menu_Screen_cursor_pathes[HIGHTPOSITION_SET][B_DOWN_] = LOWPOSITION_SET;
    11a6:	11 96       	adiw	r26, 0x01	; 1
    11a8:	4a e0       	ldi	r20, 0x0A	; 10
    11aa:	4c 93       	st	X, r20
	Menu_Screen_cursor_pathes[HIGHTPOSITION_SET][B_OK___] = ACTION_HIGHTPOSITION_SET;
    11ac:	12 97       	sbiw	r26, 0x02	; 2
    11ae:	5c 93       	st	X, r21
	
	Menu_Screen_cursor_pathes[LOWPOSITION_SET][B_LEFT_] = SETPOSITION;
    11b0:	18 96       	adiw	r26, 0x08	; 8
    11b2:	2c 93       	st	X, r18
	Menu_Screen_cursor_pathes[LOWPOSITION_SET][B_RIGHT] = ACTION_LOWPOSITION_SET;
    11b4:	11 96       	adiw	r26, 0x01	; 1
    11b6:	5d e6       	ldi	r21, 0x6D	; 109
    11b8:	5c 93       	st	X, r21
	Menu_Screen_cursor_pathes[LOWPOSITION_SET][B_UP___] = HIGHTPOSITION_SET;
    11ba:	13 97       	sbiw	r26, 0x03	; 3
    11bc:	3c 93       	st	X, r19
	Menu_Screen_cursor_pathes[LOWPOSITION_SET][B_DOWN_] = EXIT_SET;
    11be:	11 96       	adiw	r26, 0x01	; 1
    11c0:	3b e0       	ldi	r19, 0x0B	; 11
    11c2:	3c 93       	st	X, r19
	Menu_Screen_cursor_pathes[LOWPOSITION_SET][B_OK___] = ACTION_LOWPOSITION_SET;
    11c4:	12 97       	sbiw	r26, 0x02	; 2
    11c6:	5c 93       	st	X, r21
	
	Menu_Screen_cursor_pathes[EXIT_SET][B_LEFT_] = SETPOSITION;
    11c8:	18 96       	adiw	r26, 0x08	; 8
    11ca:	2c 93       	st	X, r18
	Menu_Screen_cursor_pathes[EXIT_SET][B_RIGHT] = ACTION_MENU_EXIT;
    11cc:	11 96       	adiw	r26, 0x01	; 1
    11ce:	8c 93       	st	X, r24
	Menu_Screen_cursor_pathes[EXIT_SET][B_UP___] = LOWPOSITION_SET;
    11d0:	13 97       	sbiw	r26, 0x03	; 3
    11d2:	4c 93       	st	X, r20
	Menu_Screen_cursor_pathes[EXIT_SET][B_DOWN_] = EXIT_SET;
    11d4:	11 96       	adiw	r26, 0x01	; 1
    11d6:	3c 93       	st	X, r19
	Menu_Screen_cursor_pathes[EXIT_SET][B_OK___] = ACTION_MENU_EXIT;
    11d8:	12 97       	sbiw	r26, 0x02	; 2
    11da:	8c 93       	st	X, r24
	//*************
	//* SETTINGS  *
	//*************
	Menu_Screen_cursor_pathes[SETTINGS_TUNING][B_LEFT_] = SETTINGS;
    11dc:	18 96       	adiw	r26, 0x08	; 8
    11de:	9c 93       	st	X, r25
	Menu_Screen_cursor_pathes[SETTINGS_TUNING][B_RIGHT] = ACTION_TUNING_SET;
    11e0:	11 96       	adiw	r26, 0x01	; 1
    11e2:	2e e6       	ldi	r18, 0x6E	; 110
    11e4:	2c 93       	st	X, r18
	Menu_Screen_cursor_pathes[SETTINGS_TUNING][B_UP___] = SETTINGS_TUNING;
    11e6:	13 97       	sbiw	r26, 0x03	; 3
    11e8:	6c 93       	st	X, r22
	Menu_Screen_cursor_pathes[SETTINGS_TUNING][B_DOWN_] = SETTINGS_LIMITS;
    11ea:	11 96       	adiw	r26, 0x01	; 1
    11ec:	3d e0       	ldi	r19, 0x0D	; 13
    11ee:	3c 93       	st	X, r19
	Menu_Screen_cursor_pathes[SETTINGS_TUNING][B_OK___] = ACTION_TUNING_SET;
    11f0:	12 97       	sbiw	r26, 0x02	; 2
    11f2:	2c 93       	st	X, r18
	
	Menu_Screen_cursor_pathes[SETTINGS_LIMITS][B_LEFT_] = SETTINGS;
    11f4:	18 96       	adiw	r26, 0x08	; 8
    11f6:	9c 93       	st	X, r25
	Menu_Screen_cursor_pathes[SETTINGS_LIMITS][B_RIGHT] = ACTION_LIMITS_SET;
    11f8:	11 96       	adiw	r26, 0x01	; 1
    11fa:	4f e6       	ldi	r20, 0x6F	; 111
    11fc:	4c 93       	st	X, r20
	Menu_Screen_cursor_pathes[SETTINGS_LIMITS][B_UP___] = SETTINGS_TUNING;
    11fe:	13 97       	sbiw	r26, 0x03	; 3
    1200:	6c 93       	st	X, r22
	Menu_Screen_cursor_pathes[SETTINGS_LIMITS][B_DOWN_] = SETTINGS_TEST_MALFACTION;
    1202:	11 96       	adiw	r26, 0x01	; 1
    1204:	2e e0       	ldi	r18, 0x0E	; 14
    1206:	2c 93       	st	X, r18
	Menu_Screen_cursor_pathes[SETTINGS_LIMITS][B_OK___] = ACTION_LIMITS_SET;
    1208:	12 97       	sbiw	r26, 0x02	; 2
    120a:	4c 93       	st	X, r20
	
	Menu_Screen_cursor_pathes[SETTINGS_TEST_MALFACTION][B_LEFT_] = SETTINGS;
    120c:	18 96       	adiw	r26, 0x08	; 8
    120e:	9c 93       	st	X, r25
	Menu_Screen_cursor_pathes[SETTINGS_TEST_MALFACTION][B_RIGHT] = ACTION_TEST_MALFACTION;
    1210:	11 96       	adiw	r26, 0x01	; 1
    1212:	40 e7       	ldi	r20, 0x70	; 112
    1214:	4c 93       	st	X, r20
	Menu_Screen_cursor_pathes[SETTINGS_TEST_MALFACTION][B_UP___] = SETTINGS_LIMITS;
    1216:	13 97       	sbiw	r26, 0x03	; 3
    1218:	3c 93       	st	X, r19
	Menu_Screen_cursor_pathes[SETTINGS_TEST_MALFACTION][B_DOWN_] = SETTINGS_RESET_ERRORS;
    121a:	11 96       	adiw	r26, 0x01	; 1
    121c:	3f e0       	ldi	r19, 0x0F	; 15
    121e:	3c 93       	st	X, r19
	Menu_Screen_cursor_pathes[SETTINGS_TEST_MALFACTION][B_OK___] = ACTION_TEST_MALFACTION;
    1220:	12 97       	sbiw	r26, 0x02	; 2
    1222:	4c 93       	st	X, r20
	
	Menu_Screen_cursor_pathes[SETTINGS_RESET_ERRORS][B_LEFT_] = SETTINGS;
    1224:	18 96       	adiw	r26, 0x08	; 8
    1226:	9c 93       	st	X, r25
	Menu_Screen_cursor_pathes[SETTINGS_RESET_ERRORS][B_RIGHT] = ACTION_ERRORS;
    1228:	11 96       	adiw	r26, 0x01	; 1
    122a:	41 e7       	ldi	r20, 0x71	; 113
    122c:	4c 93       	st	X, r20
	Menu_Screen_cursor_pathes[SETTINGS_RESET_ERRORS][B_UP___] = SETTINGS_TEST_MALFACTION;
    122e:	13 97       	sbiw	r26, 0x03	; 3
    1230:	2c 93       	st	X, r18
	Menu_Screen_cursor_pathes[SETTINGS_RESET_ERRORS][B_DOWN_] = SETTINGS_EXIT;
    1232:	11 96       	adiw	r26, 0x01	; 1
    1234:	20 e1       	ldi	r18, 0x10	; 16
    1236:	2c 93       	st	X, r18
	Menu_Screen_cursor_pathes[SETTINGS_RESET_ERRORS][B_OK___] = ACTION_ERRORS;
    1238:	12 97       	sbiw	r26, 0x02	; 2
    123a:	4c 93       	st	X, r20
	
	Menu_Screen_cursor_pathes[SETTINGS_EXIT][B_LEFT_] = SETTINGS;
    123c:	18 96       	adiw	r26, 0x08	; 8
    123e:	9c 93       	st	X, r25
	Menu_Screen_cursor_pathes[SETTINGS_EXIT][B_RIGHT] = ACTION_MENU_EXIT;
    1240:	11 96       	adiw	r26, 0x01	; 1
    1242:	8c 93       	st	X, r24
	Menu_Screen_cursor_pathes[SETTINGS_EXIT][B_UP___] = SETTINGS_RESET_ERRORS;
    1244:	13 97       	sbiw	r26, 0x03	; 3
    1246:	3c 93       	st	X, r19
	Menu_Screen_cursor_pathes[SETTINGS_EXIT][B_DOWN_] = SETTINGS_EXIT;
    1248:	11 96       	adiw	r26, 0x01	; 1
    124a:	2c 93       	st	X, r18
	Menu_Screen_cursor_pathes[SETTINGS_EXIT][B_OK___] = ACTION_MENU_EXIT;
    124c:	ee 57       	subi	r30, 0x7E	; 126
    124e:	ff 4f       	sbci	r31, 0xFF	; 255
    1250:	80 83       	st	Z, r24
}
    1252:	df 91       	pop	r29
    1254:	cf 91       	pop	r28
    1256:	08 95       	ret

00001258 <_ZN8Activity11SelectWheelER7Carrage>:

void Activity::SelectWheel(Carrage &carrage){
	switch(Cursor){
    1258:	fc 01       	movw	r30, r24
    125a:	87 81       	ldd	r24, Z+7	; 0x07
    125c:	82 30       	cpi	r24, 0x02	; 2
    125e:	69 f0       	breq	.+26     	; 0x127a <_ZN8Activity11SelectWheelER7Carrage+0x22>
    1260:	18 f4       	brcc	.+6      	; 0x1268 <_ZN8Activity11SelectWheelER7Carrage+0x10>
    1262:	81 30       	cpi	r24, 0x01	; 1
    1264:	31 f0       	breq	.+12     	; 0x1272 <_ZN8Activity11SelectWheelER7Carrage+0x1a>
    1266:	08 95       	ret
    1268:	83 30       	cpi	r24, 0x03	; 3
    126a:	61 f0       	breq	.+24     	; 0x1284 <_ZN8Activity11SelectWheelER7Carrage+0x2c>
    126c:	84 30       	cpi	r24, 0x04	; 4
    126e:	81 f0       	breq	.+32     	; 0x1290 <_ZN8Activity11SelectWheelER7Carrage+0x38>
    1270:	08 95       	ret
		case(LEFTUP): carrage.Wheel_1.Select(); break;
    1272:	cb 01       	movw	r24, r22
    1274:	0e 94 80 22 	call	0x4500	; 0x4500 <_ZN5Wheel6SelectEv>
    1278:	08 95       	ret
		case(RIGHTUP): carrage.Wheel_2.Select(); break;
    127a:	cb 01       	movw	r24, r22
    127c:	8b 96       	adiw	r24, 0x2b	; 43
    127e:	0e 94 80 22 	call	0x4500	; 0x4500 <_ZN5Wheel6SelectEv>
    1282:	08 95       	ret
		case(RIGHTDOWN): carrage.Wheel_3.Select(); break;
    1284:	cb 01       	movw	r24, r22
    1286:	8a 5a       	subi	r24, 0xAA	; 170
    1288:	9f 4f       	sbci	r25, 0xFF	; 255
    128a:	0e 94 80 22 	call	0x4500	; 0x4500 <_ZN5Wheel6SelectEv>
    128e:	08 95       	ret
		case(LEFTDOWN): carrage.Wheel_4.Select(); break;
    1290:	cb 01       	movw	r24, r22
    1292:	8f 57       	subi	r24, 0x7F	; 127
    1294:	9f 4f       	sbci	r25, 0xFF	; 255
    1296:	0e 94 80 22 	call	0x4500	; 0x4500 <_ZN5Wheel6SelectEv>
    129a:	08 95       	ret

0000129c <_ZN8Activity4SaveEv>:
	}
}

void Activity::Save(){
	SaveFlag = true; //For set position in EEMEM
    129c:	fc 01       	movw	r30, r24
    129e:	ea 56       	subi	r30, 0x6A	; 106
    12a0:	ff 4f       	sbci	r31, 0xFF	; 255
    12a2:	21 e0       	ldi	r18, 0x01	; 1
    12a4:	20 83       	st	Z, r18
	switch(Cursor){
    12a6:	fc 01       	movw	r30, r24
    12a8:	27 81       	ldd	r18, Z+7	; 0x07
    12aa:	25 30       	cpi	r18, 0x05	; 5
    12ac:	41 f0       	breq	.+16     	; 0x12be <_ZN8Activity4SaveEv+0x22>
    12ae:	26 30       	cpi	r18, 0x06	; 6
    12b0:	61 f0       	breq	.+24     	; 0x12ca <_ZN8Activity4SaveEv+0x2e>
    12b2:	24 30       	cpi	r18, 0x04	; 4
    12b4:	79 f4       	brne	.+30     	; 0x12d4 <_ZN8Activity4SaveEv+0x38>
		case(PARKING_SAVE):SavePosition = 0;break;
    12b6:	e7 56       	subi	r30, 0x67	; 103
    12b8:	ff 4f       	sbci	r31, 0xFF	; 255
    12ba:	10 82       	st	Z, r1
    12bc:	0b c0       	rjmp	.+22     	; 0x12d4 <_ZN8Activity4SaveEv+0x38>
		case(HIGHTPOSITION_SAVE):SavePosition = 1;break;
    12be:	21 e0       	ldi	r18, 0x01	; 1
    12c0:	fc 01       	movw	r30, r24
    12c2:	e7 56       	subi	r30, 0x67	; 103
    12c4:	ff 4f       	sbci	r31, 0xFF	; 255
    12c6:	20 83       	st	Z, r18
    12c8:	05 c0       	rjmp	.+10     	; 0x12d4 <_ZN8Activity4SaveEv+0x38>
		case(LOWPOSITION_SAVE):SavePosition = 2;break;
    12ca:	22 e0       	ldi	r18, 0x02	; 2
    12cc:	fc 01       	movw	r30, r24
    12ce:	e7 56       	subi	r30, 0x67	; 103
    12d0:	ff 4f       	sbci	r31, 0xFF	; 255
    12d2:	20 83       	st	Z, r18
	}
	Statment=SCREEN_MESSAGE;
    12d4:	28 e0       	ldi	r18, 0x08	; 8
    12d6:	fc 01       	movw	r30, r24
    12d8:	20 83       	st	Z, r18
    12da:	08 95       	ret

000012dc <_ZN8Activity12Get_val_stepEv>:
}

float Activity::Get_val_step(){
	return pgm_read_float (&(Steps[Step]));
    12dc:	dc 01       	movw	r26, r24
    12de:	11 96       	adiw	r26, 0x01	; 1
    12e0:	ed 91       	ld	r30, X+
    12e2:	fc 91       	ld	r31, X
    12e4:	12 97       	sbiw	r26, 0x02	; 2
    12e6:	ee 0f       	add	r30, r30
    12e8:	ff 1f       	adc	r31, r31
    12ea:	ee 0f       	add	r30, r30
    12ec:	ff 1f       	adc	r31, r31
    12ee:	ec 52       	subi	r30, 0x2C	; 44
    12f0:	ff 4f       	sbci	r31, 0xFF	; 255
    12f2:	65 91       	lpm	r22, Z+
    12f4:	75 91       	lpm	r23, Z+
    12f6:	85 91       	lpm	r24, Z+
    12f8:	94 91       	lpm	r25, Z
}
    12fa:	08 95       	ret

000012fc <_ZN8Activity3SetEv>:

void  Activity::Set(){
    12fc:	fc 01       	movw	r30, r24
	SetFlag = true; //For set position in EEMEM and start adjastment there.
    12fe:	dc 01       	movw	r26, r24
    1300:	a9 56       	subi	r26, 0x69	; 105
    1302:	bf 4f       	sbci	r27, 0xFF	; 255
    1304:	81 e0       	ldi	r24, 0x01	; 1
    1306:	8c 93       	st	X, r24
	switch(Cursor){
    1308:	87 81       	ldd	r24, Z+7	; 0x07
    130a:	89 30       	cpi	r24, 0x09	; 9
    130c:	39 f0       	breq	.+14     	; 0x131c <_ZN8Activity3SetEv+0x20>
    130e:	8a 30       	cpi	r24, 0x0A	; 10
    1310:	59 f0       	breq	.+22     	; 0x1328 <_ZN8Activity3SetEv+0x2c>
    1312:	88 30       	cpi	r24, 0x08	; 8
    1314:	71 f4       	brne	.+28     	; 0x1332 <_ZN8Activity3SetEv+0x36>
		case(PARKING_SET):SavePosition = 0;break;
    1316:	12 96       	adiw	r26, 0x02	; 2
    1318:	1c 92       	st	X, r1
    131a:	0b c0       	rjmp	.+22     	; 0x1332 <_ZN8Activity3SetEv+0x36>
		case(HIGHTPOSITION_SET):SavePosition = 1;break;
    131c:	81 e0       	ldi	r24, 0x01	; 1
    131e:	df 01       	movw	r26, r30
    1320:	a7 56       	subi	r26, 0x67	; 103
    1322:	bf 4f       	sbci	r27, 0xFF	; 255
    1324:	8c 93       	st	X, r24
    1326:	05 c0       	rjmp	.+10     	; 0x1332 <_ZN8Activity3SetEv+0x36>
		case(LOWPOSITION_SET):SavePosition = 2;break;
    1328:	82 e0       	ldi	r24, 0x02	; 2
    132a:	df 01       	movw	r26, r30
    132c:	a7 56       	subi	r26, 0x67	; 103
    132e:	bf 4f       	sbci	r27, 0xFF	; 255
    1330:	8c 93       	st	X, r24
	}
	Statment=SCREEN_ADJUST;
    1332:	82 e0       	ldi	r24, 0x02	; 2
    1334:	80 83       	st	Z, r24
	Cursor = MENU;
    1336:	17 82       	std	Z+7, r1	; 0x07
    1338:	08 95       	ret

0000133a <_ZN8Activity16Menu_Screen_MoveER5PanelR7Carrage>:
	}
	if (Step <= 0){Step=0;}
	if (Step >= 19){Step=19;}
}

bool Activity::Menu_Screen_Move(Panel &panel, Carrage &carrage){
    133a:	0f 93       	push	r16
    133c:	1f 93       	push	r17
    133e:	cf 93       	push	r28
    1340:	df 93       	push	r29
    1342:	ec 01       	movw	r28, r24
    1344:	8b 01       	movw	r16, r22
    1346:	ca 01       	movw	r24, r20
	carrage.ControlMalfinction();
    1348:	0e 94 c5 11 	call	0x238a	; 0x238a <_ZN7Carrage18ControlMalfinctionEv>
	int move = panel.Pressed(100);
    134c:	64 e6       	ldi	r22, 0x64	; 100
    134e:	70 e0       	ldi	r23, 0x00	; 0
    1350:	c8 01       	movw	r24, r16
    1352:	0e 94 7d 1f 	call	0x3efa	; 0x3efa <_ZN5Panel7PressedEi>
    1356:	ac 01       	movw	r20, r24
	int next;
	if (move == B_W_UP_){return false;}
    1358:	05 97       	sbiw	r24, 0x05	; 5
    135a:	02 97       	sbiw	r24, 0x02	; 2
    135c:	08 f4       	brcc	.+2      	; 0x1360 <_ZN8Activity16Menu_Screen_MoveER5PanelR7Carrage+0x26>
    135e:	5e c0       	rjmp	.+188    	; 0x141c <_ZN8Activity16Menu_Screen_MoveER5PanelR7Carrage+0xe2>
	if (move == B_W_DOWN){return false;}
	if (move == B_NOTHING ){return false;}
    1360:	4f 3f       	cpi	r20, 0xFF	; 255
    1362:	8f ef       	ldi	r24, 0xFF	; 255
    1364:	58 07       	cpc	r21, r24
    1366:	09 f4       	brne	.+2      	; 0x136a <_ZN8Activity16Menu_Screen_MoveER5PanelR7Carrage+0x30>
    1368:	5b c0       	rjmp	.+182    	; 0x1420 <_ZN8Activity16Menu_Screen_MoveER5PanelR7Carrage+0xe6>
	next = Menu_Screen_cursor_pathes[Cursor][move];
    136a:	9f 81       	ldd	r25, Y+7	; 0x07
    136c:	29 2f       	mov	r18, r25
    136e:	30 e0       	ldi	r19, 0x00	; 0
    1370:	c9 01       	movw	r24, r18
    1372:	88 0f       	add	r24, r24
    1374:	99 1f       	adc	r25, r25
    1376:	88 0f       	add	r24, r24
    1378:	99 1f       	adc	r25, r25
    137a:	28 0f       	add	r18, r24
    137c:	39 1f       	adc	r19, r25
    137e:	2c 0f       	add	r18, r28
    1380:	3d 1f       	adc	r19, r29
    1382:	f9 01       	movw	r30, r18
    1384:	e4 0f       	add	r30, r20
    1386:	f5 1f       	adc	r31, r21
    1388:	22 a9       	ldd	r18, Z+50	; 0x32
	switch(next){
    138a:	82 2f       	mov	r24, r18
    138c:	90 e0       	ldi	r25, 0x00	; 0
    138e:	fc 01       	movw	r30, r24
    1390:	e7 56       	subi	r30, 0x67	; 103
    1392:	f1 09       	sbc	r31, r1
    1394:	eb 30       	cpi	r30, 0x0B	; 11
    1396:	f1 05       	cpc	r31, r1
    1398:	f0 f5       	brcc	.+124    	; 0x1416 <_ZN8Activity16Menu_Screen_MoveER5PanelR7Carrage+0xdc>
    139a:	ec 5c       	subi	r30, 0xCC	; 204
    139c:	ff 4f       	sbci	r31, 0xFF	; 255
    139e:	0c 94 35 25 	jmp	0x4a6a	; 0x4a6a <__tablejump2__>
		case (ACTION_MENU_EXIT):Statment=SCREEN_MAIN;Cursor = MENU;break;
    13a2:	18 82       	st	Y, r1
    13a4:	1f 82       	std	Y+7, r1	; 0x07
		case (ACTION_LIMITS_SET):Statment = SCREEN_LIMITS;Cursor = LIMITS_MIN;break;
		case (ACTION_TEST_MALFACTION):Statment = SCREEN_SET_MALFACTION;Cursor = TIME_MALFACTION;break;
		case (ACTION_ERRORS):Statment = SCREEN_SET_ERRORS;Cursor = ERRORS_RESET;break;
		default: Cursor = next;break;
	}
	return true;
    13a6:	81 e0       	ldi	r24, 0x01	; 1
	if (move == B_W_UP_){return false;}
	if (move == B_W_DOWN){return false;}
	if (move == B_NOTHING ){return false;}
	next = Menu_Screen_cursor_pathes[Cursor][move];
	switch(next){
		case (ACTION_MENU_EXIT):Statment=SCREEN_MAIN;Cursor = MENU;break;
    13a8:	3c c0       	rjmp	.+120    	; 0x1422 <_ZN8Activity16Menu_Screen_MoveER5PanelR7Carrage+0xe8>
		case (ACTION_PARKING_SAVE):Save();break;
    13aa:	ce 01       	movw	r24, r28
    13ac:	0e 94 4e 09 	call	0x129c	; 0x129c <_ZN8Activity4SaveEv>
		case (ACTION_LIMITS_SET):Statment = SCREEN_LIMITS;Cursor = LIMITS_MIN;break;
		case (ACTION_TEST_MALFACTION):Statment = SCREEN_SET_MALFACTION;Cursor = TIME_MALFACTION;break;
		case (ACTION_ERRORS):Statment = SCREEN_SET_ERRORS;Cursor = ERRORS_RESET;break;
		default: Cursor = next;break;
	}
	return true;
    13b0:	81 e0       	ldi	r24, 0x01	; 1
	if (move == B_W_DOWN){return false;}
	if (move == B_NOTHING ){return false;}
	next = Menu_Screen_cursor_pathes[Cursor][move];
	switch(next){
		case (ACTION_MENU_EXIT):Statment=SCREEN_MAIN;Cursor = MENU;break;
		case (ACTION_PARKING_SAVE):Save();break;
    13b2:	37 c0       	rjmp	.+110    	; 0x1422 <_ZN8Activity16Menu_Screen_MoveER5PanelR7Carrage+0xe8>
		case (ACTION_HIGHTPOSITION_SAVE):Save();break;
    13b4:	ce 01       	movw	r24, r28
    13b6:	0e 94 4e 09 	call	0x129c	; 0x129c <_ZN8Activity4SaveEv>
		case (ACTION_LIMITS_SET):Statment = SCREEN_LIMITS;Cursor = LIMITS_MIN;break;
		case (ACTION_TEST_MALFACTION):Statment = SCREEN_SET_MALFACTION;Cursor = TIME_MALFACTION;break;
		case (ACTION_ERRORS):Statment = SCREEN_SET_ERRORS;Cursor = ERRORS_RESET;break;
		default: Cursor = next;break;
	}
	return true;
    13ba:	81 e0       	ldi	r24, 0x01	; 1
	if (move == B_NOTHING ){return false;}
	next = Menu_Screen_cursor_pathes[Cursor][move];
	switch(next){
		case (ACTION_MENU_EXIT):Statment=SCREEN_MAIN;Cursor = MENU;break;
		case (ACTION_PARKING_SAVE):Save();break;
		case (ACTION_HIGHTPOSITION_SAVE):Save();break;
    13bc:	32 c0       	rjmp	.+100    	; 0x1422 <_ZN8Activity16Menu_Screen_MoveER5PanelR7Carrage+0xe8>
		case (ACTION_LOWPOSITION_SAVE):Save();break;
    13be:	ce 01       	movw	r24, r28
    13c0:	0e 94 4e 09 	call	0x129c	; 0x129c <_ZN8Activity4SaveEv>
		case (ACTION_LIMITS_SET):Statment = SCREEN_LIMITS;Cursor = LIMITS_MIN;break;
		case (ACTION_TEST_MALFACTION):Statment = SCREEN_SET_MALFACTION;Cursor = TIME_MALFACTION;break;
		case (ACTION_ERRORS):Statment = SCREEN_SET_ERRORS;Cursor = ERRORS_RESET;break;
		default: Cursor = next;break;
	}
	return true;
    13c4:	81 e0       	ldi	r24, 0x01	; 1
	next = Menu_Screen_cursor_pathes[Cursor][move];
	switch(next){
		case (ACTION_MENU_EXIT):Statment=SCREEN_MAIN;Cursor = MENU;break;
		case (ACTION_PARKING_SAVE):Save();break;
		case (ACTION_HIGHTPOSITION_SAVE):Save();break;
		case (ACTION_LOWPOSITION_SAVE):Save();break;
    13c6:	2d c0       	rjmp	.+90     	; 0x1422 <_ZN8Activity16Menu_Screen_MoveER5PanelR7Carrage+0xe8>
		case (ACTION_PARKING_SET):Set();break;
    13c8:	ce 01       	movw	r24, r28
    13ca:	0e 94 7e 09 	call	0x12fc	; 0x12fc <_ZN8Activity3SetEv>
		case (ACTION_LIMITS_SET):Statment = SCREEN_LIMITS;Cursor = LIMITS_MIN;break;
		case (ACTION_TEST_MALFACTION):Statment = SCREEN_SET_MALFACTION;Cursor = TIME_MALFACTION;break;
		case (ACTION_ERRORS):Statment = SCREEN_SET_ERRORS;Cursor = ERRORS_RESET;break;
		default: Cursor = next;break;
	}
	return true;
    13ce:	81 e0       	ldi	r24, 0x01	; 1
	switch(next){
		case (ACTION_MENU_EXIT):Statment=SCREEN_MAIN;Cursor = MENU;break;
		case (ACTION_PARKING_SAVE):Save();break;
		case (ACTION_HIGHTPOSITION_SAVE):Save();break;
		case (ACTION_LOWPOSITION_SAVE):Save();break;
		case (ACTION_PARKING_SET):Set();break;
    13d0:	28 c0       	rjmp	.+80     	; 0x1422 <_ZN8Activity16Menu_Screen_MoveER5PanelR7Carrage+0xe8>
		case (ACTION_HIGHTPOSITION_SET):Set();break;
    13d2:	ce 01       	movw	r24, r28
    13d4:	0e 94 7e 09 	call	0x12fc	; 0x12fc <_ZN8Activity3SetEv>
		case (ACTION_LIMITS_SET):Statment = SCREEN_LIMITS;Cursor = LIMITS_MIN;break;
		case (ACTION_TEST_MALFACTION):Statment = SCREEN_SET_MALFACTION;Cursor = TIME_MALFACTION;break;
		case (ACTION_ERRORS):Statment = SCREEN_SET_ERRORS;Cursor = ERRORS_RESET;break;
		default: Cursor = next;break;
	}
	return true;
    13d8:	81 e0       	ldi	r24, 0x01	; 1
		case (ACTION_MENU_EXIT):Statment=SCREEN_MAIN;Cursor = MENU;break;
		case (ACTION_PARKING_SAVE):Save();break;
		case (ACTION_HIGHTPOSITION_SAVE):Save();break;
		case (ACTION_LOWPOSITION_SAVE):Save();break;
		case (ACTION_PARKING_SET):Set();break;
		case (ACTION_HIGHTPOSITION_SET):Set();break;
    13da:	23 c0       	rjmp	.+70     	; 0x1422 <_ZN8Activity16Menu_Screen_MoveER5PanelR7Carrage+0xe8>
		case (ACTION_LOWPOSITION_SET):Set();break;
    13dc:	ce 01       	movw	r24, r28
    13de:	0e 94 7e 09 	call	0x12fc	; 0x12fc <_ZN8Activity3SetEv>
		case (ACTION_LIMITS_SET):Statment = SCREEN_LIMITS;Cursor = LIMITS_MIN;break;
		case (ACTION_TEST_MALFACTION):Statment = SCREEN_SET_MALFACTION;Cursor = TIME_MALFACTION;break;
		case (ACTION_ERRORS):Statment = SCREEN_SET_ERRORS;Cursor = ERRORS_RESET;break;
		default: Cursor = next;break;
	}
	return true;
    13e2:	81 e0       	ldi	r24, 0x01	; 1
		case (ACTION_PARKING_SAVE):Save();break;
		case (ACTION_HIGHTPOSITION_SAVE):Save();break;
		case (ACTION_LOWPOSITION_SAVE):Save();break;
		case (ACTION_PARKING_SET):Set();break;
		case (ACTION_HIGHTPOSITION_SET):Set();break;
		case (ACTION_LOWPOSITION_SET):Set();break;
    13e4:	1e c0       	rjmp	.+60     	; 0x1422 <_ZN8Activity16Menu_Screen_MoveER5PanelR7Carrage+0xe8>
		case (ACTION_TUNING_SET):Statment = SCREEN_TUNNING;Cursor = TUNING;break;
    13e6:	83 e0       	ldi	r24, 0x03	; 3
    13e8:	88 83       	st	Y, r24
    13ea:	81 e1       	ldi	r24, 0x11	; 17
    13ec:	8f 83       	std	Y+7, r24	; 0x07
		case (ACTION_LIMITS_SET):Statment = SCREEN_LIMITS;Cursor = LIMITS_MIN;break;
		case (ACTION_TEST_MALFACTION):Statment = SCREEN_SET_MALFACTION;Cursor = TIME_MALFACTION;break;
		case (ACTION_ERRORS):Statment = SCREEN_SET_ERRORS;Cursor = ERRORS_RESET;break;
		default: Cursor = next;break;
	}
	return true;
    13ee:	81 e0       	ldi	r24, 0x01	; 1
		case (ACTION_HIGHTPOSITION_SAVE):Save();break;
		case (ACTION_LOWPOSITION_SAVE):Save();break;
		case (ACTION_PARKING_SET):Set();break;
		case (ACTION_HIGHTPOSITION_SET):Set();break;
		case (ACTION_LOWPOSITION_SET):Set();break;
		case (ACTION_TUNING_SET):Statment = SCREEN_TUNNING;Cursor = TUNING;break;
    13f0:	18 c0       	rjmp	.+48     	; 0x1422 <_ZN8Activity16Menu_Screen_MoveER5PanelR7Carrage+0xe8>
		case (ACTION_LIMITS_SET):Statment = SCREEN_LIMITS;Cursor = LIMITS_MIN;break;
    13f2:	84 e0       	ldi	r24, 0x04	; 4
    13f4:	88 83       	st	Y, r24
    13f6:	83 e1       	ldi	r24, 0x13	; 19
    13f8:	8f 83       	std	Y+7, r24	; 0x07
		case (ACTION_TEST_MALFACTION):Statment = SCREEN_SET_MALFACTION;Cursor = TIME_MALFACTION;break;
		case (ACTION_ERRORS):Statment = SCREEN_SET_ERRORS;Cursor = ERRORS_RESET;break;
		default: Cursor = next;break;
	}
	return true;
    13fa:	81 e0       	ldi	r24, 0x01	; 1
		case (ACTION_LOWPOSITION_SAVE):Save();break;
		case (ACTION_PARKING_SET):Set();break;
		case (ACTION_HIGHTPOSITION_SET):Set();break;
		case (ACTION_LOWPOSITION_SET):Set();break;
		case (ACTION_TUNING_SET):Statment = SCREEN_TUNNING;Cursor = TUNING;break;
		case (ACTION_LIMITS_SET):Statment = SCREEN_LIMITS;Cursor = LIMITS_MIN;break;
    13fc:	12 c0       	rjmp	.+36     	; 0x1422 <_ZN8Activity16Menu_Screen_MoveER5PanelR7Carrage+0xe8>
		case (ACTION_TEST_MALFACTION):Statment = SCREEN_SET_MALFACTION;Cursor = TIME_MALFACTION;break;
    13fe:	85 e0       	ldi	r24, 0x05	; 5
    1400:	88 83       	st	Y, r24
    1402:	86 e1       	ldi	r24, 0x16	; 22
    1404:	8f 83       	std	Y+7, r24	; 0x07
		case (ACTION_ERRORS):Statment = SCREEN_SET_ERRORS;Cursor = ERRORS_RESET;break;
		default: Cursor = next;break;
	}
	return true;
    1406:	81 e0       	ldi	r24, 0x01	; 1
		case (ACTION_PARKING_SET):Set();break;
		case (ACTION_HIGHTPOSITION_SET):Set();break;
		case (ACTION_LOWPOSITION_SET):Set();break;
		case (ACTION_TUNING_SET):Statment = SCREEN_TUNNING;Cursor = TUNING;break;
		case (ACTION_LIMITS_SET):Statment = SCREEN_LIMITS;Cursor = LIMITS_MIN;break;
		case (ACTION_TEST_MALFACTION):Statment = SCREEN_SET_MALFACTION;Cursor = TIME_MALFACTION;break;
    1408:	0c c0       	rjmp	.+24     	; 0x1422 <_ZN8Activity16Menu_Screen_MoveER5PanelR7Carrage+0xe8>
		case (ACTION_ERRORS):Statment = SCREEN_SET_ERRORS;Cursor = ERRORS_RESET;break;
    140a:	86 e0       	ldi	r24, 0x06	; 6
    140c:	88 83       	st	Y, r24
    140e:	8d e1       	ldi	r24, 0x1D	; 29
    1410:	8f 83       	std	Y+7, r24	; 0x07
		default: Cursor = next;break;
	}
	return true;
    1412:	81 e0       	ldi	r24, 0x01	; 1
		case (ACTION_HIGHTPOSITION_SET):Set();break;
		case (ACTION_LOWPOSITION_SET):Set();break;
		case (ACTION_TUNING_SET):Statment = SCREEN_TUNNING;Cursor = TUNING;break;
		case (ACTION_LIMITS_SET):Statment = SCREEN_LIMITS;Cursor = LIMITS_MIN;break;
		case (ACTION_TEST_MALFACTION):Statment = SCREEN_SET_MALFACTION;Cursor = TIME_MALFACTION;break;
		case (ACTION_ERRORS):Statment = SCREEN_SET_ERRORS;Cursor = ERRORS_RESET;break;
    1414:	06 c0       	rjmp	.+12     	; 0x1422 <_ZN8Activity16Menu_Screen_MoveER5PanelR7Carrage+0xe8>
		default: Cursor = next;break;
    1416:	2f 83       	std	Y+7, r18	; 0x07
	}
	return true;
    1418:	81 e0       	ldi	r24, 0x01	; 1
		case (ACTION_LOWPOSITION_SET):Set();break;
		case (ACTION_TUNING_SET):Statment = SCREEN_TUNNING;Cursor = TUNING;break;
		case (ACTION_LIMITS_SET):Statment = SCREEN_LIMITS;Cursor = LIMITS_MIN;break;
		case (ACTION_TEST_MALFACTION):Statment = SCREEN_SET_MALFACTION;Cursor = TIME_MALFACTION;break;
		case (ACTION_ERRORS):Statment = SCREEN_SET_ERRORS;Cursor = ERRORS_RESET;break;
		default: Cursor = next;break;
    141a:	03 c0       	rjmp	.+6      	; 0x1422 <_ZN8Activity16Menu_Screen_MoveER5PanelR7Carrage+0xe8>

bool Activity::Menu_Screen_Move(Panel &panel, Carrage &carrage){
	carrage.ControlMalfinction();
	int move = panel.Pressed(100);
	int next;
	if (move == B_W_UP_){return false;}
    141c:	80 e0       	ldi	r24, 0x00	; 0
    141e:	01 c0       	rjmp	.+2      	; 0x1422 <_ZN8Activity16Menu_Screen_MoveER5PanelR7Carrage+0xe8>
	if (move == B_W_DOWN){return false;}
	if (move == B_NOTHING ){return false;}
    1420:	80 e0       	ldi	r24, 0x00	; 0
		case (ACTION_ERRORS):Statment = SCREEN_SET_ERRORS;Cursor = ERRORS_RESET;break;
		default: Cursor = next;break;
	}
	return true;
	
}
    1422:	df 91       	pop	r29
    1424:	cf 91       	pop	r28
    1426:	1f 91       	pop	r17
    1428:	0f 91       	pop	r16
    142a:	08 95       	ret

0000142c <_ZN8Activity7MessageER5Panel>:
	}
	Statment=SCREEN_ADJUST;
	Cursor = MENU;
}

bool Activity::Message(Panel &panel){
    142c:	cf 93       	push	r28
    142e:	df 93       	push	r29
    1430:	ec 01       	movw	r28, r24
    1432:	cb 01       	movw	r24, r22
	#else
		//round up by default
		__ticks_dc = (uint32_t)(ceil(fabs(__tmp)));
	#endif

	__builtin_avr_delay_cycles(__ticks_dc);
    1434:	2f e3       	ldi	r18, 0x3F	; 63
    1436:	3d e0       	ldi	r19, 0x0D	; 13
    1438:	43 e0       	ldi	r20, 0x03	; 3
    143a:	21 50       	subi	r18, 0x01	; 1
    143c:	30 40       	sbci	r19, 0x00	; 0
    143e:	40 40       	sbci	r20, 0x00	; 0
    1440:	e1 f7       	brne	.-8      	; 0x143a <_ZN8Activity7MessageER5Panel+0xe>
    1442:	00 c0       	rjmp	.+0      	; 0x1444 <_ZN8Activity7MessageER5Panel+0x18>
    1444:	00 00       	nop
	_delay_ms(1000);
	Statment=SCREEN_MENU;Cursor = SAVE;
    1446:	21 e0       	ldi	r18, 0x01	; 1
    1448:	28 83       	st	Y, r18
    144a:	1f 82       	std	Y+7, r1	; 0x07
	int pressed = panel.Pressed(100);
    144c:	64 e6       	ldi	r22, 0x64	; 100
    144e:	70 e0       	ldi	r23, 0x00	; 0
    1450:	0e 94 7d 1f 	call	0x3efa	; 0x3efa <_ZN5Panel7PressedEi>
	if (pressed == B_NOTHING ){return false;}
    1454:	01 96       	adiw	r24, 0x01	; 1
    1456:	11 f4       	brne	.+4      	; 0x145c <_ZN8Activity7MessageER5Panel+0x30>
    1458:	80 e0       	ldi	r24, 0x00	; 0
    145a:	03 c0       	rjmp	.+6      	; 0x1462 <_ZN8Activity7MessageER5Panel+0x36>
	if (!(pressed == B_NOTHING)){Statment=SCREEN_MENU;Cursor = SAVE;}
    145c:	81 e0       	ldi	r24, 0x01	; 1
    145e:	88 83       	st	Y, r24
    1460:	1f 82       	std	Y+7, r1	; 0x07
}
    1462:	df 91       	pop	r29
    1464:	cf 91       	pop	r28
    1466:	08 95       	ret

00001468 <_ZN8Activity9ForceMoveER7Carragei>:

void Activity::ForceMove(Carrage &carrage, int derection){
    1468:	0f 93       	push	r16
    146a:	1f 93       	push	r17
    146c:	cf 93       	push	r28
    146e:	df 93       	push	r29
    1470:	eb 01       	movw	r28, r22
    1472:	8a 01       	movw	r16, r20
	carrage.ResecCountMalfinction();
    1474:	cb 01       	movw	r24, r22
    1476:	0e 94 32 12 	call	0x2464	; 0x2464 <_ZN7Carrage21ResecCountMalfinctionEv>
	switch(derection){
    147a:	05 30       	cpi	r16, 0x05	; 5
    147c:	11 05       	cpc	r17, r1
    147e:	21 f0       	breq	.+8      	; 0x1488 <_ZN8Activity9ForceMoveER7Carragei+0x20>
    1480:	06 30       	cpi	r16, 0x06	; 6
    1482:	11 05       	cpc	r17, r1
    1484:	29 f0       	breq	.+10     	; 0x1490 <_ZN8Activity9ForceMoveER7Carragei+0x28>
    1486:	07 c0       	rjmp	.+14     	; 0x1496 <_ZN8Activity9ForceMoveER7Carragei+0x2e>
		case(B_W_UP_):carrage.ForceUp();break;
    1488:	ce 01       	movw	r24, r28
    148a:	0e 94 20 0c 	call	0x1840	; 0x1840 <_ZN7Carrage7ForceUpEv>
    148e:	03 c0       	rjmp	.+6      	; 0x1496 <_ZN8Activity9ForceMoveER7Carragei+0x2e>
		case(B_W_DOWN):carrage.ForceDown();break;
    1490:	ce 01       	movw	r24, r28
    1492:	0e 94 76 0c 	call	0x18ec	; 0x18ec <_ZN7Carrage9ForceDownEv>
	}
		
    1496:	df 91       	pop	r29
    1498:	cf 91       	pop	r28
    149a:	1f 91       	pop	r17
    149c:	0f 91       	pop	r16
    149e:	08 95       	ret

000014a0 <_ZN8Activity16Main_Screen_MoveER5PanelR7Carrage>:
		case(SCREEN_ERROR_WHEEL):Error(panel,carrage);break;
		case(SCREEN_MESSAGE):Message(panel);break;
	}
}

bool Activity::Main_Screen_Move(Panel &panel, Carrage &carrage){
    14a0:	ef 92       	push	r14
    14a2:	ff 92       	push	r15
    14a4:	0f 93       	push	r16
    14a6:	1f 93       	push	r17
    14a8:	cf 93       	push	r28
    14aa:	df 93       	push	r29
    14ac:	ec 01       	movw	r28, r24
    14ae:	7b 01       	movw	r14, r22
    14b0:	8a 01       	movw	r16, r20
	carrage.ControlMalfinction();
    14b2:	ca 01       	movw	r24, r20
    14b4:	0e 94 c5 11 	call	0x238a	; 0x238a <_ZN7Carrage18ControlMalfinctionEv>
	int move = panel.Pressed(100);
    14b8:	64 e6       	ldi	r22, 0x64	; 100
    14ba:	70 e0       	ldi	r23, 0x00	; 0
    14bc:	c7 01       	movw	r24, r14
    14be:	0e 94 7d 1f 	call	0x3efa	; 0x3efa <_ZN5Panel7PressedEi>
    14c2:	ac 01       	movw	r20, r24
	int next;
	if (move == B_W_UP_||move == B_W_DOWN){ForceMove(carrage, move);return false;}
    14c4:	05 97       	sbiw	r24, 0x05	; 5
    14c6:	02 97       	sbiw	r24, 0x02	; 2
    14c8:	30 f4       	brcc	.+12     	; 0x14d6 <_ZN8Activity16Main_Screen_MoveER5PanelR7Carrage+0x36>
    14ca:	b8 01       	movw	r22, r16
    14cc:	ce 01       	movw	r24, r28
    14ce:	0e 94 34 0a 	call	0x1468	; 0x1468 <_ZN8Activity9ForceMoveER7Carragei>
    14d2:	80 e0       	ldi	r24, 0x00	; 0
    14d4:	39 c0       	rjmp	.+114    	; 0x1548 <_ZN8Activity16Main_Screen_MoveER5PanelR7Carrage+0xa8>
	if (move == B_NOTHING ){return false;}
    14d6:	4f 3f       	cpi	r20, 0xFF	; 255
    14d8:	8f ef       	ldi	r24, 0xFF	; 255
    14da:	58 07       	cpc	r21, r24
    14dc:	a1 f1       	breq	.+104    	; 0x1546 <_ZN8Activity16Main_Screen_MoveER5PanelR7Carrage+0xa6>
	next = Main_Screen_cursor_pathes[Cursor][move];
    14de:	9f 81       	ldd	r25, Y+7	; 0x07
    14e0:	29 2f       	mov	r18, r25
    14e2:	30 e0       	ldi	r19, 0x00	; 0
    14e4:	c9 01       	movw	r24, r18
    14e6:	88 0f       	add	r24, r24
    14e8:	99 1f       	adc	r25, r25
    14ea:	28 0f       	add	r18, r24
    14ec:	39 1f       	adc	r19, r25
    14ee:	22 0f       	add	r18, r18
    14f0:	33 1f       	adc	r19, r19
    14f2:	2c 0f       	add	r18, r28
    14f4:	3d 1f       	adc	r19, r29
    14f6:	f9 01       	movw	r30, r18
    14f8:	e4 0f       	add	r30, r20
    14fa:	f5 1f       	adc	r31, r21
    14fc:	80 85       	ldd	r24, Z+8	; 0x08
	switch(next){
    14fe:	85 36       	cpi	r24, 0x65	; 101
    1500:	a1 f0       	breq	.+40     	; 0x152a <_ZN8Activity16Main_Screen_MoveER5PanelR7Carrage+0x8a>
    1502:	18 f4       	brcc	.+6      	; 0x150a <_ZN8Activity16Main_Screen_MoveER5PanelR7Carrage+0x6a>
    1504:	84 36       	cpi	r24, 0x64	; 100
    1506:	31 f0       	breq	.+12     	; 0x1514 <_ZN8Activity16Main_Screen_MoveER5PanelR7Carrage+0x74>
    1508:	1b c0       	rjmp	.+54     	; 0x1540 <_ZN8Activity16Main_Screen_MoveER5PanelR7Carrage+0xa0>
    150a:	86 36       	cpi	r24, 0x66	; 102
    150c:	a9 f0       	breq	.+42     	; 0x1538 <_ZN8Activity16Main_Screen_MoveER5PanelR7Carrage+0x98>
    150e:	82 37       	cpi	r24, 0x72	; 114
    1510:	39 f0       	breq	.+14     	; 0x1520 <_ZN8Activity16Main_Screen_MoveER5PanelR7Carrage+0x80>
    1512:	16 c0       	rjmp	.+44     	; 0x1540 <_ZN8Activity16Main_Screen_MoveER5PanelR7Carrage+0xa0>
		case (ACTION_WHEEL):SelectWheel(carrage);break;
    1514:	b8 01       	movw	r22, r16
    1516:	ce 01       	movw	r24, r28
    1518:	0e 94 2c 09 	call	0x1258	; 0x1258 <_ZN8Activity11SelectWheelER7Carrage>
		case (ACTION_ALL_WHEEL):carrage.SwitchAllWheel();break;
		case (ACTION_ADJUST):Statment = SCREEN_ADJUST; carrage.beforeAdjast() ;break;
		case (ACTION_MENU):Statment = SCREEN_MENU;Cursor = SAVE;break;
		default: Cursor = next;break;
	}
	return true;
    151c:	81 e0       	ldi	r24, 0x01	; 1
	int next;
	if (move == B_W_UP_||move == B_W_DOWN){ForceMove(carrage, move);return false;}
	if (move == B_NOTHING ){return false;}
	next = Main_Screen_cursor_pathes[Cursor][move];
	switch(next){
		case (ACTION_WHEEL):SelectWheel(carrage);break;
    151e:	14 c0       	rjmp	.+40     	; 0x1548 <_ZN8Activity16Main_Screen_MoveER5PanelR7Carrage+0xa8>
		case (ACTION_ALL_WHEEL):carrage.SwitchAllWheel();break;
    1520:	c8 01       	movw	r24, r16
    1522:	0e 94 72 12 	call	0x24e4	; 0x24e4 <_ZN7Carrage14SwitchAllWheelEv>
		case (ACTION_ADJUST):Statment = SCREEN_ADJUST; carrage.beforeAdjast() ;break;
		case (ACTION_MENU):Statment = SCREEN_MENU;Cursor = SAVE;break;
		default: Cursor = next;break;
	}
	return true;
    1526:	81 e0       	ldi	r24, 0x01	; 1
	if (move == B_W_UP_||move == B_W_DOWN){ForceMove(carrage, move);return false;}
	if (move == B_NOTHING ){return false;}
	next = Main_Screen_cursor_pathes[Cursor][move];
	switch(next){
		case (ACTION_WHEEL):SelectWheel(carrage);break;
		case (ACTION_ALL_WHEEL):carrage.SwitchAllWheel();break;
    1528:	0f c0       	rjmp	.+30     	; 0x1548 <_ZN8Activity16Main_Screen_MoveER5PanelR7Carrage+0xa8>
		case (ACTION_ADJUST):Statment = SCREEN_ADJUST; carrage.beforeAdjast() ;break;
    152a:	82 e0       	ldi	r24, 0x02	; 2
    152c:	88 83       	st	Y, r24
    152e:	c8 01       	movw	r24, r16
    1530:	0e 94 0a 0c 	call	0x1814	; 0x1814 <_ZN7Carrage12beforeAdjastEv>
		case (ACTION_MENU):Statment = SCREEN_MENU;Cursor = SAVE;break;
		default: Cursor = next;break;
	}
	return true;
    1534:	81 e0       	ldi	r24, 0x01	; 1
	if (move == B_NOTHING ){return false;}
	next = Main_Screen_cursor_pathes[Cursor][move];
	switch(next){
		case (ACTION_WHEEL):SelectWheel(carrage);break;
		case (ACTION_ALL_WHEEL):carrage.SwitchAllWheel();break;
		case (ACTION_ADJUST):Statment = SCREEN_ADJUST; carrage.beforeAdjast() ;break;
    1536:	08 c0       	rjmp	.+16     	; 0x1548 <_ZN8Activity16Main_Screen_MoveER5PanelR7Carrage+0xa8>
		case (ACTION_MENU):Statment = SCREEN_MENU;Cursor = SAVE;break;
    1538:	81 e0       	ldi	r24, 0x01	; 1
    153a:	88 83       	st	Y, r24
    153c:	1f 82       	std	Y+7, r1	; 0x07
    153e:	04 c0       	rjmp	.+8      	; 0x1548 <_ZN8Activity16Main_Screen_MoveER5PanelR7Carrage+0xa8>
		default: Cursor = next;break;
    1540:	8f 83       	std	Y+7, r24	; 0x07
	}
	return true;
    1542:	81 e0       	ldi	r24, 0x01	; 1
	switch(next){
		case (ACTION_WHEEL):SelectWheel(carrage);break;
		case (ACTION_ALL_WHEEL):carrage.SwitchAllWheel();break;
		case (ACTION_ADJUST):Statment = SCREEN_ADJUST; carrage.beforeAdjast() ;break;
		case (ACTION_MENU):Statment = SCREEN_MENU;Cursor = SAVE;break;
		default: Cursor = next;break;
    1544:	01 c0       	rjmp	.+2      	; 0x1548 <_ZN8Activity16Main_Screen_MoveER5PanelR7Carrage+0xa8>
bool Activity::Main_Screen_Move(Panel &panel, Carrage &carrage){
	carrage.ControlMalfinction();
	int move = panel.Pressed(100);
	int next;
	if (move == B_W_UP_||move == B_W_DOWN){ForceMove(carrage, move);return false;}
	if (move == B_NOTHING ){return false;}
    1546:	80 e0       	ldi	r24, 0x00	; 0
		case (ACTION_ADJUST):Statment = SCREEN_ADJUST; carrage.beforeAdjast() ;break;
		case (ACTION_MENU):Statment = SCREEN_MENU;Cursor = SAVE;break;
		default: Cursor = next;break;
	}
	return true;
}
    1548:	df 91       	pop	r29
    154a:	cf 91       	pop	r28
    154c:	1f 91       	pop	r17
    154e:	0f 91       	pop	r16
    1550:	ff 90       	pop	r15
    1552:	ef 90       	pop	r14
    1554:	08 95       	ret

00001556 <_ZN8Activity17Adjusting_CarrageER5PanelR7Carrage>:

bool Activity::Adjusting_Carrage(Panel &panel, Carrage &carrage){
    1556:	0f 93       	push	r16
    1558:	1f 93       	push	r17
    155a:	cf 93       	push	r28
    155c:	df 93       	push	r29
    155e:	ec 01       	movw	r28, r24
    1560:	cb 01       	movw	r24, r22
    1562:	8a 01       	movw	r16, r20
	int pressed = panel.Pressed(100);
    1564:	64 e6       	ldi	r22, 0x64	; 100
    1566:	70 e0       	ldi	r23, 0x00	; 0
    1568:	0e 94 7d 1f 	call	0x3efa	; 0x3efa <_ZN5Panel7PressedEi>
	if (pressed == B_W_UP_||pressed == B_W_DOWN){ForceMove(carrage, pressed);return false;}
    156c:	9c 01       	movw	r18, r24
    156e:	25 50       	subi	r18, 0x05	; 5
    1570:	31 09       	sbc	r19, r1
    1572:	22 30       	cpi	r18, 0x02	; 2
    1574:	31 05       	cpc	r19, r1
    1576:	30 f4       	brcc	.+12     	; 0x1584 <_ZN8Activity17Adjusting_CarrageER5PanelR7Carrage+0x2e>
    1578:	ac 01       	movw	r20, r24
    157a:	b8 01       	movw	r22, r16
    157c:	ce 01       	movw	r24, r28
    157e:	0e 94 34 0a 	call	0x1468	; 0x1468 <_ZN8Activity9ForceMoveER7Carragei>
    1582:	41 c0       	rjmp	.+130    	; 0x1606 <_ZN8Activity17Adjusting_CarrageER5PanelR7Carrage+0xb0>
	if (pressed == B_NOTHING ){return false;}
    1584:	8f 3f       	cpi	r24, 0xFF	; 255
    1586:	2f ef       	ldi	r18, 0xFF	; 255
    1588:	92 07       	cpc	r25, r18
    158a:	e9 f1       	breq	.+122    	; 0x1606 <_ZN8Activity17Adjusting_CarrageER5PanelR7Carrage+0xb0>
	switch(pressed){
    158c:	82 30       	cpi	r24, 0x02	; 2
    158e:	91 05       	cpc	r25, r1
    1590:	b9 f0       	breq	.+46     	; 0x15c0 <_ZN8Activity17Adjusting_CarrageER5PanelR7Carrage+0x6a>
    1592:	2c f4       	brge	.+10     	; 0x159e <_ZN8Activity17Adjusting_CarrageER5PanelR7Carrage+0x48>
    1594:	00 97       	sbiw	r24, 0x00	; 0
    1596:	49 f0       	breq	.+18     	; 0x15aa <_ZN8Activity17Adjusting_CarrageER5PanelR7Carrage+0x54>
    1598:	01 97       	sbiw	r24, 0x01	; 1
    159a:	49 f0       	breq	.+18     	; 0x15ae <_ZN8Activity17Adjusting_CarrageER5PanelR7Carrage+0x58>
    159c:	25 c0       	rjmp	.+74     	; 0x15e8 <_ZN8Activity17Adjusting_CarrageER5PanelR7Carrage+0x92>
    159e:	83 30       	cpi	r24, 0x03	; 3
    15a0:	91 05       	cpc	r25, r1
    15a2:	b9 f0       	breq	.+46     	; 0x15d2 <_ZN8Activity17Adjusting_CarrageER5PanelR7Carrage+0x7c>
    15a4:	04 97       	sbiw	r24, 0x04	; 4
    15a6:	d9 f0       	breq	.+54     	; 0x15de <_ZN8Activity17Adjusting_CarrageER5PanelR7Carrage+0x88>
    15a8:	1f c0       	rjmp	.+62     	; 0x15e8 <_ZN8Activity17Adjusting_CarrageER5PanelR7Carrage+0x92>
		case(B_OK___):Statment = SCREEN_MAIN; break;
    15aa:	18 82       	st	Y, r1
    15ac:	1d c0       	rjmp	.+58     	; 0x15e8 <_ZN8Activity17Adjusting_CarrageER5PanelR7Carrage+0x92>
		case(B_UP___):carrage.Up(Get_val_step()); break;
    15ae:	ce 01       	movw	r24, r28
    15b0:	0e 94 6e 09 	call	0x12dc	; 0x12dc <_ZN8Activity12Get_val_stepEv>
    15b4:	ab 01       	movw	r20, r22
    15b6:	bc 01       	movw	r22, r24
    15b8:	c8 01       	movw	r24, r16
    15ba:	0e 94 73 11 	call	0x22e6	; 0x22e6 <_ZN7Carrage2UpEf>
    15be:	14 c0       	rjmp	.+40     	; 0x15e8 <_ZN8Activity17Adjusting_CarrageER5PanelR7Carrage+0x92>
		case(B_DOWN_):carrage.Down(Get_val_step()); break;
    15c0:	ce 01       	movw	r24, r28
    15c2:	0e 94 6e 09 	call	0x12dc	; 0x12dc <_ZN8Activity12Get_val_stepEv>
    15c6:	ab 01       	movw	r20, r22
    15c8:	bc 01       	movw	r22, r24
    15ca:	c8 01       	movw	r24, r16
    15cc:	0e 94 9c 11 	call	0x2338	; 0x2338 <_ZN7Carrage4DownEf>
    15d0:	0b c0       	rjmp	.+22     	; 0x15e8 <_ZN8Activity17Adjusting_CarrageER5PanelR7Carrage+0x92>
		case(B_LEFT_):Step--; break;
    15d2:	89 81       	ldd	r24, Y+1	; 0x01
    15d4:	9a 81       	ldd	r25, Y+2	; 0x02
    15d6:	01 97       	sbiw	r24, 0x01	; 1
    15d8:	9a 83       	std	Y+2, r25	; 0x02
    15da:	89 83       	std	Y+1, r24	; 0x01
    15dc:	05 c0       	rjmp	.+10     	; 0x15e8 <_ZN8Activity17Adjusting_CarrageER5PanelR7Carrage+0x92>
		case(B_RIGHT):Step++; break;
    15de:	89 81       	ldd	r24, Y+1	; 0x01
    15e0:	9a 81       	ldd	r25, Y+2	; 0x02
    15e2:	01 96       	adiw	r24, 0x01	; 1
    15e4:	9a 83       	std	Y+2, r25	; 0x02
    15e6:	89 83       	std	Y+1, r24	; 0x01
	}
	if (Step <= 0){Step=0;}
    15e8:	89 81       	ldd	r24, Y+1	; 0x01
    15ea:	9a 81       	ldd	r25, Y+2	; 0x02
    15ec:	18 16       	cp	r1, r24
    15ee:	19 06       	cpc	r1, r25
    15f0:	1c f0       	brlt	.+6      	; 0x15f8 <_ZN8Activity17Adjusting_CarrageER5PanelR7Carrage+0xa2>
    15f2:	1a 82       	std	Y+2, r1	; 0x02
    15f4:	19 82       	std	Y+1, r1	; 0x01
    15f6:	06 c0       	rjmp	.+12     	; 0x1604 <_ZN8Activity17Adjusting_CarrageER5PanelR7Carrage+0xae>
	if (Step >= 19){Step=19;}
    15f8:	43 97       	sbiw	r24, 0x13	; 19
    15fa:	24 f0       	brlt	.+8      	; 0x1604 <_ZN8Activity17Adjusting_CarrageER5PanelR7Carrage+0xae>
    15fc:	83 e1       	ldi	r24, 0x13	; 19
    15fe:	90 e0       	ldi	r25, 0x00	; 0
    1600:	9a 83       	std	Y+2, r25	; 0x02
    1602:	89 83       	std	Y+1, r24	; 0x01
}
    1604:	01 c0       	rjmp	.+2      	; 0x1608 <_ZN8Activity17Adjusting_CarrageER5PanelR7Carrage+0xb2>
    1606:	80 e0       	ldi	r24, 0x00	; 0
    1608:	df 91       	pop	r29
    160a:	cf 91       	pop	r28
    160c:	1f 91       	pop	r17
    160e:	0f 91       	pop	r16
    1610:	08 95       	ret

00001612 <_ZN8Activity13Cursor_ActionER5PanelR7Carrage>:
{
	
} //Activity


bool Activity::Cursor_Action(Panel &panel, Carrage &carrage){
    1612:	0f 93       	push	r16
    1614:	1f 93       	push	r17
	switch(Statment){
    1616:	dc 01       	movw	r26, r24
    1618:	ec 91       	ld	r30, X
    161a:	0e 2f       	mov	r16, r30
    161c:	10 e0       	ldi	r17, 0x00	; 0
    161e:	09 30       	cpi	r16, 0x09	; 9
    1620:	11 05       	cpc	r17, r1
    1622:	f8 f4       	brcc	.+62     	; 0x1662 <_ZN8Activity13Cursor_ActionER5PanelR7Carrage+0x50>
    1624:	f8 01       	movw	r30, r16
    1626:	e1 5c       	subi	r30, 0xC1	; 193
    1628:	ff 4f       	sbci	r31, 0xFF	; 255
    162a:	0c 94 35 25 	jmp	0x4a6a	; 0x4a6a <__tablejump2__>
		case(SCREEN_MAIN):Main_Screen_Move(panel,carrage);break;
    162e:	0e 94 50 0a 	call	0x14a0	; 0x14a0 <_ZN8Activity16Main_Screen_MoveER5PanelR7Carrage>
    1632:	17 c0       	rjmp	.+46     	; 0x1662 <_ZN8Activity13Cursor_ActionER5PanelR7Carrage+0x50>
		case(SCREEN_MENU):Menu_Screen_Move(panel,carrage);break;
    1634:	0e 94 9d 09 	call	0x133a	; 0x133a <_ZN8Activity16Menu_Screen_MoveER5PanelR7Carrage>
    1638:	14 c0       	rjmp	.+40     	; 0x1662 <_ZN8Activity13Cursor_ActionER5PanelR7Carrage+0x50>
		case(SCREEN_ADJUST):Adjusting_Carrage(panel,carrage);break;
    163a:	0e 94 ab 0a 	call	0x1556	; 0x1556 <_ZN8Activity17Adjusting_CarrageER5PanelR7Carrage>
    163e:	11 c0       	rjmp	.+34     	; 0x1662 <_ZN8Activity13Cursor_ActionER5PanelR7Carrage+0x50>
		case(SCREEN_TUNNING):Tunning_rate(panel,carrage);break;
    1640:	0e 94 7c 04 	call	0x8f8	; 0x8f8 <_ZN8Activity12Tunning_rateER5PanelR7Carrage>
    1644:	0e c0       	rjmp	.+28     	; 0x1662 <_ZN8Activity13Cursor_ActionER5PanelR7Carrage+0x50>
		case(SCREEN_LIMITS):Limits_set(panel,carrage);break;
    1646:	0e 94 5b 05 	call	0xab6	; 0xab6 <_ZN8Activity10Limits_setER5PanelR7Carrage>
    164a:	0b c0       	rjmp	.+22     	; 0x1662 <_ZN8Activity13Cursor_ActionER5PanelR7Carrage+0x50>
		case(SCREEN_SET_MALFACTION):Malfaction_set(panel,carrage);break;
    164c:	0e 94 b1 06 	call	0xd62	; 0xd62 <_ZN8Activity14Malfaction_setER5PanelR7Carrage>
    1650:	08 c0       	rjmp	.+16     	; 0x1662 <_ZN8Activity13Cursor_ActionER5PanelR7Carrage+0x50>
		case(SCREEN_SET_ERRORS):Errors(panel,carrage);break;
    1652:	0e 94 a0 07 	call	0xf40	; 0xf40 <_ZN8Activity6ErrorsER5PanelR7Carrage>
    1656:	05 c0       	rjmp	.+10     	; 0x1662 <_ZN8Activity13Cursor_ActionER5PanelR7Carrage+0x50>
		case(SCREEN_ERROR_WHEEL):Error(panel,carrage);break;
    1658:	0e 94 20 08 	call	0x1040	; 0x1040 <_ZN8Activity5ErrorER5PanelR7Carrage>
    165c:	02 c0       	rjmp	.+4      	; 0x1662 <_ZN8Activity13Cursor_ActionER5PanelR7Carrage+0x50>
		case(SCREEN_MESSAGE):Message(panel);break;
    165e:	0e 94 16 0a 	call	0x142c	; 0x142c <_ZN8Activity7MessageER5Panel>
	}
}
    1662:	1f 91       	pop	r17
    1664:	0f 91       	pop	r16
    1666:	08 95       	ret

00001668 <_ZN6ButtonC1Ev>:
#include "Button.h"
#include <avr/io.h>
#include <util/delay.h>

// default constructor
Button::Button(){
    1668:	08 95       	ret

0000166a <_ZN6Button4InitEci>:
	
}

void Button::Init(char port, int pin)
{
    166a:	fc 01       	movw	r30, r24
	_port = port;
    166c:	60 83       	st	Z, r22
	_pin = pin;
    166e:	41 83       	std	Z+1, r20	; 0x01
    1670:	52 83       	std	Z+2, r21	; 0x02
	slice_limit = 500;
    1672:	84 ef       	ldi	r24, 0xF4	; 244
    1674:	91 e0       	ldi	r25, 0x01	; 1
    1676:	96 83       	std	Z+6, r25	; 0x06
    1678:	85 83       	std	Z+5, r24	; 0x05
	switch (_port){
    167a:	63 34       	cpi	r22, 0x43	; 67
    167c:	a1 f0       	breq	.+40     	; 0x16a6 <_ZN6Button4InitEci+0x3c>
    167e:	64 34       	cpi	r22, 0x44	; 68
    1680:	11 f1       	breq	.+68     	; 0x16c6 <_ZN6Button4InitEci+0x5c>
    1682:	62 34       	cpi	r22, 0x42	; 66
    1684:	79 f5       	brne	.+94     	; 0x16e4 <_ZN6Button4InitEci+0x7a>
		case 'B': DDRB &= ~(1<<(pin)); PORTB |= (1<<(pin)); break;
    1686:	24 b1       	in	r18, 0x04	; 4
    1688:	81 e0       	ldi	r24, 0x01	; 1
    168a:	90 e0       	ldi	r25, 0x00	; 0
    168c:	02 c0       	rjmp	.+4      	; 0x1692 <_ZN6Button4InitEci+0x28>
    168e:	88 0f       	add	r24, r24
    1690:	99 1f       	adc	r25, r25
    1692:	4a 95       	dec	r20
    1694:	e2 f7       	brpl	.-8      	; 0x168e <_ZN6Button4InitEci+0x24>
    1696:	98 2f       	mov	r25, r24
    1698:	90 95       	com	r25
    169a:	92 23       	and	r25, r18
    169c:	94 b9       	out	0x04, r25	; 4
    169e:	95 b1       	in	r25, 0x05	; 5
    16a0:	89 2b       	or	r24, r25
    16a2:	85 b9       	out	0x05, r24	; 5
    16a4:	08 95       	ret
		case 'C': DDRC &= ~(1<<(pin)); PORTC |= (1<<(pin)); break;
    16a6:	27 b1       	in	r18, 0x07	; 7
    16a8:	81 e0       	ldi	r24, 0x01	; 1
    16aa:	90 e0       	ldi	r25, 0x00	; 0
    16ac:	02 c0       	rjmp	.+4      	; 0x16b2 <_ZN6Button4InitEci+0x48>
    16ae:	88 0f       	add	r24, r24
    16b0:	99 1f       	adc	r25, r25
    16b2:	4a 95       	dec	r20
    16b4:	e2 f7       	brpl	.-8      	; 0x16ae <_ZN6Button4InitEci+0x44>
    16b6:	98 2f       	mov	r25, r24
    16b8:	90 95       	com	r25
    16ba:	92 23       	and	r25, r18
    16bc:	97 b9       	out	0x07, r25	; 7
    16be:	98 b1       	in	r25, 0x08	; 8
    16c0:	89 2b       	or	r24, r25
    16c2:	88 b9       	out	0x08, r24	; 8
    16c4:	08 95       	ret
		case 'D': DDRD &= ~(1<<(pin)); PORTD |= (1<<(pin)); break;
    16c6:	2a b1       	in	r18, 0x0a	; 10
    16c8:	81 e0       	ldi	r24, 0x01	; 1
    16ca:	90 e0       	ldi	r25, 0x00	; 0
    16cc:	02 c0       	rjmp	.+4      	; 0x16d2 <_ZN6Button4InitEci+0x68>
    16ce:	88 0f       	add	r24, r24
    16d0:	99 1f       	adc	r25, r25
    16d2:	4a 95       	dec	r20
    16d4:	e2 f7       	brpl	.-8      	; 0x16ce <_ZN6Button4InitEci+0x64>
    16d6:	98 2f       	mov	r25, r24
    16d8:	90 95       	com	r25
    16da:	92 23       	and	r25, r18
    16dc:	9a b9       	out	0x0a, r25	; 10
    16de:	9b b1       	in	r25, 0x0b	; 11
    16e0:	89 2b       	or	r24, r25
    16e2:	8b b9       	out	0x0b, r24	; 11
    16e4:	08 95       	ret

000016e6 <_ZN6Button7PressedEi>:
	}
	
}

bool Button::Pressed(int debounce){
    16e6:	fc 01       	movw	r30, r24
	//debounce   
	bool read_pin;
	int i;
	
	if (debounce >= 0){
    16e8:	77 23       	and	r23, r23
    16ea:	74 f1       	brlt	.+92     	; 0x1748 <_ZN6Button7PressedEi+0x62>
		switch (_port){
    16ec:	80 81       	ld	r24, Z
    16ee:	83 34       	cpi	r24, 0x43	; 67
    16f0:	79 f0       	breq	.+30     	; 0x1710 <_ZN6Button7PressedEi+0x2a>
    16f2:	84 34       	cpi	r24, 0x44	; 68
    16f4:	b9 f0       	breq	.+46     	; 0x1724 <_ZN6Button7PressedEi+0x3e>
    16f6:	82 34       	cpi	r24, 0x42	; 66
    16f8:	09 f0       	breq	.+2      	; 0x16fc <_ZN6Button7PressedEi+0x16>
    16fa:	6a c0       	rjmp	.+212    	; 0x17d0 <_ZN6Button7PressedEi+0xea>
			case 'B': read_pin = ((1 << _pin) & PINB); break;
    16fc:	83 b1       	in	r24, 0x03	; 3
    16fe:	90 e0       	ldi	r25, 0x00	; 0
    1700:	01 80       	ldd	r0, Z+1	; 0x01
    1702:	02 c0       	rjmp	.+4      	; 0x1708 <_ZN6Button7PressedEi+0x22>
    1704:	95 95       	asr	r25
    1706:	87 95       	ror	r24
    1708:	0a 94       	dec	r0
    170a:	e2 f7       	brpl	.-8      	; 0x1704 <_ZN6Button7PressedEi+0x1e>
    170c:	81 70       	andi	r24, 0x01	; 1
    170e:	13 c0       	rjmp	.+38     	; 0x1736 <_ZN6Button7PressedEi+0x50>
			case 'C': read_pin = ((1 << _pin) & PINC); break;
    1710:	86 b1       	in	r24, 0x06	; 6
    1712:	90 e0       	ldi	r25, 0x00	; 0
    1714:	01 80       	ldd	r0, Z+1	; 0x01
    1716:	02 c0       	rjmp	.+4      	; 0x171c <_ZN6Button7PressedEi+0x36>
    1718:	95 95       	asr	r25
    171a:	87 95       	ror	r24
    171c:	0a 94       	dec	r0
    171e:	e2 f7       	brpl	.-8      	; 0x1718 <_ZN6Button7PressedEi+0x32>
    1720:	81 70       	andi	r24, 0x01	; 1
    1722:	09 c0       	rjmp	.+18     	; 0x1736 <_ZN6Button7PressedEi+0x50>
			case 'D': read_pin = ((1 << _pin) & PIND); break;
    1724:	89 b1       	in	r24, 0x09	; 9
    1726:	90 e0       	ldi	r25, 0x00	; 0
    1728:	01 80       	ldd	r0, Z+1	; 0x01
    172a:	02 c0       	rjmp	.+4      	; 0x1730 <_ZN6Button7PressedEi+0x4a>
    172c:	95 95       	asr	r25
    172e:	87 95       	ror	r24
    1730:	0a 94       	dec	r0
    1732:	e2 f7       	brpl	.-8      	; 0x172c <_ZN6Button7PressedEi+0x46>
    1734:	81 70       	andi	r24, 0x01	; 1
			default: return false;
		}
		
		if (read_pin){
    1736:	88 23       	and	r24, r24
    1738:	09 f4       	brne	.+2      	; 0x173c <_ZN6Button7PressedEi+0x56>
    173a:	4e c0       	rjmp	.+156    	; 0x17d8 <_ZN6Button7PressedEi+0xf2>
			slice_limit = 500;
    173c:	84 ef       	ldi	r24, 0xF4	; 244
    173e:	91 e0       	ldi	r25, 0x01	; 1
    1740:	96 83       	std	Z+6, r25	; 0x06
    1742:	85 83       	std	Z+5, r24	; 0x05
			return false;
    1744:	80 e0       	ldi	r24, 0x00	; 0
    1746:	08 95       	ret
			}else{
			debounce--;
		};
	};
	//button anti slice
	slice = 0;
    1748:	14 82       	std	Z+4, r1	; 0x04
    174a:	13 82       	std	Z+3, r1	; 0x03
	while((!read_pin)&&(slice<slice_limit)){
    174c:	85 81       	ldd	r24, Z+5	; 0x05
    174e:	96 81       	ldd	r25, Z+6	; 0x06
    1750:	18 16       	cp	r1, r24
    1752:	19 06       	cpc	r1, r25
    1754:	34 f0       	brlt	.+12     	; 0x1762 <_ZN6Button7PressedEi+0x7c>
    1756:	36 c0       	rjmp	.+108    	; 0x17c4 <_ZN6Button7PressedEi+0xde>
    1758:	25 81       	ldd	r18, Z+5	; 0x05
    175a:	36 81       	ldd	r19, Z+6	; 0x06
    175c:	82 17       	cp	r24, r18
    175e:	93 07       	cpc	r25, r19
    1760:	8c f5       	brge	.+98     	; 0x17c4 <_ZN6Button7PressedEi+0xde>
		switch (_port){
    1762:	80 81       	ld	r24, Z
    1764:	83 34       	cpi	r24, 0x43	; 67
    1766:	71 f0       	breq	.+28     	; 0x1784 <_ZN6Button7PressedEi+0x9e>
    1768:	84 34       	cpi	r24, 0x44	; 68
    176a:	b1 f0       	breq	.+44     	; 0x1798 <_ZN6Button7PressedEi+0xb2>
    176c:	82 34       	cpi	r24, 0x42	; 66
    176e:	91 f5       	brne	.+100    	; 0x17d4 <_ZN6Button7PressedEi+0xee>
			case 'B': read_pin = ((1 << _pin) & PINB); break;
    1770:	23 b1       	in	r18, 0x03	; 3
    1772:	30 e0       	ldi	r19, 0x00	; 0
    1774:	01 80       	ldd	r0, Z+1	; 0x01
    1776:	02 c0       	rjmp	.+4      	; 0x177c <_ZN6Button7PressedEi+0x96>
    1778:	35 95       	asr	r19
    177a:	27 95       	ror	r18
    177c:	0a 94       	dec	r0
    177e:	e2 f7       	brpl	.-8      	; 0x1778 <_ZN6Button7PressedEi+0x92>
    1780:	21 70       	andi	r18, 0x01	; 1
    1782:	13 c0       	rjmp	.+38     	; 0x17aa <_ZN6Button7PressedEi+0xc4>
			case 'C': read_pin = ((1 << _pin) & PINC); break;
    1784:	26 b1       	in	r18, 0x06	; 6
    1786:	30 e0       	ldi	r19, 0x00	; 0
    1788:	01 80       	ldd	r0, Z+1	; 0x01
    178a:	02 c0       	rjmp	.+4      	; 0x1790 <_ZN6Button7PressedEi+0xaa>
    178c:	35 95       	asr	r19
    178e:	27 95       	ror	r18
    1790:	0a 94       	dec	r0
    1792:	e2 f7       	brpl	.-8      	; 0x178c <_ZN6Button7PressedEi+0xa6>
    1794:	21 70       	andi	r18, 0x01	; 1
    1796:	09 c0       	rjmp	.+18     	; 0x17aa <_ZN6Button7PressedEi+0xc4>
			case 'D': read_pin = ((1 << _pin) & PIND); break;
    1798:	29 b1       	in	r18, 0x09	; 9
    179a:	30 e0       	ldi	r19, 0x00	; 0
    179c:	01 80       	ldd	r0, Z+1	; 0x01
    179e:	02 c0       	rjmp	.+4      	; 0x17a4 <_ZN6Button7PressedEi+0xbe>
    17a0:	35 95       	asr	r19
    17a2:	27 95       	ror	r18
    17a4:	0a 94       	dec	r0
    17a6:	e2 f7       	brpl	.-8      	; 0x17a0 <_ZN6Button7PressedEi+0xba>
    17a8:	21 70       	andi	r18, 0x01	; 1
    17aa:	89 ef       	ldi	r24, 0xF9	; 249
    17ac:	90 e0       	ldi	r25, 0x00	; 0
    17ae:	01 97       	sbiw	r24, 0x01	; 1
    17b0:	f1 f7       	brne	.-4      	; 0x17ae <_ZN6Button7PressedEi+0xc8>
    17b2:	00 c0       	rjmp	.+0      	; 0x17b4 <_ZN6Button7PressedEi+0xce>
    17b4:	00 00       	nop
			default: return false;
		}
		_delay_ms(1);
		slice++;
    17b6:	83 81       	ldd	r24, Z+3	; 0x03
    17b8:	94 81       	ldd	r25, Z+4	; 0x04
    17ba:	01 96       	adiw	r24, 0x01	; 1
    17bc:	94 83       	std	Z+4, r25	; 0x04
    17be:	83 83       	std	Z+3, r24	; 0x03
			debounce--;
		};
	};
	//button anti slice
	slice = 0;
	while((!read_pin)&&(slice<slice_limit)){
    17c0:	22 23       	and	r18, r18
    17c2:	51 f2       	breq	.-108    	; 0x1758 <_ZN6Button7PressedEi+0x72>
			default: return false;
		}
		_delay_ms(1);
		slice++;
	}
	slice_limit=100;
    17c4:	84 e6       	ldi	r24, 0x64	; 100
    17c6:	90 e0       	ldi	r25, 0x00	; 0
    17c8:	96 83       	std	Z+6, r25	; 0x06
    17ca:	85 83       	std	Z+5, r24	; 0x05
	return true;
    17cc:	81 e0       	ldi	r24, 0x01	; 1
    17ce:	08 95       	ret
	if (debounce >= 0){
		switch (_port){
			case 'B': read_pin = ((1 << _pin) & PINB); break;
			case 'C': read_pin = ((1 << _pin) & PINC); break;
			case 'D': read_pin = ((1 << _pin) & PIND); break;
			default: return false;
    17d0:	80 e0       	ldi	r24, 0x00	; 0
    17d2:	08 95       	ret
	while((!read_pin)&&(slice<slice_limit)){
		switch (_port){
			case 'B': read_pin = ((1 << _pin) & PINB); break;
			case 'C': read_pin = ((1 << _pin) & PINC); break;
			case 'D': read_pin = ((1 << _pin) & PIND); break;
			default: return false;
    17d4:	80 e0       	ldi	r24, 0x00	; 0
    17d6:	08 95       	ret
			}else{
			debounce--;
		};
	};
	//button anti slice
	slice = 0;
    17d8:	14 82       	std	Z+4, r1	; 0x04
    17da:	13 82       	std	Z+3, r1	; 0x03
    17dc:	b7 cf       	rjmp	.-146    	; 0x174c <_ZN6Button7PressedEi+0x66>

000017de <_ZN7CarrageC1Ev>:
	support.ForceMove(10,derWheel[1], derWheel[2] ,derWheel[3] ,derWheel[4] );
}

bool Carrage::IfSelectetMalfuction(){
	return Wheel_1.selected_malfinction()||Wheel_2.selected_malfinction()||Wheel_3.selected_malfinction()||Wheel_4.selected_malfinction();
}
    17de:	cf 93       	push	r28
    17e0:	df 93       	push	r29
    17e2:	ec 01       	movw	r28, r24
    17e4:	0e 94 20 21 	call	0x4240	; 0x4240 <_ZN5WheelC1Ev>
    17e8:	ce 01       	movw	r24, r28
    17ea:	8b 96       	adiw	r24, 0x2b	; 43
    17ec:	0e 94 20 21 	call	0x4240	; 0x4240 <_ZN5WheelC1Ev>
    17f0:	ce 01       	movw	r24, r28
    17f2:	8a 5a       	subi	r24, 0xAA	; 170
    17f4:	9f 4f       	sbci	r25, 0xFF	; 255
    17f6:	0e 94 20 21 	call	0x4240	; 0x4240 <_ZN5WheelC1Ev>
    17fa:	ce 01       	movw	r24, r28
    17fc:	8f 57       	subi	r24, 0x7F	; 127
    17fe:	9f 4f       	sbci	r25, 0xFF	; 255
    1800:	0e 94 20 21 	call	0x4240	; 0x4240 <_ZN5WheelC1Ev>
    1804:	ce 01       	movw	r24, r28
    1806:	84 55       	subi	r24, 0x54	; 84
    1808:	9f 4f       	sbci	r25, 0xFF	; 255
    180a:	0e 94 58 20 	call	0x40b0	; 0x40b0 <_ZN7SupportC1Ev>
    180e:	df 91       	pop	r29
    1810:	cf 91       	pop	r28
    1812:	08 95       	ret

00001814 <_ZN7Carrage12beforeAdjastEv>:
    1814:	cf 93       	push	r28
    1816:	df 93       	push	r29
    1818:	ec 01       	movw	r28, r24
    181a:	0e 94 5e 21 	call	0x42bc	; 0x42bc <_ZN5Wheel12initialHightEv>
    181e:	ce 01       	movw	r24, r28
    1820:	8b 96       	adiw	r24, 0x2b	; 43
    1822:	0e 94 5e 21 	call	0x42bc	; 0x42bc <_ZN5Wheel12initialHightEv>
    1826:	ce 01       	movw	r24, r28
    1828:	8a 5a       	subi	r24, 0xAA	; 170
    182a:	9f 4f       	sbci	r25, 0xFF	; 255
    182c:	0e 94 5e 21 	call	0x42bc	; 0x42bc <_ZN5Wheel12initialHightEv>
    1830:	ce 01       	movw	r24, r28
    1832:	8f 57       	subi	r24, 0x7F	; 127
    1834:	9f 4f       	sbci	r25, 0xFF	; 255
    1836:	0e 94 5e 21 	call	0x42bc	; 0x42bc <_ZN5Wheel12initialHightEv>
    183a:	df 91       	pop	r29
    183c:	cf 91       	pop	r28
    183e:	08 95       	ret

00001840 <_ZN7Carrage7ForceUpEv>:
    1840:	ef 92       	push	r14
    1842:	ff 92       	push	r15
    1844:	0f 93       	push	r16
    1846:	1f 93       	push	r17
    1848:	fc 01       	movw	r30, r24
    184a:	22 8d       	ldd	r18, Z+26	; 0x1a
    184c:	22 23       	and	r18, r18
    184e:	29 f0       	breq	.+10     	; 0x185a <_ZN7Carrage7ForceUpEv+0x1a>
    1850:	21 e0       	ldi	r18, 0x01	; 1
    1852:	e8 53       	subi	r30, 0x38	; 56
    1854:	ff 4f       	sbci	r31, 0xFF	; 255
    1856:	20 83       	st	Z, r18
    1858:	04 c0       	rjmp	.+8      	; 0x1862 <_ZN7Carrage7ForceUpEv+0x22>
    185a:	fc 01       	movw	r30, r24
    185c:	e8 53       	subi	r30, 0x38	; 56
    185e:	ff 4f       	sbci	r31, 0xFF	; 255
    1860:	10 82       	st	Z, r1
    1862:	fc 01       	movw	r30, r24
    1864:	eb 5b       	subi	r30, 0xBB	; 187
    1866:	ff 4f       	sbci	r31, 0xFF	; 255
    1868:	20 81       	ld	r18, Z
    186a:	22 23       	and	r18, r18
    186c:	29 f0       	breq	.+10     	; 0x1878 <_ZN7Carrage7ForceUpEv+0x38>
    186e:	21 e0       	ldi	r18, 0x01	; 1
    1870:	ec 57       	subi	r30, 0x7C	; 124
    1872:	ff 4f       	sbci	r31, 0xFF	; 255
    1874:	20 83       	st	Z, r18
    1876:	04 c0       	rjmp	.+8      	; 0x1880 <_ZN7Carrage7ForceUpEv+0x40>
    1878:	fc 01       	movw	r30, r24
    187a:	e7 53       	subi	r30, 0x37	; 55
    187c:	ff 4f       	sbci	r31, 0xFF	; 255
    187e:	10 82       	st	Z, r1
    1880:	fc 01       	movw	r30, r24
    1882:	e0 59       	subi	r30, 0x90	; 144
    1884:	ff 4f       	sbci	r31, 0xFF	; 255
    1886:	20 81       	ld	r18, Z
    1888:	22 23       	and	r18, r18
    188a:	29 f0       	breq	.+10     	; 0x1896 <_ZN7Carrage7ForceUpEv+0x56>
    188c:	21 e0       	ldi	r18, 0x01	; 1
    188e:	e6 5a       	subi	r30, 0xA6	; 166
    1890:	ff 4f       	sbci	r31, 0xFF	; 255
    1892:	20 83       	st	Z, r18
    1894:	04 c0       	rjmp	.+8      	; 0x189e <_ZN7Carrage7ForceUpEv+0x5e>
    1896:	fc 01       	movw	r30, r24
    1898:	e6 53       	subi	r30, 0x36	; 54
    189a:	ff 4f       	sbci	r31, 0xFF	; 255
    189c:	10 82       	st	Z, r1
    189e:	fc 01       	movw	r30, r24
    18a0:	e5 56       	subi	r30, 0x65	; 101
    18a2:	ff 4f       	sbci	r31, 0xFF	; 255
    18a4:	20 81       	ld	r18, Z
    18a6:	22 23       	and	r18, r18
    18a8:	21 f0       	breq	.+8      	; 0x18b2 <_ZN7Carrage7ForceUpEv+0x72>
    18aa:	21 e0       	ldi	r18, 0x01	; 1
    18ac:	f0 96       	adiw	r30, 0x30	; 48
    18ae:	20 83       	st	Z, r18
    18b0:	04 c0       	rjmp	.+8      	; 0x18ba <_ZN7Carrage7ForceUpEv+0x7a>
    18b2:	fc 01       	movw	r30, r24
    18b4:	e5 53       	subi	r30, 0x35	; 53
    18b6:	ff 4f       	sbci	r31, 0xFF	; 255
    18b8:	10 82       	st	Z, r1
    18ba:	fc 01       	movw	r30, r24
    18bc:	e5 53       	subi	r30, 0x35	; 53
    18be:	ff 4f       	sbci	r31, 0xFF	; 255
    18c0:	e0 80       	ld	r14, Z
    18c2:	f1 2c       	mov	r15, r1
    18c4:	31 97       	sbiw	r30, 0x01	; 1
    18c6:	00 81       	ld	r16, Z
    18c8:	10 e0       	ldi	r17, 0x00	; 0
    18ca:	31 97       	sbiw	r30, 0x01	; 1
    18cc:	20 81       	ld	r18, Z
    18ce:	30 e0       	ldi	r19, 0x00	; 0
    18d0:	31 97       	sbiw	r30, 0x01	; 1
    18d2:	40 81       	ld	r20, Z
    18d4:	50 e0       	ldi	r21, 0x00	; 0
    18d6:	6a e0       	ldi	r22, 0x0A	; 10
    18d8:	70 e0       	ldi	r23, 0x00	; 0
    18da:	84 55       	subi	r24, 0x54	; 84
    18dc:	9f 4f       	sbci	r25, 0xFF	; 255
    18de:	0e 94 bf 20 	call	0x417e	; 0x417e <_ZN7Support9ForceMoveEiiiii>
    18e2:	1f 91       	pop	r17
    18e4:	0f 91       	pop	r16
    18e6:	ff 90       	pop	r15
    18e8:	ef 90       	pop	r14
    18ea:	08 95       	ret

000018ec <_ZN7Carrage9ForceDownEv>:
    18ec:	ef 92       	push	r14
    18ee:	ff 92       	push	r15
    18f0:	0f 93       	push	r16
    18f2:	1f 93       	push	r17
    18f4:	fc 01       	movw	r30, r24
    18f6:	22 8d       	ldd	r18, Z+26	; 0x1a
    18f8:	22 23       	and	r18, r18
    18fa:	29 f0       	breq	.+10     	; 0x1906 <_ZN7Carrage9ForceDownEv+0x1a>
    18fc:	22 e0       	ldi	r18, 0x02	; 2
    18fe:	e8 53       	subi	r30, 0x38	; 56
    1900:	ff 4f       	sbci	r31, 0xFF	; 255
    1902:	20 83       	st	Z, r18
    1904:	04 c0       	rjmp	.+8      	; 0x190e <_ZN7Carrage9ForceDownEv+0x22>
    1906:	fc 01       	movw	r30, r24
    1908:	e8 53       	subi	r30, 0x38	; 56
    190a:	ff 4f       	sbci	r31, 0xFF	; 255
    190c:	10 82       	st	Z, r1
    190e:	fc 01       	movw	r30, r24
    1910:	eb 5b       	subi	r30, 0xBB	; 187
    1912:	ff 4f       	sbci	r31, 0xFF	; 255
    1914:	20 81       	ld	r18, Z
    1916:	22 23       	and	r18, r18
    1918:	29 f0       	breq	.+10     	; 0x1924 <_ZN7Carrage9ForceDownEv+0x38>
    191a:	22 e0       	ldi	r18, 0x02	; 2
    191c:	ec 57       	subi	r30, 0x7C	; 124
    191e:	ff 4f       	sbci	r31, 0xFF	; 255
    1920:	20 83       	st	Z, r18
    1922:	04 c0       	rjmp	.+8      	; 0x192c <_ZN7Carrage9ForceDownEv+0x40>
    1924:	fc 01       	movw	r30, r24
    1926:	e7 53       	subi	r30, 0x37	; 55
    1928:	ff 4f       	sbci	r31, 0xFF	; 255
    192a:	10 82       	st	Z, r1
    192c:	fc 01       	movw	r30, r24
    192e:	e0 59       	subi	r30, 0x90	; 144
    1930:	ff 4f       	sbci	r31, 0xFF	; 255
    1932:	20 81       	ld	r18, Z
    1934:	22 23       	and	r18, r18
    1936:	29 f0       	breq	.+10     	; 0x1942 <_ZN7Carrage9ForceDownEv+0x56>
    1938:	22 e0       	ldi	r18, 0x02	; 2
    193a:	e6 5a       	subi	r30, 0xA6	; 166
    193c:	ff 4f       	sbci	r31, 0xFF	; 255
    193e:	20 83       	st	Z, r18
    1940:	04 c0       	rjmp	.+8      	; 0x194a <_ZN7Carrage9ForceDownEv+0x5e>
    1942:	fc 01       	movw	r30, r24
    1944:	e6 53       	subi	r30, 0x36	; 54
    1946:	ff 4f       	sbci	r31, 0xFF	; 255
    1948:	10 82       	st	Z, r1
    194a:	fc 01       	movw	r30, r24
    194c:	e5 56       	subi	r30, 0x65	; 101
    194e:	ff 4f       	sbci	r31, 0xFF	; 255
    1950:	20 81       	ld	r18, Z
    1952:	22 23       	and	r18, r18
    1954:	21 f0       	breq	.+8      	; 0x195e <_ZN7Carrage9ForceDownEv+0x72>
    1956:	22 e0       	ldi	r18, 0x02	; 2
    1958:	f0 96       	adiw	r30, 0x30	; 48
    195a:	20 83       	st	Z, r18
    195c:	04 c0       	rjmp	.+8      	; 0x1966 <_ZN7Carrage9ForceDownEv+0x7a>
    195e:	fc 01       	movw	r30, r24
    1960:	e5 53       	subi	r30, 0x35	; 53
    1962:	ff 4f       	sbci	r31, 0xFF	; 255
    1964:	10 82       	st	Z, r1
    1966:	fc 01       	movw	r30, r24
    1968:	e5 53       	subi	r30, 0x35	; 53
    196a:	ff 4f       	sbci	r31, 0xFF	; 255
    196c:	e0 80       	ld	r14, Z
    196e:	f1 2c       	mov	r15, r1
    1970:	31 97       	sbiw	r30, 0x01	; 1
    1972:	00 81       	ld	r16, Z
    1974:	10 e0       	ldi	r17, 0x00	; 0
    1976:	31 97       	sbiw	r30, 0x01	; 1
    1978:	20 81       	ld	r18, Z
    197a:	30 e0       	ldi	r19, 0x00	; 0
    197c:	31 97       	sbiw	r30, 0x01	; 1
    197e:	40 81       	ld	r20, Z
    1980:	50 e0       	ldi	r21, 0x00	; 0
    1982:	6a e0       	ldi	r22, 0x0A	; 10
    1984:	70 e0       	ldi	r23, 0x00	; 0
    1986:	84 55       	subi	r24, 0x54	; 84
    1988:	9f 4f       	sbci	r25, 0xFF	; 255
    198a:	0e 94 bf 20 	call	0x417e	; 0x417e <_ZN7Support9ForceMoveEiiiii>
    198e:	1f 91       	pop	r17
    1990:	0f 91       	pop	r16
    1992:	ff 90       	pop	r15
    1994:	ef 90       	pop	r14
    1996:	08 95       	ret

00001998 <_ZN7Carrage9SetLimitsEv>:


void Carrage::SetLimits(){
    1998:	cf 93       	push	r28
    199a:	df 93       	push	r29
    199c:	fc 01       	movw	r30, r24
	Wheel_1.maxHight = max;
    199e:	dc 01       	movw	r26, r24
    19a0:	aa 54       	subi	r26, 0x4A	; 74
    19a2:	bf 4f       	sbci	r27, 0xFF	; 255
    19a4:	8d 91       	ld	r24, X+
    19a6:	9d 91       	ld	r25, X+
    19a8:	0d 90       	ld	r0, X+
    19aa:	bc 91       	ld	r27, X
    19ac:	a0 2d       	mov	r26, r0
    19ae:	86 83       	std	Z+6, r24	; 0x06
    19b0:	97 83       	std	Z+7, r25	; 0x07
    19b2:	a0 87       	std	Z+8, r26	; 0x08
    19b4:	b1 87       	std	Z+9, r27	; 0x09
	Wheel_2.maxHight = max;
    19b6:	81 ab       	std	Z+49, r24	; 0x31
    19b8:	92 ab       	std	Z+50, r25	; 0x32
    19ba:	a3 ab       	std	Z+51, r26	; 0x33
    19bc:	b4 ab       	std	Z+52, r27	; 0x34
	Wheel_3.maxHight = max;
    19be:	ef 01       	movw	r28, r30
    19c0:	c4 5a       	subi	r28, 0xA4	; 164
    19c2:	df 4f       	sbci	r29, 0xFF	; 255
    19c4:	88 83       	st	Y, r24
    19c6:	99 83       	std	Y+1, r25	; 0x01
    19c8:	aa 83       	std	Y+2, r26	; 0x02
    19ca:	bb 83       	std	Y+3, r27	; 0x03
	Wheel_4.maxHight = max;
    19cc:	ab 96       	adiw	r28, 0x2b	; 43
    19ce:	88 83       	st	Y, r24
    19d0:	99 83       	std	Y+1, r25	; 0x01
    19d2:	aa 83       	std	Y+2, r26	; 0x02
    19d4:	bb 83       	std	Y+3, r27	; 0x03
	
	Wheel_1.minHight = min;
    19d6:	df 01       	movw	r26, r30
    19d8:	ae 54       	subi	r26, 0x4E	; 78
    19da:	bf 4f       	sbci	r27, 0xFF	; 255
    19dc:	8d 91       	ld	r24, X+
    19de:	9d 91       	ld	r25, X+
    19e0:	0d 90       	ld	r0, X+
    19e2:	bc 91       	ld	r27, X
    19e4:	a0 2d       	mov	r26, r0
    19e6:	82 87       	std	Z+10, r24	; 0x0a
    19e8:	93 87       	std	Z+11, r25	; 0x0b
    19ea:	a4 87       	std	Z+12, r26	; 0x0c
    19ec:	b5 87       	std	Z+13, r27	; 0x0d
	Wheel_2.minHight = min;
    19ee:	85 ab       	std	Z+53, r24	; 0x35
    19f0:	96 ab       	std	Z+54, r25	; 0x36
    19f2:	a7 ab       	std	Z+55, r26	; 0x37
    19f4:	b0 af       	std	Z+56, r27	; 0x38
	Wheel_3.minHight = min;
    19f6:	a7 97       	sbiw	r28, 0x27	; 39
    19f8:	88 83       	st	Y, r24
    19fa:	99 83       	std	Y+1, r25	; 0x01
    19fc:	aa 83       	std	Y+2, r26	; 0x02
    19fe:	bb 83       	std	Y+3, r27	; 0x03
	Wheel_4.minHight = min;
    1a00:	e5 57       	subi	r30, 0x75	; 117
    1a02:	ff 4f       	sbci	r31, 0xFF	; 255
    1a04:	80 83       	st	Z, r24
    1a06:	91 83       	std	Z+1, r25	; 0x01
    1a08:	a2 83       	std	Z+2, r26	; 0x02
    1a0a:	b3 83       	std	Z+3, r27	; 0x03
}
    1a0c:	df 91       	pop	r29
    1a0e:	cf 91       	pop	r28
    1a10:	08 95       	ret

00001a12 <_ZN7Carrage19CheckLimitsSetHightEv>:

void Carrage::CheckLimitsSetHight(){
    1a12:	cf 93       	push	r28
    1a14:	df 93       	push	r29
    1a16:	ec 01       	movw	r28, r24
	Wheel_1.SetLimitsSetHight();
    1a18:	0e 94 25 22 	call	0x444a	; 0x444a <_ZN5Wheel17SetLimitsSetHightEv>
	Wheel_2.SetLimitsSetHight();
    1a1c:	ce 01       	movw	r24, r28
    1a1e:	8b 96       	adiw	r24, 0x2b	; 43
    1a20:	0e 94 25 22 	call	0x444a	; 0x444a <_ZN5Wheel17SetLimitsSetHightEv>
	Wheel_3.SetLimitsSetHight();
    1a24:	ce 01       	movw	r24, r28
    1a26:	8a 5a       	subi	r24, 0xAA	; 170
    1a28:	9f 4f       	sbci	r25, 0xFF	; 255
    1a2a:	0e 94 25 22 	call	0x444a	; 0x444a <_ZN5Wheel17SetLimitsSetHightEv>
	Wheel_4.SetLimitsSetHight();
    1a2e:	ce 01       	movw	r24, r28
    1a30:	8f 57       	subi	r24, 0x7F	; 127
    1a32:	9f 4f       	sbci	r25, 0xFF	; 255
    1a34:	0e 94 25 22 	call	0x444a	; 0x444a <_ZN5Wheel17SetLimitsSetHightEv>
}
    1a38:	df 91       	pop	r29
    1a3a:	cf 91       	pop	r28
    1a3c:	08 95       	ret

00001a3e <_ZN7Carrage8chechAllEv>:
		if	(derWheel[3]>0){checked[3]=Wheel_3.Check();}else{checked[3]=true;}
		if	(derWheel[4]>0){checked[4]=Wheel_4.Check();}else{checked[4]=true;}	
		if  (checked[1]&&checked[2]&&checked[3]&&checked[4]){return true;}else{return false;}					
}

bool Carrage::chechAll(){
    1a3e:	4f 92       	push	r4
    1a40:	5f 92       	push	r5
    1a42:	6f 92       	push	r6
    1a44:	7f 92       	push	r7
    1a46:	8f 92       	push	r8
    1a48:	9f 92       	push	r9
    1a4a:	af 92       	push	r10
    1a4c:	bf 92       	push	r11
    1a4e:	cf 92       	push	r12
    1a50:	df 92       	push	r13
    1a52:	ef 92       	push	r14
    1a54:	ff 92       	push	r15
    1a56:	0f 93       	push	r16
    1a58:	1f 93       	push	r17
    1a5a:	cf 93       	push	r28
    1a5c:	df 93       	push	r29
    1a5e:	ec 01       	movw	r28, r24
	Wheel_1.get_hight();
    1a60:	0e 94 24 21 	call	0x4248	; 0x4248 <_ZN5Wheel9get_hightEv>
	Wheel_2.get_hight();
    1a64:	4e 01       	movw	r8, r28
    1a66:	8b e2       	ldi	r24, 0x2B	; 43
    1a68:	88 0e       	add	r8, r24
    1a6a:	91 1c       	adc	r9, r1
    1a6c:	c4 01       	movw	r24, r8
    1a6e:	0e 94 24 21 	call	0x4248	; 0x4248 <_ZN5Wheel9get_hightEv>
	Wheel_3.get_hight();
    1a72:	5e 01       	movw	r10, r28
    1a74:	96 e5       	ldi	r25, 0x56	; 86
    1a76:	a9 0e       	add	r10, r25
    1a78:	b1 1c       	adc	r11, r1
    1a7a:	c5 01       	movw	r24, r10
    1a7c:	0e 94 24 21 	call	0x4248	; 0x4248 <_ZN5Wheel9get_hightEv>
	Wheel_4.get_hight();
    1a80:	6e 01       	movw	r12, r28
    1a82:	e1 e8       	ldi	r30, 0x81	; 129
    1a84:	ce 0e       	add	r12, r30
    1a86:	d1 1c       	adc	r13, r1
    1a88:	c6 01       	movw	r24, r12
    1a8a:	0e 94 24 21 	call	0x4248	; 0x4248 <_ZN5Wheel9get_hightEv>
	support.Adjast(10 ,1, 1 ,1 ,1 );
    1a8e:	3e 01       	movw	r6, r28
    1a90:	fc ea       	ldi	r31, 0xAC	; 172
    1a92:	6f 0e       	add	r6, r31
    1a94:	71 1c       	adc	r7, r1
    1a96:	ee 24       	eor	r14, r14
    1a98:	e3 94       	inc	r14
    1a9a:	f1 2c       	mov	r15, r1
    1a9c:	01 e0       	ldi	r16, 0x01	; 1
    1a9e:	10 e0       	ldi	r17, 0x00	; 0
    1aa0:	21 e0       	ldi	r18, 0x01	; 1
    1aa2:	30 e0       	ldi	r19, 0x00	; 0
    1aa4:	41 e0       	ldi	r20, 0x01	; 1
    1aa6:	50 e0       	ldi	r21, 0x00	; 0
    1aa8:	6a e0       	ldi	r22, 0x0A	; 10
    1aaa:	70 e0       	ldi	r23, 0x00	; 0
    1aac:	c3 01       	movw	r24, r6
    1aae:	0e 94 5e 20 	call	0x40bc	; 0x40bc <_ZN7Support6AdjastEiiiii>
	checked[1]=Wheel_1.Check();	
    1ab2:	ce 01       	movw	r24, r28
    1ab4:	0e 94 e8 21 	call	0x43d0	; 0x43d0 <_ZN5Wheel5CheckEv>
    1ab8:	2e 01       	movw	r4, r28
    1aba:	9e ec       	ldi	r25, 0xCE	; 206
    1abc:	49 0e       	add	r4, r25
    1abe:	51 1c       	adc	r5, r1
    1ac0:	90 e0       	ldi	r25, 0x00	; 0
    1ac2:	f2 01       	movw	r30, r4
    1ac4:	91 83       	std	Z+1, r25	; 0x01
    1ac6:	80 83       	st	Z, r24
	checked[2]=Wheel_2.Check();
    1ac8:	c4 01       	movw	r24, r8
    1aca:	0e 94 e8 21 	call	0x43d0	; 0x43d0 <_ZN5Wheel5CheckEv>
    1ace:	fe 01       	movw	r30, r28
    1ad0:	e0 53       	subi	r30, 0x30	; 48
    1ad2:	ff 4f       	sbci	r31, 0xFF	; 255
    1ad4:	90 e0       	ldi	r25, 0x00	; 0
    1ad6:	91 83       	std	Z+1, r25	; 0x01
    1ad8:	80 83       	st	Z, r24
	checked[3]=Wheel_3.Check();
    1ada:	c5 01       	movw	r24, r10
    1adc:	0e 94 e8 21 	call	0x43d0	; 0x43d0 <_ZN5Wheel5CheckEv>
    1ae0:	fe 01       	movw	r30, r28
    1ae2:	ee 52       	subi	r30, 0x2E	; 46
    1ae4:	ff 4f       	sbci	r31, 0xFF	; 255
    1ae6:	90 e0       	ldi	r25, 0x00	; 0
    1ae8:	91 83       	std	Z+1, r25	; 0x01
    1aea:	80 83       	st	Z, r24
	checked[4]=Wheel_4.Check();
    1aec:	c6 01       	movw	r24, r12
    1aee:	0e 94 e8 21 	call	0x43d0	; 0x43d0 <_ZN5Wheel5CheckEv>
    1af2:	fe 01       	movw	r30, r28
    1af4:	ec 52       	subi	r30, 0x2C	; 44
    1af6:	ff 4f       	sbci	r31, 0xFF	; 255
    1af8:	90 e0       	ldi	r25, 0x00	; 0
    1afa:	91 83       	std	Z+1, r25	; 0x01
    1afc:	80 83       	st	Z, r24
	support.Adjast(10 ,2, 2 ,2 ,2 );
    1afe:	68 94       	set
    1b00:	ee 24       	eor	r14, r14
    1b02:	e1 f8       	bld	r14, 1
    1b04:	f1 2c       	mov	r15, r1
    1b06:	02 e0       	ldi	r16, 0x02	; 2
    1b08:	10 e0       	ldi	r17, 0x00	; 0
    1b0a:	22 e0       	ldi	r18, 0x02	; 2
    1b0c:	30 e0       	ldi	r19, 0x00	; 0
    1b0e:	42 e0       	ldi	r20, 0x02	; 2
    1b10:	50 e0       	ldi	r21, 0x00	; 0
    1b12:	6a e0       	ldi	r22, 0x0A	; 10
    1b14:	70 e0       	ldi	r23, 0x00	; 0
    1b16:	c3 01       	movw	r24, r6
    1b18:	0e 94 5e 20 	call	0x40bc	; 0x40bc <_ZN7Support6AdjastEiiiii>
	if  (checked[1]&&checked[2]&&checked[3]&&checked[4]){return true;}else{return false;}
    1b1c:	f2 01       	movw	r30, r4
    1b1e:	80 81       	ld	r24, Z
    1b20:	91 81       	ldd	r25, Z+1	; 0x01
    1b22:	89 2b       	or	r24, r25
    1b24:	99 f0       	breq	.+38     	; 0x1b4c <_ZN7Carrage8chechAllEv+0x10e>
    1b26:	32 96       	adiw	r30, 0x02	; 2
    1b28:	80 81       	ld	r24, Z
    1b2a:	91 81       	ldd	r25, Z+1	; 0x01
    1b2c:	89 2b       	or	r24, r25
    1b2e:	81 f0       	breq	.+32     	; 0x1b50 <_ZN7Carrage8chechAllEv+0x112>
    1b30:	32 96       	adiw	r30, 0x02	; 2
    1b32:	80 81       	ld	r24, Z
    1b34:	91 81       	ldd	r25, Z+1	; 0x01
    1b36:	89 2b       	or	r24, r25
    1b38:	69 f0       	breq	.+26     	; 0x1b54 <_ZN7Carrage8chechAllEv+0x116>
    1b3a:	cc 52       	subi	r28, 0x2C	; 44
    1b3c:	df 4f       	sbci	r29, 0xFF	; 255
    1b3e:	81 e0       	ldi	r24, 0x01	; 1
    1b40:	28 81       	ld	r18, Y
    1b42:	39 81       	ldd	r19, Y+1	; 0x01
    1b44:	23 2b       	or	r18, r19
    1b46:	39 f4       	brne	.+14     	; 0x1b56 <_ZN7Carrage8chechAllEv+0x118>
    1b48:	80 e0       	ldi	r24, 0x00	; 0
    1b4a:	05 c0       	rjmp	.+10     	; 0x1b56 <_ZN7Carrage8chechAllEv+0x118>
    1b4c:	80 e0       	ldi	r24, 0x00	; 0
    1b4e:	03 c0       	rjmp	.+6      	; 0x1b56 <_ZN7Carrage8chechAllEv+0x118>
    1b50:	80 e0       	ldi	r24, 0x00	; 0
    1b52:	01 c0       	rjmp	.+2      	; 0x1b56 <_ZN7Carrage8chechAllEv+0x118>
    1b54:	80 e0       	ldi	r24, 0x00	; 0
	
}
    1b56:	df 91       	pop	r29
    1b58:	cf 91       	pop	r28
    1b5a:	1f 91       	pop	r17
    1b5c:	0f 91       	pop	r16
    1b5e:	ff 90       	pop	r15
    1b60:	ef 90       	pop	r14
    1b62:	df 90       	pop	r13
    1b64:	cf 90       	pop	r12
    1b66:	bf 90       	pop	r11
    1b68:	af 90       	pop	r10
    1b6a:	9f 90       	pop	r9
    1b6c:	8f 90       	pop	r8
    1b6e:	7f 90       	pop	r7
    1b70:	6f 90       	pop	r6
    1b72:	5f 90       	pop	r5
    1b74:	4f 90       	pop	r4
    1b76:	08 95       	ret

00001b78 <_ZN7Carrage4InitEv>:
// default constructor
Carrage::Carrage()
{
} //Carrage

void Carrage::Init(){
    1b78:	cf 93       	push	r28
    1b7a:	df 93       	push	r29
    1b7c:	ec 01       	movw	r28, r24
	Wheel_1.Init(1);
    1b7e:	61 e0       	ldi	r22, 0x01	; 1
    1b80:	70 e0       	ldi	r23, 0x00	; 0
    1b82:	0e 94 33 21 	call	0x4266	; 0x4266 <_ZN5Wheel4InitEi>
	Wheel_2.Init(2);
    1b86:	62 e0       	ldi	r22, 0x02	; 2
    1b88:	70 e0       	ldi	r23, 0x00	; 0
    1b8a:	ce 01       	movw	r24, r28
    1b8c:	8b 96       	adiw	r24, 0x2b	; 43
    1b8e:	0e 94 33 21 	call	0x4266	; 0x4266 <_ZN5Wheel4InitEi>
	Wheel_3.Init(3);
    1b92:	63 e0       	ldi	r22, 0x03	; 3
    1b94:	70 e0       	ldi	r23, 0x00	; 0
    1b96:	ce 01       	movw	r24, r28
    1b98:	8a 5a       	subi	r24, 0xAA	; 170
    1b9a:	9f 4f       	sbci	r25, 0xFF	; 255
    1b9c:	0e 94 33 21 	call	0x4266	; 0x4266 <_ZN5Wheel4InitEi>
	Wheel_4.Init(4);
    1ba0:	64 e0       	ldi	r22, 0x04	; 4
    1ba2:	70 e0       	ldi	r23, 0x00	; 0
    1ba4:	ce 01       	movw	r24, r28
    1ba6:	8f 57       	subi	r24, 0x7F	; 127
    1ba8:	9f 4f       	sbci	r25, 0xFF	; 255
    1baa:	0e 94 33 21 	call	0x4266	; 0x4266 <_ZN5Wheel4InitEi>
	support.Init();
    1bae:	ce 01       	movw	r24, r28
    1bb0:	84 55       	subi	r24, 0x54	; 84
    1bb2:	9f 4f       	sbci	r25, 0xFF	; 255
    1bb4:	0e 94 59 20 	call	0x40b2	; 0x40b2 <_ZN7Support4InitEv>
	_step =1;
    1bb8:	fe 01       	movw	r30, r28
    1bba:	e8 52       	subi	r30, 0x28	; 40
    1bbc:	ff 4f       	sbci	r31, 0xFF	; 255
    1bbe:	81 e0       	ldi	r24, 0x01	; 1
    1bc0:	90 e0       	ldi	r25, 0x00	; 0
    1bc2:	91 83       	std	Z+1, r25	; 0x01
    1bc4:	80 83       	st	Z, r24
	chechAll();
    1bc6:	ce 01       	movw	r24, r28
    1bc8:	0e 94 1f 0d 	call	0x1a3e	; 0x1a3e <_ZN7Carrage8chechAllEv>
}
    1bcc:	df 91       	pop	r29
    1bce:	cf 91       	pop	r28
    1bd0:	08 95       	ret

00001bd2 <_ZN7Carrage7getStepEv>:
	support.Adjast(10 ,2, 2 ,2 ,2 );
	if  (checked[1]&&checked[2]&&checked[3]&&checked[4]){return true;}else{return false;}
	
}

int Carrage::getStep(){
    1bd2:	cf 93       	push	r28
    1bd4:	df 93       	push	r29
	int step = 0;
	int i;
	sort_array[0] = Wheel_1.step;
    1bd6:	fc 01       	movw	r30, r24
    1bd8:	e1 54       	subi	r30, 0x41	; 65
    1bda:	ff 4f       	sbci	r31, 0xFF	; 255
    1bdc:	dc 01       	movw	r26, r24
    1bde:	92 96       	adiw	r26, 0x22	; 34
    1be0:	2d 91       	ld	r18, X+
    1be2:	3c 91       	ld	r19, X
    1be4:	93 97       	sbiw	r26, 0x23	; 35
    1be6:	31 83       	std	Z+1, r19	; 0x01
    1be8:	20 83       	st	Z, r18
	sort_array[1] = Wheel_2.step;
    1bea:	af 53       	subi	r26, 0x3F	; 63
    1bec:	bf 4f       	sbci	r27, 0xFF	; 255
    1bee:	ec 01       	movw	r28, r24
    1bf0:	c3 5b       	subi	r28, 0xB3	; 179
    1bf2:	df 4f       	sbci	r29, 0xFF	; 255
    1bf4:	28 81       	ld	r18, Y
    1bf6:	39 81       	ldd	r19, Y+1	; 0x01
    1bf8:	11 96       	adiw	r26, 0x01	; 1
    1bfa:	3c 93       	st	X, r19
    1bfc:	2e 93       	st	-X, r18
	sort_array[2] = Wheel_3.step;
    1bfe:	12 96       	adiw	r26, 0x02	; 2
    1c00:	ab 96       	adiw	r28, 0x2b	; 43
    1c02:	28 81       	ld	r18, Y
    1c04:	39 81       	ldd	r19, Y+1	; 0x01
    1c06:	11 96       	adiw	r26, 0x01	; 1
    1c08:	3c 93       	st	X, r19
    1c0a:	2e 93       	st	-X, r18
	sort_array[3] = Wheel_4.step;
    1c0c:	12 96       	adiw	r26, 0x02	; 2
    1c0e:	ab 96       	adiw	r28, 0x2b	; 43
    1c10:	28 81       	ld	r18, Y
    1c12:	39 81       	ldd	r19, Y+1	; 0x01
    1c14:	2d 93       	st	X+, r18
    1c16:	3c 93       	st	X, r19
    1c18:	df 01       	movw	r26, r30
    1c1a:	ac 01       	movw	r20, r24
    1c1c:	49 53       	subi	r20, 0x39	; 57
    1c1e:	5f 4f       	sbci	r21, 0xFF	; 255
	i = 0;
	while(i<4){
		if (sort_array[i]>0){step = sort_array[i];i=5;}
    1c20:	61 91       	ld	r22, Z+
    1c22:	71 91       	ld	r23, Z+
    1c24:	16 16       	cp	r1, r22
    1c26:	17 06       	cpc	r1, r23
    1c28:	24 f0       	brlt	.+8      	; 0x1c32 <_ZN7Carrage7getStepEv+0x60>
	sort_array[0] = Wheel_1.step;
	sort_array[1] = Wheel_2.step;
	sort_array[2] = Wheel_3.step;
	sort_array[3] = Wheel_4.step;
	i = 0;
	while(i<4){
    1c2a:	e4 17       	cp	r30, r20
    1c2c:	f5 07       	cpc	r31, r21
    1c2e:	c1 f7       	brne	.-16     	; 0x1c20 <_ZN7Carrage7getStepEv+0x4e>
    1c30:	27 c0       	rjmp	.+78     	; 0x1c80 <_ZN7Carrage7getStepEv+0xae>
		if (sort_array[i]>0){step = sort_array[i];i=5;}
		i++;
	};
	
	if (step == 0){return 0;};
    1c32:	61 15       	cp	r22, r1
    1c34:	71 05       	cpc	r23, r1
    1c36:	39 f1       	breq	.+78     	; 0x1c86 <_ZN7Carrage7getStepEv+0xb4>
		
	i = 0;	
	while(i<4){
		if ( sort_array[i] > 0){
    1c38:	2d 91       	ld	r18, X+
    1c3a:	3d 91       	ld	r19, X+
    1c3c:	12 16       	cp	r1, r18
    1c3e:	13 06       	cpc	r1, r19
    1c40:	24 f4       	brge	.+8      	; 0x1c4a <_ZN7Carrage7getStepEv+0x78>
    1c42:	26 17       	cp	r18, r22
    1c44:	37 07       	cpc	r19, r23
    1c46:	0c f4       	brge	.+2      	; 0x1c4a <_ZN7Carrage7getStepEv+0x78>
    1c48:	b9 01       	movw	r22, r18
	};
	
	if (step == 0){return 0;};
		
	i = 0;	
	while(i<4){
    1c4a:	a4 17       	cp	r26, r20
    1c4c:	b5 07       	cpc	r27, r21
    1c4e:	a1 f7       	brne	.-24     	; 0x1c38 <_ZN7Carrage7getStepEv+0x66>
		i++;
	}
	//step = sort_array[0];
	step=step;
	if (step>50){step = 50;}
	return step*tunning;
    1c50:	63 33       	cpi	r22, 0x33	; 51
    1c52:	71 05       	cpc	r23, r1
    1c54:	14 f0       	brlt	.+4      	; 0x1c5a <_ZN7Carrage7getStepEv+0x88>
    1c56:	62 e3       	ldi	r22, 0x32	; 50
    1c58:	70 e0       	ldi	r23, 0x00	; 0
    1c5a:	ec 01       	movw	r28, r24
    1c5c:	07 2e       	mov	r0, r23
    1c5e:	00 0c       	add	r0, r0
    1c60:	88 0b       	sbc	r24, r24
    1c62:	99 0b       	sbc	r25, r25
    1c64:	0e 94 ff 23 	call	0x47fe	; 0x47fe <__floatsisf>
    1c68:	c2 55       	subi	r28, 0x52	; 82
    1c6a:	df 4f       	sbci	r29, 0xFF	; 255
    1c6c:	28 81       	ld	r18, Y
    1c6e:	39 81       	ldd	r19, Y+1	; 0x01
    1c70:	4a 81       	ldd	r20, Y+2	; 0x02
    1c72:	5b 81       	ldd	r21, Y+3	; 0x03
    1c74:	0e 94 b4 24 	call	0x4968	; 0x4968 <__mulsf3>
    1c78:	0e 94 c7 23 	call	0x478e	; 0x478e <__fixsfsi>
    1c7c:	cb 01       	movw	r24, r22
    1c7e:	05 c0       	rjmp	.+10     	; 0x1c8a <_ZN7Carrage7getStepEv+0xb8>
	while(i<4){
		if (sort_array[i]>0){step = sort_array[i];i=5;}
		i++;
	};
	
	if (step == 0){return 0;};
    1c80:	80 e0       	ldi	r24, 0x00	; 0
    1c82:	90 e0       	ldi	r25, 0x00	; 0
    1c84:	02 c0       	rjmp	.+4      	; 0x1c8a <_ZN7Carrage7getStepEv+0xb8>
    1c86:	80 e0       	ldi	r24, 0x00	; 0
    1c88:	90 e0       	ldi	r25, 0x00	; 0
	}
	//step = sort_array[0];
	step=step;
	if (step>50){step = 50;}
	return step*tunning;
} 
    1c8a:	df 91       	pop	r29
    1c8c:	cf 91       	pop	r28
    1c8e:	08 95       	ret

00001c90 <_ZN7Carrage20Fast_print_LSD_hightE5Wheel>:

void Carrage::Fast_print_LSD_hight(Wheel wheel){
    1c90:	cf 92       	push	r12
    1c92:	df 92       	push	r13
    1c94:	ef 92       	push	r14
    1c96:	ff 92       	push	r15
    1c98:	0f 93       	push	r16
    1c9a:	1f 93       	push	r17
    1c9c:	cf 93       	push	r28
    1c9e:	df 93       	push	r29
    1ca0:	cd b7       	in	r28, 0x3d	; 61
    1ca2:	de b7       	in	r29, 0x3e	; 62
	int hight_pos_x;
	int hight_pos_y;
	int n = wheel.number;
	int Char_wheel[6];
	//get position
	switch(n){
    1ca4:	8b 85       	ldd	r24, Y+11	; 0x0b
    1ca6:	9c 85       	ldd	r25, Y+12	; 0x0c
    1ca8:	82 30       	cpi	r24, 0x02	; 2
    1caa:	91 05       	cpc	r25, r1
    1cac:	71 f0       	breq	.+28     	; 0x1cca <_ZN7Carrage20Fast_print_LSD_hightE5Wheel+0x3a>
    1cae:	1c f4       	brge	.+6      	; 0x1cb6 <_ZN7Carrage20Fast_print_LSD_hightE5Wheel+0x26>
    1cb0:	01 97       	sbiw	r24, 0x01	; 1
    1cb2:	39 f0       	breq	.+14     	; 0x1cc2 <_ZN7Carrage20Fast_print_LSD_hightE5Wheel+0x32>
    1cb4:	1d c0       	rjmp	.+58     	; 0x1cf0 <_ZN7Carrage20Fast_print_LSD_hightE5Wheel+0x60>
    1cb6:	83 30       	cpi	r24, 0x03	; 3
    1cb8:	91 05       	cpc	r25, r1
    1cba:	71 f0       	breq	.+28     	; 0x1cd8 <_ZN7Carrage20Fast_print_LSD_hightE5Wheel+0x48>
    1cbc:	04 97       	sbiw	r24, 0x04	; 4
    1cbe:	a1 f0       	breq	.+40     	; 0x1ce8 <_ZN7Carrage20Fast_print_LSD_hightE5Wheel+0x58>
    1cc0:	17 c0       	rjmp	.+46     	; 0x1cf0 <_ZN7Carrage20Fast_print_LSD_hightE5Wheel+0x60>
		case 1:hight_pos_x = 0; hight_pos_y = 1 ; break;
    1cc2:	cc 24       	eor	r12, r12
    1cc4:	c3 94       	inc	r12
    1cc6:	d1 2c       	mov	r13, r1
    1cc8:	13 c0       	rjmp	.+38     	; 0x1cf0 <_ZN7Carrage20Fast_print_LSD_hightE5Wheel+0x60>
		case 2:hight_pos_x = 11; hight_pos_y = 1 ;break;
    1cca:	cc 24       	eor	r12, r12
    1ccc:	c3 94       	inc	r12
    1cce:	0f 2e       	mov	r0, r31
    1cd0:	fb e0       	ldi	r31, 0x0B	; 11
    1cd2:	df 2e       	mov	r13, r31
    1cd4:	f0 2d       	mov	r31, r0
    1cd6:	0c c0       	rjmp	.+24     	; 0x1cf0 <_ZN7Carrage20Fast_print_LSD_hightE5Wheel+0x60>
		case 3:hight_pos_x = 11; hight_pos_y = 4 ;break;
    1cd8:	68 94       	set
    1cda:	cc 24       	eor	r12, r12
    1cdc:	c2 f8       	bld	r12, 2
    1cde:	0f 2e       	mov	r0, r31
    1ce0:	fb e0       	ldi	r31, 0x0B	; 11
    1ce2:	df 2e       	mov	r13, r31
    1ce4:	f0 2d       	mov	r31, r0
    1ce6:	04 c0       	rjmp	.+8      	; 0x1cf0 <_ZN7Carrage20Fast_print_LSD_hightE5Wheel+0x60>
		case 4:hight_pos_x = 0; hight_pos_y = 4 ;break;
    1ce8:	68 94       	set
    1cea:	cc 24       	eor	r12, r12
    1cec:	c2 f8       	bld	r12, 2
    1cee:	d1 2c       	mov	r13, r1
	}
	float hight = wheel.get_hight();
    1cf0:	ce 01       	movw	r24, r28
    1cf2:	0b 96       	adiw	r24, 0x0b	; 11
    1cf4:	0e 94 24 21 	call	0x4248	; 0x4248 <_ZN5Wheel9get_hightEv>
    1cf8:	8b 01       	movw	r16, r22
    1cfa:	9c 01       	movw	r18, r24
	Lcd_printf2(hight_pos_x, hight_pos_y, FONT_1X, hight, 2);
    1cfc:	68 94       	set
    1cfe:	ee 24       	eor	r14, r14
    1d00:	e1 f8       	bld	r14, 1
    1d02:	f1 2c       	mov	r15, r1
    1d04:	41 e0       	ldi	r20, 0x01	; 1
    1d06:	6c 2d       	mov	r22, r12
    1d08:	8d 2d       	mov	r24, r13
    1d0a:	0e 94 72 15 	call	0x2ae4	; 0x2ae4 <_Z11Lcd_printf2hh11LcdFontSizefi>
	Lcd_update();
    1d0e:	0e 94 68 13 	call	0x26d0	; 0x26d0 <_Z10Lcd_updatev>
}
    1d12:	df 91       	pop	r29
    1d14:	cf 91       	pop	r28
    1d16:	1f 91       	pop	r17
    1d18:	0f 91       	pop	r16
    1d1a:	ff 90       	pop	r15
    1d1c:	ef 90       	pop	r14
    1d1e:	df 90       	pop	r13
    1d20:	cf 90       	pop	r12
    1d22:	08 95       	ret

00001d24 <_ZN7Carrage17chechWheelsBeforeEv>:
			if(derWheel[4]>0){Wheel_4.malfuction = true;Wheel_4.Error = 2;}
		}
	}
}

bool Carrage::chechWheelsBefore(){
    1d24:	4f 92       	push	r4
    1d26:	5f 92       	push	r5
    1d28:	6f 92       	push	r6
    1d2a:	7f 92       	push	r7
    1d2c:	8f 92       	push	r8
    1d2e:	9f 92       	push	r9
    1d30:	af 92       	push	r10
    1d32:	bf 92       	push	r11
    1d34:	cf 92       	push	r12
    1d36:	df 92       	push	r13
    1d38:	ef 92       	push	r14
    1d3a:	ff 92       	push	r15
    1d3c:	0f 93       	push	r16
    1d3e:	1f 93       	push	r17
    1d40:	cf 93       	push	r28
    1d42:	df 93       	push	r29
    1d44:	ec 01       	movw	r28, r24
		derWheel[1] = Wheel_1.takeDerection();
    1d46:	0e 94 6e 21 	call	0x42dc	; 0x42dc <_ZN5Wheel13takeDerectionEv>
    1d4a:	6e 01       	movw	r12, r28
    1d4c:	98 ec       	ldi	r25, 0xC8	; 200
    1d4e:	c9 0e       	add	r12, r25
    1d50:	d1 1c       	adc	r13, r1
    1d52:	f6 01       	movw	r30, r12
    1d54:	80 83       	st	Z, r24
		Fast_print_LSD_hight(Wheel_1);
    1d56:	8d b7       	in	r24, 0x3d	; 61
    1d58:	9e b7       	in	r25, 0x3e	; 62
    1d5a:	8b 97       	sbiw	r24, 0x2b	; 43
    1d5c:	0f b6       	in	r0, 0x3f	; 63
    1d5e:	f8 94       	cli
    1d60:	9e bf       	out	0x3e, r25	; 62
    1d62:	0f be       	out	0x3f, r0	; 63
    1d64:	8d bf       	out	0x3d, r24	; 61
    1d66:	ad b7       	in	r26, 0x3d	; 61
    1d68:	be b7       	in	r27, 0x3e	; 62
    1d6a:	11 96       	adiw	r26, 0x01	; 1
    1d6c:	8b e2       	ldi	r24, 0x2B	; 43
    1d6e:	fe 01       	movw	r30, r28
    1d70:	01 90       	ld	r0, Z+
    1d72:	0d 92       	st	X+, r0
    1d74:	8a 95       	dec	r24
    1d76:	e1 f7       	brne	.-8      	; 0x1d70 <_ZN7Carrage17chechWheelsBeforeEv+0x4c>
    1d78:	ce 01       	movw	r24, r28
    1d7a:	0e 94 48 0e 	call	0x1c90	; 0x1c90 <_ZN7Carrage20Fast_print_LSD_hightE5Wheel>
		derWheel[2] = Wheel_2.takeDerection();
    1d7e:	5e 01       	movw	r10, r28
    1d80:	9b e2       	ldi	r25, 0x2B	; 43
    1d82:	a9 0e       	add	r10, r25
    1d84:	b1 1c       	adc	r11, r1
    1d86:	ed b7       	in	r30, 0x3d	; 61
    1d88:	fe b7       	in	r31, 0x3e	; 62
    1d8a:	bb 96       	adiw	r30, 0x2b	; 43
    1d8c:	0f b6       	in	r0, 0x3f	; 63
    1d8e:	f8 94       	cli
    1d90:	fe bf       	out	0x3e, r31	; 62
    1d92:	0f be       	out	0x3f, r0	; 63
    1d94:	ed bf       	out	0x3d, r30	; 61
    1d96:	c5 01       	movw	r24, r10
    1d98:	0e 94 6e 21 	call	0x42dc	; 0x42dc <_ZN5Wheel13takeDerectionEv>
    1d9c:	4e 01       	movw	r8, r28
    1d9e:	f9 ec       	ldi	r31, 0xC9	; 201
    1da0:	8f 0e       	add	r8, r31
    1da2:	91 1c       	adc	r9, r1
    1da4:	f4 01       	movw	r30, r8
    1da6:	80 83       	st	Z, r24
		Fast_print_LSD_hight(Wheel_2);
    1da8:	8d b7       	in	r24, 0x3d	; 61
    1daa:	9e b7       	in	r25, 0x3e	; 62
    1dac:	8b 97       	sbiw	r24, 0x2b	; 43
    1dae:	0f b6       	in	r0, 0x3f	; 63
    1db0:	f8 94       	cli
    1db2:	9e bf       	out	0x3e, r25	; 62
    1db4:	0f be       	out	0x3f, r0	; 63
    1db6:	8d bf       	out	0x3d, r24	; 61
    1db8:	ad b7       	in	r26, 0x3d	; 61
    1dba:	be b7       	in	r27, 0x3e	; 62
    1dbc:	11 96       	adiw	r26, 0x01	; 1
    1dbe:	8b e2       	ldi	r24, 0x2B	; 43
    1dc0:	f5 01       	movw	r30, r10
    1dc2:	01 90       	ld	r0, Z+
    1dc4:	0d 92       	st	X+, r0
    1dc6:	8a 95       	dec	r24
    1dc8:	e1 f7       	brne	.-8      	; 0x1dc2 <_ZN7Carrage17chechWheelsBeforeEv+0x9e>
    1dca:	ce 01       	movw	r24, r28
    1dcc:	0e 94 48 0e 	call	0x1c90	; 0x1c90 <_ZN7Carrage20Fast_print_LSD_hightE5Wheel>
		derWheel[3] = Wheel_3.takeDerection();
    1dd0:	3e 01       	movw	r6, r28
    1dd2:	96 e5       	ldi	r25, 0x56	; 86
    1dd4:	69 0e       	add	r6, r25
    1dd6:	71 1c       	adc	r7, r1
    1dd8:	ed b7       	in	r30, 0x3d	; 61
    1dda:	fe b7       	in	r31, 0x3e	; 62
    1ddc:	bb 96       	adiw	r30, 0x2b	; 43
    1dde:	0f b6       	in	r0, 0x3f	; 63
    1de0:	f8 94       	cli
    1de2:	fe bf       	out	0x3e, r31	; 62
    1de4:	0f be       	out	0x3f, r0	; 63
    1de6:	ed bf       	out	0x3d, r30	; 61
    1de8:	c3 01       	movw	r24, r6
    1dea:	0e 94 6e 21 	call	0x42dc	; 0x42dc <_ZN5Wheel13takeDerectionEv>
    1dee:	8e 01       	movw	r16, r28
    1df0:	06 53       	subi	r16, 0x36	; 54
    1df2:	1f 4f       	sbci	r17, 0xFF	; 255
    1df4:	f8 01       	movw	r30, r16
    1df6:	80 83       	st	Z, r24
		Fast_print_LSD_hight(Wheel_3);
    1df8:	8d b7       	in	r24, 0x3d	; 61
    1dfa:	9e b7       	in	r25, 0x3e	; 62
    1dfc:	8b 97       	sbiw	r24, 0x2b	; 43
    1dfe:	0f b6       	in	r0, 0x3f	; 63
    1e00:	f8 94       	cli
    1e02:	9e bf       	out	0x3e, r25	; 62
    1e04:	0f be       	out	0x3f, r0	; 63
    1e06:	8d bf       	out	0x3d, r24	; 61
    1e08:	ad b7       	in	r26, 0x3d	; 61
    1e0a:	be b7       	in	r27, 0x3e	; 62
    1e0c:	11 96       	adiw	r26, 0x01	; 1
    1e0e:	8b e2       	ldi	r24, 0x2B	; 43
    1e10:	f3 01       	movw	r30, r6
    1e12:	01 90       	ld	r0, Z+
    1e14:	0d 92       	st	X+, r0
    1e16:	8a 95       	dec	r24
    1e18:	e1 f7       	brne	.-8      	; 0x1e12 <_ZN7Carrage17chechWheelsBeforeEv+0xee>
    1e1a:	ce 01       	movw	r24, r28
    1e1c:	0e 94 48 0e 	call	0x1c90	; 0x1c90 <_ZN7Carrage20Fast_print_LSD_hightE5Wheel>
		derWheel[4] = Wheel_4.takeDerection();
    1e20:	2e 01       	movw	r4, r28
    1e22:	91 e8       	ldi	r25, 0x81	; 129
    1e24:	49 0e       	add	r4, r25
    1e26:	51 1c       	adc	r5, r1
    1e28:	ed b7       	in	r30, 0x3d	; 61
    1e2a:	fe b7       	in	r31, 0x3e	; 62
    1e2c:	bb 96       	adiw	r30, 0x2b	; 43
    1e2e:	0f b6       	in	r0, 0x3f	; 63
    1e30:	f8 94       	cli
    1e32:	fe bf       	out	0x3e, r31	; 62
    1e34:	0f be       	out	0x3f, r0	; 63
    1e36:	ed bf       	out	0x3d, r30	; 61
    1e38:	c2 01       	movw	r24, r4
    1e3a:	0e 94 6e 21 	call	0x42dc	; 0x42dc <_ZN5Wheel13takeDerectionEv>
    1e3e:	7e 01       	movw	r14, r28
    1e40:	fb ec       	ldi	r31, 0xCB	; 203
    1e42:	ef 0e       	add	r14, r31
    1e44:	f1 1c       	adc	r15, r1
    1e46:	f7 01       	movw	r30, r14
    1e48:	80 83       	st	Z, r24
		Fast_print_LSD_hight(Wheel_4);
    1e4a:	8d b7       	in	r24, 0x3d	; 61
    1e4c:	9e b7       	in	r25, 0x3e	; 62
    1e4e:	8b 97       	sbiw	r24, 0x2b	; 43
    1e50:	0f b6       	in	r0, 0x3f	; 63
    1e52:	f8 94       	cli
    1e54:	9e bf       	out	0x3e, r25	; 62
    1e56:	0f be       	out	0x3f, r0	; 63
    1e58:	8d bf       	out	0x3d, r24	; 61
    1e5a:	ad b7       	in	r26, 0x3d	; 61
    1e5c:	be b7       	in	r27, 0x3e	; 62
    1e5e:	11 96       	adiw	r26, 0x01	; 1
    1e60:	8b e2       	ldi	r24, 0x2B	; 43
    1e62:	f2 01       	movw	r30, r4
    1e64:	01 90       	ld	r0, Z+
    1e66:	0d 92       	st	X+, r0
    1e68:	8a 95       	dec	r24
    1e6a:	e1 f7       	brne	.-8      	; 0x1e64 <_ZN7Carrage17chechWheelsBeforeEv+0x140>
    1e6c:	ce 01       	movw	r24, r28
    1e6e:	0e 94 48 0e 	call	0x1c90	; 0x1c90 <_ZN7Carrage20Fast_print_LSD_hightE5Wheel>
		support.Adjast(10 ,derWheel[1], derWheel[2] ,derWheel[3] ,derWheel[4] );
    1e72:	ed b7       	in	r30, 0x3d	; 61
    1e74:	fe b7       	in	r31, 0x3e	; 62
    1e76:	bb 96       	adiw	r30, 0x2b	; 43
    1e78:	0f b6       	in	r0, 0x3f	; 63
    1e7a:	f8 94       	cli
    1e7c:	fe bf       	out	0x3e, r31	; 62
    1e7e:	0f be       	out	0x3f, r0	; 63
    1e80:	ed bf       	out	0x3d, r30	; 61
    1e82:	f7 01       	movw	r30, r14
    1e84:	e0 80       	ld	r14, Z
    1e86:	f1 2c       	mov	r15, r1
    1e88:	f8 01       	movw	r30, r16
    1e8a:	00 81       	ld	r16, Z
    1e8c:	10 e0       	ldi	r17, 0x00	; 0
    1e8e:	f4 01       	movw	r30, r8
    1e90:	20 81       	ld	r18, Z
    1e92:	30 e0       	ldi	r19, 0x00	; 0
    1e94:	f6 01       	movw	r30, r12
    1e96:	40 81       	ld	r20, Z
    1e98:	50 e0       	ldi	r21, 0x00	; 0
    1e9a:	6a e0       	ldi	r22, 0x0A	; 10
    1e9c:	70 e0       	ldi	r23, 0x00	; 0
    1e9e:	ce 01       	movw	r24, r28
    1ea0:	84 55       	subi	r24, 0x54	; 84
    1ea2:	9f 4f       	sbci	r25, 0xFF	; 255
    1ea4:	0e 94 5e 20 	call	0x40bc	; 0x40bc <_ZN7Support6AdjastEiiiii>
		if	(derWheel[1]>0){checked[1]=Wheel_1.Check();}else{checked[1]=true;}
    1ea8:	f6 01       	movw	r30, r12
    1eaa:	80 81       	ld	r24, Z
    1eac:	88 23       	and	r24, r24
    1eae:	51 f0       	breq	.+20     	; 0x1ec4 <_ZN7Carrage17chechWheelsBeforeEv+0x1a0>
    1eb0:	ce 01       	movw	r24, r28
    1eb2:	0e 94 e8 21 	call	0x43d0	; 0x43d0 <_ZN5Wheel5CheckEv>
    1eb6:	fe 01       	movw	r30, r28
    1eb8:	e2 53       	subi	r30, 0x32	; 50
    1eba:	ff 4f       	sbci	r31, 0xFF	; 255
    1ebc:	90 e0       	ldi	r25, 0x00	; 0
    1ebe:	91 83       	std	Z+1, r25	; 0x01
    1ec0:	80 83       	st	Z, r24
    1ec2:	07 c0       	rjmp	.+14     	; 0x1ed2 <_ZN7Carrage17chechWheelsBeforeEv+0x1ae>
    1ec4:	81 e0       	ldi	r24, 0x01	; 1
    1ec6:	90 e0       	ldi	r25, 0x00	; 0
    1ec8:	fe 01       	movw	r30, r28
    1eca:	e2 53       	subi	r30, 0x32	; 50
    1ecc:	ff 4f       	sbci	r31, 0xFF	; 255
    1ece:	91 83       	std	Z+1, r25	; 0x01
    1ed0:	80 83       	st	Z, r24
		if	(derWheel[2]>0){checked[2]=Wheel_2.Check();}else{checked[2]=true;}
    1ed2:	fe 01       	movw	r30, r28
    1ed4:	e7 53       	subi	r30, 0x37	; 55
    1ed6:	ff 4f       	sbci	r31, 0xFF	; 255
    1ed8:	80 81       	ld	r24, Z
    1eda:	88 23       	and	r24, r24
    1edc:	51 f0       	breq	.+20     	; 0x1ef2 <_ZN7Carrage17chechWheelsBeforeEv+0x1ce>
    1ede:	c5 01       	movw	r24, r10
    1ee0:	0e 94 e8 21 	call	0x43d0	; 0x43d0 <_ZN5Wheel5CheckEv>
    1ee4:	fe 01       	movw	r30, r28
    1ee6:	e0 53       	subi	r30, 0x30	; 48
    1ee8:	ff 4f       	sbci	r31, 0xFF	; 255
    1eea:	90 e0       	ldi	r25, 0x00	; 0
    1eec:	91 83       	std	Z+1, r25	; 0x01
    1eee:	80 83       	st	Z, r24
    1ef0:	07 c0       	rjmp	.+14     	; 0x1f00 <_ZN7Carrage17chechWheelsBeforeEv+0x1dc>
    1ef2:	81 e0       	ldi	r24, 0x01	; 1
    1ef4:	90 e0       	ldi	r25, 0x00	; 0
    1ef6:	fe 01       	movw	r30, r28
    1ef8:	e0 53       	subi	r30, 0x30	; 48
    1efa:	ff 4f       	sbci	r31, 0xFF	; 255
    1efc:	91 83       	std	Z+1, r25	; 0x01
    1efe:	80 83       	st	Z, r24
		if	(derWheel[3]>0){checked[3]=Wheel_3.Check();}else{checked[3]=true;}
    1f00:	fe 01       	movw	r30, r28
    1f02:	e6 53       	subi	r30, 0x36	; 54
    1f04:	ff 4f       	sbci	r31, 0xFF	; 255
    1f06:	80 81       	ld	r24, Z
    1f08:	88 23       	and	r24, r24
    1f0a:	51 f0       	breq	.+20     	; 0x1f20 <_ZN7Carrage17chechWheelsBeforeEv+0x1fc>
    1f0c:	c3 01       	movw	r24, r6
    1f0e:	0e 94 e8 21 	call	0x43d0	; 0x43d0 <_ZN5Wheel5CheckEv>
    1f12:	fe 01       	movw	r30, r28
    1f14:	ee 52       	subi	r30, 0x2E	; 46
    1f16:	ff 4f       	sbci	r31, 0xFF	; 255
    1f18:	90 e0       	ldi	r25, 0x00	; 0
    1f1a:	91 83       	std	Z+1, r25	; 0x01
    1f1c:	80 83       	st	Z, r24
    1f1e:	07 c0       	rjmp	.+14     	; 0x1f2e <_ZN7Carrage17chechWheelsBeforeEv+0x20a>
    1f20:	81 e0       	ldi	r24, 0x01	; 1
    1f22:	90 e0       	ldi	r25, 0x00	; 0
    1f24:	fe 01       	movw	r30, r28
    1f26:	ee 52       	subi	r30, 0x2E	; 46
    1f28:	ff 4f       	sbci	r31, 0xFF	; 255
    1f2a:	91 83       	std	Z+1, r25	; 0x01
    1f2c:	80 83       	st	Z, r24
		if	(derWheel[4]>0){checked[4]=Wheel_4.Check();}else{checked[4]=true;}	
    1f2e:	fe 01       	movw	r30, r28
    1f30:	e5 53       	subi	r30, 0x35	; 53
    1f32:	ff 4f       	sbci	r31, 0xFF	; 255
    1f34:	80 81       	ld	r24, Z
    1f36:	88 23       	and	r24, r24
    1f38:	51 f0       	breq	.+20     	; 0x1f4e <_ZN7Carrage17chechWheelsBeforeEv+0x22a>
    1f3a:	c2 01       	movw	r24, r4
    1f3c:	0e 94 e8 21 	call	0x43d0	; 0x43d0 <_ZN5Wheel5CheckEv>
    1f40:	fe 01       	movw	r30, r28
    1f42:	ec 52       	subi	r30, 0x2C	; 44
    1f44:	ff 4f       	sbci	r31, 0xFF	; 255
    1f46:	90 e0       	ldi	r25, 0x00	; 0
    1f48:	91 83       	std	Z+1, r25	; 0x01
    1f4a:	80 83       	st	Z, r24
    1f4c:	07 c0       	rjmp	.+14     	; 0x1f5c <_ZN7Carrage17chechWheelsBeforeEv+0x238>
    1f4e:	81 e0       	ldi	r24, 0x01	; 1
    1f50:	90 e0       	ldi	r25, 0x00	; 0
    1f52:	fe 01       	movw	r30, r28
    1f54:	ec 52       	subi	r30, 0x2C	; 44
    1f56:	ff 4f       	sbci	r31, 0xFF	; 255
    1f58:	91 83       	std	Z+1, r25	; 0x01
    1f5a:	80 83       	st	Z, r24
		if  (checked[1]&&checked[2]&&checked[3]&&checked[4]){return true;}else{return false;}					
    1f5c:	fe 01       	movw	r30, r28
    1f5e:	e2 53       	subi	r30, 0x32	; 50
    1f60:	ff 4f       	sbci	r31, 0xFF	; 255
    1f62:	80 81       	ld	r24, Z
    1f64:	91 81       	ldd	r25, Z+1	; 0x01
    1f66:	89 2b       	or	r24, r25
    1f68:	99 f0       	breq	.+38     	; 0x1f90 <_ZN7Carrage17chechWheelsBeforeEv+0x26c>
    1f6a:	32 96       	adiw	r30, 0x02	; 2
    1f6c:	80 81       	ld	r24, Z
    1f6e:	91 81       	ldd	r25, Z+1	; 0x01
    1f70:	89 2b       	or	r24, r25
    1f72:	81 f0       	breq	.+32     	; 0x1f94 <_ZN7Carrage17chechWheelsBeforeEv+0x270>
    1f74:	32 96       	adiw	r30, 0x02	; 2
    1f76:	80 81       	ld	r24, Z
    1f78:	91 81       	ldd	r25, Z+1	; 0x01
    1f7a:	89 2b       	or	r24, r25
    1f7c:	69 f0       	breq	.+26     	; 0x1f98 <_ZN7Carrage17chechWheelsBeforeEv+0x274>
    1f7e:	cc 52       	subi	r28, 0x2C	; 44
    1f80:	df 4f       	sbci	r29, 0xFF	; 255
    1f82:	81 e0       	ldi	r24, 0x01	; 1
    1f84:	28 81       	ld	r18, Y
    1f86:	39 81       	ldd	r19, Y+1	; 0x01
    1f88:	23 2b       	or	r18, r19
    1f8a:	39 f4       	brne	.+14     	; 0x1f9a <_ZN7Carrage17chechWheelsBeforeEv+0x276>
    1f8c:	80 e0       	ldi	r24, 0x00	; 0
    1f8e:	05 c0       	rjmp	.+10     	; 0x1f9a <_ZN7Carrage17chechWheelsBeforeEv+0x276>
    1f90:	80 e0       	ldi	r24, 0x00	; 0
    1f92:	03 c0       	rjmp	.+6      	; 0x1f9a <_ZN7Carrage17chechWheelsBeforeEv+0x276>
    1f94:	80 e0       	ldi	r24, 0x00	; 0
    1f96:	01 c0       	rjmp	.+2      	; 0x1f9a <_ZN7Carrage17chechWheelsBeforeEv+0x276>
    1f98:	80 e0       	ldi	r24, 0x00	; 0
}
    1f9a:	df 91       	pop	r29
    1f9c:	cf 91       	pop	r28
    1f9e:	1f 91       	pop	r17
    1fa0:	0f 91       	pop	r16
    1fa2:	ff 90       	pop	r15
    1fa4:	ef 90       	pop	r14
    1fa6:	df 90       	pop	r13
    1fa8:	cf 90       	pop	r12
    1faa:	bf 90       	pop	r11
    1fac:	af 90       	pop	r10
    1fae:	9f 90       	pop	r9
    1fb0:	8f 90       	pop	r8
    1fb2:	7f 90       	pop	r7
    1fb4:	6f 90       	pop	r6
    1fb6:	5f 90       	pop	r5
    1fb8:	4f 90       	pop	r4
    1fba:	08 95       	ret

00001fbc <_ZN7Carrage9AjustmentEv>:
	Wheel_2.SetLimitsSetHight();
	Wheel_3.SetLimitsSetHight();
	Wheel_4.SetLimitsSetHight();
}

void Carrage::Ajustment(){
    1fbc:	2f 92       	push	r2
    1fbe:	3f 92       	push	r3
    1fc0:	4f 92       	push	r4
    1fc2:	5f 92       	push	r5
    1fc4:	6f 92       	push	r6
    1fc6:	7f 92       	push	r7
    1fc8:	8f 92       	push	r8
    1fca:	9f 92       	push	r9
    1fcc:	af 92       	push	r10
    1fce:	bf 92       	push	r11
    1fd0:	cf 92       	push	r12
    1fd2:	df 92       	push	r13
    1fd4:	ef 92       	push	r14
    1fd6:	ff 92       	push	r15
    1fd8:	0f 93       	push	r16
    1fda:	1f 93       	push	r17
    1fdc:	cf 93       	push	r28
    1fde:	df 93       	push	r29
    1fe0:	cd b7       	in	r28, 0x3d	; 61
    1fe2:	de b7       	in	r29, 0x3e	; 62
    1fe4:	2e 97       	sbiw	r28, 0x0e	; 14
    1fe6:	0f b6       	in	r0, 0x3f	; 63
    1fe8:	f8 94       	cli
    1fea:	de bf       	out	0x3e, r29	; 62
    1fec:	0f be       	out	0x3f, r0	; 63
    1fee:	cd bf       	out	0x3d, r28	; 61
    1ff0:	9e 87       	std	Y+14, r25	; 0x0e
    1ff2:	8d 87       	std	Y+13, r24	; 0x0d
	CheckLimitsSetHight();
    1ff4:	0e 94 09 0d 	call	0x1a12	; 0x1a12 <_ZN7Carrage19CheckLimitsSetHightEv>
	finish=1;
    1ff8:	ed 85       	ldd	r30, Y+13	; 0x0d
    1ffa:	fe 85       	ldd	r31, Y+14	; 0x0e
    1ffc:	ea 52       	subi	r30, 0x2A	; 42
    1ffe:	ff 4f       	sbci	r31, 0xFF	; 255
    2000:	81 e0       	ldi	r24, 0x01	; 1
    2002:	90 e0       	ldi	r25, 0x00	; 0
    2004:	91 83       	std	Z+1, r25	; 0x01
    2006:	80 83       	st	Z, r24
	int i=0;
	if (chechWheelsBefore()){
    2008:	8d 85       	ldd	r24, Y+13	; 0x0d
    200a:	9e 85       	ldd	r25, Y+14	; 0x0e
    200c:	0e 94 92 0e 	call	0x1d24	; 0x1d24 <_ZN7Carrage17chechWheelsBeforeEv>
    2010:	88 23       	and	r24, r24
    2012:	09 f4       	brne	.+2      	; 0x2016 <_ZN7Carrage9AjustmentEv+0x5a>
    2014:	4f c1       	rjmp	.+670    	; 0x22b4 <_ZN7Carrage9AjustmentEv+0x2f8>
		while(finish>0&&i<200){
    2016:	ed 85       	ldd	r30, Y+13	; 0x0d
    2018:	fe 85       	ldd	r31, Y+14	; 0x0e
    201a:	ea 52       	subi	r30, 0x2A	; 42
    201c:	ff 4f       	sbci	r31, 0xFF	; 255
    201e:	80 81       	ld	r24, Z
    2020:	91 81       	ldd	r25, Z+1	; 0x01
    2022:	18 16       	cp	r1, r24
    2024:	19 06       	cpc	r1, r25
    2026:	0c f0       	brlt	.+2      	; 0x202a <_ZN7Carrage9AjustmentEv+0x6e>
    2028:	45 c1       	rjmp	.+650    	; 0x22b4 <_ZN7Carrage9AjustmentEv+0x2f8>
    202a:	81 2c       	mov	r8, r1
    202c:	91 2c       	mov	r9, r1
			derWheel[1] = Wheel_1.takeDerection();
    202e:	6d 84       	ldd	r6, Y+13	; 0x0d
    2030:	7e 84       	ldd	r7, Y+14	; 0x0e
    2032:	88 ec       	ldi	r24, 0xC8	; 200
    2034:	68 0e       	add	r6, r24
    2036:	71 1c       	adc	r7, r1
			Fast_print_LSD_hight(Wheel_1);
			derWheel[2] = Wheel_2.takeDerection();
    2038:	ed 85       	ldd	r30, Y+13	; 0x0d
    203a:	fe 85       	ldd	r31, Y+14	; 0x0e
    203c:	bb 96       	adiw	r30, 0x2b	; 43
    203e:	fa 83       	std	Y+2, r31	; 0x02
    2040:	e9 83       	std	Y+1, r30	; 0x01
    2042:	4d 84       	ldd	r4, Y+13	; 0x0d
    2044:	5e 84       	ldd	r5, Y+14	; 0x0e
    2046:	f9 ec       	ldi	r31, 0xC9	; 201
    2048:	4f 0e       	add	r4, r31
    204a:	51 1c       	adc	r5, r1
			Fast_print_LSD_hight(Wheel_2);
			derWheel[3] = Wheel_3.takeDerection();
    204c:	8d 85       	ldd	r24, Y+13	; 0x0d
    204e:	9e 85       	ldd	r25, Y+14	; 0x0e
    2050:	8a 5a       	subi	r24, 0xAA	; 170
    2052:	9f 4f       	sbci	r25, 0xFF	; 255
    2054:	9c 83       	std	Y+4, r25	; 0x04
    2056:	8b 83       	std	Y+3, r24	; 0x03
    2058:	2d 84       	ldd	r2, Y+13	; 0x0d
    205a:	3e 84       	ldd	r3, Y+14	; 0x0e
    205c:	9a ec       	ldi	r25, 0xCA	; 202
    205e:	29 0e       	add	r2, r25
    2060:	31 1c       	adc	r3, r1
			Fast_print_LSD_hight(Wheel_3);
			derWheel[4] = Wheel_4.takeDerection();
    2062:	ed 85       	ldd	r30, Y+13	; 0x0d
    2064:	fe 85       	ldd	r31, Y+14	; 0x0e
    2066:	ef 57       	subi	r30, 0x7F	; 127
    2068:	ff 4f       	sbci	r31, 0xFF	; 255
    206a:	fe 83       	std	Y+6, r31	; 0x06
    206c:	ed 83       	std	Y+5, r30	; 0x05
    206e:	8d 85       	ldd	r24, Y+13	; 0x0d
    2070:	9e 85       	ldd	r25, Y+14	; 0x0e
    2072:	85 53       	subi	r24, 0x35	; 53
    2074:	9f 4f       	sbci	r25, 0xFF	; 255
    2076:	98 87       	std	Y+8, r25	; 0x08
    2078:	8f 83       	std	Y+7, r24	; 0x07
			Fast_print_LSD_hight(Wheel_4);
		
			finish = derWheel[1] + derWheel[2] + derWheel[3] + derWheel[4];
    207a:	ed 85       	ldd	r30, Y+13	; 0x0d
    207c:	fe 85       	ldd	r31, Y+14	; 0x0e
    207e:	ea 52       	subi	r30, 0x2A	; 42
    2080:	ff 4f       	sbci	r31, 0xFF	; 255
    2082:	fa 87       	std	Y+10, r31	; 0x0a
    2084:	e9 87       	std	Y+9, r30	; 0x09
			support.Adjast(getStep() ,derWheel[1], derWheel[2] ,derWheel[3] ,derWheel[4] );	
    2086:	8d 85       	ldd	r24, Y+13	; 0x0d
    2088:	9e 85       	ldd	r25, Y+14	; 0x0e
    208a:	84 55       	subi	r24, 0x54	; 84
    208c:	9f 4f       	sbci	r25, 0xFF	; 255
    208e:	9c 87       	std	Y+12, r25	; 0x0c
    2090:	8b 87       	std	Y+11, r24	; 0x0b
    2092:	05 c0       	rjmp	.+10     	; 0x209e <_ZN7Carrage9AjustmentEv+0xe2>
void Carrage::Ajustment(){
	CheckLimitsSetHight();
	finish=1;
	int i=0;
	if (chechWheelsBefore()){
		while(finish>0&&i<200){
    2094:	f8 ec       	ldi	r31, 0xC8	; 200
    2096:	8f 16       	cp	r8, r31
    2098:	91 04       	cpc	r9, r1
    209a:	09 f4       	brne	.+2      	; 0x209e <_ZN7Carrage9AjustmentEv+0xe2>
    209c:	b9 c0       	rjmp	.+370    	; 0x2210 <_ZN7Carrage9AjustmentEv+0x254>
			derWheel[1] = Wheel_1.takeDerection();
    209e:	8d 85       	ldd	r24, Y+13	; 0x0d
    20a0:	9e 85       	ldd	r25, Y+14	; 0x0e
    20a2:	0e 94 6e 21 	call	0x42dc	; 0x42dc <_ZN5Wheel13takeDerectionEv>
    20a6:	f3 01       	movw	r30, r6
    20a8:	80 83       	st	Z, r24
			Fast_print_LSD_hight(Wheel_1);
    20aa:	8d b7       	in	r24, 0x3d	; 61
    20ac:	9e b7       	in	r25, 0x3e	; 62
    20ae:	8b 97       	sbiw	r24, 0x2b	; 43
    20b0:	0f b6       	in	r0, 0x3f	; 63
    20b2:	f8 94       	cli
    20b4:	9e bf       	out	0x3e, r25	; 62
    20b6:	0f be       	out	0x3f, r0	; 63
    20b8:	8d bf       	out	0x3d, r24	; 61
    20ba:	ad b7       	in	r26, 0x3d	; 61
    20bc:	be b7       	in	r27, 0x3e	; 62
    20be:	11 96       	adiw	r26, 0x01	; 1
    20c0:	8b e2       	ldi	r24, 0x2B	; 43
    20c2:	ed 85       	ldd	r30, Y+13	; 0x0d
    20c4:	fe 85       	ldd	r31, Y+14	; 0x0e
    20c6:	01 90       	ld	r0, Z+
    20c8:	0d 92       	st	X+, r0
    20ca:	8a 95       	dec	r24
    20cc:	e1 f7       	brne	.-8      	; 0x20c6 <_ZN7Carrage9AjustmentEv+0x10a>
    20ce:	8d 85       	ldd	r24, Y+13	; 0x0d
    20d0:	9e 85       	ldd	r25, Y+14	; 0x0e
    20d2:	0e 94 48 0e 	call	0x1c90	; 0x1c90 <_ZN7Carrage20Fast_print_LSD_hightE5Wheel>
			derWheel[2] = Wheel_2.takeDerection();
    20d6:	0f b6       	in	r0, 0x3f	; 63
    20d8:	f8 94       	cli
    20da:	de bf       	out	0x3e, r29	; 62
    20dc:	0f be       	out	0x3f, r0	; 63
    20de:	cd bf       	out	0x3d, r28	; 61
    20e0:	89 81       	ldd	r24, Y+1	; 0x01
    20e2:	9a 81       	ldd	r25, Y+2	; 0x02
    20e4:	0e 94 6e 21 	call	0x42dc	; 0x42dc <_ZN5Wheel13takeDerectionEv>
    20e8:	f2 01       	movw	r30, r4
    20ea:	80 83       	st	Z, r24
			Fast_print_LSD_hight(Wheel_2);
    20ec:	8d b7       	in	r24, 0x3d	; 61
    20ee:	9e b7       	in	r25, 0x3e	; 62
    20f0:	8b 97       	sbiw	r24, 0x2b	; 43
    20f2:	0f b6       	in	r0, 0x3f	; 63
    20f4:	f8 94       	cli
    20f6:	9e bf       	out	0x3e, r25	; 62
    20f8:	0f be       	out	0x3f, r0	; 63
    20fa:	8d bf       	out	0x3d, r24	; 61
    20fc:	ad b7       	in	r26, 0x3d	; 61
    20fe:	be b7       	in	r27, 0x3e	; 62
    2100:	11 96       	adiw	r26, 0x01	; 1
    2102:	8b e2       	ldi	r24, 0x2B	; 43
    2104:	e9 81       	ldd	r30, Y+1	; 0x01
    2106:	fa 81       	ldd	r31, Y+2	; 0x02
    2108:	01 90       	ld	r0, Z+
    210a:	0d 92       	st	X+, r0
    210c:	8a 95       	dec	r24
    210e:	e1 f7       	brne	.-8      	; 0x2108 <_ZN7Carrage9AjustmentEv+0x14c>
    2110:	8d 85       	ldd	r24, Y+13	; 0x0d
    2112:	9e 85       	ldd	r25, Y+14	; 0x0e
    2114:	0e 94 48 0e 	call	0x1c90	; 0x1c90 <_ZN7Carrage20Fast_print_LSD_hightE5Wheel>
			derWheel[3] = Wheel_3.takeDerection();
    2118:	0f b6       	in	r0, 0x3f	; 63
    211a:	f8 94       	cli
    211c:	de bf       	out	0x3e, r29	; 62
    211e:	0f be       	out	0x3f, r0	; 63
    2120:	cd bf       	out	0x3d, r28	; 61
    2122:	8b 81       	ldd	r24, Y+3	; 0x03
    2124:	9c 81       	ldd	r25, Y+4	; 0x04
    2126:	0e 94 6e 21 	call	0x42dc	; 0x42dc <_ZN5Wheel13takeDerectionEv>
    212a:	f1 01       	movw	r30, r2
    212c:	80 83       	st	Z, r24
			Fast_print_LSD_hight(Wheel_3);
    212e:	8d b7       	in	r24, 0x3d	; 61
    2130:	9e b7       	in	r25, 0x3e	; 62
    2132:	8b 97       	sbiw	r24, 0x2b	; 43
    2134:	0f b6       	in	r0, 0x3f	; 63
    2136:	f8 94       	cli
    2138:	9e bf       	out	0x3e, r25	; 62
    213a:	0f be       	out	0x3f, r0	; 63
    213c:	8d bf       	out	0x3d, r24	; 61
    213e:	ad b7       	in	r26, 0x3d	; 61
    2140:	be b7       	in	r27, 0x3e	; 62
    2142:	11 96       	adiw	r26, 0x01	; 1
    2144:	8b e2       	ldi	r24, 0x2B	; 43
    2146:	eb 81       	ldd	r30, Y+3	; 0x03
    2148:	fc 81       	ldd	r31, Y+4	; 0x04
    214a:	01 90       	ld	r0, Z+
    214c:	0d 92       	st	X+, r0
    214e:	8a 95       	dec	r24
    2150:	e1 f7       	brne	.-8      	; 0x214a <_ZN7Carrage9AjustmentEv+0x18e>
    2152:	8d 85       	ldd	r24, Y+13	; 0x0d
    2154:	9e 85       	ldd	r25, Y+14	; 0x0e
    2156:	0e 94 48 0e 	call	0x1c90	; 0x1c90 <_ZN7Carrage20Fast_print_LSD_hightE5Wheel>
			derWheel[4] = Wheel_4.takeDerection();
    215a:	0f b6       	in	r0, 0x3f	; 63
    215c:	f8 94       	cli
    215e:	de bf       	out	0x3e, r29	; 62
    2160:	0f be       	out	0x3f, r0	; 63
    2162:	cd bf       	out	0x3d, r28	; 61
    2164:	8d 81       	ldd	r24, Y+5	; 0x05
    2166:	9e 81       	ldd	r25, Y+6	; 0x06
    2168:	0e 94 6e 21 	call	0x42dc	; 0x42dc <_ZN5Wheel13takeDerectionEv>
    216c:	ef 81       	ldd	r30, Y+7	; 0x07
    216e:	f8 85       	ldd	r31, Y+8	; 0x08
    2170:	80 83       	st	Z, r24
			Fast_print_LSD_hight(Wheel_4);
    2172:	8d b7       	in	r24, 0x3d	; 61
    2174:	9e b7       	in	r25, 0x3e	; 62
    2176:	8b 97       	sbiw	r24, 0x2b	; 43
    2178:	0f b6       	in	r0, 0x3f	; 63
    217a:	f8 94       	cli
    217c:	9e bf       	out	0x3e, r25	; 62
    217e:	0f be       	out	0x3f, r0	; 63
    2180:	8d bf       	out	0x3d, r24	; 61
    2182:	ad b7       	in	r26, 0x3d	; 61
    2184:	be b7       	in	r27, 0x3e	; 62
    2186:	11 96       	adiw	r26, 0x01	; 1
    2188:	8b e2       	ldi	r24, 0x2B	; 43
    218a:	ed 81       	ldd	r30, Y+5	; 0x05
    218c:	fe 81       	ldd	r31, Y+6	; 0x06
    218e:	01 90       	ld	r0, Z+
    2190:	0d 92       	st	X+, r0
    2192:	8a 95       	dec	r24
    2194:	e1 f7       	brne	.-8      	; 0x218e <_ZN7Carrage9AjustmentEv+0x1d2>
    2196:	8d 85       	ldd	r24, Y+13	; 0x0d
    2198:	9e 85       	ldd	r25, Y+14	; 0x0e
    219a:	0e 94 48 0e 	call	0x1c90	; 0x1c90 <_ZN7Carrage20Fast_print_LSD_hightE5Wheel>
		
			finish = derWheel[1] + derWheel[2] + derWheel[3] + derWheel[4];
    219e:	f3 01       	movw	r30, r6
    21a0:	a0 80       	ld	r10, Z
    21a2:	b1 2c       	mov	r11, r1
    21a4:	f2 01       	movw	r30, r4
    21a6:	c0 80       	ld	r12, Z
    21a8:	d1 2c       	mov	r13, r1
    21aa:	f1 01       	movw	r30, r2
    21ac:	00 81       	ld	r16, Z
    21ae:	10 e0       	ldi	r17, 0x00	; 0
    21b0:	ef 81       	ldd	r30, Y+7	; 0x07
    21b2:	f8 85       	ldd	r31, Y+8	; 0x08
    21b4:	e0 80       	ld	r14, Z
    21b6:	f1 2c       	mov	r15, r1
    21b8:	c5 01       	movw	r24, r10
    21ba:	8c 0d       	add	r24, r12
    21bc:	9d 1d       	adc	r25, r13
    21be:	80 0f       	add	r24, r16
    21c0:	91 1f       	adc	r25, r17
    21c2:	8e 0d       	add	r24, r14
    21c4:	9f 1d       	adc	r25, r15
    21c6:	e9 85       	ldd	r30, Y+9	; 0x09
    21c8:	fa 85       	ldd	r31, Y+10	; 0x0a
    21ca:	91 83       	std	Z+1, r25	; 0x01
    21cc:	80 83       	st	Z, r24
			support.Adjast(getStep() ,derWheel[1], derWheel[2] ,derWheel[3] ,derWheel[4] );	
    21ce:	0f b6       	in	r0, 0x3f	; 63
    21d0:	f8 94       	cli
    21d2:	de bf       	out	0x3e, r29	; 62
    21d4:	0f be       	out	0x3f, r0	; 63
    21d6:	cd bf       	out	0x3d, r28	; 61
    21d8:	8d 85       	ldd	r24, Y+13	; 0x0d
    21da:	9e 85       	ldd	r25, Y+14	; 0x0e
    21dc:	0e 94 e9 0d 	call	0x1bd2	; 0x1bd2 <_ZN7Carrage7getStepEv>
    21e0:	96 01       	movw	r18, r12
    21e2:	a5 01       	movw	r20, r10
    21e4:	bc 01       	movw	r22, r24
    21e6:	8b 85       	ldd	r24, Y+11	; 0x0b
    21e8:	9c 85       	ldd	r25, Y+12	; 0x0c
    21ea:	0e 94 5e 20 	call	0x40bc	; 0x40bc <_ZN7Support6AdjastEiiiii>
			i++;
    21ee:	9f ef       	ldi	r25, 0xFF	; 255
    21f0:	89 1a       	sub	r8, r25
    21f2:	99 0a       	sbc	r9, r25
void Carrage::Ajustment(){
	CheckLimitsSetHight();
	finish=1;
	int i=0;
	if (chechWheelsBefore()){
		while(finish>0&&i<200){
    21f4:	e9 85       	ldd	r30, Y+9	; 0x09
    21f6:	fa 85       	ldd	r31, Y+10	; 0x0a
    21f8:	80 81       	ld	r24, Z
    21fa:	91 81       	ldd	r25, Z+1	; 0x01
    21fc:	18 16       	cp	r1, r24
    21fe:	19 06       	cpc	r1, r25
    2200:	0c f4       	brge	.+2      	; 0x2204 <_ZN7Carrage9AjustmentEv+0x248>
    2202:	48 cf       	rjmp	.-368    	; 0x2094 <_ZN7Carrage9AjustmentEv+0xd8>
			finish = derWheel[1] + derWheel[2] + derWheel[3] + derWheel[4];
			support.Adjast(getStep() ,derWheel[1], derWheel[2] ,derWheel[3] ,derWheel[4] );	
			i++;
		}
	
		if(i>=100){
    2204:	94 e6       	ldi	r25, 0x64	; 100
    2206:	89 16       	cp	r8, r25
    2208:	91 04       	cpc	r9, r1
    220a:	0c f4       	brge	.+2      	; 0x220e <_ZN7Carrage9AjustmentEv+0x252>
    220c:	53 c0       	rjmp	.+166    	; 0x22b4 <_ZN7Carrage9AjustmentEv+0x2f8>
    220e:	00 c0       	rjmp	.+0      	; 0x2210 <_ZN7Carrage9AjustmentEv+0x254>
			if(derWheel[1]>0){Wheel_1.malfuction = true;Wheel_1.Error = 2;}
    2210:	ed 85       	ldd	r30, Y+13	; 0x0d
    2212:	fe 85       	ldd	r31, Y+14	; 0x0e
    2214:	e8 53       	subi	r30, 0x38	; 56
    2216:	ff 4f       	sbci	r31, 0xFF	; 255
    2218:	80 81       	ld	r24, Z
    221a:	88 23       	and	r24, r24
    221c:	41 f0       	breq	.+16     	; 0x222e <_ZN7Carrage9AjustmentEv+0x272>
    221e:	81 e0       	ldi	r24, 0x01	; 1
    2220:	ed 85       	ldd	r30, Y+13	; 0x0d
    2222:	fe 85       	ldd	r31, Y+14	; 0x0e
    2224:	83 8f       	std	Z+27, r24	; 0x1b
    2226:	82 e0       	ldi	r24, 0x02	; 2
    2228:	90 e0       	ldi	r25, 0x00	; 0
    222a:	97 8f       	std	Z+31, r25	; 0x1f
    222c:	86 8f       	std	Z+30, r24	; 0x1e
			if(derWheel[2]>0){Wheel_2.malfuction = true;Wheel_2.Error = 2;}
    222e:	ed 85       	ldd	r30, Y+13	; 0x0d
    2230:	fe 85       	ldd	r31, Y+14	; 0x0e
    2232:	e7 53       	subi	r30, 0x37	; 55
    2234:	ff 4f       	sbci	r31, 0xFF	; 255
    2236:	80 81       	ld	r24, Z
    2238:	88 23       	and	r24, r24
    223a:	71 f0       	breq	.+28     	; 0x2258 <_ZN7Carrage9AjustmentEv+0x29c>
    223c:	81 e0       	ldi	r24, 0x01	; 1
    223e:	ed 85       	ldd	r30, Y+13	; 0x0d
    2240:	fe 85       	ldd	r31, Y+14	; 0x0e
    2242:	ea 5b       	subi	r30, 0xBA	; 186
    2244:	ff 4f       	sbci	r31, 0xFF	; 255
    2246:	80 83       	st	Z, r24
    2248:	82 e0       	ldi	r24, 0x02	; 2
    224a:	90 e0       	ldi	r25, 0x00	; 0
    224c:	ed 85       	ldd	r30, Y+13	; 0x0d
    224e:	fe 85       	ldd	r31, Y+14	; 0x0e
    2250:	e7 5b       	subi	r30, 0xB7	; 183
    2252:	ff 4f       	sbci	r31, 0xFF	; 255
    2254:	91 83       	std	Z+1, r25	; 0x01
    2256:	80 83       	st	Z, r24
			if(derWheel[3]>0){Wheel_3.malfuction = true;Wheel_3.Error = 2;}
    2258:	ed 85       	ldd	r30, Y+13	; 0x0d
    225a:	fe 85       	ldd	r31, Y+14	; 0x0e
    225c:	e6 53       	subi	r30, 0x36	; 54
    225e:	ff 4f       	sbci	r31, 0xFF	; 255
    2260:	80 81       	ld	r24, Z
    2262:	88 23       	and	r24, r24
    2264:	71 f0       	breq	.+28     	; 0x2282 <_ZN7Carrage9AjustmentEv+0x2c6>
    2266:	81 e0       	ldi	r24, 0x01	; 1
    2268:	ed 85       	ldd	r30, Y+13	; 0x0d
    226a:	fe 85       	ldd	r31, Y+14	; 0x0e
    226c:	ef 58       	subi	r30, 0x8F	; 143
    226e:	ff 4f       	sbci	r31, 0xFF	; 255
    2270:	80 83       	st	Z, r24
    2272:	82 e0       	ldi	r24, 0x02	; 2
    2274:	90 e0       	ldi	r25, 0x00	; 0
    2276:	ed 85       	ldd	r30, Y+13	; 0x0d
    2278:	fe 85       	ldd	r31, Y+14	; 0x0e
    227a:	ec 58       	subi	r30, 0x8C	; 140
    227c:	ff 4f       	sbci	r31, 0xFF	; 255
    227e:	91 83       	std	Z+1, r25	; 0x01
    2280:	80 83       	st	Z, r24
			if(derWheel[4]>0){Wheel_4.malfuction = true;Wheel_4.Error = 2;}
    2282:	ed 85       	ldd	r30, Y+13	; 0x0d
    2284:	fe 85       	ldd	r31, Y+14	; 0x0e
    2286:	e5 53       	subi	r30, 0x35	; 53
    2288:	ff 4f       	sbci	r31, 0xFF	; 255
    228a:	80 81       	ld	r24, Z
    228c:	88 23       	and	r24, r24
    228e:	91 f0       	breq	.+36     	; 0x22b4 <_ZN7Carrage9AjustmentEv+0x2f8>
    2290:	ed 85       	ldd	r30, Y+13	; 0x0d
    2292:	fe 85       	ldd	r31, Y+14	; 0x0e
    2294:	e4 56       	subi	r30, 0x64	; 100
    2296:	ff 4f       	sbci	r31, 0xFF	; 255
    2298:	81 e0       	ldi	r24, 0x01	; 1
    229a:	80 83       	st	Z, r24
    229c:	8d 85       	ldd	r24, Y+13	; 0x0d
    229e:	9e 85       	ldd	r25, Y+14	; 0x0e
    22a0:	81 56       	subi	r24, 0x61	; 97
    22a2:	9f 4f       	sbci	r25, 0xFF	; 255
    22a4:	9a 83       	std	Y+2, r25	; 0x02
    22a6:	89 83       	std	Y+1, r24	; 0x01
    22a8:	82 e0       	ldi	r24, 0x02	; 2
    22aa:	90 e0       	ldi	r25, 0x00	; 0
    22ac:	e9 81       	ldd	r30, Y+1	; 0x01
    22ae:	fa 81       	ldd	r31, Y+2	; 0x02
    22b0:	91 83       	std	Z+1, r25	; 0x01
    22b2:	80 83       	st	Z, r24
		}
	}
}
    22b4:	2e 96       	adiw	r28, 0x0e	; 14
    22b6:	0f b6       	in	r0, 0x3f	; 63
    22b8:	f8 94       	cli
    22ba:	de bf       	out	0x3e, r29	; 62
    22bc:	0f be       	out	0x3f, r0	; 63
    22be:	cd bf       	out	0x3d, r28	; 61
    22c0:	df 91       	pop	r29
    22c2:	cf 91       	pop	r28
    22c4:	1f 91       	pop	r17
    22c6:	0f 91       	pop	r16
    22c8:	ff 90       	pop	r15
    22ca:	ef 90       	pop	r14
    22cc:	df 90       	pop	r13
    22ce:	cf 90       	pop	r12
    22d0:	bf 90       	pop	r11
    22d2:	af 90       	pop	r10
    22d4:	9f 90       	pop	r9
    22d6:	8f 90       	pop	r8
    22d8:	7f 90       	pop	r7
    22da:	6f 90       	pop	r6
    22dc:	5f 90       	pop	r5
    22de:	4f 90       	pop	r4
    22e0:	3f 90       	pop	r3
    22e2:	2f 90       	pop	r2
    22e4:	08 95       	ret

000022e6 <_ZN7Carrage2UpEf>:
	Wheel_2.initialHight();
	Wheel_3.initialHight();
	Wheel_4.initialHight();
}

void Carrage::Up(float step){
    22e6:	cf 92       	push	r12
    22e8:	df 92       	push	r13
    22ea:	ef 92       	push	r14
    22ec:	ff 92       	push	r15
    22ee:	cf 93       	push	r28
    22f0:	df 93       	push	r29
    22f2:	ec 01       	movw	r28, r24
    22f4:	6a 01       	movw	r12, r20
    22f6:	7b 01       	movw	r14, r22
	Wheel_1.Up(step);
    22f8:	0e 94 86 22 	call	0x450c	; 0x450c <_ZN5Wheel2UpEf>
	Wheel_2.Up(step);
    22fc:	b7 01       	movw	r22, r14
    22fe:	a6 01       	movw	r20, r12
    2300:	ce 01       	movw	r24, r28
    2302:	8b 96       	adiw	r24, 0x2b	; 43
    2304:	0e 94 86 22 	call	0x450c	; 0x450c <_ZN5Wheel2UpEf>
	Wheel_3.Up(step);
    2308:	b7 01       	movw	r22, r14
    230a:	a6 01       	movw	r20, r12
    230c:	ce 01       	movw	r24, r28
    230e:	8a 5a       	subi	r24, 0xAA	; 170
    2310:	9f 4f       	sbci	r25, 0xFF	; 255
    2312:	0e 94 86 22 	call	0x450c	; 0x450c <_ZN5Wheel2UpEf>
	Wheel_4.Up(step);
    2316:	b7 01       	movw	r22, r14
    2318:	a6 01       	movw	r20, r12
    231a:	ce 01       	movw	r24, r28
    231c:	8f 57       	subi	r24, 0x7F	; 127
    231e:	9f 4f       	sbci	r25, 0xFF	; 255
    2320:	0e 94 86 22 	call	0x450c	; 0x450c <_ZN5Wheel2UpEf>
	Ajustment();
    2324:	ce 01       	movw	r24, r28
    2326:	0e 94 de 0f 	call	0x1fbc	; 0x1fbc <_ZN7Carrage9AjustmentEv>
}
    232a:	df 91       	pop	r29
    232c:	cf 91       	pop	r28
    232e:	ff 90       	pop	r15
    2330:	ef 90       	pop	r14
    2332:	df 90       	pop	r13
    2334:	cf 90       	pop	r12
    2336:	08 95       	ret

00002338 <_ZN7Carrage4DownEf>:

void Carrage::Down(float step){
    2338:	cf 92       	push	r12
    233a:	df 92       	push	r13
    233c:	ef 92       	push	r14
    233e:	ff 92       	push	r15
    2340:	cf 93       	push	r28
    2342:	df 93       	push	r29
    2344:	ec 01       	movw	r28, r24
    2346:	6a 01       	movw	r12, r20
    2348:	7b 01       	movw	r14, r22
	Wheel_1.Down(step);
    234a:	0e 94 b4 22 	call	0x4568	; 0x4568 <_ZN5Wheel4DownEf>
	Wheel_2.Down(step);
    234e:	b7 01       	movw	r22, r14
    2350:	a6 01       	movw	r20, r12
    2352:	ce 01       	movw	r24, r28
    2354:	8b 96       	adiw	r24, 0x2b	; 43
    2356:	0e 94 b4 22 	call	0x4568	; 0x4568 <_ZN5Wheel4DownEf>
	Wheel_3.Down(step);
    235a:	b7 01       	movw	r22, r14
    235c:	a6 01       	movw	r20, r12
    235e:	ce 01       	movw	r24, r28
    2360:	8a 5a       	subi	r24, 0xAA	; 170
    2362:	9f 4f       	sbci	r25, 0xFF	; 255
    2364:	0e 94 b4 22 	call	0x4568	; 0x4568 <_ZN5Wheel4DownEf>
	Wheel_4.Down(step);
    2368:	b7 01       	movw	r22, r14
    236a:	a6 01       	movw	r20, r12
    236c:	ce 01       	movw	r24, r28
    236e:	8f 57       	subi	r24, 0x7F	; 127
    2370:	9f 4f       	sbci	r25, 0xFF	; 255
    2372:	0e 94 b4 22 	call	0x4568	; 0x4568 <_ZN5Wheel4DownEf>
	Ajustment();
    2376:	ce 01       	movw	r24, r28
    2378:	0e 94 de 0f 	call	0x1fbc	; 0x1fbc <_ZN7Carrage9AjustmentEv>
}
    237c:	df 91       	pop	r29
    237e:	cf 91       	pop	r28
    2380:	ff 90       	pop	r15
    2382:	ef 90       	pop	r14
    2384:	df 90       	pop	r13
    2386:	cf 90       	pop	r12
    2388:	08 95       	ret

0000238a <_ZN7Carrage18ControlMalfinctionEv>:
	float hight = wheel.get_hight();
	Lcd_printf2(hight_pos_x, hight_pos_y, FONT_1X, hight, 2);
	Lcd_update();
}

void Carrage::ControlMalfinction(){
    238a:	af 92       	push	r10
    238c:	bf 92       	push	r11
    238e:	cf 92       	push	r12
    2390:	df 92       	push	r13
    2392:	ef 92       	push	r14
    2394:	ff 92       	push	r15
    2396:	0f 93       	push	r16
    2398:	1f 93       	push	r17
    239a:	cf 93       	push	r28
    239c:	df 93       	push	r29
	if (OnOffMalfunction){
    239e:	fc 01       	movw	r30, r24
    23a0:	e2 54       	subi	r30, 0x42	; 66
    23a2:	ff 4f       	sbci	r31, 0xFF	; 255
    23a4:	20 81       	ld	r18, Z
    23a6:	22 23       	and	r18, r18
    23a8:	09 f4       	brne	.+2      	; 0x23ac <_ZN7Carrage18ControlMalfinctionEv+0x22>
    23aa:	51 c0       	rjmp	.+162    	; 0x244e <_ZN7Carrage18ControlMalfinctionEv+0xc4>
    23ac:	ec 01       	movw	r28, r24
		Wheel_1.IsChanchedHight();
    23ae:	0e 94 57 22 	call	0x44ae	; 0x44ae <_ZN5Wheel15IsChanchedHightEv>
		Wheel_2.IsChanchedHight();
    23b2:	6e 01       	movw	r12, r28
    23b4:	8b e2       	ldi	r24, 0x2B	; 43
    23b6:	c8 0e       	add	r12, r24
    23b8:	d1 1c       	adc	r13, r1
    23ba:	c6 01       	movw	r24, r12
    23bc:	0e 94 57 22 	call	0x44ae	; 0x44ae <_ZN5Wheel15IsChanchedHightEv>
		Wheel_3.IsChanchedHight();
    23c0:	7e 01       	movw	r14, r28
    23c2:	e6 e5       	ldi	r30, 0x56	; 86
    23c4:	ee 0e       	add	r14, r30
    23c6:	f1 1c       	adc	r15, r1
    23c8:	c7 01       	movw	r24, r14
    23ca:	0e 94 57 22 	call	0x44ae	; 0x44ae <_ZN5Wheel15IsChanchedHightEv>
		Wheel_4.IsChanchedHight();
    23ce:	8e 01       	movw	r16, r28
    23d0:	0f 57       	subi	r16, 0x7F	; 127
    23d2:	1f 4f       	sbci	r17, 0xFF	; 255
    23d4:	c8 01       	movw	r24, r16
    23d6:	0e 94 57 22 	call	0x44ae	; 0x44ae <_ZN5Wheel15IsChanchedHightEv>
		bool caragemove = (Wheel_1.move|Wheel_2.move|Wheel_3.move|Wheel_4.move);
    23da:	fe 01       	movw	r30, r28
    23dc:	e8 5b       	subi	r30, 0xB8	; 184
    23de:	ff 4f       	sbci	r31, 0xFF	; 255
		if (caragemove){
    23e0:	9d 8d       	ldd	r25, Y+29	; 0x1d
    23e2:	80 81       	ld	r24, Z
    23e4:	89 2b       	or	r24, r25
	if (OnOffMalfunction){
		Wheel_1.IsChanchedHight();
		Wheel_2.IsChanchedHight();
		Wheel_3.IsChanchedHight();
		Wheel_4.IsChanchedHight();
		bool caragemove = (Wheel_1.move|Wheel_2.move|Wheel_3.move|Wheel_4.move);
    23e6:	bb 96       	adiw	r30, 0x2b	; 43
		if (caragemove){
    23e8:	90 81       	ld	r25, Z
    23ea:	89 2b       	or	r24, r25
    23ec:	21 f4       	brne	.+8      	; 0x23f6 <_ZN7Carrage18ControlMalfinctionEv+0x6c>
	if (OnOffMalfunction){
		Wheel_1.IsChanchedHight();
		Wheel_2.IsChanchedHight();
		Wheel_3.IsChanchedHight();
		Wheel_4.IsChanchedHight();
		bool caragemove = (Wheel_1.move|Wheel_2.move|Wheel_3.move|Wheel_4.move);
    23ee:	bb 96       	adiw	r30, 0x2b	; 43
		if (caragemove){
    23f0:	80 81       	ld	r24, Z
    23f2:	88 23       	and	r24, r24
    23f4:	61 f1       	breq	.+88     	; 0x244e <_ZN7Carrage18ControlMalfinctionEv+0xc4>
			Wheel_1.ControlMalfinction(countToMalfunctionLimit);
    23f6:	5e 01       	movw	r10, r28
    23f8:	fa eb       	ldi	r31, 0xBA	; 186
    23fa:	af 0e       	add	r10, r31
    23fc:	b1 1c       	adc	r11, r1
    23fe:	f5 01       	movw	r30, r10
    2400:	60 81       	ld	r22, Z
    2402:	71 81       	ldd	r23, Z+1	; 0x01
    2404:	82 81       	ldd	r24, Z+2	; 0x02
    2406:	93 81       	ldd	r25, Z+3	; 0x03
    2408:	0e 94 c7 23 	call	0x478e	; 0x478e <__fixsfsi>
    240c:	ce 01       	movw	r24, r28
    240e:	0e 94 0f 22 	call	0x441e	; 0x441e <_ZN5Wheel18ControlMalfinctionEi>
			Wheel_2.ControlMalfinction(countToMalfunctionLimit);
    2412:	f5 01       	movw	r30, r10
    2414:	60 81       	ld	r22, Z
    2416:	71 81       	ldd	r23, Z+1	; 0x01
    2418:	82 81       	ldd	r24, Z+2	; 0x02
    241a:	93 81       	ldd	r25, Z+3	; 0x03
    241c:	0e 94 c7 23 	call	0x478e	; 0x478e <__fixsfsi>
    2420:	c6 01       	movw	r24, r12
    2422:	0e 94 0f 22 	call	0x441e	; 0x441e <_ZN5Wheel18ControlMalfinctionEi>
			Wheel_3.ControlMalfinction(countToMalfunctionLimit);
    2426:	f5 01       	movw	r30, r10
    2428:	60 81       	ld	r22, Z
    242a:	71 81       	ldd	r23, Z+1	; 0x01
    242c:	82 81       	ldd	r24, Z+2	; 0x02
    242e:	93 81       	ldd	r25, Z+3	; 0x03
    2430:	0e 94 c7 23 	call	0x478e	; 0x478e <__fixsfsi>
    2434:	c7 01       	movw	r24, r14
    2436:	0e 94 0f 22 	call	0x441e	; 0x441e <_ZN5Wheel18ControlMalfinctionEi>
			Wheel_4.ControlMalfinction(countToMalfunctionLimit);
    243a:	f5 01       	movw	r30, r10
    243c:	60 81       	ld	r22, Z
    243e:	71 81       	ldd	r23, Z+1	; 0x01
    2440:	82 81       	ldd	r24, Z+2	; 0x02
    2442:	93 81       	ldd	r25, Z+3	; 0x03
    2444:	0e 94 c7 23 	call	0x478e	; 0x478e <__fixsfsi>
    2448:	c8 01       	movw	r24, r16
    244a:	0e 94 0f 22 	call	0x441e	; 0x441e <_ZN5Wheel18ControlMalfinctionEi>
		}
	}
}
    244e:	df 91       	pop	r29
    2450:	cf 91       	pop	r28
    2452:	1f 91       	pop	r17
    2454:	0f 91       	pop	r16
    2456:	ff 90       	pop	r15
    2458:	ef 90       	pop	r14
    245a:	df 90       	pop	r13
    245c:	cf 90       	pop	r12
    245e:	bf 90       	pop	r11
    2460:	af 90       	pop	r10
    2462:	08 95       	ret

00002464 <_ZN7Carrage21ResecCountMalfinctionEv>:

void Carrage::ResecCountMalfinction(){
	Wheel_1.countToMalfunction = 0;
    2464:	fc 01       	movw	r30, r24
    2466:	11 a2       	std	Z+33, r1	; 0x21
    2468:	10 a2       	std	Z+32, r1	; 0x20
	Wheel_2.countToMalfunction = 0;
    246a:	e5 5b       	subi	r30, 0xB5	; 181
    246c:	ff 4f       	sbci	r31, 0xFF	; 255
    246e:	11 82       	std	Z+1, r1	; 0x01
    2470:	10 82       	st	Z, r1
	Wheel_3.countToMalfunction = 0;
    2472:	bb 96       	adiw	r30, 0x2b	; 43
    2474:	11 82       	std	Z+1, r1	; 0x01
    2476:	10 82       	st	Z, r1
	Wheel_4.countToMalfunction = 0;
    2478:	bb 96       	adiw	r30, 0x2b	; 43
    247a:	11 82       	std	Z+1, r1	; 0x01
    247c:	10 82       	st	Z, r1
    247e:	08 95       	ret

00002480 <_ZN7Carrage17switch_malfactionEv>:
}


void Carrage::switch_malfaction(){
	OnOffMalfunction = !OnOffMalfunction;
    2480:	fc 01       	movw	r30, r24
    2482:	e2 54       	subi	r30, 0x42	; 66
    2484:	ff 4f       	sbci	r31, 0xFF	; 255
    2486:	80 81       	ld	r24, Z
    2488:	91 e0       	ldi	r25, 0x01	; 1
    248a:	98 27       	eor	r25, r24
    248c:	90 83       	st	Z, r25
    248e:	08 95       	ret

00002490 <_ZN7Carrage11errorsResetEv>:
}

void Carrage::errorsReset(){
	Wheel_1.malfuction = false;
    2490:	fc 01       	movw	r30, r24
    2492:	13 8e       	std	Z+27, r1	; 0x1b
	Wheel_1.Error = 0;
    2494:	17 8e       	std	Z+31, r1	; 0x1f
    2496:	16 8e       	std	Z+30, r1	; 0x1e
	Wheel_2.malfuction = false;
    2498:	ea 5b       	subi	r30, 0xBA	; 186
    249a:	ff 4f       	sbci	r31, 0xFF	; 255
    249c:	10 82       	st	Z, r1
	Wheel_2.Error = 0;
    249e:	33 96       	adiw	r30, 0x03	; 3
    24a0:	11 82       	std	Z+1, r1	; 0x01
    24a2:	10 82       	st	Z, r1
	Wheel_3.malfuction = false;
    24a4:	b8 96       	adiw	r30, 0x28	; 40
    24a6:	10 82       	st	Z, r1
	Wheel_3.Error = 0;
    24a8:	33 96       	adiw	r30, 0x03	; 3
    24aa:	11 82       	std	Z+1, r1	; 0x01
    24ac:	10 82       	st	Z, r1
	Wheel_4.malfuction = false;
    24ae:	b8 96       	adiw	r30, 0x28	; 40
    24b0:	10 82       	st	Z, r1
	Wheel_4.Error = 0;
    24b2:	33 96       	adiw	r30, 0x03	; 3
    24b4:	11 82       	std	Z+1, r1	; 0x01
    24b6:	10 82       	st	Z, r1
    24b8:	08 95       	ret

000024ba <_ZN7Carrage14SelectAllWheelEv>:
}

void Carrage::SelectAllWheel(){
	Wheel_1.selected = true;
    24ba:	21 e0       	ldi	r18, 0x01	; 1
    24bc:	fc 01       	movw	r30, r24
    24be:	22 8f       	std	Z+26, r18	; 0x1a
	Wheel_2.selected = true;
    24c0:	eb 5b       	subi	r30, 0xBB	; 187
    24c2:	ff 4f       	sbci	r31, 0xFF	; 255
    24c4:	20 83       	st	Z, r18
	Wheel_3.selected = true;
    24c6:	bb 96       	adiw	r30, 0x2b	; 43
    24c8:	20 83       	st	Z, r18
	Wheel_4.selected = true;
    24ca:	bb 96       	adiw	r30, 0x2b	; 43
    24cc:	20 83       	st	Z, r18
    24ce:	08 95       	ret

000024d0 <_ZN7Carrage16DiSelectAllWheelEv>:
}

void Carrage::DiSelectAllWheel(){
	Wheel_1.selected = false;
    24d0:	fc 01       	movw	r30, r24
    24d2:	12 8e       	std	Z+26, r1	; 0x1a
	Wheel_2.selected = false;
    24d4:	eb 5b       	subi	r30, 0xBB	; 187
    24d6:	ff 4f       	sbci	r31, 0xFF	; 255
    24d8:	10 82       	st	Z, r1
	Wheel_3.selected = false;
    24da:	bb 96       	adiw	r30, 0x2b	; 43
    24dc:	10 82       	st	Z, r1
	Wheel_4.selected = false;
    24de:	bb 96       	adiw	r30, 0x2b	; 43
    24e0:	10 82       	st	Z, r1
    24e2:	08 95       	ret

000024e4 <_ZN7Carrage14SwitchAllWheelEv>:
}

void Carrage::SwitchAllWheel(){
	if(Wheel_1.selected&&Wheel_2.selected&&Wheel_3.selected&&Wheel_4.selected){
    24e4:	fc 01       	movw	r30, r24
    24e6:	22 8d       	ldd	r18, Z+26	; 0x1a
    24e8:	22 23       	and	r18, r18
    24ea:	b9 f0       	breq	.+46     	; 0x251a <_ZN7Carrage14SwitchAllWheelEv+0x36>
    24ec:	eb 5b       	subi	r30, 0xBB	; 187
    24ee:	ff 4f       	sbci	r31, 0xFF	; 255
    24f0:	20 81       	ld	r18, Z
    24f2:	22 23       	and	r18, r18
    24f4:	91 f0       	breq	.+36     	; 0x251a <_ZN7Carrage14SwitchAllWheelEv+0x36>
    24f6:	bb 96       	adiw	r30, 0x2b	; 43
    24f8:	20 81       	ld	r18, Z
    24fa:	22 23       	and	r18, r18
    24fc:	71 f0       	breq	.+28     	; 0x251a <_ZN7Carrage14SwitchAllWheelEv+0x36>
    24fe:	bb 96       	adiw	r30, 0x2b	; 43
    2500:	20 81       	ld	r18, Z
    2502:	22 23       	and	r18, r18
    2504:	51 f0       	breq	.+20     	; 0x251a <_ZN7Carrage14SwitchAllWheelEv+0x36>
	Wheel_3.selected = true;
	Wheel_4.selected = true;
}

void Carrage::DiSelectAllWheel(){
	Wheel_1.selected = false;
    2506:	fc 01       	movw	r30, r24
    2508:	12 8e       	std	Z+26, r1	; 0x1a
	Wheel_2.selected = false;
    250a:	eb 5b       	subi	r30, 0xBB	; 187
    250c:	ff 4f       	sbci	r31, 0xFF	; 255
    250e:	10 82       	st	Z, r1
	Wheel_3.selected = false;
    2510:	bb 96       	adiw	r30, 0x2b	; 43
    2512:	10 82       	st	Z, r1
	Wheel_4.selected = false;
    2514:	bb 96       	adiw	r30, 0x2b	; 43
    2516:	10 82       	st	Z, r1
    2518:	08 95       	ret
	Wheel_4.malfuction = false;
	Wheel_4.Error = 0;
}

void Carrage::SelectAllWheel(){
	Wheel_1.selected = true;
    251a:	21 e0       	ldi	r18, 0x01	; 1
    251c:	fc 01       	movw	r30, r24
    251e:	22 8f       	std	Z+26, r18	; 0x1a
	Wheel_2.selected = true;
    2520:	eb 5b       	subi	r30, 0xBB	; 187
    2522:	ff 4f       	sbci	r31, 0xFF	; 255
    2524:	20 83       	st	Z, r18
	Wheel_3.selected = true;
    2526:	bb 96       	adiw	r30, 0x2b	; 43
    2528:	20 83       	st	Z, r18
	Wheel_4.selected = true;
    252a:	bb 96       	adiw	r30, 0x2b	; 43
    252c:	20 83       	st	Z, r18
    252e:	08 95       	ret

00002530 <_ZL7LcdSendh10LcdCmdData>:
        if(response == OUT_OF_BORDER)
            return OUT_OF_BORDER;
    }

    return OK;
}
    2530:	2a 98       	cbi	0x05, 2	; 5
    2532:	61 30       	cpi	r22, 0x01	; 1
    2534:	11 f4       	brne	.+4      	; 0x253a <_ZL7LcdSendh10LcdCmdData+0xa>
    2536:	29 9a       	sbi	0x05, 1	; 5
    2538:	01 c0       	rjmp	.+2      	; 0x253c <_ZL7LcdSendh10LcdCmdData+0xc>
    253a:	29 98       	cbi	0x05, 1	; 5
    253c:	8e bd       	out	0x2e, r24	; 46
    253e:	0d b4       	in	r0, 0x2d	; 45
    2540:	07 fe       	sbrs	r0, 7
    2542:	fd cf       	rjmp	.-6      	; 0x253e <_ZL7LcdSendh10LcdCmdData+0xe>
    2544:	2a 9a       	sbi	0x05, 2	; 5
    2546:	08 95       	ret

00002548 <_Z5gftoafi>:
    2548:	cf 92       	push	r12
    254a:	df 92       	push	r13
    254c:	ef 92       	push	r14
    254e:	ff 92       	push	r15
    2550:	0f 93       	push	r16
    2552:	1f 93       	push	r17
    2554:	cf 93       	push	r28
    2556:	df 93       	push	r29
    2558:	6b 01       	movw	r12, r22
    255a:	7c 01       	movw	r14, r24
    255c:	ea 01       	movw	r28, r20
    255e:	ca 01       	movw	r24, r20
    2560:	01 97       	sbiw	r24, 0x01	; 1
    2562:	20 97       	sbiw	r28, 0x00	; 0
    2564:	81 f0       	breq	.+32     	; 0x2586 <_Z5gftoafi+0x3e>
    2566:	61 e0       	ldi	r22, 0x01	; 1
    2568:	70 e0       	ldi	r23, 0x00	; 0
    256a:	9b 01       	movw	r18, r22
    256c:	22 0f       	add	r18, r18
    256e:	33 1f       	adc	r19, r19
    2570:	66 0f       	add	r22, r22
    2572:	77 1f       	adc	r23, r23
    2574:	66 0f       	add	r22, r22
    2576:	77 1f       	adc	r23, r23
    2578:	66 0f       	add	r22, r22
    257a:	77 1f       	adc	r23, r23
    257c:	62 0f       	add	r22, r18
    257e:	73 1f       	adc	r23, r19
    2580:	01 97       	sbiw	r24, 0x01	; 1
    2582:	98 f7       	brcc	.-26     	; 0x256a <_Z5gftoafi+0x22>
    2584:	02 c0       	rjmp	.+4      	; 0x258a <_Z5gftoafi+0x42>
    2586:	61 e0       	ldi	r22, 0x01	; 1
    2588:	70 e0       	ldi	r23, 0x00	; 0
    258a:	07 2e       	mov	r0, r23
    258c:	00 0c       	add	r0, r0
    258e:	88 0b       	sbc	r24, r24
    2590:	99 0b       	sbc	r25, r25
    2592:	0e 94 ff 23 	call	0x47fe	; 0x47fe <__floatsisf>
    2596:	a7 01       	movw	r20, r14
    2598:	96 01       	movw	r18, r12
    259a:	0e 94 b4 24 	call	0x4968	; 0x4968 <__mulsf3>
    259e:	0e 94 c7 23 	call	0x478e	; 0x478e <__fixsfsi>
    25a2:	ab 01       	movw	r20, r22
    25a4:	bc 01       	movw	r22, r24
    25a6:	ca 01       	movw	r24, r20
    25a8:	99 23       	and	r25, r25
    25aa:	1c f0       	brlt	.+6      	; 0x25b2 <_Z5gftoafi+0x6a>
    25ac:	21 e0       	ldi	r18, 0x01	; 1
    25ae:	30 e0       	ldi	r19, 0x00	; 0
    25b0:	02 c0       	rjmp	.+4      	; 0x25b6 <_Z5gftoafi+0x6e>
    25b2:	2f ef       	ldi	r18, 0xFF	; 255
    25b4:	3f ef       	ldi	r19, 0xFF	; 255
    25b6:	24 9f       	mul	r18, r20
    25b8:	c0 01       	movw	r24, r0
    25ba:	25 9f       	mul	r18, r21
    25bc:	90 0d       	add	r25, r0
    25be:	34 9f       	mul	r19, r20
    25c0:	90 0d       	add	r25, r0
    25c2:	11 24       	eor	r1, r1
    25c4:	03 eb       	ldi	r16, 0xB3	; 179
    25c6:	12 e0       	ldi	r17, 0x02	; 2
    25c8:	0f 2e       	mov	r0, r31
    25ca:	fa e0       	ldi	r31, 0x0A	; 10
    25cc:	ef 2e       	mov	r14, r31
    25ce:	f1 2c       	mov	r15, r1
    25d0:	f0 2d       	mov	r31, r0
    25d2:	0f 2e       	mov	r0, r31
    25d4:	fe e2       	ldi	r31, 0x2E	; 46
    25d6:	df 2e       	mov	r13, r31
    25d8:	f0 2d       	mov	r31, r0
    25da:	02 c0       	rjmp	.+4      	; 0x25e0 <_Z5gftoafi+0x98>
    25dc:	8f 01       	movw	r16, r30
    25de:	ea 01       	movw	r28, r20
    25e0:	f8 01       	movw	r30, r16
    25e2:	b7 01       	movw	r22, r14
    25e4:	0e 94 21 25 	call	0x4a42	; 0x4a42 <__divmodhi4>
    25e8:	80 5d       	subi	r24, 0xD0	; 208
    25ea:	82 93       	st	-Z, r24
    25ec:	86 2f       	mov	r24, r22
    25ee:	97 2f       	mov	r25, r23
    25f0:	ae 01       	movw	r20, r28
    25f2:	41 50       	subi	r20, 0x01	; 1
    25f4:	51 09       	sbc	r21, r1
    25f6:	19 f4       	brne	.+6      	; 0x25fe <_Z5gftoafi+0xb6>
    25f8:	f8 01       	movw	r30, r16
    25fa:	32 97       	sbiw	r30, 0x02	; 2
    25fc:	d0 82       	st	Z, r13
    25fe:	00 97       	sbiw	r24, 0x00	; 0
    2600:	69 f7       	brne	.-38     	; 0x25dc <_Z5gftoafi+0x94>
    2602:	14 16       	cp	r1, r20
    2604:	15 06       	cpc	r1, r21
    2606:	d4 f4       	brge	.+52     	; 0x263c <_Z5gftoafi+0xf4>
    2608:	be 01       	movw	r22, r28
    260a:	62 50       	subi	r22, 0x02	; 2
    260c:	71 09       	sbc	r23, r1
    260e:	df 01       	movw	r26, r30
    2610:	40 e3       	ldi	r20, 0x30	; 48
    2612:	21 97       	sbiw	r28, 0x01	; 1
    2614:	ce 1b       	sub	r28, r30
    2616:	df 0b       	sbc	r29, r31
    2618:	4e 93       	st	-X, r20
    261a:	cd 01       	movw	r24, r26
    261c:	8c 0f       	add	r24, r28
    261e:	9d 1f       	adc	r25, r29
    2620:	18 16       	cp	r1, r24
    2622:	19 06       	cpc	r1, r25
    2624:	cc f3       	brlt	.-14     	; 0x2618 <_Z5gftoafi+0xd0>
    2626:	cb 01       	movw	r24, r22
    2628:	99 23       	and	r25, r25
    262a:	14 f4       	brge	.+4      	; 0x2630 <_Z5gftoafi+0xe8>
    262c:	80 e0       	ldi	r24, 0x00	; 0
    262e:	90 e0       	ldi	r25, 0x00	; 0
    2630:	80 95       	com	r24
    2632:	90 95       	com	r25
    2634:	e8 0f       	add	r30, r24
    2636:	f9 1f       	adc	r31, r25
    2638:	8e e2       	ldi	r24, 0x2E	; 46
    263a:	82 93       	st	-Z, r24
    263c:	80 81       	ld	r24, Z
    263e:	8e 32       	cpi	r24, 0x2E	; 46
    2640:	11 f4       	brne	.+4      	; 0x2646 <_Z5gftoafi+0xfe>
    2642:	80 e3       	ldi	r24, 0x30	; 48
    2644:	82 93       	st	-Z, r24
    2646:	33 23       	and	r19, r19
    2648:	14 f4       	brge	.+4      	; 0x264e <_Z5gftoafi+0x106>
    264a:	8d e2       	ldi	r24, 0x2D	; 45
    264c:	82 93       	st	-Z, r24
    264e:	cf 01       	movw	r24, r30
    2650:	df 91       	pop	r29
    2652:	cf 91       	pop	r28
    2654:	1f 91       	pop	r17
    2656:	0f 91       	pop	r16
    2658:	ff 90       	pop	r15
    265a:	ef 90       	pop	r14
    265c:	df 90       	pop	r13
    265e:	cf 90       	pop	r12
    2660:	08 95       	ret

00002662 <_Z8Lcd_initv>:
    2662:	2c 9a       	sbi	0x05, 4	; 5
    2664:	84 b1       	in	r24, 0x04	; 4
    2666:	8e 63       	ori	r24, 0x3E	; 62
    2668:	84 b9       	out	0x04, r24	; 4
    266a:	2c 98       	cbi	0x05, 4	; 5
    266c:	2c 9a       	sbi	0x05, 4	; 5
    266e:	80 e5       	ldi	r24, 0x50	; 80
    2670:	8c bd       	out	0x2c, r24	; 44
    2672:	2a 9a       	sbi	0x05, 2	; 5
    2674:	60 e0       	ldi	r22, 0x00	; 0
    2676:	81 e2       	ldi	r24, 0x21	; 33
    2678:	0e 94 98 12 	call	0x2530	; 0x2530 <_ZL7LcdSendh10LcdCmdData>
    267c:	60 e0       	ldi	r22, 0x00	; 0
    267e:	88 ec       	ldi	r24, 0xC8	; 200
    2680:	0e 94 98 12 	call	0x2530	; 0x2530 <_ZL7LcdSendh10LcdCmdData>
    2684:	60 e0       	ldi	r22, 0x00	; 0
    2686:	86 e0       	ldi	r24, 0x06	; 6
    2688:	0e 94 98 12 	call	0x2530	; 0x2530 <_ZL7LcdSendh10LcdCmdData>
    268c:	60 e0       	ldi	r22, 0x00	; 0
    268e:	83 e1       	ldi	r24, 0x13	; 19
    2690:	0e 94 98 12 	call	0x2530	; 0x2530 <_ZL7LcdSendh10LcdCmdData>
    2694:	60 e0       	ldi	r22, 0x00	; 0
    2696:	80 e2       	ldi	r24, 0x20	; 32
    2698:	0e 94 98 12 	call	0x2530	; 0x2530 <_ZL7LcdSendh10LcdCmdData>
    269c:	60 e0       	ldi	r22, 0x00	; 0
    269e:	8c e0       	ldi	r24, 0x0C	; 12
    26a0:	0e 94 98 12 	call	0x2530	; 0x2530 <_ZL7LcdSendh10LcdCmdData>
    26a4:	08 95       	ret

000026a6 <_Z9Lcd_clearv>:
    26a6:	88 ef       	ldi	r24, 0xF8	; 248
    26a8:	91 e0       	ldi	r25, 0x01	; 1
    26aa:	ea eb       	ldi	r30, 0xBA	; 186
    26ac:	f2 e0       	ldi	r31, 0x02	; 2
    26ae:	df 01       	movw	r26, r30
    26b0:	9c 01       	movw	r18, r24
    26b2:	1d 92       	st	X+, r1
    26b4:	21 50       	subi	r18, 0x01	; 1
    26b6:	30 40       	sbci	r19, 0x00	; 0
    26b8:	e1 f7       	brne	.-8      	; 0x26b2 <_Z9Lcd_clearv+0xc>
    26ba:	10 92 b9 02 	sts	0x02B9, r1	; 0x8002b9 <_ZL11LoWaterMark+0x1>
    26be:	10 92 b8 02 	sts	0x02B8, r1	; 0x8002b8 <_ZL11LoWaterMark>
    26c2:	87 ef       	ldi	r24, 0xF7	; 247
    26c4:	91 e0       	ldi	r25, 0x01	; 1
    26c6:	90 93 b7 02 	sts	0x02B7, r25	; 0x8002b7 <_ZL11HiWaterMark+0x1>
    26ca:	80 93 b6 02 	sts	0x02B6, r24	; 0x8002b6 <_ZL11HiWaterMark>
    26ce:	08 95       	ret

000026d0 <_Z10Lcd_updatev>:
    26d0:	ef 92       	push	r14
    26d2:	ff 92       	push	r15
    26d4:	0f 93       	push	r16
    26d6:	1f 93       	push	r17
    26d8:	cf 93       	push	r28
    26da:	df 93       	push	r29
    26dc:	80 91 b8 02 	lds	r24, 0x02B8	; 0x8002b8 <_ZL11LoWaterMark>
    26e0:	90 91 b9 02 	lds	r25, 0x02B9	; 0x8002b9 <_ZL11LoWaterMark+0x1>
    26e4:	99 23       	and	r25, r25
    26e6:	2c f4       	brge	.+10     	; 0x26f2 <_Z10Lcd_updatev+0x22>
    26e8:	10 92 b9 02 	sts	0x02B9, r1	; 0x8002b9 <_ZL11LoWaterMark+0x1>
    26ec:	10 92 b8 02 	sts	0x02B8, r1	; 0x8002b8 <_ZL11LoWaterMark>
    26f0:	09 c0       	rjmp	.+18     	; 0x2704 <_Z10Lcd_updatev+0x34>
    26f2:	88 3f       	cpi	r24, 0xF8	; 248
    26f4:	91 40       	sbci	r25, 0x01	; 1
    26f6:	34 f0       	brlt	.+12     	; 0x2704 <_Z10Lcd_updatev+0x34>
    26f8:	87 ef       	ldi	r24, 0xF7	; 247
    26fa:	91 e0       	ldi	r25, 0x01	; 1
    26fc:	90 93 b9 02 	sts	0x02B9, r25	; 0x8002b9 <_ZL11LoWaterMark+0x1>
    2700:	80 93 b8 02 	sts	0x02B8, r24	; 0x8002b8 <_ZL11LoWaterMark>
    2704:	80 91 b6 02 	lds	r24, 0x02B6	; 0x8002b6 <_ZL11HiWaterMark>
    2708:	90 91 b7 02 	lds	r25, 0x02B7	; 0x8002b7 <_ZL11HiWaterMark+0x1>
    270c:	99 23       	and	r25, r25
    270e:	2c f4       	brge	.+10     	; 0x271a <_Z10Lcd_updatev+0x4a>
    2710:	10 92 b7 02 	sts	0x02B7, r1	; 0x8002b7 <_ZL11HiWaterMark+0x1>
    2714:	10 92 b6 02 	sts	0x02B6, r1	; 0x8002b6 <_ZL11HiWaterMark>
    2718:	09 c0       	rjmp	.+18     	; 0x272c <_Z10Lcd_updatev+0x5c>
    271a:	88 3f       	cpi	r24, 0xF8	; 248
    271c:	91 40       	sbci	r25, 0x01	; 1
    271e:	34 f0       	brlt	.+12     	; 0x272c <_Z10Lcd_updatev+0x5c>
    2720:	87 ef       	ldi	r24, 0xF7	; 247
    2722:	91 e0       	ldi	r25, 0x01	; 1
    2724:	90 93 b7 02 	sts	0x02B7, r25	; 0x8002b7 <_ZL11HiWaterMark+0x1>
    2728:	80 93 b6 02 	sts	0x02B6, r24	; 0x8002b6 <_ZL11HiWaterMark>
    272c:	c0 91 b8 02 	lds	r28, 0x02B8	; 0x8002b8 <_ZL11LoWaterMark>
    2730:	d0 91 b9 02 	lds	r29, 0x02B9	; 0x8002b9 <_ZL11LoWaterMark+0x1>
    2734:	ce 01       	movw	r24, r28
    2736:	64 e5       	ldi	r22, 0x54	; 84
    2738:	70 e0       	ldi	r23, 0x00	; 0
    273a:	0e 94 21 25 	call	0x4a42	; 0x4a42 <__divmodhi4>
    273e:	16 2f       	mov	r17, r22
    2740:	60 e0       	ldi	r22, 0x00	; 0
    2742:	80 68       	ori	r24, 0x80	; 128
    2744:	0e 94 98 12 	call	0x2530	; 0x2530 <_ZL7LcdSendh10LcdCmdData>
    2748:	60 e0       	ldi	r22, 0x00	; 0
    274a:	81 2f       	mov	r24, r17
    274c:	80 64       	ori	r24, 0x40	; 64
    274e:	0e 94 98 12 	call	0x2530	; 0x2530 <_ZL7LcdSendh10LcdCmdData>
    2752:	e0 90 b6 02 	lds	r14, 0x02B6	; 0x8002b6 <_ZL11HiWaterMark>
    2756:	f0 90 b7 02 	lds	r15, 0x02B7	; 0x8002b7 <_ZL11HiWaterMark+0x1>
    275a:	ec 16       	cp	r14, r28
    275c:	fd 06       	cpc	r15, r29
    275e:	6c f0       	brlt	.+26     	; 0x277a <_Z10Lcd_updatev+0xaa>
    2760:	8e 01       	movw	r16, r28
    2762:	06 54       	subi	r16, 0x46	; 70
    2764:	1d 4f       	sbci	r17, 0xFD	; 253
    2766:	61 e0       	ldi	r22, 0x01	; 1
    2768:	f8 01       	movw	r30, r16
    276a:	81 91       	ld	r24, Z+
    276c:	8f 01       	movw	r16, r30
    276e:	0e 94 98 12 	call	0x2530	; 0x2530 <_ZL7LcdSendh10LcdCmdData>
    2772:	21 96       	adiw	r28, 0x01	; 1
    2774:	ec 16       	cp	r14, r28
    2776:	fd 06       	cpc	r15, r29
    2778:	b4 f7       	brge	.-20     	; 0x2766 <_Z10Lcd_updatev+0x96>
    277a:	87 ef       	ldi	r24, 0xF7	; 247
    277c:	91 e0       	ldi	r25, 0x01	; 1
    277e:	90 93 b9 02 	sts	0x02B9, r25	; 0x8002b9 <_ZL11LoWaterMark+0x1>
    2782:	80 93 b8 02 	sts	0x02B8, r24	; 0x8002b8 <_ZL11LoWaterMark>
    2786:	10 92 b7 02 	sts	0x02B7, r1	; 0x8002b7 <_ZL11HiWaterMark+0x1>
    278a:	10 92 b6 02 	sts	0x02B6, r1	; 0x8002b6 <_ZL11HiWaterMark>
    278e:	df 91       	pop	r29
    2790:	cf 91       	pop	r28
    2792:	1f 91       	pop	r17
    2794:	0f 91       	pop	r16
    2796:	ff 90       	pop	r15
    2798:	ef 90       	pop	r14
    279a:	08 95       	ret

0000279c <_Z9LcdGotoXYhh>:
    279c:	8e 30       	cpi	r24, 0x0E	; 14
    279e:	a8 f4       	brcc	.+42     	; 0x27ca <_Z9LcdGotoXYhh+0x2e>
    27a0:	66 30       	cpi	r22, 0x06	; 6
    27a2:	a8 f4       	brcc	.+42     	; 0x27ce <_Z9LcdGotoXYhh+0x32>
    27a4:	90 e0       	ldi	r25, 0x00	; 0
    27a6:	9c 01       	movw	r18, r24
    27a8:	22 0f       	add	r18, r18
    27aa:	33 1f       	adc	r19, r19
    27ac:	82 0f       	add	r24, r18
    27ae:	93 1f       	adc	r25, r19
    27b0:	88 0f       	add	r24, r24
    27b2:	99 1f       	adc	r25, r25
    27b4:	24 e5       	ldi	r18, 0x54	; 84
    27b6:	62 9f       	mul	r22, r18
    27b8:	80 0d       	add	r24, r0
    27ba:	91 1d       	adc	r25, r1
    27bc:	11 24       	eor	r1, r1
    27be:	90 93 b5 02 	sts	0x02B5, r25	; 0x8002b5 <_ZL11LcdCacheIdx+0x1>
    27c2:	80 93 b4 02 	sts	0x02B4, r24	; 0x8002b4 <_ZL11LcdCacheIdx>
    27c6:	80 e0       	ldi	r24, 0x00	; 0
    27c8:	08 95       	ret
    27ca:	81 e0       	ldi	r24, 0x01	; 1
    27cc:	08 95       	ret
    27ce:	81 e0       	ldi	r24, 0x01	; 1
    27d0:	08 95       	ret

000027d2 <_Z11LcdChr_fullh>:
    27d2:	40 91 b4 02 	lds	r20, 0x02B4	; 0x8002b4 <_ZL11LcdCacheIdx>
    27d6:	50 91 b5 02 	lds	r21, 0x02B5	; 0x8002b5 <_ZL11LcdCacheIdx+0x1>
    27da:	80 52       	subi	r24, 0x20	; 32
    27dc:	97 e0       	ldi	r25, 0x07	; 7
    27de:	89 9f       	mul	r24, r25
    27e0:	f0 01       	movw	r30, r0
    27e2:	11 24       	eor	r1, r1
    27e4:	ec 5f       	subi	r30, 0xFC	; 252
    27e6:	fc 4f       	sbci	r31, 0xFC	; 252
    27e8:	da 01       	movw	r26, r20
    27ea:	a6 54       	subi	r26, 0x46	; 70
    27ec:	bd 4f       	sbci	r27, 0xFD	; 253
    27ee:	9a 01       	movw	r18, r20
    27f0:	20 54       	subi	r18, 0x40	; 64
    27f2:	3d 4f       	sbci	r19, 0xFD	; 253
    27f4:	84 91       	lpm	r24, Z
    27f6:	8d 93       	st	X+, r24
    27f8:	31 96       	adiw	r30, 0x01	; 1
    27fa:	a2 17       	cp	r26, r18
    27fc:	b3 07       	cpc	r27, r19
    27fe:	d1 f7       	brne	.-12     	; 0x27f4 <_Z11LcdChr_fullh+0x22>
    2800:	4a 5f       	subi	r20, 0xFA	; 250
    2802:	5f 4f       	sbci	r21, 0xFF	; 255
    2804:	50 93 b5 02 	sts	0x02B5, r21	; 0x8002b5 <_ZL11LcdCacheIdx+0x1>
    2808:	40 93 b4 02 	sts	0x02B4, r20	; 0x8002b4 <_ZL11LcdCacheIdx>
    280c:	80 e0       	ldi	r24, 0x00	; 0
    280e:	08 95       	ret

00002810 <_Z12LcdStepLevelh>:
    2810:	40 91 b4 02 	lds	r20, 0x02B4	; 0x8002b4 <_ZL11LcdCacheIdx>
    2814:	50 91 b5 02 	lds	r21, 0x02B5	; 0x8002b5 <_ZL11LcdCacheIdx+0x1>
    2818:	90 e0       	ldi	r25, 0x00	; 0
    281a:	fc 01       	movw	r30, r24
    281c:	ee 0f       	add	r30, r30
    281e:	ff 1f       	adc	r31, r31
    2820:	e8 0f       	add	r30, r24
    2822:	f9 1f       	adc	r31, r25
    2824:	ee 0f       	add	r30, r30
    2826:	ff 1f       	adc	r31, r31
    2828:	ee 0f       	add	r30, r30
    282a:	ff 1f       	adc	r31, r31
    282c:	ee 0f       	add	r30, r30
    282e:	ff 1f       	adc	r31, r31
    2830:	ec 5d       	subi	r30, 0xDC	; 220
    2832:	fe 4f       	sbci	r31, 0xFE	; 254
    2834:	da 01       	movw	r26, r20
    2836:	a6 54       	subi	r26, 0x46	; 70
    2838:	bd 4f       	sbci	r27, 0xFD	; 253
    283a:	9a 01       	movw	r18, r20
    283c:	2e 52       	subi	r18, 0x2E	; 46
    283e:	3d 4f       	sbci	r19, 0xFD	; 253
    2840:	84 91       	lpm	r24, Z
    2842:	8d 93       	st	X+, r24
    2844:	31 96       	adiw	r30, 0x01	; 1
    2846:	a2 17       	cp	r26, r18
    2848:	b3 07       	cpc	r27, r19
    284a:	d1 f7       	brne	.-12     	; 0x2840 <_Z12LcdStepLevelh+0x30>
    284c:	48 5e       	subi	r20, 0xE8	; 232
    284e:	5f 4f       	sbci	r21, 0xFF	; 255
    2850:	50 93 b5 02 	sts	0x02B5, r21	; 0x8002b5 <_ZL11LcdCacheIdx+0x1>
    2854:	40 93 b4 02 	sts	0x02B4, r20	; 0x8002b4 <_ZL11LcdCacheIdx>
    2858:	80 e0       	ldi	r24, 0x00	; 0
    285a:	08 95       	ret

0000285c <_Z6LcdChr11LcdFontSizeh>:
    285c:	0f 93       	push	r16
    285e:	1f 93       	push	r17
    2860:	cf 93       	push	r28
    2862:	df 93       	push	r29
    2864:	40 91 b4 02 	lds	r20, 0x02B4	; 0x8002b4 <_ZL11LcdCacheIdx>
    2868:	50 91 b5 02 	lds	r21, 0x02B5	; 0x8002b5 <_ZL11LcdCacheIdx+0x1>
    286c:	20 91 b8 02 	lds	r18, 0x02B8	; 0x8002b8 <_ZL11LoWaterMark>
    2870:	30 91 b9 02 	lds	r19, 0x02B9	; 0x8002b9 <_ZL11LoWaterMark+0x1>
    2874:	42 17       	cp	r20, r18
    2876:	53 07       	cpc	r21, r19
    2878:	24 f4       	brge	.+8      	; 0x2882 <_Z6LcdChr11LcdFontSizeh+0x26>
    287a:	50 93 b9 02 	sts	0x02B9, r21	; 0x8002b9 <_ZL11LoWaterMark+0x1>
    287e:	40 93 b8 02 	sts	0x02B8, r20	; 0x8002b8 <_ZL11LoWaterMark>
    2882:	e0 ee       	ldi	r30, 0xE0	; 224
    2884:	e6 0f       	add	r30, r22
    2886:	e0 3a       	cpi	r30, 0xA0	; 160
    2888:	08 f4       	brcc	.+2      	; 0x288c <_Z6LcdChr11LcdFontSizeh+0x30>
    288a:	a0 c0       	rjmp	.+320    	; 0x29cc <_Z6LcdChr11LcdFontSizeh+0x170>
    288c:	60 3c       	cpi	r22, 0xC0	; 192
    288e:	08 f4       	brcc	.+2      	; 0x2892 <_Z6LcdChr11LcdFontSizeh+0x36>
    2890:	9c c0       	rjmp	.+312    	; 0x29ca <_Z6LcdChr11LcdFontSizeh+0x16e>
    2892:	ed ec       	ldi	r30, 0xCD	; 205
    2894:	e6 0f       	add	r30, r22
    2896:	9a c0       	rjmp	.+308    	; 0x29cc <_Z6LcdChr11LcdFontSizeh+0x170>
    2898:	84 91       	lpm	r24, Z
    289a:	88 0f       	add	r24, r24
    289c:	8d 93       	st	X+, r24
    289e:	31 96       	adiw	r30, 0x01	; 1
    28a0:	a2 17       	cp	r26, r18
    28a2:	b3 07       	cpc	r27, r19
    28a4:	c9 f7       	brne	.-14     	; 0x2898 <_Z6LcdChr11LcdFontSizeh+0x3c>
    28a6:	4b 5f       	subi	r20, 0xFB	; 251
    28a8:	5f 4f       	sbci	r21, 0xFF	; 255
    28aa:	50 93 b5 02 	sts	0x02B5, r21	; 0x8002b5 <_ZL11LcdCacheIdx+0x1>
    28ae:	40 93 b4 02 	sts	0x02B4, r20	; 0x8002b4 <_ZL11LcdCacheIdx>
    28b2:	65 c0       	rjmp	.+202    	; 0x297e <_Z6LcdChr11LcdFontSizeh+0x122>
    28b4:	82 30       	cpi	r24, 0x02	; 2
    28b6:	09 f0       	breq	.+2      	; 0x28ba <_Z6LcdChr11LcdFontSizeh+0x5e>
    28b8:	62 c0       	rjmp	.+196    	; 0x297e <_Z6LcdChr11LcdFontSizeh+0x122>
    28ba:	ca 01       	movw	r24, r20
    28bc:	84 55       	subi	r24, 0x54	; 84
    28be:	91 09       	sbc	r25, r1
    28c0:	20 91 b8 02 	lds	r18, 0x02B8	; 0x8002b8 <_ZL11LoWaterMark>
    28c4:	30 91 b9 02 	lds	r19, 0x02B9	; 0x8002b9 <_ZL11LoWaterMark+0x1>
    28c8:	82 17       	cp	r24, r18
    28ca:	93 07       	cpc	r25, r19
    28cc:	0c f0       	brlt	.+2      	; 0x28d0 <_Z6LcdChr11LcdFontSizeh+0x74>
    28ce:	8e c0       	rjmp	.+284    	; 0x29ec <_Z6LcdChr11LcdFontSizeh+0x190>
    28d0:	90 93 b9 02 	sts	0x02B9, r25	; 0x8002b9 <_ZL11LoWaterMark+0x1>
    28d4:	80 93 b8 02 	sts	0x02B8, r24	; 0x8002b8 <_ZL11LoWaterMark>
    28d8:	89 c0       	rjmp	.+274    	; 0x29ec <_Z6LcdChr11LcdFontSizeh+0x190>
    28da:	24 91       	lpm	r18, Z
    28dc:	22 0f       	add	r18, r18
    28de:	82 2f       	mov	r24, r18
    28e0:	82 70       	andi	r24, 0x02	; 2
    28e2:	98 2f       	mov	r25, r24
    28e4:	99 0f       	add	r25, r25
    28e6:	89 0f       	add	r24, r25
    28e8:	98 2f       	mov	r25, r24
    28ea:	99 0f       	add	r25, r25
    28ec:	82 2f       	mov	r24, r18
    28ee:	84 70       	andi	r24, 0x04	; 4
    28f0:	38 2f       	mov	r19, r24
    28f2:	33 0f       	add	r19, r19
    28f4:	83 0f       	add	r24, r19
    28f6:	88 0f       	add	r24, r24
    28f8:	88 0f       	add	r24, r24
    28fa:	89 2b       	or	r24, r25
    28fc:	02 2f       	mov	r16, r18
    28fe:	08 70       	andi	r16, 0x08	; 8
    2900:	01 9f       	mul	r16, r17
    2902:	00 2d       	mov	r16, r0
    2904:	11 24       	eor	r1, r1
    2906:	08 2b       	or	r16, r24
    2908:	30 e0       	ldi	r19, 0x00	; 0
    290a:	35 95       	asr	r19
    290c:	27 95       	ror	r18
    290e:	35 95       	asr	r19
    2910:	27 95       	ror	r18
    2912:	35 95       	asr	r19
    2914:	27 95       	ror	r18
    2916:	35 95       	asr	r19
    2918:	27 95       	ror	r18
    291a:	82 2f       	mov	r24, r18
    291c:	82 70       	andi	r24, 0x02	; 2
    291e:	38 2f       	mov	r19, r24
    2920:	33 0f       	add	r19, r19
    2922:	83 0f       	add	r24, r19
    2924:	88 0f       	add	r24, r24
    2926:	32 2f       	mov	r19, r18
    2928:	31 70       	andi	r19, 0x01	; 1
    292a:	93 2f       	mov	r25, r19
    292c:	99 0f       	add	r25, r25
    292e:	39 0f       	add	r19, r25
    2930:	83 2b       	or	r24, r19
    2932:	92 2f       	mov	r25, r18
    2934:	94 70       	andi	r25, 0x04	; 4
    2936:	39 2f       	mov	r19, r25
    2938:	33 0f       	add	r19, r19
    293a:	93 0f       	add	r25, r19
    293c:	99 0f       	add	r25, r25
    293e:	99 0f       	add	r25, r25
    2940:	89 2b       	or	r24, r25
    2942:	92 2f       	mov	r25, r18
    2944:	98 70       	andi	r25, 0x08	; 8
    2946:	91 9f       	mul	r25, r17
    2948:	90 2d       	mov	r25, r0
    294a:	11 24       	eor	r1, r1
    294c:	28 2f       	mov	r18, r24
    294e:	29 2b       	or	r18, r25
    2950:	08 83       	st	Y, r16
    2952:	09 83       	std	Y+1, r16	; 0x01
    2954:	2c 93       	st	X, r18
    2956:	11 96       	adiw	r26, 0x01	; 1
    2958:	2c 93       	st	X, r18
    295a:	11 97       	sbiw	r26, 0x01	; 1
    295c:	31 96       	adiw	r30, 0x01	; 1
    295e:	22 96       	adiw	r28, 0x02	; 2
    2960:	12 96       	adiw	r26, 0x02	; 2
    2962:	a6 17       	cp	r26, r22
    2964:	b7 07       	cpc	r27, r23
    2966:	09 f0       	breq	.+2      	; 0x296a <_Z6LcdChr11LcdFontSizeh+0x10e>
    2968:	b8 cf       	rjmp	.-144    	; 0x28da <_Z6LcdChr11LcdFontSizeh+0x7e>
    296a:	ca 01       	movw	r24, r20
    296c:	0b 96       	adiw	r24, 0x0b	; 11
    296e:	68 ef       	ldi	r22, 0xF8	; 248
    2970:	71 e0       	ldi	r23, 0x01	; 1
    2972:	0e 94 21 25 	call	0x4a42	; 0x4a42 <__divmodhi4>
    2976:	90 93 b5 02 	sts	0x02B5, r25	; 0x8002b5 <_ZL11LcdCacheIdx+0x1>
    297a:	80 93 b4 02 	sts	0x02B4, r24	; 0x8002b4 <_ZL11LcdCacheIdx>
    297e:	80 91 b4 02 	lds	r24, 0x02B4	; 0x8002b4 <_ZL11LcdCacheIdx>
    2982:	90 91 b5 02 	lds	r25, 0x02B5	; 0x8002b5 <_ZL11LcdCacheIdx+0x1>
    2986:	20 91 b6 02 	lds	r18, 0x02B6	; 0x8002b6 <_ZL11HiWaterMark>
    298a:	30 91 b7 02 	lds	r19, 0x02B7	; 0x8002b7 <_ZL11HiWaterMark+0x1>
    298e:	28 17       	cp	r18, r24
    2990:	39 07       	cpc	r19, r25
    2992:	24 f4       	brge	.+8      	; 0x299c <_Z6LcdChr11LcdFontSizeh+0x140>
    2994:	90 93 b7 02 	sts	0x02B7, r25	; 0x8002b7 <_ZL11HiWaterMark+0x1>
    2998:	80 93 b6 02 	sts	0x02B6, r24	; 0x8002b6 <_ZL11HiWaterMark>
    299c:	fc 01       	movw	r30, r24
    299e:	e6 54       	subi	r30, 0x46	; 70
    29a0:	fd 4f       	sbci	r31, 0xFD	; 253
    29a2:	10 82       	st	Z, r1
    29a4:	87 3f       	cpi	r24, 0xF7	; 247
    29a6:	21 e0       	ldi	r18, 0x01	; 1
    29a8:	92 07       	cpc	r25, r18
    29aa:	31 f4       	brne	.+12     	; 0x29b8 <_Z6LcdChr11LcdFontSizeh+0x15c>
    29ac:	10 92 b5 02 	sts	0x02B5, r1	; 0x8002b5 <_ZL11LcdCacheIdx+0x1>
    29b0:	10 92 b4 02 	sts	0x02B4, r1	; 0x8002b4 <_ZL11LcdCacheIdx>
    29b4:	82 e0       	ldi	r24, 0x02	; 2
    29b6:	2d c0       	rjmp	.+90     	; 0x2a12 <_Z6LcdChr11LcdFontSizeh+0x1b6>
    29b8:	01 96       	adiw	r24, 0x01	; 1
    29ba:	90 93 b5 02 	sts	0x02B5, r25	; 0x8002b5 <_ZL11LcdCacheIdx+0x1>
    29be:	80 93 b4 02 	sts	0x02B4, r24	; 0x8002b4 <_ZL11LcdCacheIdx>
    29c2:	80 e0       	ldi	r24, 0x00	; 0
    29c4:	26 c0       	rjmp	.+76     	; 0x2a12 <_Z6LcdChr11LcdFontSizeh+0x1b6>
    29c6:	81 e0       	ldi	r24, 0x01	; 1
    29c8:	24 c0       	rjmp	.+72     	; 0x2a12 <_Z6LcdChr11LcdFontSizeh+0x1b6>
    29ca:	ef e5       	ldi	r30, 0x5F	; 95
    29cc:	81 30       	cpi	r24, 0x01	; 1
    29ce:	09 f0       	breq	.+2      	; 0x29d2 <_Z6LcdChr11LcdFontSizeh+0x176>
    29d0:	71 cf       	rjmp	.-286    	; 0x28b4 <_Z6LcdChr11LcdFontSizeh+0x58>
    29d2:	87 e0       	ldi	r24, 0x07	; 7
    29d4:	e8 9f       	mul	r30, r24
    29d6:	f0 01       	movw	r30, r0
    29d8:	11 24       	eor	r1, r1
    29da:	ec 5f       	subi	r30, 0xFC	; 252
    29dc:	fc 4f       	sbci	r31, 0xFC	; 252
    29de:	da 01       	movw	r26, r20
    29e0:	a6 54       	subi	r26, 0x46	; 70
    29e2:	bd 4f       	sbci	r27, 0xFD	; 253
    29e4:	9a 01       	movw	r18, r20
    29e6:	21 54       	subi	r18, 0x41	; 65
    29e8:	3d 4f       	sbci	r19, 0xFD	; 253
    29ea:	56 cf       	rjmp	.-340    	; 0x2898 <_Z6LcdChr11LcdFontSizeh+0x3c>
    29ec:	99 23       	and	r25, r25
    29ee:	5c f3       	brlt	.-42     	; 0x29c6 <_Z6LcdChr11LcdFontSizeh+0x16a>
    29f0:	27 e0       	ldi	r18, 0x07	; 7
    29f2:	e2 9f       	mul	r30, r18
    29f4:	f0 01       	movw	r30, r0
    29f6:	11 24       	eor	r1, r1
    29f8:	ec 5f       	subi	r30, 0xFC	; 252
    29fa:	fc 4f       	sbci	r31, 0xFC	; 252
    29fc:	ea 01       	movw	r28, r20
    29fe:	ca 59       	subi	r28, 0x9A	; 154
    2a00:	dd 4f       	sbci	r29, 0xFD	; 253
    2a02:	da 01       	movw	r26, r20
    2a04:	a6 54       	subi	r26, 0x46	; 70
    2a06:	bd 4f       	sbci	r27, 0xFD	; 253
    2a08:	ba 01       	movw	r22, r20
    2a0a:	6c 53       	subi	r22, 0x3C	; 60
    2a0c:	7d 4f       	sbci	r23, 0xFD	; 253
    2a0e:	18 e1       	ldi	r17, 0x18	; 24
    2a10:	64 cf       	rjmp	.-312    	; 0x28da <_Z6LcdChr11LcdFontSizeh+0x7e>
    2a12:	df 91       	pop	r29
    2a14:	cf 91       	pop	r28
    2a16:	1f 91       	pop	r17
    2a18:	0f 91       	pop	r16
    2a1a:	08 95       	ret

00002a1c <_Z9Lcd_printhh11LcdFontSizePh>:
    2a1c:	0f 93       	push	r16
    2a1e:	1f 93       	push	r17
    2a20:	cf 93       	push	r28
    2a22:	df 93       	push	r29
    2a24:	d4 2f       	mov	r29, r20
    2a26:	89 01       	movw	r16, r18
    2a28:	0e 94 ce 13 	call	0x279c	; 0x279c <_Z9LcdGotoXYhh>
    2a2c:	f8 01       	movw	r30, r16
    2a2e:	60 81       	ld	r22, Z
    2a30:	66 23       	and	r22, r22
    2a32:	79 f0       	breq	.+30     	; 0x2a52 <_Z9Lcd_printhh11LcdFontSizePh+0x36>
    2a34:	c0 e0       	ldi	r28, 0x00	; 0
    2a36:	8d 2f       	mov	r24, r29
    2a38:	0e 94 2e 14 	call	0x285c	; 0x285c <_Z6LcdChr11LcdFontSizeh>
    2a3c:	81 30       	cpi	r24, 0x01	; 1
    2a3e:	41 f0       	breq	.+16     	; 0x2a50 <_Z9Lcd_printhh11LcdFontSizePh+0x34>
    2a40:	cf 5f       	subi	r28, 0xFF	; 255
    2a42:	f8 01       	movw	r30, r16
    2a44:	ec 0f       	add	r30, r28
    2a46:	f1 1d       	adc	r31, r1
    2a48:	60 81       	ld	r22, Z
    2a4a:	61 11       	cpse	r22, r1
    2a4c:	f4 cf       	rjmp	.-24     	; 0x2a36 <_Z9Lcd_printhh11LcdFontSizePh+0x1a>
    2a4e:	01 c0       	rjmp	.+2      	; 0x2a52 <_Z9Lcd_printhh11LcdFontSizePh+0x36>
    2a50:	61 e0       	ldi	r22, 0x01	; 1
    2a52:	86 2f       	mov	r24, r22
    2a54:	df 91       	pop	r29
    2a56:	cf 91       	pop	r28
    2a58:	1f 91       	pop	r17
    2a5a:	0f 91       	pop	r16
    2a5c:	08 95       	ret

00002a5e <_Z10Lcd_print2hh11LcdFontSizePh>:
    2a5e:	ff 92       	push	r15
    2a60:	0f 93       	push	r16
    2a62:	1f 93       	push	r17
    2a64:	cf 93       	push	r28
    2a66:	df 93       	push	r29
    2a68:	f4 2e       	mov	r15, r20
    2a6a:	89 01       	movw	r16, r18
    2a6c:	0e 94 ce 13 	call	0x279c	; 0x279c <_Z9LcdGotoXYhh>
    2a70:	f8 01       	movw	r30, r16
    2a72:	60 81       	ld	r22, Z
    2a74:	66 23       	and	r22, r22
    2a76:	91 f0       	breq	.+36     	; 0x2a9c <_Z10Lcd_print2hh11LcdFontSizePh+0x3e>
    2a78:	c0 e0       	ldi	r28, 0x00	; 0
    2a7a:	6e 32       	cpi	r22, 0x2E	; 46
    2a7c:	21 f0       	breq	.+8      	; 0x2a86 <_Z10Lcd_print2hh11LcdFontSizePh+0x28>
    2a7e:	8f 2d       	mov	r24, r15
    2a80:	0e 94 2e 14 	call	0x285c	; 0x285c <_Z6LcdChr11LcdFontSizeh>
    2a84:	d8 2f       	mov	r29, r24
    2a86:	d1 30       	cpi	r29, 0x01	; 1
    2a88:	41 f0       	breq	.+16     	; 0x2a9a <_Z10Lcd_print2hh11LcdFontSizePh+0x3c>
    2a8a:	cf 5f       	subi	r28, 0xFF	; 255
    2a8c:	f8 01       	movw	r30, r16
    2a8e:	ec 0f       	add	r30, r28
    2a90:	f1 1d       	adc	r31, r1
    2a92:	60 81       	ld	r22, Z
    2a94:	61 11       	cpse	r22, r1
    2a96:	f1 cf       	rjmp	.-30     	; 0x2a7a <_Z10Lcd_print2hh11LcdFontSizePh+0x1c>
    2a98:	01 c0       	rjmp	.+2      	; 0x2a9c <_Z10Lcd_print2hh11LcdFontSizePh+0x3e>
    2a9a:	61 e0       	ldi	r22, 0x01	; 1
    2a9c:	86 2f       	mov	r24, r22
    2a9e:	df 91       	pop	r29
    2aa0:	cf 91       	pop	r28
    2aa2:	1f 91       	pop	r17
    2aa4:	0f 91       	pop	r16
    2aa6:	ff 90       	pop	r15
    2aa8:	08 95       	ret

00002aaa <_Z10Lcd_printfhh11LcdFontSizefi>:
 *   :      n5110lcd.h
 *                 :  LcdFStr(0, 0, FONT_1X, float_var , 2);
 *                          LcdFStr(0, 0, FONT_1X, &name_of_string_as_array);
 */
void Lcd_printf ( byte x, byte y, LcdFontSize size, float data, int accuracy )
{
    2aaa:	df 92       	push	r13
    2aac:	ef 92       	push	r14
    2aae:	ff 92       	push	r15
    2ab0:	0f 93       	push	r16
    2ab2:	1f 93       	push	r17
    2ab4:	cf 93       	push	r28
    2ab6:	df 93       	push	r29
    2ab8:	c8 2f       	mov	r28, r24
    2aba:	d6 2f       	mov	r29, r22
    2abc:	d4 2e       	mov	r13, r20
    2abe:	a7 01       	movw	r20, r14
	Lcd_print(x, y, size, (unsigned char*)gftoa(data, accuracy));
    2ac0:	c9 01       	movw	r24, r18
    2ac2:	b8 01       	movw	r22, r16
    2ac4:	0e 94 a4 12 	call	0x2548	; 0x2548 <_Z5gftoafi>
    2ac8:	9c 01       	movw	r18, r24
    2aca:	4d 2d       	mov	r20, r13
    2acc:	6d 2f       	mov	r22, r29
    2ace:	8c 2f       	mov	r24, r28
    2ad0:	0e 94 0e 15 	call	0x2a1c	; 0x2a1c <_Z9Lcd_printhh11LcdFontSizePh>
}
    2ad4:	df 91       	pop	r29
    2ad6:	cf 91       	pop	r28
    2ad8:	1f 91       	pop	r17
    2ada:	0f 91       	pop	r16
    2adc:	ff 90       	pop	r15
    2ade:	ef 90       	pop	r14
    2ae0:	df 90       	pop	r13
    2ae2:	08 95       	ret

00002ae4 <_Z11Lcd_printf2hh11LcdFontSizefi>:

void Lcd_printf2 ( byte x, byte y, LcdFontSize size, float data, int accuracy )
{
    2ae4:	df 92       	push	r13
    2ae6:	ef 92       	push	r14
    2ae8:	ff 92       	push	r15
    2aea:	0f 93       	push	r16
    2aec:	1f 93       	push	r17
    2aee:	cf 93       	push	r28
    2af0:	df 93       	push	r29
    2af2:	c8 2f       	mov	r28, r24
    2af4:	d6 2f       	mov	r29, r22
    2af6:	d4 2e       	mov	r13, r20
    2af8:	a7 01       	movw	r20, r14
	Lcd_print2(x, y, size, (unsigned char*)gftoa(data, accuracy));
    2afa:	c9 01       	movw	r24, r18
    2afc:	b8 01       	movw	r22, r16
    2afe:	0e 94 a4 12 	call	0x2548	; 0x2548 <_Z5gftoafi>
    2b02:	9c 01       	movw	r18, r24
    2b04:	4d 2d       	mov	r20, r13
    2b06:	6d 2f       	mov	r22, r29
    2b08:	8c 2f       	mov	r24, r28
    2b0a:	0e 94 2f 15 	call	0x2a5e	; 0x2a5e <_Z10Lcd_print2hh11LcdFontSizePh>
}
    2b0e:	df 91       	pop	r29
    2b10:	cf 91       	pop	r28
    2b12:	1f 91       	pop	r17
    2b14:	0f 91       	pop	r16
    2b16:	ff 90       	pop	r15
    2b18:	ef 90       	pop	r14
    2b1a:	df 90       	pop	r13
    2b1c:	08 95       	ret

00002b1e <_Z14Initialisationv>:
Panel panel;
Screen screen;
Activity activity;


void Initialisation(){
    2b1e:	cf 92       	push	r12
    2b20:	df 92       	push	r13
    2b22:	ef 92       	push	r14
    2b24:	ff 92       	push	r15
	Lcd_init();
    2b26:	0e 94 31 13 	call	0x2662	; 0x2662 <_Z8Lcd_initv>
	panel.Init();
    2b2a:	8d e4       	ldi	r24, 0x4D	; 77
    2b2c:	95 e0       	ldi	r25, 0x05	; 5
    2b2e:	0e 94 48 1f 	call	0x3e90	; 0x3e90 <_ZN5Panel4InitEv>
	carrage.Init();
    2b32:	8e e7       	ldi	r24, 0x7E	; 126
    2b34:	95 e0       	ldi	r25, 0x05	; 5
    2b36:	0e 94 bc 0d 	call	0x1b78	; 0x1b78 <_ZN7Carrage4InitEv>
	activity.Init();
    2b3a:	82 eb       	ldi	r24, 0xB2	; 178
    2b3c:	94 e0       	ldi	r25, 0x04	; 4
    2b3e:	0e 94 37 08 	call	0x106e	; 0x106e <_ZN8Activity4InitEv>
	
	// initilisation null EEMEM
	if(!(eeprom_read_float(&Tunning_rate)>0||eeprom_read_float(&Tunning_rate)<3)){
    2b42:	89 e4       	ldi	r24, 0x49	; 73
    2b44:	90 e0       	ldi	r25, 0x00	; 0
    2b46:	0e 94 57 25 	call	0x4aae	; 0x4aae <eeprom_read_dword>
    2b4a:	6b 01       	movw	r12, r22
    2b4c:	7c 01       	movw	r14, r24
    2b4e:	20 e0       	ldi	r18, 0x00	; 0
    2b50:	30 e0       	ldi	r19, 0x00	; 0
    2b52:	a9 01       	movw	r20, r18
    2b54:	0e 94 af 24 	call	0x495e	; 0x495e <__gesf2>
    2b58:	18 16       	cp	r1, r24
    2b5a:	94 f0       	brlt	.+36     	; 0x2b80 <_Z14Initialisationv+0x62>
    2b5c:	20 e0       	ldi	r18, 0x00	; 0
    2b5e:	30 e0       	ldi	r19, 0x00	; 0
    2b60:	40 e4       	ldi	r20, 0x40	; 64
    2b62:	50 e4       	ldi	r21, 0x40	; 64
    2b64:	c7 01       	movw	r24, r14
    2b66:	b6 01       	movw	r22, r12
    2b68:	0e 94 50 23 	call	0x46a0	; 0x46a0 <__cmpsf2>
    2b6c:	88 23       	and	r24, r24
    2b6e:	44 f0       	brlt	.+16     	; 0x2b80 <_Z14Initialisationv+0x62>
		eeprom_write_float (&Tunning_rate, 1.00);
    2b70:	40 e0       	ldi	r20, 0x00	; 0
    2b72:	50 e0       	ldi	r21, 0x00	; 0
    2b74:	60 e8       	ldi	r22, 0x80	; 128
    2b76:	7f e3       	ldi	r23, 0x3F	; 63
    2b78:	89 e4       	ldi	r24, 0x49	; 73
    2b7a:	90 e0       	ldi	r25, 0x00	; 0
    2b7c:	0e 94 6b 25 	call	0x4ad6	; 0x4ad6 <eeprom_write_dword>
	}
	carrage.tunning = eeprom_read_float(&Tunning_rate);
    2b80:	89 e4       	ldi	r24, 0x49	; 73
    2b82:	90 e0       	ldi	r25, 0x00	; 0
    2b84:	0e 94 57 25 	call	0x4aae	; 0x4aae <eeprom_read_dword>
    2b88:	60 93 2c 06 	sts	0x062C, r22	; 0x80062c <carrage+0xae>
    2b8c:	70 93 2d 06 	sts	0x062D, r23	; 0x80062d <carrage+0xaf>
    2b90:	80 93 2e 06 	sts	0x062E, r24	; 0x80062e <carrage+0xb0>
    2b94:	90 93 2f 06 	sts	0x062F, r25	; 0x80062f <carrage+0xb1>
	
	if (!(eeprom_read_float(&CarrajeMin)>=0||eeprom_read_float(&CarrajeMin)<=5)){
    2b98:	85 e4       	ldi	r24, 0x45	; 69
    2b9a:	90 e0       	ldi	r25, 0x00	; 0
    2b9c:	0e 94 57 25 	call	0x4aae	; 0x4aae <eeprom_read_dword>
    2ba0:	6b 01       	movw	r12, r22
    2ba2:	7c 01       	movw	r14, r24
    2ba4:	20 e0       	ldi	r18, 0x00	; 0
    2ba6:	30 e0       	ldi	r19, 0x00	; 0
    2ba8:	a9 01       	movw	r20, r18
    2baa:	0e 94 af 24 	call	0x495e	; 0x495e <__gesf2>
    2bae:	88 23       	and	r24, r24
    2bb0:	8c f4       	brge	.+34     	; 0x2bd4 <_Z14Initialisationv+0xb6>
    2bb2:	20 e0       	ldi	r18, 0x00	; 0
    2bb4:	30 e0       	ldi	r19, 0x00	; 0
    2bb6:	40 ea       	ldi	r20, 0xA0	; 160
    2bb8:	50 e4       	ldi	r21, 0x40	; 64
    2bba:	c7 01       	movw	r24, r14
    2bbc:	b6 01       	movw	r22, r12
    2bbe:	0e 94 50 23 	call	0x46a0	; 0x46a0 <__cmpsf2>
    2bc2:	18 16       	cp	r1, r24
    2bc4:	3c f4       	brge	.+14     	; 0x2bd4 <_Z14Initialisationv+0xb6>
		eeprom_write_float (&CarrajeMin, 0.00);
    2bc6:	40 e0       	ldi	r20, 0x00	; 0
    2bc8:	50 e0       	ldi	r21, 0x00	; 0
    2bca:	ba 01       	movw	r22, r20
    2bcc:	85 e4       	ldi	r24, 0x45	; 69
    2bce:	90 e0       	ldi	r25, 0x00	; 0
    2bd0:	0e 94 6b 25 	call	0x4ad6	; 0x4ad6 <eeprom_write_dword>
	}
	carrage.min =  eeprom_read_float(&CarrajeMin);
    2bd4:	85 e4       	ldi	r24, 0x45	; 69
    2bd6:	90 e0       	ldi	r25, 0x00	; 0
    2bd8:	0e 94 57 25 	call	0x4aae	; 0x4aae <eeprom_read_dword>
    2bdc:	60 93 30 06 	sts	0x0630, r22	; 0x800630 <carrage+0xb2>
    2be0:	70 93 31 06 	sts	0x0631, r23	; 0x800631 <carrage+0xb3>
    2be4:	80 93 32 06 	sts	0x0632, r24	; 0x800632 <carrage+0xb4>
    2be8:	90 93 33 06 	sts	0x0633, r25	; 0x800633 <carrage+0xb5>
	
	if (!(eeprom_read_float(&CarrajeMax)>=0||eeprom_read_float(&CarrajeMax)<=5)){
    2bec:	81 e4       	ldi	r24, 0x41	; 65
    2bee:	90 e0       	ldi	r25, 0x00	; 0
    2bf0:	0e 94 57 25 	call	0x4aae	; 0x4aae <eeprom_read_dword>
    2bf4:	6b 01       	movw	r12, r22
    2bf6:	7c 01       	movw	r14, r24
    2bf8:	20 e0       	ldi	r18, 0x00	; 0
    2bfa:	30 e0       	ldi	r19, 0x00	; 0
    2bfc:	a9 01       	movw	r20, r18
    2bfe:	0e 94 af 24 	call	0x495e	; 0x495e <__gesf2>
    2c02:	88 23       	and	r24, r24
    2c04:	94 f4       	brge	.+36     	; 0x2c2a <_Z14Initialisationv+0x10c>
    2c06:	20 e0       	ldi	r18, 0x00	; 0
    2c08:	30 e0       	ldi	r19, 0x00	; 0
    2c0a:	40 ea       	ldi	r20, 0xA0	; 160
    2c0c:	50 e4       	ldi	r21, 0x40	; 64
    2c0e:	c7 01       	movw	r24, r14
    2c10:	b6 01       	movw	r22, r12
    2c12:	0e 94 50 23 	call	0x46a0	; 0x46a0 <__cmpsf2>
    2c16:	18 16       	cp	r1, r24
    2c18:	44 f4       	brge	.+16     	; 0x2c2a <_Z14Initialisationv+0x10c>
		eeprom_write_float (&CarrajeMax, 5.00);
    2c1a:	40 e0       	ldi	r20, 0x00	; 0
    2c1c:	50 e0       	ldi	r21, 0x00	; 0
    2c1e:	60 ea       	ldi	r22, 0xA0	; 160
    2c20:	70 e4       	ldi	r23, 0x40	; 64
    2c22:	81 e4       	ldi	r24, 0x41	; 65
    2c24:	90 e0       	ldi	r25, 0x00	; 0
    2c26:	0e 94 6b 25 	call	0x4ad6	; 0x4ad6 <eeprom_write_dword>
	}
	carrage.max =  eeprom_read_float(&CarrajeMax);
    2c2a:	81 e4       	ldi	r24, 0x41	; 65
    2c2c:	90 e0       	ldi	r25, 0x00	; 0
    2c2e:	0e 94 57 25 	call	0x4aae	; 0x4aae <eeprom_read_dword>
    2c32:	60 93 34 06 	sts	0x0634, r22	; 0x800634 <carrage+0xb6>
    2c36:	70 93 35 06 	sts	0x0635, r23	; 0x800635 <carrage+0xb7>
    2c3a:	80 93 36 06 	sts	0x0636, r24	; 0x800636 <carrage+0xb8>
    2c3e:	90 93 37 06 	sts	0x0637, r25	; 0x800637 <carrage+0xb9>
	
	carrage.SetLimits();
    2c42:	8e e7       	ldi	r24, 0x7E	; 126
    2c44:	95 e0       	ldi	r25, 0x05	; 5
    2c46:	0e 94 cc 0c 	call	0x1998	; 0x1998 <_ZN7Carrage9SetLimitsEv>
	
	if (!(eeprom_read_float(&countToMalfunctionLimit)>=0||eeprom_read_float(&countToMalfunctionLimit)<=999)){
    2c4a:	8c e3       	ldi	r24, 0x3C	; 60
    2c4c:	90 e0       	ldi	r25, 0x00	; 0
    2c4e:	0e 94 57 25 	call	0x4aae	; 0x4aae <eeprom_read_dword>
    2c52:	6b 01       	movw	r12, r22
    2c54:	7c 01       	movw	r14, r24
    2c56:	20 e0       	ldi	r18, 0x00	; 0
    2c58:	30 e0       	ldi	r19, 0x00	; 0
    2c5a:	a9 01       	movw	r20, r18
    2c5c:	0e 94 af 24 	call	0x495e	; 0x495e <__gesf2>
    2c60:	88 23       	and	r24, r24
    2c62:	bc f4       	brge	.+46     	; 0x2c92 <_Z14Initialisationv+0x174>
    2c64:	20 e0       	ldi	r18, 0x00	; 0
    2c66:	30 ec       	ldi	r19, 0xC0	; 192
    2c68:	49 e7       	ldi	r20, 0x79	; 121
    2c6a:	54 e4       	ldi	r21, 0x44	; 68
    2c6c:	c7 01       	movw	r24, r14
    2c6e:	b6 01       	movw	r22, r12
    2c70:	0e 94 50 23 	call	0x46a0	; 0x46a0 <__cmpsf2>
    2c74:	18 16       	cp	r1, r24
    2c76:	6c f4       	brge	.+26     	; 0x2c92 <_Z14Initialisationv+0x174>
		eeprom_write_float (&countToMalfunctionLimit, 50.0); 
    2c78:	40 e0       	ldi	r20, 0x00	; 0
    2c7a:	50 e0       	ldi	r21, 0x00	; 0
    2c7c:	68 e4       	ldi	r22, 0x48	; 72
    2c7e:	72 e4       	ldi	r23, 0x42	; 66
    2c80:	8c e3       	ldi	r24, 0x3C	; 60
    2c82:	90 e0       	ldi	r25, 0x00	; 0
    2c84:	0e 94 6b 25 	call	0x4ad6	; 0x4ad6 <eeprom_write_dword>
		eeprom_write_byte(&OnOffMalfunction,true);
    2c88:	61 e0       	ldi	r22, 0x01	; 1
    2c8a:	80 e4       	ldi	r24, 0x40	; 64
    2c8c:	90 e0       	ldi	r25, 0x00	; 0
    2c8e:	0e 94 5d 25 	call	0x4aba	; 0x4aba <eeprom_write_byte>
		
	}
	carrage.countToMalfunctionLimit = eeprom_read_float(&countToMalfunctionLimit);
    2c92:	8c e3       	ldi	r24, 0x3C	; 60
    2c94:	90 e0       	ldi	r25, 0x00	; 0
    2c96:	0e 94 57 25 	call	0x4aae	; 0x4aae <eeprom_read_dword>
    2c9a:	60 93 38 06 	sts	0x0638, r22	; 0x800638 <carrage+0xba>
    2c9e:	70 93 39 06 	sts	0x0639, r23	; 0x800639 <carrage+0xbb>
    2ca2:	80 93 3a 06 	sts	0x063A, r24	; 0x80063a <carrage+0xbc>
    2ca6:	90 93 3b 06 	sts	0x063B, r25	; 0x80063b <carrage+0xbd>
	carrage.OnOffMalfunction = eeprom_read_byte(&OnOffMalfunction);
    2caa:	80 e4       	ldi	r24, 0x40	; 64
    2cac:	90 e0       	ldi	r25, 0x00	; 0
    2cae:	0e 94 4f 25 	call	0x4a9e	; 0x4a9e <eeprom_read_byte>
    2cb2:	91 e0       	ldi	r25, 0x01	; 1
    2cb4:	81 11       	cpse	r24, r1
    2cb6:	01 c0       	rjmp	.+2      	; 0x2cba <_Z14Initialisationv+0x19c>
    2cb8:	90 e0       	ldi	r25, 0x00	; 0
    2cba:	90 93 3c 06 	sts	0x063C, r25	; 0x80063c <carrage+0xbe>
}
    2cbe:	ff 90       	pop	r15
    2cc0:	ef 90       	pop	r14
    2cc2:	df 90       	pop	r13
    2cc4:	cf 90       	pop	r12
    2cc6:	08 95       	ret

00002cc8 <_Z12SettingsSaveb>:




void SettingsSave(bool SettingSave){
	if (SettingSave){
    2cc8:	88 23       	and	r24, r24
    2cca:	d1 f1       	breq	.+116    	; 0x2d40 <_Z12SettingsSaveb+0x78>
		eeprom_write_float (&Tunning_rate, carrage.tunning);
    2ccc:	40 91 2c 06 	lds	r20, 0x062C	; 0x80062c <carrage+0xae>
    2cd0:	50 91 2d 06 	lds	r21, 0x062D	; 0x80062d <carrage+0xaf>
    2cd4:	60 91 2e 06 	lds	r22, 0x062E	; 0x80062e <carrage+0xb0>
    2cd8:	70 91 2f 06 	lds	r23, 0x062F	; 0x80062f <carrage+0xb1>
    2cdc:	89 e4       	ldi	r24, 0x49	; 73
    2cde:	90 e0       	ldi	r25, 0x00	; 0
    2ce0:	0e 94 6b 25 	call	0x4ad6	; 0x4ad6 <eeprom_write_dword>
		eeprom_write_float(&CarrajeMin, carrage.min);
    2ce4:	40 91 30 06 	lds	r20, 0x0630	; 0x800630 <carrage+0xb2>
    2ce8:	50 91 31 06 	lds	r21, 0x0631	; 0x800631 <carrage+0xb3>
    2cec:	60 91 32 06 	lds	r22, 0x0632	; 0x800632 <carrage+0xb4>
    2cf0:	70 91 33 06 	lds	r23, 0x0633	; 0x800633 <carrage+0xb5>
    2cf4:	85 e4       	ldi	r24, 0x45	; 69
    2cf6:	90 e0       	ldi	r25, 0x00	; 0
    2cf8:	0e 94 6b 25 	call	0x4ad6	; 0x4ad6 <eeprom_write_dword>
		eeprom_write_float(&CarrajeMax, carrage.max);
    2cfc:	40 91 34 06 	lds	r20, 0x0634	; 0x800634 <carrage+0xb6>
    2d00:	50 91 35 06 	lds	r21, 0x0635	; 0x800635 <carrage+0xb7>
    2d04:	60 91 36 06 	lds	r22, 0x0636	; 0x800636 <carrage+0xb8>
    2d08:	70 91 37 06 	lds	r23, 0x0637	; 0x800637 <carrage+0xb9>
    2d0c:	81 e4       	ldi	r24, 0x41	; 65
    2d0e:	90 e0       	ldi	r25, 0x00	; 0
    2d10:	0e 94 6b 25 	call	0x4ad6	; 0x4ad6 <eeprom_write_dword>
		carrage.SetLimits();
    2d14:	8e e7       	ldi	r24, 0x7E	; 126
    2d16:	95 e0       	ldi	r25, 0x05	; 5
    2d18:	0e 94 cc 0c 	call	0x1998	; 0x1998 <_ZN7Carrage9SetLimitsEv>
		eeprom_write_float (&countToMalfunctionLimit, carrage.countToMalfunctionLimit);
    2d1c:	40 91 38 06 	lds	r20, 0x0638	; 0x800638 <carrage+0xba>
    2d20:	50 91 39 06 	lds	r21, 0x0639	; 0x800639 <carrage+0xbb>
    2d24:	60 91 3a 06 	lds	r22, 0x063A	; 0x80063a <carrage+0xbc>
    2d28:	70 91 3b 06 	lds	r23, 0x063B	; 0x80063b <carrage+0xbd>
    2d2c:	8c e3       	ldi	r24, 0x3C	; 60
    2d2e:	90 e0       	ldi	r25, 0x00	; 0
    2d30:	0e 94 6b 25 	call	0x4ad6	; 0x4ad6 <eeprom_write_dword>
		eeprom_write_byte(&OnOffMalfunction,carrage.OnOffMalfunction); 
    2d34:	60 91 3c 06 	lds	r22, 0x063C	; 0x80063c <carrage+0xbe>
    2d38:	80 e4       	ldi	r24, 0x40	; 64
    2d3a:	90 e0       	ldi	r25, 0x00	; 0
    2d3c:	0e 94 5d 25 	call	0x4aba	; 0x4aba <eeprom_write_byte>
    2d40:	08 95       	ret

00002d42 <_Z25IFCarrageSaveStateToEEMEMi>:
	}
}


void IFCarrageSaveStateToEEMEM( int position){
    2d42:	0f 93       	push	r16
    2d44:	1f 93       	push	r17
    2d46:	cf 93       	push	r28
    2d48:	df 93       	push	r29
	
	if(activity.SaveFlag){
    2d4a:	20 91 48 05 	lds	r18, 0x0548	; 0x800548 <activity+0x96>
    2d4e:	22 23       	and	r18, r18
    2d50:	99 f1       	breq	.+102    	; 0x2db8 <_Z25IFCarrageSaveStateToEEMEMi+0x76>
    2d52:	ec 01       	movw	r28, r24
		eeprom_write_float (&PositionsStates[position][1], carrage.Wheel_1.get_hight());
    2d54:	8e e7       	ldi	r24, 0x7E	; 126
    2d56:	95 e0       	ldi	r25, 0x05	; 5
    2d58:	0e 94 24 21 	call	0x4248	; 0x4248 <_ZN5Wheel9get_hightEv>
    2d5c:	ab 01       	movw	r20, r22
    2d5e:	bc 01       	movw	r22, r24
    2d60:	84 e1       	ldi	r24, 0x14	; 20
    2d62:	8c 9f       	mul	r24, r28
    2d64:	80 01       	movw	r16, r0
    2d66:	8d 9f       	mul	r24, r29
    2d68:	10 0d       	add	r17, r0
    2d6a:	11 24       	eor	r1, r1
    2d6c:	c8 01       	movw	r24, r16
    2d6e:	8c 5f       	subi	r24, 0xFC	; 252
    2d70:	9f 4f       	sbci	r25, 0xFF	; 255
    2d72:	0e 94 6b 25 	call	0x4ad6	; 0x4ad6 <eeprom_write_dword>
		eeprom_write_float (&PositionsStates[position][2], carrage.Wheel_2.get_hight());
    2d76:	89 ea       	ldi	r24, 0xA9	; 169
    2d78:	95 e0       	ldi	r25, 0x05	; 5
    2d7a:	0e 94 24 21 	call	0x4248	; 0x4248 <_ZN5Wheel9get_hightEv>
    2d7e:	ab 01       	movw	r20, r22
    2d80:	bc 01       	movw	r22, r24
    2d82:	c8 01       	movw	r24, r16
    2d84:	88 5f       	subi	r24, 0xF8	; 248
    2d86:	9f 4f       	sbci	r25, 0xFF	; 255
    2d88:	0e 94 6b 25 	call	0x4ad6	; 0x4ad6 <eeprom_write_dword>
		eeprom_write_float (&PositionsStates[position][3], carrage.Wheel_3.get_hight());
    2d8c:	84 ed       	ldi	r24, 0xD4	; 212
    2d8e:	95 e0       	ldi	r25, 0x05	; 5
    2d90:	0e 94 24 21 	call	0x4248	; 0x4248 <_ZN5Wheel9get_hightEv>
    2d94:	ab 01       	movw	r20, r22
    2d96:	bc 01       	movw	r22, r24
    2d98:	c8 01       	movw	r24, r16
    2d9a:	84 5f       	subi	r24, 0xF4	; 244
    2d9c:	9f 4f       	sbci	r25, 0xFF	; 255
    2d9e:	0e 94 6b 25 	call	0x4ad6	; 0x4ad6 <eeprom_write_dword>
		eeprom_write_float (&PositionsStates[position][4], carrage.Wheel_4.get_hight());
    2da2:	8f ef       	ldi	r24, 0xFF	; 255
    2da4:	95 e0       	ldi	r25, 0x05	; 5
    2da6:	0e 94 24 21 	call	0x4248	; 0x4248 <_ZN5Wheel9get_hightEv>
    2daa:	ab 01       	movw	r20, r22
    2dac:	bc 01       	movw	r22, r24
    2dae:	c8 01       	movw	r24, r16
    2db0:	80 5f       	subi	r24, 0xF0	; 240
    2db2:	9f 4f       	sbci	r25, 0xFF	; 255
    2db4:	0e 94 6b 25 	call	0x4ad6	; 0x4ad6 <eeprom_write_dword>
	}
	activity.SaveFlag = false;
    2db8:	10 92 48 05 	sts	0x0548, r1	; 0x800548 <activity+0x96>
}
    2dbc:	df 91       	pop	r29
    2dbe:	cf 91       	pop	r28
    2dc0:	1f 91       	pop	r17
    2dc2:	0f 91       	pop	r16
    2dc4:	08 95       	ret

00002dc6 <_Z24IFCarrageSetStateToEEMEMi>:

void IFCarrageSetStateToEEMEM( int position){
    2dc6:	0f 93       	push	r16
    2dc8:	1f 93       	push	r17
    2dca:	cf 93       	push	r28
    2dcc:	df 93       	push	r29
	if(activity.SetFlag){
    2dce:	20 91 49 05 	lds	r18, 0x0549	; 0x800549 <activity+0x97>
    2dd2:	22 23       	and	r18, r18
    2dd4:	09 f4       	brne	.+2      	; 0x2dd8 <_Z24IFCarrageSetStateToEEMEMi+0x12>
    2dd6:	49 c0       	rjmp	.+146    	; 0x2e6a <_Z24IFCarrageSetStateToEEMEMi+0xa4>
    2dd8:	ec 01       	movw	r28, r24
		carrage.SelectAllWheel();
    2dda:	8e e7       	ldi	r24, 0x7E	; 126
    2ddc:	95 e0       	ldi	r25, 0x05	; 5
    2dde:	0e 94 5d 12 	call	0x24ba	; 0x24ba <_ZN7Carrage14SelectAllWheelEv>
		carrage.Wheel_1.sethight=eeprom_read_float(&PositionsStates[position][1]);
    2de2:	84 e1       	ldi	r24, 0x14	; 20
    2de4:	8c 9f       	mul	r24, r28
    2de6:	80 01       	movw	r16, r0
    2de8:	8d 9f       	mul	r24, r29
    2dea:	10 0d       	add	r17, r0
    2dec:	11 24       	eor	r1, r1
    2dee:	c8 01       	movw	r24, r16
    2df0:	8c 5f       	subi	r24, 0xFC	; 252
    2df2:	9f 4f       	sbci	r25, 0xFF	; 255
    2df4:	0e 94 57 25 	call	0x4aae	; 0x4aae <eeprom_read_dword>
    2df8:	60 93 94 05 	sts	0x0594, r22	; 0x800594 <carrage+0x16>
    2dfc:	70 93 95 05 	sts	0x0595, r23	; 0x800595 <carrage+0x17>
    2e00:	80 93 96 05 	sts	0x0596, r24	; 0x800596 <carrage+0x18>
    2e04:	90 93 97 05 	sts	0x0597, r25	; 0x800597 <carrage+0x19>
		carrage.Wheel_2.sethight=eeprom_read_float(&PositionsStates[position][2]);
    2e08:	c8 01       	movw	r24, r16
    2e0a:	88 5f       	subi	r24, 0xF8	; 248
    2e0c:	9f 4f       	sbci	r25, 0xFF	; 255
    2e0e:	0e 94 57 25 	call	0x4aae	; 0x4aae <eeprom_read_dword>
    2e12:	60 93 bf 05 	sts	0x05BF, r22	; 0x8005bf <carrage+0x41>
    2e16:	70 93 c0 05 	sts	0x05C0, r23	; 0x8005c0 <carrage+0x42>
    2e1a:	80 93 c1 05 	sts	0x05C1, r24	; 0x8005c1 <carrage+0x43>
    2e1e:	90 93 c2 05 	sts	0x05C2, r25	; 0x8005c2 <carrage+0x44>
		carrage.Wheel_3.sethight=eeprom_read_float(&PositionsStates[position][3]);
    2e22:	c8 01       	movw	r24, r16
    2e24:	84 5f       	subi	r24, 0xF4	; 244
    2e26:	9f 4f       	sbci	r25, 0xFF	; 255
    2e28:	0e 94 57 25 	call	0x4aae	; 0x4aae <eeprom_read_dword>
    2e2c:	60 93 ea 05 	sts	0x05EA, r22	; 0x8005ea <carrage+0x6c>
    2e30:	70 93 eb 05 	sts	0x05EB, r23	; 0x8005eb <carrage+0x6d>
    2e34:	80 93 ec 05 	sts	0x05EC, r24	; 0x8005ec <carrage+0x6e>
    2e38:	90 93 ed 05 	sts	0x05ED, r25	; 0x8005ed <carrage+0x6f>
		carrage.Wheel_4.sethight=eeprom_read_float(&PositionsStates[position][4]);
    2e3c:	c8 01       	movw	r24, r16
    2e3e:	80 5f       	subi	r24, 0xF0	; 240
    2e40:	9f 4f       	sbci	r25, 0xFF	; 255
    2e42:	0e 94 57 25 	call	0x4aae	; 0x4aae <eeprom_read_dword>
    2e46:	60 93 15 06 	sts	0x0615, r22	; 0x800615 <carrage+0x97>
    2e4a:	70 93 16 06 	sts	0x0616, r23	; 0x800616 <carrage+0x98>
    2e4e:	80 93 17 06 	sts	0x0617, r24	; 0x800617 <carrage+0x99>
    2e52:	90 93 18 06 	sts	0x0618, r25	; 0x800618 <carrage+0x9a>
		carrage.Ajustment();
    2e56:	8e e7       	ldi	r24, 0x7E	; 126
    2e58:	95 e0       	ldi	r25, 0x05	; 5
    2e5a:	0e 94 de 0f 	call	0x1fbc	; 0x1fbc <_ZN7Carrage9AjustmentEv>
		activity.Statment = 0;
    2e5e:	10 92 b2 04 	sts	0x04B2, r1	; 0x8004b2 <activity>
		carrage.DiSelectAllWheel();
    2e62:	8e e7       	ldi	r24, 0x7E	; 126
    2e64:	95 e0       	ldi	r25, 0x05	; 5
    2e66:	0e 94 68 12 	call	0x24d0	; 0x24d0 <_ZN7Carrage16DiSelectAllWheelEv>
	}
	activity.SetFlag = false;
    2e6a:	10 92 49 05 	sts	0x0549, r1	; 0x800549 <activity+0x97>
}
    2e6e:	df 91       	pop	r29
    2e70:	cf 91       	pop	r28
    2e72:	1f 91       	pop	r17
    2e74:	0f 91       	pop	r16
    2e76:	08 95       	ret

00002e78 <main>:



int main(void)
{		
	Initialisation();
    2e78:	0e 94 8f 15 	call	0x2b1e	; 0x2b1e <_Z14Initialisationv>
    while (1) 
    {		
		activity.Cursor_Action(panel, carrage);
		screen.Render(activity, carrage);
		IFCarrageSaveStateToEEMEM(activity.SavePosition);
    2e7c:	cb e4       	ldi	r28, 0x4B	; 75
    2e7e:	d5 e0       	ldi	r29, 0x05	; 5
		IFCarrageSetStateToEEMEM(activity.SavePosition);
		SettingsSave(activity.SettingsSaveFlag);
    2e80:	0a e4       	ldi	r16, 0x4A	; 74
    2e82:	15 e0       	ldi	r17, 0x05	; 5
int main(void)
{		
	Initialisation();
    while (1) 
    {		
		activity.Cursor_Action(panel, carrage);
    2e84:	4e e7       	ldi	r20, 0x7E	; 126
    2e86:	55 e0       	ldi	r21, 0x05	; 5
    2e88:	6d e4       	ldi	r22, 0x4D	; 77
    2e8a:	75 e0       	ldi	r23, 0x05	; 5
    2e8c:	82 eb       	ldi	r24, 0xB2	; 178
    2e8e:	94 e0       	ldi	r25, 0x04	; 4
    2e90:	0e 94 09 0b 	call	0x1612	; 0x1612 <_ZN8Activity13Cursor_ActionER5PanelR7Carrage>
		screen.Render(activity, carrage);
    2e94:	4e e7       	ldi	r20, 0x7E	; 126
    2e96:	55 e0       	ldi	r21, 0x05	; 5
    2e98:	62 eb       	ldi	r22, 0xB2	; 178
    2e9a:	74 e0       	ldi	r23, 0x04	; 4
    2e9c:	8c e4       	ldi	r24, 0x4C	; 76
    2e9e:	95 e0       	ldi	r25, 0x05	; 5
    2ea0:	0e 94 d4 1e 	call	0x3da8	; 0x3da8 <_ZN6Screen6RenderER8ActivityR7Carrage>
		IFCarrageSaveStateToEEMEM(activity.SavePosition);
    2ea4:	88 81       	ld	r24, Y
    2ea6:	90 e0       	ldi	r25, 0x00	; 0
    2ea8:	0e 94 a1 16 	call	0x2d42	; 0x2d42 <_Z25IFCarrageSaveStateToEEMEMi>
		IFCarrageSetStateToEEMEM(activity.SavePosition);
    2eac:	88 81       	ld	r24, Y
    2eae:	90 e0       	ldi	r25, 0x00	; 0
    2eb0:	0e 94 e3 16 	call	0x2dc6	; 0x2dc6 <_Z24IFCarrageSetStateToEEMEMi>
		SettingsSave(activity.SettingsSaveFlag);
    2eb4:	f8 01       	movw	r30, r16
    2eb6:	80 81       	ld	r24, Z
    2eb8:	0e 94 64 16 	call	0x2cc8	; 0x2cc8 <_Z12SettingsSaveb>
    2ebc:	e3 cf       	rjmp	.-58     	; 0x2e84 <main+0xc>

00002ebe <_GLOBAL__sub_I__Z14test_out_timer6Button6Output>:
float CarrajeMax EEMEM;
uint8_t OnOffMalfunction EEMEM;
float countToMalfunctionLimit EEMEM;
float PositionsStates[3][5] EEMEM;

Carrage carrage;
    2ebe:	8e e7       	ldi	r24, 0x7E	; 126
    2ec0:	95 e0       	ldi	r25, 0x05	; 5
    2ec2:	0e 94 ef 0b 	call	0x17de	; 0x17de <_ZN7CarrageC1Ev>
Panel panel;
    2ec6:	8d e4       	ldi	r24, 0x4D	; 77
    2ec8:	95 e0       	ldi	r25, 0x05	; 5
    2eca:	0e 94 28 1f 	call	0x3e50	; 0x3e50 <_ZN5PanelC1Ev>
Screen screen;
    2ece:	8c e4       	ldi	r24, 0x4C	; 76
    2ed0:	95 e0       	ldi	r25, 0x05	; 5
    2ed2:	0e 94 70 17 	call	0x2ee0	; 0x2ee0 <_ZN6ScreenC1Ev>
Activity activity;
    2ed6:	82 eb       	ldi	r24, 0xB2	; 178
    2ed8:	94 e0       	ldi	r25, 0x04	; 4
    2eda:	0e 94 7b 04 	call	0x8f6	; 0x8f6 <_ZN8ActivityC1Ev>
    2ede:	08 95       	ret

00002ee0 <_ZN6ScreenC1Ev>:
// default constructor
Screen::Screen()
{
} //Main_Screen

void Screen::Init(){
    2ee0:	08 95       	ret

00002ee2 <_ZN6Screen14Render_tunningER8ActivityR7Carrage>:
void Screen::Render_menu(Activity &activity, Carrage &carrage){
	PrintTitle(activity,carrage);
	Draw_CursorMenuScreen(activity);
}

void Screen::Render_tunning(Activity &activity, Carrage &carrage){
    2ee2:	cf 92       	push	r12
    2ee4:	df 92       	push	r13
    2ee6:	ef 92       	push	r14
    2ee8:	ff 92       	push	r15
    2eea:	0f 93       	push	r16
    2eec:	1f 93       	push	r17
    2eee:	cf 93       	push	r28
    2ef0:	df 93       	push	r29
    2ef2:	6b 01       	movw	r12, r22
    2ef4:	ea 01       	movw	r28, r20
	Lcd_print(2, 0, FONT_1X,(unsigned char *)"");
    2ef6:	20 e0       	ldi	r18, 0x00	; 0
    2ef8:	31 e0       	ldi	r19, 0x01	; 1
    2efa:	41 e0       	ldi	r20, 0x01	; 1
    2efc:	60 e0       	ldi	r22, 0x00	; 0
    2efe:	82 e0       	ldi	r24, 0x02	; 2
    2f00:	0e 94 0e 15 	call	0x2a1c	; 0x2a1c <_Z9Lcd_printhh11LcdFontSizePh>
	Lcd_printf(5, 2, FONT_1X, carrage.tunning , 2);
    2f04:	c2 55       	subi	r28, 0x52	; 82
    2f06:	df 4f       	sbci	r29, 0xFF	; 255
    2f08:	08 81       	ld	r16, Y
    2f0a:	19 81       	ldd	r17, Y+1	; 0x01
    2f0c:	2a 81       	ldd	r18, Y+2	; 0x02
    2f0e:	3b 81       	ldd	r19, Y+3	; 0x03
    2f10:	68 94       	set
    2f12:	ee 24       	eor	r14, r14
    2f14:	e1 f8       	bld	r14, 1
    2f16:	f1 2c       	mov	r15, r1
    2f18:	41 e0       	ldi	r20, 0x01	; 1
    2f1a:	62 e0       	ldi	r22, 0x02	; 2
    2f1c:	85 e0       	ldi	r24, 0x05	; 5
    2f1e:	0e 94 55 15 	call	0x2aaa	; 0x2aaa <_Z10Lcd_printfhh11LcdFontSizefi>
	Lcd_print(3, 4, FONT_1X,(unsigned char *)"");
    2f22:	2b e0       	ldi	r18, 0x0B	; 11
    2f24:	31 e0       	ldi	r19, 0x01	; 1
    2f26:	41 e0       	ldi	r20, 0x01	; 1
    2f28:	64 e0       	ldi	r22, 0x04	; 4
    2f2a:	83 e0       	ldi	r24, 0x03	; 3
    2f2c:	0e 94 0e 15 	call	0x2a1c	; 0x2a1c <_Z9Lcd_printhh11LcdFontSizePh>
	
	switch(activity.Cursor){
    2f30:	f6 01       	movw	r30, r12
    2f32:	87 81       	ldd	r24, Z+7	; 0x07
    2f34:	81 31       	cpi	r24, 0x11	; 17
    2f36:	19 f0       	breq	.+6      	; 0x2f3e <_ZN6Screen14Render_tunningER8ActivityR7Carrage+0x5c>
    2f38:	82 31       	cpi	r24, 0x12	; 18
    2f3a:	81 f0       	breq	.+32     	; 0x2f5c <_ZN6Screen14Render_tunningER8ActivityR7Carrage+0x7a>
    2f3c:	16 c0       	rjmp	.+44     	; 0x2f6a <_ZN6Screen14Render_tunningER8ActivityR7Carrage+0x88>
		case(TUNING):LcdGotoXY(4,2);LcdChr_full(0x9A);LcdGotoXY(9,2);LcdChr_full(0x9B);break;
    2f3e:	62 e0       	ldi	r22, 0x02	; 2
    2f40:	84 e0       	ldi	r24, 0x04	; 4
    2f42:	0e 94 ce 13 	call	0x279c	; 0x279c <_Z9LcdGotoXYhh>
    2f46:	8a e9       	ldi	r24, 0x9A	; 154
    2f48:	0e 94 e9 13 	call	0x27d2	; 0x27d2 <_Z11LcdChr_fullh>
    2f4c:	62 e0       	ldi	r22, 0x02	; 2
    2f4e:	89 e0       	ldi	r24, 0x09	; 9
    2f50:	0e 94 ce 13 	call	0x279c	; 0x279c <_Z9LcdGotoXYhh>
    2f54:	8b e9       	ldi	r24, 0x9B	; 155
    2f56:	0e 94 e9 13 	call	0x27d2	; 0x27d2 <_Z11LcdChr_fullh>
    2f5a:	07 c0       	rjmp	.+14     	; 0x2f6a <_ZN6Screen14Render_tunningER8ActivityR7Carrage+0x88>
		case(EXIT_TUNING):LcdGotoXY(1,4);LcdChr_full(0x9B);break;
    2f5c:	64 e0       	ldi	r22, 0x04	; 4
    2f5e:	81 e0       	ldi	r24, 0x01	; 1
    2f60:	0e 94 ce 13 	call	0x279c	; 0x279c <_Z9LcdGotoXYhh>
    2f64:	8b e9       	ldi	r24, 0x9B	; 155
    2f66:	0e 94 e9 13 	call	0x27d2	; 0x27d2 <_Z11LcdChr_fullh>
	}
}
    2f6a:	df 91       	pop	r29
    2f6c:	cf 91       	pop	r28
    2f6e:	1f 91       	pop	r17
    2f70:	0f 91       	pop	r16
    2f72:	ff 90       	pop	r15
    2f74:	ef 90       	pop	r14
    2f76:	df 90       	pop	r13
    2f78:	cf 90       	pop	r12
    2f7a:	08 95       	ret

00002f7c <_ZN6Screen13Render_limitsER8ActivityR7Carrage>:

void Screen::Render_limits(Activity &activity, Carrage &carrage){
    2f7c:	cf 92       	push	r12
    2f7e:	df 92       	push	r13
    2f80:	ef 92       	push	r14
    2f82:	ff 92       	push	r15
    2f84:	0f 93       	push	r16
    2f86:	1f 93       	push	r17
    2f88:	cf 93       	push	r28
    2f8a:	df 93       	push	r29
    2f8c:	6b 01       	movw	r12, r22
    2f8e:	ea 01       	movw	r28, r20
	Lcd_print(2, 0, FONT_1X,(unsigned char *)"");
    2f90:	25 e1       	ldi	r18, 0x15	; 21
    2f92:	31 e0       	ldi	r19, 0x01	; 1
    2f94:	41 e0       	ldi	r20, 0x01	; 1
    2f96:	60 e0       	ldi	r22, 0x00	; 0
    2f98:	82 e0       	ldi	r24, 0x02	; 2
    2f9a:	0e 94 0e 15 	call	0x2a1c	; 0x2a1c <_Z9Lcd_printhh11LcdFontSizePh>
	Lcd_print(2, 2, FONT_1X,(unsigned char *)"min");
    2f9e:	21 e2       	ldi	r18, 0x21	; 33
    2fa0:	31 e0       	ldi	r19, 0x01	; 1
    2fa2:	41 e0       	ldi	r20, 0x01	; 1
    2fa4:	62 e0       	ldi	r22, 0x02	; 2
    2fa6:	82 e0       	ldi	r24, 0x02	; 2
    2fa8:	0e 94 0e 15 	call	0x2a1c	; 0x2a1c <_Z9Lcd_printhh11LcdFontSizePh>
	Lcd_printf(8, 2, FONT_1X, carrage.min , 2);
    2fac:	fe 01       	movw	r30, r28
    2fae:	ee 54       	subi	r30, 0x4E	; 78
    2fb0:	ff 4f       	sbci	r31, 0xFF	; 255
    2fb2:	00 81       	ld	r16, Z
    2fb4:	11 81       	ldd	r17, Z+1	; 0x01
    2fb6:	22 81       	ldd	r18, Z+2	; 0x02
    2fb8:	33 81       	ldd	r19, Z+3	; 0x03
    2fba:	68 94       	set
    2fbc:	ee 24       	eor	r14, r14
    2fbe:	e1 f8       	bld	r14, 1
    2fc0:	f1 2c       	mov	r15, r1
    2fc2:	41 e0       	ldi	r20, 0x01	; 1
    2fc4:	62 e0       	ldi	r22, 0x02	; 2
    2fc6:	88 e0       	ldi	r24, 0x08	; 8
    2fc8:	0e 94 55 15 	call	0x2aaa	; 0x2aaa <_Z10Lcd_printfhh11LcdFontSizefi>
	Lcd_print(2, 3, FONT_1X,(unsigned char *)"max");
    2fcc:	25 e2       	ldi	r18, 0x25	; 37
    2fce:	31 e0       	ldi	r19, 0x01	; 1
    2fd0:	41 e0       	ldi	r20, 0x01	; 1
    2fd2:	63 e0       	ldi	r22, 0x03	; 3
    2fd4:	82 e0       	ldi	r24, 0x02	; 2
    2fd6:	0e 94 0e 15 	call	0x2a1c	; 0x2a1c <_Z9Lcd_printhh11LcdFontSizePh>
	Lcd_printf(8, 3, FONT_1X, carrage.max , 2);
    2fda:	ca 54       	subi	r28, 0x4A	; 74
    2fdc:	df 4f       	sbci	r29, 0xFF	; 255
    2fde:	08 81       	ld	r16, Y
    2fe0:	19 81       	ldd	r17, Y+1	; 0x01
    2fe2:	2a 81       	ldd	r18, Y+2	; 0x02
    2fe4:	3b 81       	ldd	r19, Y+3	; 0x03
    2fe6:	41 e0       	ldi	r20, 0x01	; 1
    2fe8:	63 e0       	ldi	r22, 0x03	; 3
    2fea:	88 e0       	ldi	r24, 0x08	; 8
    2fec:	0e 94 55 15 	call	0x2aaa	; 0x2aaa <_Z10Lcd_printfhh11LcdFontSizefi>
	switch(activity.Cursor){
    2ff0:	f6 01       	movw	r30, r12
    2ff2:	87 81       	ldd	r24, Z+7	; 0x07
    2ff4:	84 31       	cpi	r24, 0x14	; 20
    2ff6:	99 f0       	breq	.+38     	; 0x301e <_ZN6Screen13Render_limitsER8ActivityR7Carrage+0xa2>
    2ff8:	85 31       	cpi	r24, 0x15	; 21
    2ffa:	01 f1       	breq	.+64     	; 0x303c <_ZN6Screen13Render_limitsER8ActivityR7Carrage+0xc0>
    2ffc:	83 31       	cpi	r24, 0x13	; 19
    2ffe:	29 f5       	brne	.+74     	; 0x304a <_ZN6Screen13Render_limitsER8ActivityR7Carrage+0xce>
		case(LIMITS_MIN):LcdGotoXY(7,2);LcdChr_full(0x9A);LcdGotoXY(12,2);LcdChr_full(0xA2);break;
    3000:	62 e0       	ldi	r22, 0x02	; 2
    3002:	87 e0       	ldi	r24, 0x07	; 7
    3004:	0e 94 ce 13 	call	0x279c	; 0x279c <_Z9LcdGotoXYhh>
    3008:	8a e9       	ldi	r24, 0x9A	; 154
    300a:	0e 94 e9 13 	call	0x27d2	; 0x27d2 <_Z11LcdChr_fullh>
    300e:	62 e0       	ldi	r22, 0x02	; 2
    3010:	8c e0       	ldi	r24, 0x0C	; 12
    3012:	0e 94 ce 13 	call	0x279c	; 0x279c <_Z9LcdGotoXYhh>
    3016:	82 ea       	ldi	r24, 0xA2	; 162
    3018:	0e 94 e9 13 	call	0x27d2	; 0x27d2 <_Z11LcdChr_fullh>
    301c:	16 c0       	rjmp	.+44     	; 0x304a <_ZN6Screen13Render_limitsER8ActivityR7Carrage+0xce>
		case(LIMITS_MAX):LcdGotoXY(7,3);LcdChr_full(0x9A);LcdGotoXY(12,3);LcdChr_full(0xA2);break;
    301e:	63 e0       	ldi	r22, 0x03	; 3
    3020:	87 e0       	ldi	r24, 0x07	; 7
    3022:	0e 94 ce 13 	call	0x279c	; 0x279c <_Z9LcdGotoXYhh>
    3026:	8a e9       	ldi	r24, 0x9A	; 154
    3028:	0e 94 e9 13 	call	0x27d2	; 0x27d2 <_Z11LcdChr_fullh>
    302c:	63 e0       	ldi	r22, 0x03	; 3
    302e:	8c e0       	ldi	r24, 0x0C	; 12
    3030:	0e 94 ce 13 	call	0x279c	; 0x279c <_Z9LcdGotoXYhh>
    3034:	82 ea       	ldi	r24, 0xA2	; 162
    3036:	0e 94 e9 13 	call	0x27d2	; 0x27d2 <_Z11LcdChr_fullh>
    303a:	07 c0       	rjmp	.+14     	; 0x304a <_ZN6Screen13Render_limitsER8ActivityR7Carrage+0xce>
		case(EXIT_LIMITS):LcdGotoXY(1,5);LcdChr_full(0x9B);break;
    303c:	65 e0       	ldi	r22, 0x05	; 5
    303e:	81 e0       	ldi	r24, 0x01	; 1
    3040:	0e 94 ce 13 	call	0x279c	; 0x279c <_Z9LcdGotoXYhh>
    3044:	8b e9       	ldi	r24, 0x9B	; 155
    3046:	0e 94 e9 13 	call	0x27d2	; 0x27d2 <_Z11LcdChr_fullh>
	}
	Lcd_print(3, 5, FONT_1X,(unsigned char *)"");
    304a:	2b e0       	ldi	r18, 0x0B	; 11
    304c:	31 e0       	ldi	r19, 0x01	; 1
    304e:	41 e0       	ldi	r20, 0x01	; 1
    3050:	65 e0       	ldi	r22, 0x05	; 5
    3052:	83 e0       	ldi	r24, 0x03	; 3
    3054:	0e 94 0e 15 	call	0x2a1c	; 0x2a1c <_Z9Lcd_printhh11LcdFontSizePh>
}
    3058:	df 91       	pop	r29
    305a:	cf 91       	pop	r28
    305c:	1f 91       	pop	r17
    305e:	0f 91       	pop	r16
    3060:	ff 90       	pop	r15
    3062:	ef 90       	pop	r14
    3064:	df 90       	pop	r13
    3066:	cf 90       	pop	r12
    3068:	08 95       	ret

0000306a <_ZN6Screen19Render_maltifactionER8ActivityR7Carrage>:

void Screen::Render_maltifaction(Activity &activity, Carrage &carrage){
    306a:	cf 92       	push	r12
    306c:	df 92       	push	r13
    306e:	ef 92       	push	r14
    3070:	ff 92       	push	r15
    3072:	0f 93       	push	r16
    3074:	1f 93       	push	r17
    3076:	cf 93       	push	r28
    3078:	df 93       	push	r29
    307a:	6b 01       	movw	r12, r22
    307c:	ea 01       	movw	r28, r20
	Lcd_print(2, 0, FONT_1X,(unsigned char *)"");
    307e:	29 e2       	ldi	r18, 0x29	; 41
    3080:	31 e0       	ldi	r19, 0x01	; 1
    3082:	41 e0       	ldi	r20, 0x01	; 1
    3084:	60 e0       	ldi	r22, 0x00	; 0
    3086:	82 e0       	ldi	r24, 0x02	; 2
    3088:	0e 94 0e 15 	call	0x2a1c	; 0x2a1c <_Z9Lcd_printhh11LcdFontSizePh>
	Lcd_print(0, 1, FONT_1X,(unsigned char *)"");
    308c:	25 e3       	ldi	r18, 0x35	; 53
    308e:	31 e0       	ldi	r19, 0x01	; 1
    3090:	41 e0       	ldi	r20, 0x01	; 1
    3092:	61 e0       	ldi	r22, 0x01	; 1
    3094:	80 e0       	ldi	r24, 0x00	; 0
    3096:	0e 94 0e 15 	call	0x2a1c	; 0x2a1c <_Z9Lcd_printhh11LcdFontSizePh>
	Lcd_print(0, 2, FONT_1X,(unsigned char *)"");
    309a:	22 e4       	ldi	r18, 0x42	; 66
    309c:	31 e0       	ldi	r19, 0x01	; 1
    309e:	41 e0       	ldi	r20, 0x01	; 1
    30a0:	62 e0       	ldi	r22, 0x02	; 2
    30a2:	80 e0       	ldi	r24, 0x00	; 0
    30a4:	0e 94 0e 15 	call	0x2a1c	; 0x2a1c <_Z9Lcd_printhh11LcdFontSizePh>
	Lcd_printf2(10, 2, FONT_1X, carrage.countToMalfunctionLimit/100 , 2);
    30a8:	fe 01       	movw	r30, r28
    30aa:	e6 54       	subi	r30, 0x46	; 70
    30ac:	ff 4f       	sbci	r31, 0xFF	; 255
    30ae:	20 e0       	ldi	r18, 0x00	; 0
    30b0:	30 e0       	ldi	r19, 0x00	; 0
    30b2:	48 ec       	ldi	r20, 0xC8	; 200
    30b4:	52 e4       	ldi	r21, 0x42	; 66
    30b6:	60 81       	ld	r22, Z
    30b8:	71 81       	ldd	r23, Z+1	; 0x01
    30ba:	82 81       	ldd	r24, Z+2	; 0x02
    30bc:	93 81       	ldd	r25, Z+3	; 0x03
    30be:	0e 94 55 23 	call	0x46aa	; 0x46aa <__divsf3>
    30c2:	8b 01       	movw	r16, r22
    30c4:	9c 01       	movw	r18, r24
    30c6:	68 94       	set
    30c8:	ee 24       	eor	r14, r14
    30ca:	e1 f8       	bld	r14, 1
    30cc:	f1 2c       	mov	r15, r1
    30ce:	41 e0       	ldi	r20, 0x01	; 1
    30d0:	62 e0       	ldi	r22, 0x02	; 2
    30d2:	8a e0       	ldi	r24, 0x0A	; 10
    30d4:	0e 94 72 15 	call	0x2ae4	; 0x2ae4 <_Z11Lcd_printf2hh11LcdFontSizefi>
	
	Lcd_print(0, 3, FONT_1X,(unsigned char *)"");
    30d8:	2b e4       	ldi	r18, 0x4B	; 75
    30da:	31 e0       	ldi	r19, 0x01	; 1
    30dc:	41 e0       	ldi	r20, 0x01	; 1
    30de:	63 e0       	ldi	r22, 0x03	; 3
    30e0:	80 e0       	ldi	r24, 0x00	; 0
    30e2:	0e 94 0e 15 	call	0x2a1c	; 0x2a1c <_Z9Lcd_printhh11LcdFontSizePh>
	switch(carrage.OnOffMalfunction){
    30e6:	c2 54       	subi	r28, 0x42	; 66
    30e8:	df 4f       	sbci	r29, 0xFF	; 255
    30ea:	88 81       	ld	r24, Y
    30ec:	81 30       	cpi	r24, 0x01	; 1
    30ee:	41 f0       	breq	.+16     	; 0x3100 <_ZN6Screen19Render_maltifactionER8ActivityR7Carrage+0x96>
		case(false):Lcd_print(10, 3, FONT_1X,(unsigned char *)"");break;
    30f0:	24 e5       	ldi	r18, 0x54	; 84
    30f2:	31 e0       	ldi	r19, 0x01	; 1
    30f4:	41 e0       	ldi	r20, 0x01	; 1
    30f6:	63 e0       	ldi	r22, 0x03	; 3
    30f8:	8a e0       	ldi	r24, 0x0A	; 10
    30fa:	0e 94 0e 15 	call	0x2a1c	; 0x2a1c <_Z9Lcd_printhh11LcdFontSizePh>
    30fe:	07 c0       	rjmp	.+14     	; 0x310e <_ZN6Screen19Render_maltifactionER8ActivityR7Carrage+0xa4>
		case(true):Lcd_print(10, 3, FONT_1X,(unsigned char *)"");break;
    3100:	28 e5       	ldi	r18, 0x58	; 88
    3102:	31 e0       	ldi	r19, 0x01	; 1
    3104:	41 e0       	ldi	r20, 0x01	; 1
    3106:	63 e0       	ldi	r22, 0x03	; 3
    3108:	8a e0       	ldi	r24, 0x0A	; 10
    310a:	0e 94 0e 15 	call	0x2a1c	; 0x2a1c <_Z9Lcd_printhh11LcdFontSizePh>
	}
	
	switch(activity.Cursor){
    310e:	f6 01       	movw	r30, r12
    3110:	87 81       	ldd	r24, Z+7	; 0x07
    3112:	87 31       	cpi	r24, 0x17	; 23
    3114:	29 f0       	breq	.+10     	; 0x3120 <_ZN6Screen19Render_maltifactionER8ActivityR7Carrage+0xb6>
    3116:	88 31       	cpi	r24, 0x18	; 24
    3118:	d1 f0       	breq	.+52     	; 0x314e <_ZN6Screen19Render_maltifactionER8ActivityR7Carrage+0xe4>
    311a:	86 31       	cpi	r24, 0x16	; 22
    311c:	f9 f4       	brne	.+62     	; 0x315c <_ZN6Screen19Render_maltifactionER8ActivityR7Carrage+0xf2>
    311e:	08 c0       	rjmp	.+16     	; 0x3130 <_ZN6Screen19Render_maltifactionER8ActivityR7Carrage+0xc6>
		case(ONOF_MALFACTION):LcdGotoXY(9,3);LcdChr_full(0xA2);break;
    3120:	63 e0       	ldi	r22, 0x03	; 3
    3122:	89 e0       	ldi	r24, 0x09	; 9
    3124:	0e 94 ce 13 	call	0x279c	; 0x279c <_Z9LcdGotoXYhh>
    3128:	82 ea       	ldi	r24, 0xA2	; 162
    312a:	0e 94 e9 13 	call	0x27d2	; 0x27d2 <_Z11LcdChr_fullh>
    312e:	16 c0       	rjmp	.+44     	; 0x315c <_ZN6Screen19Render_maltifactionER8ActivityR7Carrage+0xf2>
		case(TIME_MALFACTION):LcdGotoXY(9,2);LcdChr_full(0x9A);LcdGotoXY(13,2);LcdChr_full(0x9B);break;
    3130:	62 e0       	ldi	r22, 0x02	; 2
    3132:	89 e0       	ldi	r24, 0x09	; 9
    3134:	0e 94 ce 13 	call	0x279c	; 0x279c <_Z9LcdGotoXYhh>
    3138:	8a e9       	ldi	r24, 0x9A	; 154
    313a:	0e 94 e9 13 	call	0x27d2	; 0x27d2 <_Z11LcdChr_fullh>
    313e:	62 e0       	ldi	r22, 0x02	; 2
    3140:	8d e0       	ldi	r24, 0x0D	; 13
    3142:	0e 94 ce 13 	call	0x279c	; 0x279c <_Z9LcdGotoXYhh>
    3146:	8b e9       	ldi	r24, 0x9B	; 155
    3148:	0e 94 e9 13 	call	0x27d2	; 0x27d2 <_Z11LcdChr_fullh>
    314c:	07 c0       	rjmp	.+14     	; 0x315c <_ZN6Screen19Render_maltifactionER8ActivityR7Carrage+0xf2>
		case(EXIT_MALFACTION):LcdGotoXY(1,5);LcdChr_full(0x9B);break;
    314e:	65 e0       	ldi	r22, 0x05	; 5
    3150:	81 e0       	ldi	r24, 0x01	; 1
    3152:	0e 94 ce 13 	call	0x279c	; 0x279c <_Z9LcdGotoXYhh>
    3156:	8b e9       	ldi	r24, 0x9B	; 155
    3158:	0e 94 e9 13 	call	0x27d2	; 0x27d2 <_Z11LcdChr_fullh>
	}
	Lcd_print(3, 5, FONT_1X,(unsigned char *)"");
    315c:	2b e0       	ldi	r18, 0x0B	; 11
    315e:	31 e0       	ldi	r19, 0x01	; 1
    3160:	41 e0       	ldi	r20, 0x01	; 1
    3162:	65 e0       	ldi	r22, 0x05	; 5
    3164:	83 e0       	ldi	r24, 0x03	; 3
    3166:	0e 94 0e 15 	call	0x2a1c	; 0x2a1c <_Z9Lcd_printhh11LcdFontSizePh>
}
    316a:	df 91       	pop	r29
    316c:	cf 91       	pop	r28
    316e:	1f 91       	pop	r17
    3170:	0f 91       	pop	r16
    3172:	ff 90       	pop	r15
    3174:	ef 90       	pop	r14
    3176:	df 90       	pop	r13
    3178:	cf 90       	pop	r12
    317a:	08 95       	ret

0000317c <_ZN6Screen13Render_ERRORSER8ActivityR7Carrage>:

void Screen::Render_ERRORS(Activity &activity, Carrage &carrage){
    317c:	cf 92       	push	r12
    317e:	df 92       	push	r13
    3180:	ef 92       	push	r14
    3182:	ff 92       	push	r15
    3184:	0f 93       	push	r16
    3186:	1f 93       	push	r17
    3188:	cf 93       	push	r28
    318a:	df 93       	push	r29
    318c:	6b 01       	movw	r12, r22
    318e:	ea 01       	movw	r28, r20
	Lcd_print(4, 0, FONT_1X,(unsigned char *)"");
    3190:	2c e5       	ldi	r18, 0x5C	; 92
    3192:	31 e0       	ldi	r19, 0x01	; 1
    3194:	41 e0       	ldi	r20, 0x01	; 1
    3196:	60 e0       	ldi	r22, 0x00	; 0
    3198:	84 e0       	ldi	r24, 0x04	; 4
    319a:	0e 94 0e 15 	call	0x2a1c	; 0x2a1c <_Z9Lcd_printhh11LcdFontSizePh>
	Lcd_print(2, 1, FONT_1X,(unsigned char *)"1.");
    319e:	23 e6       	ldi	r18, 0x63	; 99
    31a0:	31 e0       	ldi	r19, 0x01	; 1
    31a2:	41 e0       	ldi	r20, 0x01	; 1
    31a4:	61 e0       	ldi	r22, 0x01	; 1
    31a6:	82 e0       	ldi	r24, 0x02	; 2
    31a8:	0e 94 0e 15 	call	0x2a1c	; 0x2a1c <_Z9Lcd_printhh11LcdFontSizePh>
	Lcd_print(2, 2, FONT_1X,(unsigned char *)"2.");
    31ac:	2c e6       	ldi	r18, 0x6C	; 108
    31ae:	31 e0       	ldi	r19, 0x01	; 1
    31b0:	41 e0       	ldi	r20, 0x01	; 1
    31b2:	62 e0       	ldi	r22, 0x02	; 2
    31b4:	82 e0       	ldi	r24, 0x02	; 2
    31b6:	0e 94 0e 15 	call	0x2a1c	; 0x2a1c <_Z9Lcd_printhh11LcdFontSizePh>
	Lcd_print(2, 3, FONT_1X,(unsigned char *)"3.");
    31ba:	25 e7       	ldi	r18, 0x75	; 117
    31bc:	31 e0       	ldi	r19, 0x01	; 1
    31be:	41 e0       	ldi	r20, 0x01	; 1
    31c0:	63 e0       	ldi	r22, 0x03	; 3
    31c2:	82 e0       	ldi	r24, 0x02	; 2
    31c4:	0e 94 0e 15 	call	0x2a1c	; 0x2a1c <_Z9Lcd_printhh11LcdFontSizePh>
	Lcd_print(2, 4, FONT_1X,(unsigned char *)"4.");
    31c8:	2e e7       	ldi	r18, 0x7E	; 126
    31ca:	31 e0       	ldi	r19, 0x01	; 1
    31cc:	41 e0       	ldi	r20, 0x01	; 1
    31ce:	64 e0       	ldi	r22, 0x04	; 4
    31d0:	82 e0       	ldi	r24, 0x02	; 2
    31d2:	0e 94 0e 15 	call	0x2a1c	; 0x2a1c <_Z9Lcd_printhh11LcdFontSizePh>
	Lcd_print(2, 5, FONT_1X,(unsigned char *)"");
    31d6:	27 e8       	ldi	r18, 0x87	; 135
    31d8:	31 e0       	ldi	r19, 0x01	; 1
    31da:	41 e0       	ldi	r20, 0x01	; 1
    31dc:	65 e0       	ldi	r22, 0x05	; 5
    31de:	82 e0       	ldi	r24, 0x02	; 2
    31e0:	0e 94 0e 15 	call	0x2a1c	; 0x2a1c <_Z9Lcd_printhh11LcdFontSizePh>
	Lcd_print(9, 5, FONT_1X,(unsigned char *)"");
    31e4:	2d e8       	ldi	r18, 0x8D	; 141
    31e6:	31 e0       	ldi	r19, 0x01	; 1
    31e8:	41 e0       	ldi	r20, 0x01	; 1
    31ea:	65 e0       	ldi	r22, 0x05	; 5
    31ec:	89 e0       	ldi	r24, 0x09	; 9
    31ee:	0e 94 0e 15 	call	0x2a1c	; 0x2a1c <_Z9Lcd_printhh11LcdFontSizePh>
	
	Lcd_print(11, 1, FONT_1X,(unsigned char *)"--");
    31f2:	23 e9       	ldi	r18, 0x93	; 147
    31f4:	31 e0       	ldi	r19, 0x01	; 1
    31f6:	41 e0       	ldi	r20, 0x01	; 1
    31f8:	61 e0       	ldi	r22, 0x01	; 1
    31fa:	8b e0       	ldi	r24, 0x0B	; 11
    31fc:	0e 94 0e 15 	call	0x2a1c	; 0x2a1c <_Z9Lcd_printhh11LcdFontSizePh>
	Lcd_print(11, 2, FONT_1X,(unsigned char *)"--");
    3200:	23 e9       	ldi	r18, 0x93	; 147
    3202:	31 e0       	ldi	r19, 0x01	; 1
    3204:	41 e0       	ldi	r20, 0x01	; 1
    3206:	62 e0       	ldi	r22, 0x02	; 2
    3208:	8b e0       	ldi	r24, 0x0B	; 11
    320a:	0e 94 0e 15 	call	0x2a1c	; 0x2a1c <_Z9Lcd_printhh11LcdFontSizePh>
	Lcd_print(11, 3, FONT_1X,(unsigned char *)"--");
    320e:	23 e9       	ldi	r18, 0x93	; 147
    3210:	31 e0       	ldi	r19, 0x01	; 1
    3212:	41 e0       	ldi	r20, 0x01	; 1
    3214:	63 e0       	ldi	r22, 0x03	; 3
    3216:	8b e0       	ldi	r24, 0x0B	; 11
    3218:	0e 94 0e 15 	call	0x2a1c	; 0x2a1c <_Z9Lcd_printhh11LcdFontSizePh>
	Lcd_print(11, 4, FONT_1X,(unsigned char *)"--");
    321c:	23 e9       	ldi	r18, 0x93	; 147
    321e:	31 e0       	ldi	r19, 0x01	; 1
    3220:	41 e0       	ldi	r20, 0x01	; 1
    3222:	64 e0       	ldi	r22, 0x04	; 4
    3224:	8b e0       	ldi	r24, 0x0B	; 11
    3226:	0e 94 0e 15 	call	0x2a1c	; 0x2a1c <_Z9Lcd_printhh11LcdFontSizePh>
		
	if(carrage.Wheel_1.Error>0){Lcd_print(11, 1, FONT_1X,(unsigned char *)"E");Lcd_printf(12, 1, FONT_1X, carrage.Wheel_1.Error , 0);}
    322a:	8e 8d       	ldd	r24, Y+30	; 0x1e
    322c:	9f 8d       	ldd	r25, Y+31	; 0x1f
    322e:	18 16       	cp	r1, r24
    3230:	19 06       	cpc	r1, r25
    3232:	c4 f4       	brge	.+48     	; 0x3264 <_ZN6Screen13Render_ERRORSER8ActivityR7Carrage+0xe8>
    3234:	26 e9       	ldi	r18, 0x96	; 150
    3236:	31 e0       	ldi	r19, 0x01	; 1
    3238:	41 e0       	ldi	r20, 0x01	; 1
    323a:	61 e0       	ldi	r22, 0x01	; 1
    323c:	8b e0       	ldi	r24, 0x0B	; 11
    323e:	0e 94 0e 15 	call	0x2a1c	; 0x2a1c <_Z9Lcd_printhh11LcdFontSizePh>
    3242:	6e 8d       	ldd	r22, Y+30	; 0x1e
    3244:	7f 8d       	ldd	r23, Y+31	; 0x1f
    3246:	07 2e       	mov	r0, r23
    3248:	00 0c       	add	r0, r0
    324a:	88 0b       	sbc	r24, r24
    324c:	99 0b       	sbc	r25, r25
    324e:	0e 94 ff 23 	call	0x47fe	; 0x47fe <__floatsisf>
    3252:	8b 01       	movw	r16, r22
    3254:	9c 01       	movw	r18, r24
    3256:	e1 2c       	mov	r14, r1
    3258:	f1 2c       	mov	r15, r1
    325a:	41 e0       	ldi	r20, 0x01	; 1
    325c:	61 e0       	ldi	r22, 0x01	; 1
    325e:	8c e0       	ldi	r24, 0x0C	; 12
    3260:	0e 94 55 15 	call	0x2aaa	; 0x2aaa <_Z10Lcd_printfhh11LcdFontSizefi>
	if(carrage.Wheel_2.Error>0){Lcd_print(11, 2, FONT_1X,(unsigned char *)"E");Lcd_printf(12, 2, FONT_1X, carrage.Wheel_2.Error , 0);}
    3264:	fe 01       	movw	r30, r28
    3266:	e7 5b       	subi	r30, 0xB7	; 183
    3268:	ff 4f       	sbci	r31, 0xFF	; 255
    326a:	80 81       	ld	r24, Z
    326c:	91 81       	ldd	r25, Z+1	; 0x01
    326e:	18 16       	cp	r1, r24
    3270:	19 06       	cpc	r1, r25
    3272:	dc f4       	brge	.+54     	; 0x32aa <_ZN6Screen13Render_ERRORSER8ActivityR7Carrage+0x12e>
    3274:	26 e9       	ldi	r18, 0x96	; 150
    3276:	31 e0       	ldi	r19, 0x01	; 1
    3278:	41 e0       	ldi	r20, 0x01	; 1
    327a:	62 e0       	ldi	r22, 0x02	; 2
    327c:	8b e0       	ldi	r24, 0x0B	; 11
    327e:	0e 94 0e 15 	call	0x2a1c	; 0x2a1c <_Z9Lcd_printhh11LcdFontSizePh>
    3282:	fe 01       	movw	r30, r28
    3284:	e7 5b       	subi	r30, 0xB7	; 183
    3286:	ff 4f       	sbci	r31, 0xFF	; 255
    3288:	60 81       	ld	r22, Z
    328a:	71 81       	ldd	r23, Z+1	; 0x01
    328c:	07 2e       	mov	r0, r23
    328e:	00 0c       	add	r0, r0
    3290:	88 0b       	sbc	r24, r24
    3292:	99 0b       	sbc	r25, r25
    3294:	0e 94 ff 23 	call	0x47fe	; 0x47fe <__floatsisf>
    3298:	8b 01       	movw	r16, r22
    329a:	9c 01       	movw	r18, r24
    329c:	e1 2c       	mov	r14, r1
    329e:	f1 2c       	mov	r15, r1
    32a0:	41 e0       	ldi	r20, 0x01	; 1
    32a2:	62 e0       	ldi	r22, 0x02	; 2
    32a4:	8c e0       	ldi	r24, 0x0C	; 12
    32a6:	0e 94 55 15 	call	0x2aaa	; 0x2aaa <_Z10Lcd_printfhh11LcdFontSizefi>
	if(carrage.Wheel_3.Error>0){Lcd_print(11, 3, FONT_1X,(unsigned char *)"E");Lcd_printf(12, 3, FONT_1X, carrage.Wheel_3.Error , 0);}
    32aa:	fe 01       	movw	r30, r28
    32ac:	ec 58       	subi	r30, 0x8C	; 140
    32ae:	ff 4f       	sbci	r31, 0xFF	; 255
    32b0:	80 81       	ld	r24, Z
    32b2:	91 81       	ldd	r25, Z+1	; 0x01
    32b4:	18 16       	cp	r1, r24
    32b6:	19 06       	cpc	r1, r25
    32b8:	dc f4       	brge	.+54     	; 0x32f0 <_ZN6Screen13Render_ERRORSER8ActivityR7Carrage+0x174>
    32ba:	26 e9       	ldi	r18, 0x96	; 150
    32bc:	31 e0       	ldi	r19, 0x01	; 1
    32be:	41 e0       	ldi	r20, 0x01	; 1
    32c0:	63 e0       	ldi	r22, 0x03	; 3
    32c2:	8b e0       	ldi	r24, 0x0B	; 11
    32c4:	0e 94 0e 15 	call	0x2a1c	; 0x2a1c <_Z9Lcd_printhh11LcdFontSizePh>
    32c8:	fe 01       	movw	r30, r28
    32ca:	ec 58       	subi	r30, 0x8C	; 140
    32cc:	ff 4f       	sbci	r31, 0xFF	; 255
    32ce:	60 81       	ld	r22, Z
    32d0:	71 81       	ldd	r23, Z+1	; 0x01
    32d2:	07 2e       	mov	r0, r23
    32d4:	00 0c       	add	r0, r0
    32d6:	88 0b       	sbc	r24, r24
    32d8:	99 0b       	sbc	r25, r25
    32da:	0e 94 ff 23 	call	0x47fe	; 0x47fe <__floatsisf>
    32de:	8b 01       	movw	r16, r22
    32e0:	9c 01       	movw	r18, r24
    32e2:	e1 2c       	mov	r14, r1
    32e4:	f1 2c       	mov	r15, r1
    32e6:	41 e0       	ldi	r20, 0x01	; 1
    32e8:	63 e0       	ldi	r22, 0x03	; 3
    32ea:	8c e0       	ldi	r24, 0x0C	; 12
    32ec:	0e 94 55 15 	call	0x2aaa	; 0x2aaa <_Z10Lcd_printfhh11LcdFontSizefi>
	if(carrage.Wheel_4.Error>0){Lcd_print(11, 4, FONT_1X,(unsigned char *)"E");Lcd_printf(12, 4, FONT_1X, carrage.Wheel_4.Error , 0);}
    32f0:	fe 01       	movw	r30, r28
    32f2:	e1 56       	subi	r30, 0x61	; 97
    32f4:	ff 4f       	sbci	r31, 0xFF	; 255
    32f6:	80 81       	ld	r24, Z
    32f8:	91 81       	ldd	r25, Z+1	; 0x01
    32fa:	18 16       	cp	r1, r24
    32fc:	19 06       	cpc	r1, r25
    32fe:	d4 f4       	brge	.+52     	; 0x3334 <_ZN6Screen13Render_ERRORSER8ActivityR7Carrage+0x1b8>
    3300:	26 e9       	ldi	r18, 0x96	; 150
    3302:	31 e0       	ldi	r19, 0x01	; 1
    3304:	41 e0       	ldi	r20, 0x01	; 1
    3306:	64 e0       	ldi	r22, 0x04	; 4
    3308:	8b e0       	ldi	r24, 0x0B	; 11
    330a:	0e 94 0e 15 	call	0x2a1c	; 0x2a1c <_Z9Lcd_printhh11LcdFontSizePh>
    330e:	c1 56       	subi	r28, 0x61	; 97
    3310:	df 4f       	sbci	r29, 0xFF	; 255
    3312:	68 81       	ld	r22, Y
    3314:	79 81       	ldd	r23, Y+1	; 0x01
    3316:	07 2e       	mov	r0, r23
    3318:	00 0c       	add	r0, r0
    331a:	88 0b       	sbc	r24, r24
    331c:	99 0b       	sbc	r25, r25
    331e:	0e 94 ff 23 	call	0x47fe	; 0x47fe <__floatsisf>
    3322:	8b 01       	movw	r16, r22
    3324:	9c 01       	movw	r18, r24
    3326:	e1 2c       	mov	r14, r1
    3328:	f1 2c       	mov	r15, r1
    332a:	41 e0       	ldi	r20, 0x01	; 1
    332c:	64 e0       	ldi	r22, 0x04	; 4
    332e:	8c e0       	ldi	r24, 0x0C	; 12
    3330:	0e 94 55 15 	call	0x2aaa	; 0x2aaa <_Z10Lcd_printfhh11LcdFontSizefi>
		
	switch(activity.Cursor){
    3334:	f6 01       	movw	r30, r12
    3336:	87 81       	ldd	r24, Z+7	; 0x07
    3338:	8b 31       	cpi	r24, 0x1B	; 27
    333a:	e1 f0       	breq	.+56     	; 0x3374 <_ZN6Screen13Render_ERRORSER8ActivityR7Carrage+0x1f8>
    333c:	28 f4       	brcc	.+10     	; 0x3348 <_ZN6Screen13Render_ERRORSER8ActivityR7Carrage+0x1cc>
    333e:	89 31       	cpi	r24, 0x19	; 25
    3340:	49 f0       	breq	.+18     	; 0x3354 <_ZN6Screen13Render_ERRORSER8ActivityR7Carrage+0x1d8>
    3342:	8a 31       	cpi	r24, 0x1A	; 26
    3344:	79 f0       	breq	.+30     	; 0x3364 <_ZN6Screen13Render_ERRORSER8ActivityR7Carrage+0x1e8>
    3346:	35 c0       	rjmp	.+106    	; 0x33b2 <_ZN6Screen13Render_ERRORSER8ActivityR7Carrage+0x236>
    3348:	8d 31       	cpi	r24, 0x1D	; 29
    334a:	21 f1       	breq	.+72     	; 0x3394 <_ZN6Screen13Render_ERRORSER8ActivityR7Carrage+0x218>
    334c:	d8 f0       	brcs	.+54     	; 0x3384 <_ZN6Screen13Render_ERRORSER8ActivityR7Carrage+0x208>
    334e:	8e 31       	cpi	r24, 0x1E	; 30
    3350:	49 f1       	breq	.+82     	; 0x33a4 <_ZN6Screen13Render_ERRORSER8ActivityR7Carrage+0x228>
    3352:	2f c0       	rjmp	.+94     	; 0x33b2 <_ZN6Screen13Render_ERRORSER8ActivityR7Carrage+0x236>
		case(ERRORS_WHEEL1):LcdGotoXY(0,1);LcdChr_full(0x9B);break;
    3354:	61 e0       	ldi	r22, 0x01	; 1
    3356:	80 e0       	ldi	r24, 0x00	; 0
    3358:	0e 94 ce 13 	call	0x279c	; 0x279c <_Z9LcdGotoXYhh>
    335c:	8b e9       	ldi	r24, 0x9B	; 155
    335e:	0e 94 e9 13 	call	0x27d2	; 0x27d2 <_Z11LcdChr_fullh>
    3362:	27 c0       	rjmp	.+78     	; 0x33b2 <_ZN6Screen13Render_ERRORSER8ActivityR7Carrage+0x236>
		case(ERRORS_WHEEL2):LcdGotoXY(0,2);LcdChr_full(0x9B);break;
    3364:	62 e0       	ldi	r22, 0x02	; 2
    3366:	80 e0       	ldi	r24, 0x00	; 0
    3368:	0e 94 ce 13 	call	0x279c	; 0x279c <_Z9LcdGotoXYhh>
    336c:	8b e9       	ldi	r24, 0x9B	; 155
    336e:	0e 94 e9 13 	call	0x27d2	; 0x27d2 <_Z11LcdChr_fullh>
    3372:	1f c0       	rjmp	.+62     	; 0x33b2 <_ZN6Screen13Render_ERRORSER8ActivityR7Carrage+0x236>
		case(ERRORS_WHEEL3):LcdGotoXY(0,3);LcdChr_full(0x9B);break;
    3374:	63 e0       	ldi	r22, 0x03	; 3
    3376:	80 e0       	ldi	r24, 0x00	; 0
    3378:	0e 94 ce 13 	call	0x279c	; 0x279c <_Z9LcdGotoXYhh>
    337c:	8b e9       	ldi	r24, 0x9B	; 155
    337e:	0e 94 e9 13 	call	0x27d2	; 0x27d2 <_Z11LcdChr_fullh>
    3382:	17 c0       	rjmp	.+46     	; 0x33b2 <_ZN6Screen13Render_ERRORSER8ActivityR7Carrage+0x236>
		case(ERRORS_WHEEL4):LcdGotoXY(0,4);LcdChr_full(0x9B);break;
    3384:	64 e0       	ldi	r22, 0x04	; 4
    3386:	80 e0       	ldi	r24, 0x00	; 0
    3388:	0e 94 ce 13 	call	0x279c	; 0x279c <_Z9LcdGotoXYhh>
    338c:	8b e9       	ldi	r24, 0x9B	; 155
    338e:	0e 94 e9 13 	call	0x27d2	; 0x27d2 <_Z11LcdChr_fullh>
    3392:	0f c0       	rjmp	.+30     	; 0x33b2 <_ZN6Screen13Render_ERRORSER8ActivityR7Carrage+0x236>
		case(ERRORS_RESET):LcdGotoXY(0,5);LcdChr_full(0x9B);break;
    3394:	65 e0       	ldi	r22, 0x05	; 5
    3396:	80 e0       	ldi	r24, 0x00	; 0
    3398:	0e 94 ce 13 	call	0x279c	; 0x279c <_Z9LcdGotoXYhh>
    339c:	8b e9       	ldi	r24, 0x9B	; 155
    339e:	0e 94 e9 13 	call	0x27d2	; 0x27d2 <_Z11LcdChr_fullh>
    33a2:	07 c0       	rjmp	.+14     	; 0x33b2 <_ZN6Screen13Render_ERRORSER8ActivityR7Carrage+0x236>
		case(ERRORS_EXIT):LcdGotoXY(7,5);LcdChr_full(0x9B);break;
    33a4:	65 e0       	ldi	r22, 0x05	; 5
    33a6:	87 e0       	ldi	r24, 0x07	; 7
    33a8:	0e 94 ce 13 	call	0x279c	; 0x279c <_Z9LcdGotoXYhh>
    33ac:	8b e9       	ldi	r24, 0x9B	; 155
    33ae:	0e 94 e9 13 	call	0x27d2	; 0x27d2 <_Z11LcdChr_fullh>
	}
}
    33b2:	df 91       	pop	r29
    33b4:	cf 91       	pop	r28
    33b6:	1f 91       	pop	r17
    33b8:	0f 91       	pop	r16
    33ba:	ff 90       	pop	r15
    33bc:	ef 90       	pop	r14
    33be:	df 90       	pop	r13
    33c0:	cf 90       	pop	r12
    33c2:	08 95       	ret

000033c4 <_ZN6Screen10PrintErrorE5Wheel>:
		case(ERRORS_WHEEL4):Lcd_print(3, 0, FONT_1X,(unsigned char *)"4 ");PrintError(carrage.Wheel_4);break;
	}

}

void Screen::PrintError(Wheel wheel){
    33c4:	cf 92       	push	r12
    33c6:	df 92       	push	r13
    33c8:	ef 92       	push	r14
    33ca:	ff 92       	push	r15
    33cc:	0f 93       	push	r16
    33ce:	1f 93       	push	r17
    33d0:	cf 93       	push	r28
    33d2:	df 93       	push	r29
    33d4:	cd b7       	in	r28, 0x3d	; 61
    33d6:	de b7       	in	r29, 0x3e	; 62
    33d8:	c9 a4       	ldd	r12, Y+41	; 0x29
    33da:	da a4       	ldd	r13, Y+42	; 0x2a
	if(wheel.Error == 0){
    33dc:	c1 14       	cp	r12, r1
    33de:	d1 04       	cpc	r13, r1
    33e0:	41 f4       	brne	.+16     	; 0x33f2 <_ZN6Screen10PrintErrorE5Wheel+0x2e>
		Lcd_print(1, 2, FONT_1X,(unsigned char *)" ");
    33e2:	28 e9       	ldi	r18, 0x98	; 152
    33e4:	31 e0       	ldi	r19, 0x01	; 1
    33e6:	41 e0       	ldi	r20, 0x01	; 1
    33e8:	62 e0       	ldi	r22, 0x02	; 2
    33ea:	81 e0       	ldi	r24, 0x01	; 1
    33ec:	0e 94 0e 15 	call	0x2a1c	; 0x2a1c <_Z9Lcd_printhh11LcdFontSizePh>
    33f0:	39 c0       	rjmp	.+114    	; 0x3464 <_ZN6Screen10PrintErrorE5Wheel+0xa0>
		}else{
		Lcd_print(1, 1, FONT_1X,(unsigned char *)" ");
    33f2:	23 ea       	ldi	r18, 0xA3	; 163
    33f4:	31 e0       	ldi	r19, 0x01	; 1
    33f6:	41 e0       	ldi	r20, 0x01	; 1
    33f8:	61 e0       	ldi	r22, 0x01	; 1
    33fa:	81 e0       	ldi	r24, 0x01	; 1
    33fc:	0e 94 0e 15 	call	0x2a1c	; 0x2a1c <_Z9Lcd_printhh11LcdFontSizePh>
		Lcd_printf(9, 1, FONT_1X, wheel.Error , 0);
    3400:	b6 01       	movw	r22, r12
    3402:	0d 2c       	mov	r0, r13
    3404:	00 0c       	add	r0, r0
    3406:	88 0b       	sbc	r24, r24
    3408:	99 0b       	sbc	r25, r25
    340a:	0e 94 ff 23 	call	0x47fe	; 0x47fe <__floatsisf>
    340e:	8b 01       	movw	r16, r22
    3410:	9c 01       	movw	r18, r24
    3412:	e1 2c       	mov	r14, r1
    3414:	f1 2c       	mov	r15, r1
    3416:	41 e0       	ldi	r20, 0x01	; 1
    3418:	61 e0       	ldi	r22, 0x01	; 1
    341a:	89 e0       	ldi	r24, 0x09	; 9
    341c:	0e 94 55 15 	call	0x2aaa	; 0x2aaa <_Z10Lcd_printfhh11LcdFontSizefi>
		switch(wheel.Error){
    3420:	82 e0       	ldi	r24, 0x02	; 2
    3422:	c8 16       	cp	r12, r24
    3424:	d1 04       	cpc	r13, r1
    3426:	79 f0       	breq	.+30     	; 0x3446 <_ZN6Screen10PrintErrorE5Wheel+0x82>
    3428:	83 e0       	ldi	r24, 0x03	; 3
    342a:	c8 16       	cp	r12, r24
    342c:	d1 04       	cpc	r13, r1
    342e:	99 f0       	breq	.+38     	; 0x3456 <_ZN6Screen10PrintErrorE5Wheel+0x92>
    3430:	ca 94       	dec	r12
    3432:	cd 28       	or	r12, r13
    3434:	b9 f4       	brne	.+46     	; 0x3464 <_ZN6Screen10PrintErrorE5Wheel+0xa0>
			case(1):Lcd_print(0, 2, FONT_1X,(unsigned char *)"       ");break;//"       "
    3436:	2c ea       	ldi	r18, 0xAC	; 172
    3438:	31 e0       	ldi	r19, 0x01	; 1
    343a:	41 e0       	ldi	r20, 0x01	; 1
    343c:	62 e0       	ldi	r22, 0x02	; 2
    343e:	80 e0       	ldi	r24, 0x00	; 0
    3440:	0e 94 0e 15 	call	0x2a1c	; 0x2a1c <_Z9Lcd_printhh11LcdFontSizePh>
    3444:	0f c0       	rjmp	.+30     	; 0x3464 <_ZN6Screen10PrintErrorE5Wheel+0xa0>
			case(2):Lcd_print(0, 2, FONT_1X,(unsigned char *)"   ");break;//"   "
    3446:	20 ee       	ldi	r18, 0xE0	; 224
    3448:	31 e0       	ldi	r19, 0x01	; 1
    344a:	41 e0       	ldi	r20, 0x01	; 1
    344c:	62 e0       	ldi	r22, 0x02	; 2
    344e:	80 e0       	ldi	r24, 0x00	; 0
    3450:	0e 94 0e 15 	call	0x2a1c	; 0x2a1c <_Z9Lcd_printhh11LcdFontSizePh>
    3454:	07 c0       	rjmp	.+14     	; 0x3464 <_ZN6Screen10PrintErrorE5Wheel+0xa0>
			case(3):Lcd_print(0, 2, FONT_1X,(unsigned char *)"     ");break; //"     "
    3456:	29 e0       	ldi	r18, 0x09	; 9
    3458:	32 e0       	ldi	r19, 0x02	; 2
    345a:	41 e0       	ldi	r20, 0x01	; 1
    345c:	62 e0       	ldi	r22, 0x02	; 2
    345e:	80 e0       	ldi	r24, 0x00	; 0
    3460:	0e 94 0e 15 	call	0x2a1c	; 0x2a1c <_Z9Lcd_printhh11LcdFontSizePh>
		}
	}
}
    3464:	df 91       	pop	r29
    3466:	cf 91       	pop	r28
    3468:	1f 91       	pop	r17
    346a:	0f 91       	pop	r16
    346c:	ff 90       	pop	r15
    346e:	ef 90       	pop	r14
    3470:	df 90       	pop	r13
    3472:	cf 90       	pop	r12
    3474:	08 95       	ret

00003476 <_ZN6Screen12Render_ERRORER8ActivityR7Carrage>:
		case(ERRORS_RESET):LcdGotoXY(0,5);LcdChr_full(0x9B);break;
		case(ERRORS_EXIT):LcdGotoXY(7,5);LcdChr_full(0x9B);break;
	}
}

void Screen::Render_ERROR(Activity &activity, Carrage &carrage){
    3476:	0f 93       	push	r16
    3478:	1f 93       	push	r17
    347a:	cf 93       	push	r28
    347c:	df 93       	push	r29
    347e:	8c 01       	movw	r16, r24
    3480:	ea 01       	movw	r28, r20
	switch(activity.Cursor){
    3482:	fb 01       	movw	r30, r22
    3484:	87 81       	ldd	r24, Z+7	; 0x07
    3486:	8a 31       	cpi	r24, 0x1A	; 26
    3488:	79 f1       	breq	.+94     	; 0x34e8 <_ZN6Screen12Render_ERRORER8ActivityR7Carrage+0x72>
    348a:	18 f4       	brcc	.+6      	; 0x3492 <_ZN6Screen12Render_ERRORER8ActivityR7Carrage+0x1c>
    348c:	89 31       	cpi	r24, 0x19	; 25
    348e:	41 f0       	breq	.+16     	; 0x34a0 <_ZN6Screen12Render_ERRORER8ActivityR7Carrage+0x2a>
    3490:	9b c0       	rjmp	.+310    	; 0x35c8 <_ZN6Screen12Render_ERRORER8ActivityR7Carrage+0x152>
    3492:	8b 31       	cpi	r24, 0x1B	; 27
    3494:	09 f4       	brne	.+2      	; 0x3498 <_ZN6Screen12Render_ERRORER8ActivityR7Carrage+0x22>
    3496:	4d c0       	rjmp	.+154    	; 0x3532 <_ZN6Screen12Render_ERRORER8ActivityR7Carrage+0xbc>
    3498:	8c 31       	cpi	r24, 0x1C	; 28
    349a:	09 f4       	brne	.+2      	; 0x349e <_ZN6Screen12Render_ERRORER8ActivityR7Carrage+0x28>
    349c:	70 c0       	rjmp	.+224    	; 0x357e <_ZN6Screen12Render_ERRORER8ActivityR7Carrage+0x108>
    349e:	94 c0       	rjmp	.+296    	; 0x35c8 <_ZN6Screen12Render_ERRORER8ActivityR7Carrage+0x152>
		case(ERRORS_WHEEL1):Lcd_print(3, 0, FONT_1X,(unsigned char *)"1 ");PrintError(carrage.Wheel_1);break;
    34a0:	27 e3       	ldi	r18, 0x37	; 55
    34a2:	32 e0       	ldi	r19, 0x02	; 2
    34a4:	41 e0       	ldi	r20, 0x01	; 1
    34a6:	60 e0       	ldi	r22, 0x00	; 0
    34a8:	83 e0       	ldi	r24, 0x03	; 3
    34aa:	0e 94 0e 15 	call	0x2a1c	; 0x2a1c <_Z9Lcd_printhh11LcdFontSizePh>
    34ae:	8d b7       	in	r24, 0x3d	; 61
    34b0:	9e b7       	in	r25, 0x3e	; 62
    34b2:	8b 97       	sbiw	r24, 0x2b	; 43
    34b4:	0f b6       	in	r0, 0x3f	; 63
    34b6:	f8 94       	cli
    34b8:	9e bf       	out	0x3e, r25	; 62
    34ba:	0f be       	out	0x3f, r0	; 63
    34bc:	8d bf       	out	0x3d, r24	; 61
    34be:	ad b7       	in	r26, 0x3d	; 61
    34c0:	be b7       	in	r27, 0x3e	; 62
    34c2:	11 96       	adiw	r26, 0x01	; 1
    34c4:	8b e2       	ldi	r24, 0x2B	; 43
    34c6:	fe 01       	movw	r30, r28
    34c8:	01 90       	ld	r0, Z+
    34ca:	0d 92       	st	X+, r0
    34cc:	8a 95       	dec	r24
    34ce:	e1 f7       	brne	.-8      	; 0x34c8 <_ZN6Screen12Render_ERRORER8ActivityR7Carrage+0x52>
    34d0:	c8 01       	movw	r24, r16
    34d2:	0e 94 e2 19 	call	0x33c4	; 0x33c4 <_ZN6Screen10PrintErrorE5Wheel>
    34d6:	ed b7       	in	r30, 0x3d	; 61
    34d8:	fe b7       	in	r31, 0x3e	; 62
    34da:	bb 96       	adiw	r30, 0x2b	; 43
    34dc:	0f b6       	in	r0, 0x3f	; 63
    34de:	f8 94       	cli
    34e0:	fe bf       	out	0x3e, r31	; 62
    34e2:	0f be       	out	0x3f, r0	; 63
    34e4:	ed bf       	out	0x3d, r30	; 61
    34e6:	70 c0       	rjmp	.+224    	; 0x35c8 <_ZN6Screen12Render_ERRORER8ActivityR7Carrage+0x152>
		case(ERRORS_WHEEL2):Lcd_print(3, 0, FONT_1X,(unsigned char *)"2 ");PrintError(carrage.Wheel_2);break;
    34e8:	20 e4       	ldi	r18, 0x40	; 64
    34ea:	32 e0       	ldi	r19, 0x02	; 2
    34ec:	41 e0       	ldi	r20, 0x01	; 1
    34ee:	60 e0       	ldi	r22, 0x00	; 0
    34f0:	83 e0       	ldi	r24, 0x03	; 3
    34f2:	0e 94 0e 15 	call	0x2a1c	; 0x2a1c <_Z9Lcd_printhh11LcdFontSizePh>
    34f6:	8d b7       	in	r24, 0x3d	; 61
    34f8:	9e b7       	in	r25, 0x3e	; 62
    34fa:	8b 97       	sbiw	r24, 0x2b	; 43
    34fc:	0f b6       	in	r0, 0x3f	; 63
    34fe:	f8 94       	cli
    3500:	9e bf       	out	0x3e, r25	; 62
    3502:	0f be       	out	0x3f, r0	; 63
    3504:	8d bf       	out	0x3d, r24	; 61
    3506:	ad b7       	in	r26, 0x3d	; 61
    3508:	be b7       	in	r27, 0x3e	; 62
    350a:	11 96       	adiw	r26, 0x01	; 1
    350c:	8b e2       	ldi	r24, 0x2B	; 43
    350e:	fe 01       	movw	r30, r28
    3510:	bb 96       	adiw	r30, 0x2b	; 43
    3512:	01 90       	ld	r0, Z+
    3514:	0d 92       	st	X+, r0
    3516:	8a 95       	dec	r24
    3518:	e1 f7       	brne	.-8      	; 0x3512 <_ZN6Screen12Render_ERRORER8ActivityR7Carrage+0x9c>
    351a:	c8 01       	movw	r24, r16
    351c:	0e 94 e2 19 	call	0x33c4	; 0x33c4 <_ZN6Screen10PrintErrorE5Wheel>
    3520:	ed b7       	in	r30, 0x3d	; 61
    3522:	fe b7       	in	r31, 0x3e	; 62
    3524:	bb 96       	adiw	r30, 0x2b	; 43
    3526:	0f b6       	in	r0, 0x3f	; 63
    3528:	f8 94       	cli
    352a:	fe bf       	out	0x3e, r31	; 62
    352c:	0f be       	out	0x3f, r0	; 63
    352e:	ed bf       	out	0x3d, r30	; 61
    3530:	4b c0       	rjmp	.+150    	; 0x35c8 <_ZN6Screen12Render_ERRORER8ActivityR7Carrage+0x152>
		case(ERRORS_WHEEL3):Lcd_print(3, 0, FONT_1X,(unsigned char *)"3 ");PrintError(carrage.Wheel_3);break;
    3532:	29 e4       	ldi	r18, 0x49	; 73
    3534:	32 e0       	ldi	r19, 0x02	; 2
    3536:	41 e0       	ldi	r20, 0x01	; 1
    3538:	60 e0       	ldi	r22, 0x00	; 0
    353a:	83 e0       	ldi	r24, 0x03	; 3
    353c:	0e 94 0e 15 	call	0x2a1c	; 0x2a1c <_Z9Lcd_printhh11LcdFontSizePh>
    3540:	fe 01       	movw	r30, r28
    3542:	ea 5a       	subi	r30, 0xAA	; 170
    3544:	ff 4f       	sbci	r31, 0xFF	; 255
    3546:	8d b7       	in	r24, 0x3d	; 61
    3548:	9e b7       	in	r25, 0x3e	; 62
    354a:	8b 97       	sbiw	r24, 0x2b	; 43
    354c:	0f b6       	in	r0, 0x3f	; 63
    354e:	f8 94       	cli
    3550:	9e bf       	out	0x3e, r25	; 62
    3552:	0f be       	out	0x3f, r0	; 63
    3554:	8d bf       	out	0x3d, r24	; 61
    3556:	ad b7       	in	r26, 0x3d	; 61
    3558:	be b7       	in	r27, 0x3e	; 62
    355a:	11 96       	adiw	r26, 0x01	; 1
    355c:	8b e2       	ldi	r24, 0x2B	; 43
    355e:	01 90       	ld	r0, Z+
    3560:	0d 92       	st	X+, r0
    3562:	8a 95       	dec	r24
    3564:	e1 f7       	brne	.-8      	; 0x355e <_ZN6Screen12Render_ERRORER8ActivityR7Carrage+0xe8>
    3566:	c8 01       	movw	r24, r16
    3568:	0e 94 e2 19 	call	0x33c4	; 0x33c4 <_ZN6Screen10PrintErrorE5Wheel>
    356c:	ed b7       	in	r30, 0x3d	; 61
    356e:	fe b7       	in	r31, 0x3e	; 62
    3570:	bb 96       	adiw	r30, 0x2b	; 43
    3572:	0f b6       	in	r0, 0x3f	; 63
    3574:	f8 94       	cli
    3576:	fe bf       	out	0x3e, r31	; 62
    3578:	0f be       	out	0x3f, r0	; 63
    357a:	ed bf       	out	0x3d, r30	; 61
    357c:	25 c0       	rjmp	.+74     	; 0x35c8 <_ZN6Screen12Render_ERRORER8ActivityR7Carrage+0x152>
		case(ERRORS_WHEEL4):Lcd_print(3, 0, FONT_1X,(unsigned char *)"4 ");PrintError(carrage.Wheel_4);break;
    357e:	22 e5       	ldi	r18, 0x52	; 82
    3580:	32 e0       	ldi	r19, 0x02	; 2
    3582:	41 e0       	ldi	r20, 0x01	; 1
    3584:	60 e0       	ldi	r22, 0x00	; 0
    3586:	83 e0       	ldi	r24, 0x03	; 3
    3588:	0e 94 0e 15 	call	0x2a1c	; 0x2a1c <_Z9Lcd_printhh11LcdFontSizePh>
    358c:	fe 01       	movw	r30, r28
    358e:	ef 57       	subi	r30, 0x7F	; 127
    3590:	ff 4f       	sbci	r31, 0xFF	; 255
    3592:	8d b7       	in	r24, 0x3d	; 61
    3594:	9e b7       	in	r25, 0x3e	; 62
    3596:	8b 97       	sbiw	r24, 0x2b	; 43
    3598:	0f b6       	in	r0, 0x3f	; 63
    359a:	f8 94       	cli
    359c:	9e bf       	out	0x3e, r25	; 62
    359e:	0f be       	out	0x3f, r0	; 63
    35a0:	8d bf       	out	0x3d, r24	; 61
    35a2:	ad b7       	in	r26, 0x3d	; 61
    35a4:	be b7       	in	r27, 0x3e	; 62
    35a6:	11 96       	adiw	r26, 0x01	; 1
    35a8:	8b e2       	ldi	r24, 0x2B	; 43
    35aa:	01 90       	ld	r0, Z+
    35ac:	0d 92       	st	X+, r0
    35ae:	8a 95       	dec	r24
    35b0:	e1 f7       	brne	.-8      	; 0x35aa <_ZN6Screen12Render_ERRORER8ActivityR7Carrage+0x134>
    35b2:	c8 01       	movw	r24, r16
    35b4:	0e 94 e2 19 	call	0x33c4	; 0x33c4 <_ZN6Screen10PrintErrorE5Wheel>
    35b8:	ed b7       	in	r30, 0x3d	; 61
    35ba:	fe b7       	in	r31, 0x3e	; 62
    35bc:	bb 96       	adiw	r30, 0x2b	; 43
    35be:	0f b6       	in	r0, 0x3f	; 63
    35c0:	f8 94       	cli
    35c2:	fe bf       	out	0x3e, r31	; 62
    35c4:	0f be       	out	0x3f, r0	; 63
    35c6:	ed bf       	out	0x3d, r30	; 61
	}

}
    35c8:	df 91       	pop	r29
    35ca:	cf 91       	pop	r28
    35cc:	1f 91       	pop	r17
    35ce:	0f 91       	pop	r16
    35d0:	08 95       	ret

000035d2 <_ZN6Screen10PrintTitleER8ActivityR7Carrage>:
		}
	}
}

void Screen::PrintTitle(Activity &activity, Carrage &carrage){
	if(activity.Cursor < PARKING_SAVE){
    35d2:	fb 01       	movw	r30, r22
    35d4:	87 81       	ldd	r24, Z+7	; 0x07
    35d6:	84 30       	cpi	r24, 0x04	; 4
    35d8:	20 f5       	brcc	.+72     	; 0x3622 <_ZN6Screen10PrintTitleER8ActivityR7Carrage+0x50>
		Lcd_print(5, 0, FONT_1X,(unsigned char *)"");
    35da:	2b e5       	ldi	r18, 0x5B	; 91
    35dc:	32 e0       	ldi	r19, 0x02	; 2
    35de:	41 e0       	ldi	r20, 0x01	; 1
    35e0:	60 e0       	ldi	r22, 0x00	; 0
    35e2:	85 e0       	ldi	r24, 0x05	; 5
    35e4:	0e 94 0e 15 	call	0x2a1c	; 0x2a1c <_Z9Lcd_printhh11LcdFontSizePh>
		Lcd_print(2, 1, FONT_1X,(unsigned char *)"");
    35e8:	2b e0       	ldi	r18, 0x0B	; 11
    35ea:	31 e0       	ldi	r19, 0x01	; 1
    35ec:	41 e0       	ldi	r20, 0x01	; 1
    35ee:	61 e0       	ldi	r22, 0x01	; 1
    35f0:	82 e0       	ldi	r24, 0x02	; 2
    35f2:	0e 94 0e 15 	call	0x2a1c	; 0x2a1c <_Z9Lcd_printhh11LcdFontSizePh>
		Lcd_print(2, 2, FONT_1X,(unsigned char *)"");
    35f6:	20 e6       	ldi	r18, 0x60	; 96
    35f8:	32 e0       	ldi	r19, 0x02	; 2
    35fa:	41 e0       	ldi	r20, 0x01	; 1
    35fc:	62 e0       	ldi	r22, 0x02	; 2
    35fe:	82 e0       	ldi	r24, 0x02	; 2
    3600:	0e 94 0e 15 	call	0x2a1c	; 0x2a1c <_Z9Lcd_printhh11LcdFontSizePh>
		Lcd_print(2, 3, FONT_1X,(unsigned char *)"");
    3604:	2b e6       	ldi	r18, 0x6B	; 107
    3606:	32 e0       	ldi	r19, 0x02	; 2
    3608:	41 e0       	ldi	r20, 0x01	; 1
    360a:	63 e0       	ldi	r22, 0x03	; 3
    360c:	82 e0       	ldi	r24, 0x02	; 2
    360e:	0e 94 0e 15 	call	0x2a1c	; 0x2a1c <_Z9Lcd_printhh11LcdFontSizePh>
		Lcd_print(2, 4, FONT_1X,(unsigned char *)"");
    3612:	2d e8       	ldi	r18, 0x8D	; 141
    3614:	31 e0       	ldi	r19, 0x01	; 1
    3616:	41 e0       	ldi	r20, 0x01	; 1
    3618:	64 e0       	ldi	r22, 0x04	; 4
    361a:	82 e0       	ldi	r24, 0x02	; 2
    361c:	0e 94 0e 15 	call	0x2a1c	; 0x2a1c <_Z9Lcd_printhh11LcdFontSizePh>
    3620:	08 95       	ret
	}else if(activity.Cursor < PARKING_SET){
    3622:	88 30       	cpi	r24, 0x08	; 8
    3624:	20 f5       	brcc	.+72     	; 0x366e <_ZN6Screen10PrintTitleER8ActivityR7Carrage+0x9c>
		Lcd_print(3, 0, FONT_1X,(unsigned char *)"");
    3626:	2b e0       	ldi	r18, 0x0B	; 11
    3628:	31 e0       	ldi	r19, 0x01	; 1
    362a:	41 e0       	ldi	r20, 0x01	; 1
    362c:	60 e0       	ldi	r22, 0x00	; 0
    362e:	83 e0       	ldi	r24, 0x03	; 3
    3630:	0e 94 0e 15 	call	0x2a1c	; 0x2a1c <_Z9Lcd_printhh11LcdFontSizePh>
		Lcd_print(2, 1, FONT_1X,(unsigned char *)"");
    3634:	25 e7       	ldi	r18, 0x75	; 117
    3636:	32 e0       	ldi	r19, 0x02	; 2
    3638:	41 e0       	ldi	r20, 0x01	; 1
    363a:	61 e0       	ldi	r22, 0x01	; 1
    363c:	82 e0       	ldi	r24, 0x02	; 2
    363e:	0e 94 0e 15 	call	0x2a1c	; 0x2a1c <_Z9Lcd_printhh11LcdFontSizePh>
		Lcd_print(2, 2, FONT_1X,(unsigned char *)" .");
    3642:	2e e7       	ldi	r18, 0x7E	; 126
    3644:	32 e0       	ldi	r19, 0x02	; 2
    3646:	41 e0       	ldi	r20, 0x01	; 1
    3648:	62 e0       	ldi	r22, 0x02	; 2
    364a:	82 e0       	ldi	r24, 0x02	; 2
    364c:	0e 94 0e 15 	call	0x2a1c	; 0x2a1c <_Z9Lcd_printhh11LcdFontSizePh>
		Lcd_print(2, 3, FONT_1X,(unsigned char *)" .");
    3650:	2a e8       	ldi	r18, 0x8A	; 138
    3652:	32 e0       	ldi	r19, 0x02	; 2
    3654:	41 e0       	ldi	r20, 0x01	; 1
    3656:	63 e0       	ldi	r22, 0x03	; 3
    3658:	82 e0       	ldi	r24, 0x02	; 2
    365a:	0e 94 0e 15 	call	0x2a1c	; 0x2a1c <_Z9Lcd_printhh11LcdFontSizePh>
		Lcd_print(2, 4, FONT_1X,(unsigned char *)"");
    365e:	2d e8       	ldi	r18, 0x8D	; 141
    3660:	31 e0       	ldi	r19, 0x01	; 1
    3662:	41 e0       	ldi	r20, 0x01	; 1
    3664:	64 e0       	ldi	r22, 0x04	; 4
    3666:	82 e0       	ldi	r24, 0x02	; 2
    3668:	0e 94 0e 15 	call	0x2a1c	; 0x2a1c <_Z9Lcd_printhh11LcdFontSizePh>
    366c:	08 95       	ret
	}else if (activity.Cursor < SETTINGS_TUNING ){
    366e:	8c 30       	cpi	r24, 0x0C	; 12
    3670:	20 f5       	brcc	.+72     	; 0x36ba <_ZN6Screen10PrintTitleER8ActivityR7Carrage+0xe8>
		Lcd_print(3, 0, FONT_1X,(unsigned char *)"");
    3672:	20 e6       	ldi	r18, 0x60	; 96
    3674:	32 e0       	ldi	r19, 0x02	; 2
    3676:	41 e0       	ldi	r20, 0x01	; 1
    3678:	60 e0       	ldi	r22, 0x00	; 0
    367a:	83 e0       	ldi	r24, 0x03	; 3
    367c:	0e 94 0e 15 	call	0x2a1c	; 0x2a1c <_Z9Lcd_printhh11LcdFontSizePh>
		Lcd_print(2, 1, FONT_1X,(unsigned char *)"");
    3680:	25 e7       	ldi	r18, 0x75	; 117
    3682:	32 e0       	ldi	r19, 0x02	; 2
    3684:	41 e0       	ldi	r20, 0x01	; 1
    3686:	61 e0       	ldi	r22, 0x01	; 1
    3688:	82 e0       	ldi	r24, 0x02	; 2
    368a:	0e 94 0e 15 	call	0x2a1c	; 0x2a1c <_Z9Lcd_printhh11LcdFontSizePh>
		Lcd_print(2, 2, FONT_1X,(unsigned char *)" .");
    368e:	2e e7       	ldi	r18, 0x7E	; 126
    3690:	32 e0       	ldi	r19, 0x02	; 2
    3692:	41 e0       	ldi	r20, 0x01	; 1
    3694:	62 e0       	ldi	r22, 0x02	; 2
    3696:	82 e0       	ldi	r24, 0x02	; 2
    3698:	0e 94 0e 15 	call	0x2a1c	; 0x2a1c <_Z9Lcd_printhh11LcdFontSizePh>
		Lcd_print(2, 3, FONT_1X,(unsigned char *)" .");
    369c:	2a e8       	ldi	r18, 0x8A	; 138
    369e:	32 e0       	ldi	r19, 0x02	; 2
    36a0:	41 e0       	ldi	r20, 0x01	; 1
    36a2:	63 e0       	ldi	r22, 0x03	; 3
    36a4:	82 e0       	ldi	r24, 0x02	; 2
    36a6:	0e 94 0e 15 	call	0x2a1c	; 0x2a1c <_Z9Lcd_printhh11LcdFontSizePh>
		Lcd_print(2, 4, FONT_1X,(unsigned char *)"");
    36aa:	2d e8       	ldi	r18, 0x8D	; 141
    36ac:	31 e0       	ldi	r19, 0x01	; 1
    36ae:	41 e0       	ldi	r20, 0x01	; 1
    36b0:	64 e0       	ldi	r22, 0x04	; 4
    36b2:	82 e0       	ldi	r24, 0x02	; 2
    36b4:	0e 94 0e 15 	call	0x2a1c	; 0x2a1c <_Z9Lcd_printhh11LcdFontSizePh>
    36b8:	08 95       	ret
	}else{
		Lcd_print(3, 0, FONT_1X,(unsigned char *)"");
    36ba:	2b e6       	ldi	r18, 0x6B	; 107
    36bc:	32 e0       	ldi	r19, 0x02	; 2
    36be:	41 e0       	ldi	r20, 0x01	; 1
    36c0:	60 e0       	ldi	r22, 0x00	; 0
    36c2:	83 e0       	ldi	r24, 0x03	; 3
    36c4:	0e 94 0e 15 	call	0x2a1c	; 0x2a1c <_Z9Lcd_printhh11LcdFontSizePh>
		Lcd_print(2, 1, FONT_1X,(unsigned char *)"");
    36c8:	20 e0       	ldi	r18, 0x00	; 0
    36ca:	31 e0       	ldi	r19, 0x01	; 1
    36cc:	41 e0       	ldi	r20, 0x01	; 1
    36ce:	61 e0       	ldi	r22, 0x01	; 1
    36d0:	82 e0       	ldi	r24, 0x02	; 2
    36d2:	0e 94 0e 15 	call	0x2a1c	; 0x2a1c <_Z9Lcd_printhh11LcdFontSizePh>
		Lcd_print(2, 2, FONT_1X,(unsigned char *)"");
    36d6:	25 e1       	ldi	r18, 0x15	; 21
    36d8:	31 e0       	ldi	r19, 0x01	; 1
    36da:	41 e0       	ldi	r20, 0x01	; 1
    36dc:	62 e0       	ldi	r22, 0x02	; 2
    36de:	82 e0       	ldi	r24, 0x02	; 2
    36e0:	0e 94 0e 15 	call	0x2a1c	; 0x2a1c <_Z9Lcd_printhh11LcdFontSizePh>
		Lcd_print(2, 3, FONT_1X,(unsigned char *)"");
    36e4:	29 e2       	ldi	r18, 0x29	; 41
    36e6:	31 e0       	ldi	r19, 0x01	; 1
    36e8:	41 e0       	ldi	r20, 0x01	; 1
    36ea:	63 e0       	ldi	r22, 0x03	; 3
    36ec:	82 e0       	ldi	r24, 0x02	; 2
    36ee:	0e 94 0e 15 	call	0x2a1c	; 0x2a1c <_Z9Lcd_printhh11LcdFontSizePh>
		Lcd_print(2, 4, FONT_1X,(unsigned char *)"");
    36f2:	2c e5       	ldi	r18, 0x5C	; 92
    36f4:	31 e0       	ldi	r19, 0x01	; 1
    36f6:	41 e0       	ldi	r20, 0x01	; 1
    36f8:	64 e0       	ldi	r22, 0x04	; 4
    36fa:	82 e0       	ldi	r24, 0x02	; 2
    36fc:	0e 94 0e 15 	call	0x2a1c	; 0x2a1c <_Z9Lcd_printhh11LcdFontSizePh>
		Lcd_print(2, 5, FONT_1X,(unsigned char *)"");
    3700:	2d e8       	ldi	r18, 0x8D	; 141
    3702:	31 e0       	ldi	r19, 0x01	; 1
    3704:	41 e0       	ldi	r20, 0x01	; 1
    3706:	65 e0       	ldi	r22, 0x05	; 5
    3708:	82 e0       	ldi	r24, 0x02	; 2
    370a:	0e 94 0e 15 	call	0x2a1c	; 0x2a1c <_Z9Lcd_printhh11LcdFontSizePh>
    370e:	08 95       	ret

00003710 <_ZN6Screen14Draw_icon_menuEv>:
// ******************************************************
//              HELPERS
// ******************************************************

void Screen::Draw_icon_menu(){
	LcdGotoXY(6,0);
    3710:	60 e0       	ldi	r22, 0x00	; 0
    3712:	86 e0       	ldi	r24, 0x06	; 6
    3714:	0e 94 ce 13 	call	0x279c	; 0x279c <_Z9LcdGotoXYhh>
	LcdChr_full(0x9E);
    3718:	8e e9       	ldi	r24, 0x9E	; 158
    371a:	0e 94 e9 13 	call	0x27d2	; 0x27d2 <_Z11LcdChr_fullh>
	LcdGotoXY(7,0);
    371e:	60 e0       	ldi	r22, 0x00	; 0
    3720:	87 e0       	ldi	r24, 0x07	; 7
    3722:	0e 94 ce 13 	call	0x279c	; 0x279c <_Z9LcdGotoXYhh>
	LcdChr_full(0x9F);
    3726:	8f e9       	ldi	r24, 0x9F	; 159
    3728:	0e 94 e9 13 	call	0x27d2	; 0x27d2 <_Z11LcdChr_fullh>
    372c:	08 95       	ret

0000372e <_ZN6Screen17Draw_icon_carrageER8Activity>:
}

void Screen::Draw_icon_carrage(Activity &activity){
	if (!(activity.Statment == SCREEN_ADJUST) ){
    372e:	fb 01       	movw	r30, r22
    3730:	80 81       	ld	r24, Z
    3732:	82 30       	cpi	r24, 0x02	; 2
    3734:	51 f0       	breq	.+20     	; 0x374a <_ZN6Screen17Draw_icon_carrageER8Activity+0x1c>
		LcdGotoXY(6,5);LcdChr_full(0xA3);LcdChr_full(0xA4);
    3736:	65 e0       	ldi	r22, 0x05	; 5
    3738:	86 e0       	ldi	r24, 0x06	; 6
    373a:	0e 94 ce 13 	call	0x279c	; 0x279c <_Z9LcdGotoXYhh>
    373e:	83 ea       	ldi	r24, 0xA3	; 163
    3740:	0e 94 e9 13 	call	0x27d2	; 0x27d2 <_Z11LcdChr_fullh>
    3744:	84 ea       	ldi	r24, 0xA4	; 164
    3746:	0e 94 e9 13 	call	0x27d2	; 0x27d2 <_Z11LcdChr_fullh>
    374a:	08 95       	ret

0000374c <_ZN6Screen10Draw_WheelE5Wheel>:
	Draw_Wheel(carrage.Wheel_2);
	Draw_Wheel(carrage.Wheel_3);
	Draw_Wheel(carrage.Wheel_4);
}

void Screen::Draw_Wheel(Wheel wheel){
    374c:	af 92       	push	r10
    374e:	bf 92       	push	r11
    3750:	cf 92       	push	r12
    3752:	df 92       	push	r13
    3754:	ef 92       	push	r14
    3756:	ff 92       	push	r15
    3758:	0f 93       	push	r16
    375a:	1f 93       	push	r17
    375c:	cf 93       	push	r28
    375e:	df 93       	push	r29
    3760:	cd b7       	in	r28, 0x3d	; 61
    3762:	de b7       	in	r29, 0x3e	; 62
    3764:	2c 97       	sbiw	r28, 0x0c	; 12
    3766:	0f b6       	in	r0, 0x3f	; 63
    3768:	f8 94       	cli
    376a:	de bf       	out	0x3e, r29	; 62
    376c:	0f be       	out	0x3f, r0	; 63
    376e:	cd bf       	out	0x3d, r28	; 61
	int pos_y;
	int hight_pos_x;
	int hight_pos_y;
	int Char_wheel[6];
	//get position
	switch(wheel.number){
    3770:	89 8d       	ldd	r24, Y+25	; 0x19
    3772:	9a 8d       	ldd	r25, Y+26	; 0x1a
    3774:	82 30       	cpi	r24, 0x02	; 2
    3776:	91 05       	cpc	r25, r1
    3778:	99 f0       	breq	.+38     	; 0x37a0 <_ZN6Screen10Draw_WheelE5Wheel+0x54>
    377a:	1c f4       	brge	.+6      	; 0x3782 <_ZN6Screen10Draw_WheelE5Wheel+0x36>
    377c:	01 97       	sbiw	r24, 0x01	; 1
    377e:	39 f0       	breq	.+14     	; 0x378e <_ZN6Screen10Draw_WheelE5Wheel+0x42>
    3780:	31 c0       	rjmp	.+98     	; 0x37e4 <_ZN6Screen10Draw_WheelE5Wheel+0x98>
    3782:	83 30       	cpi	r24, 0x03	; 3
    3784:	91 05       	cpc	r25, r1
    3786:	c1 f0       	breq	.+48     	; 0x37b8 <_ZN6Screen10Draw_WheelE5Wheel+0x6c>
    3788:	04 97       	sbiw	r24, 0x04	; 4
    378a:	19 f1       	breq	.+70     	; 0x37d2 <_ZN6Screen10Draw_WheelE5Wheel+0x86>
    378c:	2b c0       	rjmp	.+86     	; 0x37e4 <_ZN6Screen10Draw_WheelE5Wheel+0x98>
		case 1:pos_x  = 3;pos_y = 0; hight_pos_x = 0; hight_pos_y = 1 ; break;
    378e:	cc 24       	eor	r12, r12
    3790:	c3 94       	inc	r12
    3792:	a1 2c       	mov	r10, r1
    3794:	00 e0       	ldi	r16, 0x00	; 0
    3796:	0f 2e       	mov	r0, r31
    3798:	f3 e0       	ldi	r31, 0x03	; 3
    379a:	df 2e       	mov	r13, r31
    379c:	f0 2d       	mov	r31, r0
    379e:	22 c0       	rjmp	.+68     	; 0x37e4 <_ZN6Screen10Draw_WheelE5Wheel+0x98>
		case 2:pos_x  = 9;pos_y = 0; hight_pos_x = 11; hight_pos_y = 1 ;break;
    37a0:	cc 24       	eor	r12, r12
    37a2:	c3 94       	inc	r12
    37a4:	0f 2e       	mov	r0, r31
    37a6:	fb e0       	ldi	r31, 0x0B	; 11
    37a8:	af 2e       	mov	r10, r31
    37aa:	f0 2d       	mov	r31, r0
    37ac:	00 e0       	ldi	r16, 0x00	; 0
    37ae:	0f 2e       	mov	r0, r31
    37b0:	f9 e0       	ldi	r31, 0x09	; 9
    37b2:	df 2e       	mov	r13, r31
    37b4:	f0 2d       	mov	r31, r0
    37b6:	16 c0       	rjmp	.+44     	; 0x37e4 <_ZN6Screen10Draw_WheelE5Wheel+0x98>
		case 3:pos_x  = 9;pos_y = 3; hight_pos_x = 11; hight_pos_y = 4 ;break;
    37b8:	68 94       	set
    37ba:	cc 24       	eor	r12, r12
    37bc:	c2 f8       	bld	r12, 2
    37be:	0f 2e       	mov	r0, r31
    37c0:	fb e0       	ldi	r31, 0x0B	; 11
    37c2:	af 2e       	mov	r10, r31
    37c4:	f0 2d       	mov	r31, r0
    37c6:	03 e0       	ldi	r16, 0x03	; 3
    37c8:	0f 2e       	mov	r0, r31
    37ca:	f9 e0       	ldi	r31, 0x09	; 9
    37cc:	df 2e       	mov	r13, r31
    37ce:	f0 2d       	mov	r31, r0
    37d0:	09 c0       	rjmp	.+18     	; 0x37e4 <_ZN6Screen10Draw_WheelE5Wheel+0x98>
		case 4:pos_x  = 3;pos_y = 3; hight_pos_x = 0; hight_pos_y = 4 ;break;
    37d2:	68 94       	set
    37d4:	cc 24       	eor	r12, r12
    37d6:	c2 f8       	bld	r12, 2
    37d8:	a1 2c       	mov	r10, r1
    37da:	03 e0       	ldi	r16, 0x03	; 3
    37dc:	0f 2e       	mov	r0, r31
    37de:	f3 e0       	ldi	r31, 0x03	; 3
    37e0:	df 2e       	mov	r13, r31
    37e2:	f0 2d       	mov	r31, r0
	}
	//get char of wheel
	if(wheel.malfuction){
    37e4:	8c a9       	ldd	r24, Y+52	; 0x34
    37e6:	88 23       	and	r24, r24
    37e8:	a9 f1       	breq	.+106    	; 0x3854 <_ZN6Screen10Draw_WheelE5Wheel+0x108>
		if(wheel.selected){
    37ea:	8b a9       	ldd	r24, Y+51	; 0x33
    37ec:	88 23       	and	r24, r24
    37ee:	c9 f0       	breq	.+50     	; 0x3822 <_ZN6Screen10Draw_WheelE5Wheel+0xd6>
			Char_wheel[0] = 0xA7;
    37f0:	87 ea       	ldi	r24, 0xA7	; 167
    37f2:	90 e0       	ldi	r25, 0x00	; 0
    37f4:	9a 83       	std	Y+2, r25	; 0x02
    37f6:	89 83       	std	Y+1, r24	; 0x01
			Char_wheel[1] = 0xA8;
    37f8:	88 ea       	ldi	r24, 0xA8	; 168
    37fa:	90 e0       	ldi	r25, 0x00	; 0
    37fc:	9c 83       	std	Y+4, r25	; 0x04
    37fe:	8b 83       	std	Y+3, r24	; 0x03
			Char_wheel[2] = 0xA9;
    3800:	89 ea       	ldi	r24, 0xA9	; 169
    3802:	90 e0       	ldi	r25, 0x00	; 0
    3804:	9e 83       	std	Y+6, r25	; 0x06
    3806:	8d 83       	std	Y+5, r24	; 0x05
			Char_wheel[3] = 0xAA;
    3808:	8a ea       	ldi	r24, 0xAA	; 170
    380a:	90 e0       	ldi	r25, 0x00	; 0
    380c:	98 87       	std	Y+8, r25	; 0x08
    380e:	8f 83       	std	Y+7, r24	; 0x07
			Char_wheel[4] = 0xAB;
    3810:	8b ea       	ldi	r24, 0xAB	; 171
    3812:	90 e0       	ldi	r25, 0x00	; 0
    3814:	9a 87       	std	Y+10, r25	; 0x0a
    3816:	89 87       	std	Y+9, r24	; 0x09
			Char_wheel[5] = 0xAC;			
    3818:	8c ea       	ldi	r24, 0xAC	; 172
    381a:	90 e0       	ldi	r25, 0x00	; 0
    381c:	9c 87       	std	Y+12, r25	; 0x0c
    381e:	8b 87       	std	Y+11, r24	; 0x0b
    3820:	7c c0       	rjmp	.+248    	; 0x391a <_ZN6Screen10Draw_WheelE5Wheel+0x1ce>
		}else{
			Char_wheel[0] = 0x8C;
    3822:	8c e8       	ldi	r24, 0x8C	; 140
    3824:	90 e0       	ldi	r25, 0x00	; 0
    3826:	9a 83       	std	Y+2, r25	; 0x02
    3828:	89 83       	std	Y+1, r24	; 0x01
			Char_wheel[1] = 0x8D;
    382a:	8d e8       	ldi	r24, 0x8D	; 141
    382c:	90 e0       	ldi	r25, 0x00	; 0
    382e:	9c 83       	std	Y+4, r25	; 0x04
    3830:	8b 83       	std	Y+3, r24	; 0x03
			Char_wheel[2] = 0x8E;
    3832:	8e e8       	ldi	r24, 0x8E	; 142
    3834:	90 e0       	ldi	r25, 0x00	; 0
    3836:	9e 83       	std	Y+6, r25	; 0x06
    3838:	8d 83       	std	Y+5, r24	; 0x05
			Char_wheel[3] = 0x8F;
    383a:	8f e8       	ldi	r24, 0x8F	; 143
    383c:	90 e0       	ldi	r25, 0x00	; 0
    383e:	98 87       	std	Y+8, r25	; 0x08
    3840:	8f 83       	std	Y+7, r24	; 0x07
			Char_wheel[4] = 0x90;
    3842:	80 e9       	ldi	r24, 0x90	; 144
    3844:	90 e0       	ldi	r25, 0x00	; 0
    3846:	9a 87       	std	Y+10, r25	; 0x0a
    3848:	89 87       	std	Y+9, r24	; 0x09
			Char_wheel[5] = 0x91;
    384a:	81 e9       	ldi	r24, 0x91	; 145
    384c:	90 e0       	ldi	r25, 0x00	; 0
    384e:	9c 87       	std	Y+12, r25	; 0x0c
    3850:	8b 87       	std	Y+11, r24	; 0x0b
    3852:	63 c0       	rjmp	.+198    	; 0x391a <_ZN6Screen10Draw_WheelE5Wheel+0x1ce>
		}
	} else if (wheel.selected){
    3854:	8b a9       	ldd	r24, Y+51	; 0x33
    3856:	88 23       	and	r24, r24
    3858:	c9 f0       	breq	.+50     	; 0x388c <_ZN6Screen10Draw_WheelE5Wheel+0x140>
		Char_wheel[0] = 0x80;
    385a:	80 e8       	ldi	r24, 0x80	; 128
    385c:	90 e0       	ldi	r25, 0x00	; 0
    385e:	9a 83       	std	Y+2, r25	; 0x02
    3860:	89 83       	std	Y+1, r24	; 0x01
		Char_wheel[1] = 0x81;
    3862:	81 e8       	ldi	r24, 0x81	; 129
    3864:	90 e0       	ldi	r25, 0x00	; 0
    3866:	9c 83       	std	Y+4, r25	; 0x04
    3868:	8b 83       	std	Y+3, r24	; 0x03
		Char_wheel[2] = 0x82;
    386a:	82 e8       	ldi	r24, 0x82	; 130
    386c:	90 e0       	ldi	r25, 0x00	; 0
    386e:	9e 83       	std	Y+6, r25	; 0x06
    3870:	8d 83       	std	Y+5, r24	; 0x05
		Char_wheel[3] = 0x83;
    3872:	83 e8       	ldi	r24, 0x83	; 131
    3874:	90 e0       	ldi	r25, 0x00	; 0
    3876:	98 87       	std	Y+8, r25	; 0x08
    3878:	8f 83       	std	Y+7, r24	; 0x07
		Char_wheel[4] = 0x84;
    387a:	84 e8       	ldi	r24, 0x84	; 132
    387c:	90 e0       	ldi	r25, 0x00	; 0
    387e:	9a 87       	std	Y+10, r25	; 0x0a
    3880:	89 87       	std	Y+9, r24	; 0x09
		Char_wheel[5] = 0x85;
    3882:	85 e8       	ldi	r24, 0x85	; 133
    3884:	90 e0       	ldi	r25, 0x00	; 0
    3886:	9c 87       	std	Y+12, r25	; 0x0c
    3888:	8b 87       	std	Y+11, r24	; 0x0b
    388a:	47 c0       	rjmp	.+142    	; 0x391a <_ZN6Screen10Draw_WheelE5Wheel+0x1ce>
	} else {
		Char_wheel[0] = 0x86;
    388c:	86 e8       	ldi	r24, 0x86	; 134
    388e:	90 e0       	ldi	r25, 0x00	; 0
    3890:	9a 83       	std	Y+2, r25	; 0x02
    3892:	89 83       	std	Y+1, r24	; 0x01
		Char_wheel[1] = 0x87;
    3894:	87 e8       	ldi	r24, 0x87	; 135
    3896:	90 e0       	ldi	r25, 0x00	; 0
    3898:	9c 83       	std	Y+4, r25	; 0x04
    389a:	8b 83       	std	Y+3, r24	; 0x03
		Char_wheel[2] = 0x88;
    389c:	88 e8       	ldi	r24, 0x88	; 136
    389e:	90 e0       	ldi	r25, 0x00	; 0
    38a0:	9e 83       	std	Y+6, r25	; 0x06
    38a2:	8d 83       	std	Y+5, r24	; 0x05
		Char_wheel[3] = 0x89;
    38a4:	89 e8       	ldi	r24, 0x89	; 137
    38a6:	90 e0       	ldi	r25, 0x00	; 0
    38a8:	98 87       	std	Y+8, r25	; 0x08
    38aa:	8f 83       	std	Y+7, r24	; 0x07
		Char_wheel[4] = 0x8A;
    38ac:	8a e8       	ldi	r24, 0x8A	; 138
    38ae:	90 e0       	ldi	r25, 0x00	; 0
    38b0:	9a 87       	std	Y+10, r25	; 0x0a
    38b2:	89 87       	std	Y+9, r24	; 0x09
		Char_wheel[5] = 0x8B;
    38b4:	8b e8       	ldi	r24, 0x8B	; 139
    38b6:	90 e0       	ldi	r25, 0x00	; 0
    38b8:	9c 87       	std	Y+12, r25	; 0x0c
    38ba:	8b 87       	std	Y+11, r24	; 0x0b
    38bc:	2e c0       	rjmp	.+92     	; 0x391a <_ZN6Screen10Draw_WheelE5Wheel+0x1ce>
	}

	//draw wheel 2 symbols for cycle 
	for ( i = 0; i <= 4; i = i + 2 ){
		LcdGotoXY(pos_x, pos_y);
    38be:	61 2f       	mov	r22, r17
    38c0:	8d 2d       	mov	r24, r13
    38c2:	0e 94 ce 13 	call	0x279c	; 0x279c <_Z9LcdGotoXYhh>
		LcdChr_full(Char_wheel[i]);
    38c6:	f7 01       	movw	r30, r14
    38c8:	80 81       	ld	r24, Z
    38ca:	0e 94 e9 13 	call	0x27d2	; 0x27d2 <_Z11LcdChr_fullh>
		LcdGotoXY(pos_x + 1, pos_y);
    38ce:	61 2f       	mov	r22, r17
    38d0:	8b 2d       	mov	r24, r11
    38d2:	0e 94 ce 13 	call	0x279c	; 0x279c <_Z9LcdGotoXYhh>
		LcdChr_full(Char_wheel[i+1]); 
    38d6:	f7 01       	movw	r30, r14
    38d8:	82 81       	ldd	r24, Z+2	; 0x02
    38da:	0e 94 e9 13 	call	0x27d2	; 0x27d2 <_Z11LcdChr_fullh>
    38de:	1f 5f       	subi	r17, 0xFF	; 255
    38e0:	f4 e0       	ldi	r31, 0x04	; 4
    38e2:	ef 0e       	add	r14, r31
    38e4:	f1 1c       	adc	r15, r1
		Char_wheel[4] = 0x8A;
		Char_wheel[5] = 0x8B;
	}

	//draw wheel 2 symbols for cycle 
	for ( i = 0; i <= 4; i = i + 2 ){
    38e6:	10 13       	cpse	r17, r16
    38e8:	ea cf       	rjmp	.-44     	; 0x38be <_ZN6Screen10Draw_WheelE5Wheel+0x172>
		LcdGotoXY(pos_x + 1, pos_y);
		LcdChr_full(Char_wheel[i+1]); 
		pos_y ++;
	}
	//print hight wheel	
	float hight = wheel.get_hight();	
    38ea:	ce 01       	movw	r24, r28
    38ec:	49 96       	adiw	r24, 0x19	; 25
    38ee:	0e 94 24 21 	call	0x4248	; 0x4248 <_ZN5Wheel9get_hightEv>
    38f2:	8b 01       	movw	r16, r22
    38f4:	9c 01       	movw	r18, r24
	Lcd_printf2(hight_pos_x, hight_pos_y, FONT_1X, hight, 2);	
    38f6:	68 94       	set
    38f8:	ee 24       	eor	r14, r14
    38fa:	e1 f8       	bld	r14, 1
    38fc:	f1 2c       	mov	r15, r1
    38fe:	41 e0       	ldi	r20, 0x01	; 1
    3900:	6c 2d       	mov	r22, r12
    3902:	8a 2d       	mov	r24, r10
    3904:	0e 94 72 15 	call	0x2ae4	; 0x2ae4 <_Z11Lcd_printf2hh11LcdFontSizefi>
	//print point
	LcdGotoXY(hight_pos_x , hight_pos_y + 1 );
    3908:	61 e0       	ldi	r22, 0x01	; 1
    390a:	6c 0d       	add	r22, r12
    390c:	8a 2d       	mov	r24, r10
    390e:	0e 94 ce 13 	call	0x279c	; 0x279c <_Z9LcdGotoXYhh>
	LcdChr_full(0xA0);	
    3912:	80 ea       	ldi	r24, 0xA0	; 160
    3914:	0e 94 e9 13 	call	0x27d2	; 0x27d2 <_Z11LcdChr_fullh>
}
    3918:	09 c0       	rjmp	.+18     	; 0x392c <_ZN6Screen10Draw_WheelE5Wheel+0x1e0>
    391a:	10 2f       	mov	r17, r16
    391c:	ce 01       	movw	r24, r28
    391e:	01 96       	adiw	r24, 0x01	; 1
    3920:	7c 01       	movw	r14, r24
    3922:	0d 5f       	subi	r16, 0xFD	; 253

	//draw wheel 2 symbols for cycle 
	for ( i = 0; i <= 4; i = i + 2 ){
		LcdGotoXY(pos_x, pos_y);
		LcdChr_full(Char_wheel[i]);
		LcdGotoXY(pos_x + 1, pos_y);
    3924:	bb 24       	eor	r11, r11
    3926:	b3 94       	inc	r11
    3928:	bd 0c       	add	r11, r13
    392a:	c9 cf       	rjmp	.-110    	; 0x38be <_ZN6Screen10Draw_WheelE5Wheel+0x172>
	float hight = wheel.get_hight();	
	Lcd_printf2(hight_pos_x, hight_pos_y, FONT_1X, hight, 2);	
	//print point
	LcdGotoXY(hight_pos_x , hight_pos_y + 1 );
	LcdChr_full(0xA0);	
}
    392c:	2c 96       	adiw	r28, 0x0c	; 12
    392e:	0f b6       	in	r0, 0x3f	; 63
    3930:	f8 94       	cli
    3932:	de bf       	out	0x3e, r29	; 62
    3934:	0f be       	out	0x3f, r0	; 63
    3936:	cd bf       	out	0x3d, r28	; 61
    3938:	df 91       	pop	r29
    393a:	cf 91       	pop	r28
    393c:	1f 91       	pop	r17
    393e:	0f 91       	pop	r16
    3940:	ff 90       	pop	r15
    3942:	ef 90       	pop	r14
    3944:	df 90       	pop	r13
    3946:	cf 90       	pop	r12
    3948:	bf 90       	pop	r11
    394a:	af 90       	pop	r10
    394c:	08 95       	ret

0000394e <_ZN6Screen12Draw_CarrageER7Carrage>:
	};
}



void Screen::Draw_Carrage(Carrage &carrage){
    394e:	0f 93       	push	r16
    3950:	1f 93       	push	r17
    3952:	cf 93       	push	r28
    3954:	df 93       	push	r29
    3956:	8c 01       	movw	r16, r24
    3958:	eb 01       	movw	r28, r22
	Draw_Wheel(carrage.Wheel_1);
    395a:	8d b7       	in	r24, 0x3d	; 61
    395c:	9e b7       	in	r25, 0x3e	; 62
    395e:	8b 97       	sbiw	r24, 0x2b	; 43
    3960:	0f b6       	in	r0, 0x3f	; 63
    3962:	f8 94       	cli
    3964:	9e bf       	out	0x3e, r25	; 62
    3966:	0f be       	out	0x3f, r0	; 63
    3968:	8d bf       	out	0x3d, r24	; 61
    396a:	ad b7       	in	r26, 0x3d	; 61
    396c:	be b7       	in	r27, 0x3e	; 62
    396e:	11 96       	adiw	r26, 0x01	; 1
    3970:	8b e2       	ldi	r24, 0x2B	; 43
    3972:	fb 01       	movw	r30, r22
    3974:	01 90       	ld	r0, Z+
    3976:	0d 92       	st	X+, r0
    3978:	8a 95       	dec	r24
    397a:	e1 f7       	brne	.-8      	; 0x3974 <_ZN6Screen12Draw_CarrageER7Carrage+0x26>
    397c:	c8 01       	movw	r24, r16
    397e:	0e 94 a6 1b 	call	0x374c	; 0x374c <_ZN6Screen10Draw_WheelE5Wheel>
	Draw_Wheel(carrage.Wheel_2);
    3982:	8d b7       	in	r24, 0x3d	; 61
    3984:	9e b7       	in	r25, 0x3e	; 62
    3986:	8b 96       	adiw	r24, 0x2b	; 43
    3988:	0f b6       	in	r0, 0x3f	; 63
    398a:	f8 94       	cli
    398c:	9e bf       	out	0x3e, r25	; 62
    398e:	0f be       	out	0x3f, r0	; 63
    3990:	8d bf       	out	0x3d, r24	; 61
    3992:	8b 97       	sbiw	r24, 0x2b	; 43
    3994:	0f b6       	in	r0, 0x3f	; 63
    3996:	f8 94       	cli
    3998:	9e bf       	out	0x3e, r25	; 62
    399a:	0f be       	out	0x3f, r0	; 63
    399c:	8d bf       	out	0x3d, r24	; 61
    399e:	ad b7       	in	r26, 0x3d	; 61
    39a0:	be b7       	in	r27, 0x3e	; 62
    39a2:	11 96       	adiw	r26, 0x01	; 1
    39a4:	8b e2       	ldi	r24, 0x2B	; 43
    39a6:	fe 01       	movw	r30, r28
    39a8:	bb 96       	adiw	r30, 0x2b	; 43
    39aa:	01 90       	ld	r0, Z+
    39ac:	0d 92       	st	X+, r0
    39ae:	8a 95       	dec	r24
    39b0:	e1 f7       	brne	.-8      	; 0x39aa <_ZN6Screen12Draw_CarrageER7Carrage+0x5c>
    39b2:	c8 01       	movw	r24, r16
    39b4:	0e 94 a6 1b 	call	0x374c	; 0x374c <_ZN6Screen10Draw_WheelE5Wheel>
	Draw_Wheel(carrage.Wheel_3);
    39b8:	8d b7       	in	r24, 0x3d	; 61
    39ba:	9e b7       	in	r25, 0x3e	; 62
    39bc:	8b 96       	adiw	r24, 0x2b	; 43
    39be:	0f b6       	in	r0, 0x3f	; 63
    39c0:	f8 94       	cli
    39c2:	9e bf       	out	0x3e, r25	; 62
    39c4:	0f be       	out	0x3f, r0	; 63
    39c6:	8d bf       	out	0x3d, r24	; 61
    39c8:	fe 01       	movw	r30, r28
    39ca:	ea 5a       	subi	r30, 0xAA	; 170
    39cc:	ff 4f       	sbci	r31, 0xFF	; 255
    39ce:	8b 97       	sbiw	r24, 0x2b	; 43
    39d0:	0f b6       	in	r0, 0x3f	; 63
    39d2:	f8 94       	cli
    39d4:	9e bf       	out	0x3e, r25	; 62
    39d6:	0f be       	out	0x3f, r0	; 63
    39d8:	8d bf       	out	0x3d, r24	; 61
    39da:	ad b7       	in	r26, 0x3d	; 61
    39dc:	be b7       	in	r27, 0x3e	; 62
    39de:	11 96       	adiw	r26, 0x01	; 1
    39e0:	8b e2       	ldi	r24, 0x2B	; 43
    39e2:	01 90       	ld	r0, Z+
    39e4:	0d 92       	st	X+, r0
    39e6:	8a 95       	dec	r24
    39e8:	e1 f7       	brne	.-8      	; 0x39e2 <_ZN6Screen12Draw_CarrageER7Carrage+0x94>
    39ea:	c8 01       	movw	r24, r16
    39ec:	0e 94 a6 1b 	call	0x374c	; 0x374c <_ZN6Screen10Draw_WheelE5Wheel>
	Draw_Wheel(carrage.Wheel_4);
    39f0:	8d b7       	in	r24, 0x3d	; 61
    39f2:	9e b7       	in	r25, 0x3e	; 62
    39f4:	8b 96       	adiw	r24, 0x2b	; 43
    39f6:	0f b6       	in	r0, 0x3f	; 63
    39f8:	f8 94       	cli
    39fa:	9e bf       	out	0x3e, r25	; 62
    39fc:	0f be       	out	0x3f, r0	; 63
    39fe:	8d bf       	out	0x3d, r24	; 61
    3a00:	fe 01       	movw	r30, r28
    3a02:	ef 57       	subi	r30, 0x7F	; 127
    3a04:	ff 4f       	sbci	r31, 0xFF	; 255
    3a06:	8b 97       	sbiw	r24, 0x2b	; 43
    3a08:	0f b6       	in	r0, 0x3f	; 63
    3a0a:	f8 94       	cli
    3a0c:	9e bf       	out	0x3e, r25	; 62
    3a0e:	0f be       	out	0x3f, r0	; 63
    3a10:	8d bf       	out	0x3d, r24	; 61
    3a12:	ad b7       	in	r26, 0x3d	; 61
    3a14:	be b7       	in	r27, 0x3e	; 62
    3a16:	11 96       	adiw	r26, 0x01	; 1
    3a18:	8b e2       	ldi	r24, 0x2B	; 43
    3a1a:	01 90       	ld	r0, Z+
    3a1c:	0d 92       	st	X+, r0
    3a1e:	8a 95       	dec	r24
    3a20:	e1 f7       	brne	.-8      	; 0x3a1a <_ZN6Screen12Draw_CarrageER7Carrage+0xcc>
    3a22:	c8 01       	movw	r24, r16
    3a24:	0e 94 a6 1b 	call	0x374c	; 0x374c <_ZN6Screen10Draw_WheelE5Wheel>
}
    3a28:	8d b7       	in	r24, 0x3d	; 61
    3a2a:	9e b7       	in	r25, 0x3e	; 62
    3a2c:	8b 96       	adiw	r24, 0x2b	; 43
    3a2e:	0f b6       	in	r0, 0x3f	; 63
    3a30:	f8 94       	cli
    3a32:	9e bf       	out	0x3e, r25	; 62
    3a34:	0f be       	out	0x3f, r0	; 63
    3a36:	8d bf       	out	0x3d, r24	; 61
    3a38:	df 91       	pop	r29
    3a3a:	cf 91       	pop	r28
    3a3c:	1f 91       	pop	r17
    3a3e:	0f 91       	pop	r16
    3a40:	08 95       	ret

00003a42 <_ZN6Screen23Draw_adjustment_carrageER8Activity>:
	LcdChr_full(0xA0);	
}

void Screen::Draw_adjustment_carrage(Activity &activity){
	int statment = activity.Statment;
	if (statment == SCREEN_ADJUST){
    3a42:	fb 01       	movw	r30, r22
    3a44:	80 81       	ld	r24, Z
    3a46:	82 30       	cpi	r24, 0x02	; 2
    3a48:	e9 f4       	brne	.+58     	; 0x3a84 <_ZN6Screen23Draw_adjustment_carrageER8Activity+0x42>
		LcdGotoXY(6,2);
    3a4a:	62 e0       	ldi	r22, 0x02	; 2
    3a4c:	86 e0       	ldi	r24, 0x06	; 6
    3a4e:	0e 94 ce 13 	call	0x279c	; 0x279c <_Z9LcdGotoXYhh>
		LcdChr_full(0x96);
    3a52:	86 e9       	ldi	r24, 0x96	; 150
    3a54:	0e 94 e9 13 	call	0x27d2	; 0x27d2 <_Z11LcdChr_fullh>
		LcdGotoXY(7,2);
    3a58:	62 e0       	ldi	r22, 0x02	; 2
    3a5a:	87 e0       	ldi	r24, 0x07	; 7
    3a5c:	0e 94 ce 13 	call	0x279c	; 0x279c <_Z9LcdGotoXYhh>
		LcdChr_full(0x97);
    3a60:	87 e9       	ldi	r24, 0x97	; 151
    3a62:	0e 94 e9 13 	call	0x27d2	; 0x27d2 <_Z11LcdChr_fullh>
		LcdGotoXY(6,3);
    3a66:	63 e0       	ldi	r22, 0x03	; 3
    3a68:	86 e0       	ldi	r24, 0x06	; 6
    3a6a:	0e 94 ce 13 	call	0x279c	; 0x279c <_Z9LcdGotoXYhh>
		LcdChr_full(0x98);
    3a6e:	88 e9       	ldi	r24, 0x98	; 152
    3a70:	0e 94 e9 13 	call	0x27d2	; 0x27d2 <_Z11LcdChr_fullh>
		LcdGotoXY(7,3);
    3a74:	63 e0       	ldi	r22, 0x03	; 3
    3a76:	87 e0       	ldi	r24, 0x07	; 7
    3a78:	0e 94 ce 13 	call	0x279c	; 0x279c <_Z9LcdGotoXYhh>
		LcdChr_full(0x99);
    3a7c:	89 e9       	ldi	r24, 0x99	; 153
    3a7e:	0e 94 e9 13 	call	0x27d2	; 0x27d2 <_Z11LcdChr_fullh>
    3a82:	08 95       	ret
	} else {
		LcdGotoXY(6,2);
    3a84:	62 e0       	ldi	r22, 0x02	; 2
    3a86:	86 e0       	ldi	r24, 0x06	; 6
    3a88:	0e 94 ce 13 	call	0x279c	; 0x279c <_Z9LcdGotoXYhh>
		LcdChr_full(0x92);
    3a8c:	82 e9       	ldi	r24, 0x92	; 146
    3a8e:	0e 94 e9 13 	call	0x27d2	; 0x27d2 <_Z11LcdChr_fullh>
		LcdGotoXY(7,2);
    3a92:	62 e0       	ldi	r22, 0x02	; 2
    3a94:	87 e0       	ldi	r24, 0x07	; 7
    3a96:	0e 94 ce 13 	call	0x279c	; 0x279c <_Z9LcdGotoXYhh>
		LcdChr_full(0x93);
    3a9a:	83 e9       	ldi	r24, 0x93	; 147
    3a9c:	0e 94 e9 13 	call	0x27d2	; 0x27d2 <_Z11LcdChr_fullh>
		LcdGotoXY(6,3);
    3aa0:	63 e0       	ldi	r22, 0x03	; 3
    3aa2:	86 e0       	ldi	r24, 0x06	; 6
    3aa4:	0e 94 ce 13 	call	0x279c	; 0x279c <_Z9LcdGotoXYhh>
		LcdChr_full(0x94);
    3aa8:	84 e9       	ldi	r24, 0x94	; 148
    3aaa:	0e 94 e9 13 	call	0x27d2	; 0x27d2 <_Z11LcdChr_fullh>
		LcdGotoXY(7,3);
    3aae:	63 e0       	ldi	r22, 0x03	; 3
    3ab0:	87 e0       	ldi	r24, 0x07	; 7
    3ab2:	0e 94 ce 13 	call	0x279c	; 0x279c <_Z9LcdGotoXYhh>
		LcdChr_full(0x95);
    3ab6:	85 e9       	ldi	r24, 0x95	; 149
    3ab8:	0e 94 e9 13 	call	0x27d2	; 0x27d2 <_Z11LcdChr_fullh>
    3abc:	08 95       	ret

00003abe <_ZN6Screen21Draw_CursorMenuScreenER8Activity>:
	
}

void Screen::Draw_CursorMenuScreen(Activity &activity){
	//LcdGotoXY(0,1);LcdChr_full(0x9B);
	switch(activity.Cursor){
    3abe:	db 01       	movw	r26, r22
    3ac0:	17 96       	adiw	r26, 0x07	; 7
    3ac2:	ec 91       	ld	r30, X
    3ac4:	8e 2f       	mov	r24, r30
    3ac6:	90 e0       	ldi	r25, 0x00	; 0
    3ac8:	81 31       	cpi	r24, 0x11	; 17
    3aca:	91 05       	cpc	r25, r1
    3acc:	08 f0       	brcs	.+2      	; 0x3ad0 <_ZN6Screen21Draw_CursorMenuScreenER8Activity+0x12>
    3ace:	8c c0       	rjmp	.+280    	; 0x3be8 <_ZN6Screen21Draw_CursorMenuScreenER8Activity+0x12a>
    3ad0:	fc 01       	movw	r30, r24
    3ad2:	e8 5b       	subi	r30, 0xB8	; 184
    3ad4:	ff 4f       	sbci	r31, 0xFF	; 255
    3ad6:	0c 94 35 25 	jmp	0x4a6a	; 0x4a6a <__tablejump2__>
		case(SAVE):LcdGotoXY(0,1);LcdChr_full(0x9B);break;
    3ada:	61 e0       	ldi	r22, 0x01	; 1
    3adc:	80 e0       	ldi	r24, 0x00	; 0
    3ade:	0e 94 ce 13 	call	0x279c	; 0x279c <_Z9LcdGotoXYhh>
    3ae2:	8b e9       	ldi	r24, 0x9B	; 155
    3ae4:	0e 94 e9 13 	call	0x27d2	; 0x27d2 <_Z11LcdChr_fullh>
    3ae8:	08 95       	ret
		case(SETPOSITION):LcdGotoXY(0,2);LcdChr_full(0x9B);break;
    3aea:	62 e0       	ldi	r22, 0x02	; 2
    3aec:	80 e0       	ldi	r24, 0x00	; 0
    3aee:	0e 94 ce 13 	call	0x279c	; 0x279c <_Z9LcdGotoXYhh>
    3af2:	8b e9       	ldi	r24, 0x9B	; 155
    3af4:	0e 94 e9 13 	call	0x27d2	; 0x27d2 <_Z11LcdChr_fullh>
    3af8:	08 95       	ret
		case(SETTINGS):LcdGotoXY(0,3);LcdChr_full(0x9B);break;
    3afa:	63 e0       	ldi	r22, 0x03	; 3
    3afc:	80 e0       	ldi	r24, 0x00	; 0
    3afe:	0e 94 ce 13 	call	0x279c	; 0x279c <_Z9LcdGotoXYhh>
    3b02:	8b e9       	ldi	r24, 0x9B	; 155
    3b04:	0e 94 e9 13 	call	0x27d2	; 0x27d2 <_Z11LcdChr_fullh>
    3b08:	08 95       	ret
		case(EXIT_1):LcdGotoXY(0,4);LcdChr_full(0x9B);break;
    3b0a:	64 e0       	ldi	r22, 0x04	; 4
    3b0c:	80 e0       	ldi	r24, 0x00	; 0
    3b0e:	0e 94 ce 13 	call	0x279c	; 0x279c <_Z9LcdGotoXYhh>
    3b12:	8b e9       	ldi	r24, 0x9B	; 155
    3b14:	0e 94 e9 13 	call	0x27d2	; 0x27d2 <_Z11LcdChr_fullh>
    3b18:	08 95       	ret
		
		case(PARKING_SAVE):LcdGotoXY(0,1);LcdChr_full(0x9B);break;
    3b1a:	61 e0       	ldi	r22, 0x01	; 1
    3b1c:	80 e0       	ldi	r24, 0x00	; 0
    3b1e:	0e 94 ce 13 	call	0x279c	; 0x279c <_Z9LcdGotoXYhh>
    3b22:	8b e9       	ldi	r24, 0x9B	; 155
    3b24:	0e 94 e9 13 	call	0x27d2	; 0x27d2 <_Z11LcdChr_fullh>
    3b28:	08 95       	ret
		case(HIGHTPOSITION_SAVE):LcdGotoXY(0,2);LcdChr_full(0x9B);break;
    3b2a:	62 e0       	ldi	r22, 0x02	; 2
    3b2c:	80 e0       	ldi	r24, 0x00	; 0
    3b2e:	0e 94 ce 13 	call	0x279c	; 0x279c <_Z9LcdGotoXYhh>
    3b32:	8b e9       	ldi	r24, 0x9B	; 155
    3b34:	0e 94 e9 13 	call	0x27d2	; 0x27d2 <_Z11LcdChr_fullh>
    3b38:	08 95       	ret
		case(EXIT_SAVE):LcdGotoXY(0,4);LcdChr_full(0x9B);break;
    3b3a:	64 e0       	ldi	r22, 0x04	; 4
    3b3c:	80 e0       	ldi	r24, 0x00	; 0
    3b3e:	0e 94 ce 13 	call	0x279c	; 0x279c <_Z9LcdGotoXYhh>
    3b42:	8b e9       	ldi	r24, 0x9B	; 155
    3b44:	0e 94 e9 13 	call	0x27d2	; 0x27d2 <_Z11LcdChr_fullh>
    3b48:	08 95       	ret
		case(LOWPOSITION_SAVE):LcdGotoXY(0,3);LcdChr_full(0x9B);break;
    3b4a:	63 e0       	ldi	r22, 0x03	; 3
    3b4c:	80 e0       	ldi	r24, 0x00	; 0
    3b4e:	0e 94 ce 13 	call	0x279c	; 0x279c <_Z9LcdGotoXYhh>
    3b52:	8b e9       	ldi	r24, 0x9B	; 155
    3b54:	0e 94 e9 13 	call	0x27d2	; 0x27d2 <_Z11LcdChr_fullh>
    3b58:	08 95       	ret
		
		case(PARKING_SET):LcdGotoXY(0,1);LcdChr_full(0x9B);break;
    3b5a:	61 e0       	ldi	r22, 0x01	; 1
    3b5c:	80 e0       	ldi	r24, 0x00	; 0
    3b5e:	0e 94 ce 13 	call	0x279c	; 0x279c <_Z9LcdGotoXYhh>
    3b62:	8b e9       	ldi	r24, 0x9B	; 155
    3b64:	0e 94 e9 13 	call	0x27d2	; 0x27d2 <_Z11LcdChr_fullh>
    3b68:	08 95       	ret
		case(HIGHTPOSITION_SET):LcdGotoXY(0,2);LcdChr_full(0x9B);break;
    3b6a:	62 e0       	ldi	r22, 0x02	; 2
    3b6c:	80 e0       	ldi	r24, 0x00	; 0
    3b6e:	0e 94 ce 13 	call	0x279c	; 0x279c <_Z9LcdGotoXYhh>
    3b72:	8b e9       	ldi	r24, 0x9B	; 155
    3b74:	0e 94 e9 13 	call	0x27d2	; 0x27d2 <_Z11LcdChr_fullh>
    3b78:	08 95       	ret
		case(LOWPOSITION_SET):LcdGotoXY(0,3);LcdChr_full(0x9B);break;
    3b7a:	63 e0       	ldi	r22, 0x03	; 3
    3b7c:	80 e0       	ldi	r24, 0x00	; 0
    3b7e:	0e 94 ce 13 	call	0x279c	; 0x279c <_Z9LcdGotoXYhh>
    3b82:	8b e9       	ldi	r24, 0x9B	; 155
    3b84:	0e 94 e9 13 	call	0x27d2	; 0x27d2 <_Z11LcdChr_fullh>
    3b88:	08 95       	ret
		case(EXIT_SET):LcdGotoXY(0,4);LcdChr_full(0x9B);break;
    3b8a:	64 e0       	ldi	r22, 0x04	; 4
    3b8c:	80 e0       	ldi	r24, 0x00	; 0
    3b8e:	0e 94 ce 13 	call	0x279c	; 0x279c <_Z9LcdGotoXYhh>
    3b92:	8b e9       	ldi	r24, 0x9B	; 155
    3b94:	0e 94 e9 13 	call	0x27d2	; 0x27d2 <_Z11LcdChr_fullh>
    3b98:	08 95       	ret
		
		case(SETTINGS_TUNING):LcdGotoXY(0,1);LcdChr_full(0x9B);break;
    3b9a:	61 e0       	ldi	r22, 0x01	; 1
    3b9c:	80 e0       	ldi	r24, 0x00	; 0
    3b9e:	0e 94 ce 13 	call	0x279c	; 0x279c <_Z9LcdGotoXYhh>
    3ba2:	8b e9       	ldi	r24, 0x9B	; 155
    3ba4:	0e 94 e9 13 	call	0x27d2	; 0x27d2 <_Z11LcdChr_fullh>
    3ba8:	08 95       	ret
		case(SETTINGS_LIMITS):LcdGotoXY(0,2);LcdChr_full(0x9B);break;
    3baa:	62 e0       	ldi	r22, 0x02	; 2
    3bac:	80 e0       	ldi	r24, 0x00	; 0
    3bae:	0e 94 ce 13 	call	0x279c	; 0x279c <_Z9LcdGotoXYhh>
    3bb2:	8b e9       	ldi	r24, 0x9B	; 155
    3bb4:	0e 94 e9 13 	call	0x27d2	; 0x27d2 <_Z11LcdChr_fullh>
    3bb8:	08 95       	ret
		case(SETTINGS_TEST_MALFACTION):LcdGotoXY(0,3);LcdChr_full(0x9B);break;
    3bba:	63 e0       	ldi	r22, 0x03	; 3
    3bbc:	80 e0       	ldi	r24, 0x00	; 0
    3bbe:	0e 94 ce 13 	call	0x279c	; 0x279c <_Z9LcdGotoXYhh>
    3bc2:	8b e9       	ldi	r24, 0x9B	; 155
    3bc4:	0e 94 e9 13 	call	0x27d2	; 0x27d2 <_Z11LcdChr_fullh>
    3bc8:	08 95       	ret
		case(SETTINGS_RESET_ERRORS):LcdGotoXY(0,4);LcdChr_full(0x9B);break;
    3bca:	64 e0       	ldi	r22, 0x04	; 4
    3bcc:	80 e0       	ldi	r24, 0x00	; 0
    3bce:	0e 94 ce 13 	call	0x279c	; 0x279c <_Z9LcdGotoXYhh>
    3bd2:	8b e9       	ldi	r24, 0x9B	; 155
    3bd4:	0e 94 e9 13 	call	0x27d2	; 0x27d2 <_Z11LcdChr_fullh>
    3bd8:	08 95       	ret
		case(SETTINGS_EXIT):LcdGotoXY(0,5);LcdChr_full(0x9B);break;
    3bda:	65 e0       	ldi	r22, 0x05	; 5
    3bdc:	80 e0       	ldi	r24, 0x00	; 0
    3bde:	0e 94 ce 13 	call	0x279c	; 0x279c <_Z9LcdGotoXYhh>
    3be2:	8b e9       	ldi	r24, 0x9B	; 155
    3be4:	0e 94 e9 13 	call	0x27d2	; 0x27d2 <_Z11LcdChr_fullh>
    3be8:	08 95       	ret

00003bea <_ZN6Screen11Render_menuER8ActivityR7Carrage>:
	Draw_CursorMainScreen(activity);	
	Print_Step_Value(activity);
	
}

void Screen::Render_menu(Activity &activity, Carrage &carrage){
    3bea:	0f 93       	push	r16
    3bec:	1f 93       	push	r17
    3bee:	cf 93       	push	r28
    3bf0:	df 93       	push	r29
    3bf2:	ec 01       	movw	r28, r24
    3bf4:	8b 01       	movw	r16, r22
	PrintTitle(activity,carrage);
    3bf6:	0e 94 e9 1a 	call	0x35d2	; 0x35d2 <_ZN6Screen10PrintTitleER8ActivityR7Carrage>
	Draw_CursorMenuScreen(activity);
    3bfa:	b8 01       	movw	r22, r16
    3bfc:	ce 01       	movw	r24, r28
    3bfe:	0e 94 5f 1d 	call	0x3abe	; 0x3abe <_ZN6Screen21Draw_CursorMenuScreenER8Activity>
}
    3c02:	df 91       	pop	r29
    3c04:	cf 91       	pop	r28
    3c06:	1f 91       	pop	r17
    3c08:	0f 91       	pop	r16
    3c0a:	08 95       	ret

00003c0c <_ZN6Screen16Print_Step_ValueER8Activity>:
		case(SETTINGS_RESET_ERRORS):LcdGotoXY(0,4);LcdChr_full(0x9B);break;
		case(SETTINGS_EXIT):LcdGotoXY(0,5);LcdChr_full(0x9B);break;
	}
}

bool Screen::Print_Step_Value(Activity &activity){
    3c0c:	ef 92       	push	r14
    3c0e:	ff 92       	push	r15
    3c10:	0f 93       	push	r16
    3c12:	1f 93       	push	r17
    3c14:	cf 93       	push	r28
    3c16:	df 93       	push	r29
	if (activity.Statment != SCREEN_ADJUST ){return false;}
    3c18:	fb 01       	movw	r30, r22
    3c1a:	80 81       	ld	r24, Z
    3c1c:	82 30       	cpi	r24, 0x02	; 2
    3c1e:	11 f0       	breq	.+4      	; 0x3c24 <_ZN6Screen16Print_Step_ValueER8Activity+0x18>
    3c20:	80 e0       	ldi	r24, 0x00	; 0
    3c22:	16 c0       	rjmp	.+44     	; 0x3c50 <_ZN6Screen16Print_Step_ValueER8Activity+0x44>
    3c24:	eb 01       	movw	r28, r22
	float step = activity.Get_val_step();
    3c26:	cb 01       	movw	r24, r22
    3c28:	0e 94 6e 09 	call	0x12dc	; 0x12dc <_ZN8Activity12Get_val_stepEv>
    3c2c:	8b 01       	movw	r16, r22
    3c2e:	9c 01       	movw	r18, r24
	Lcd_printf(5, 1, FONT_1X, step , 2);
    3c30:	68 94       	set
    3c32:	ee 24       	eor	r14, r14
    3c34:	e1 f8       	bld	r14, 1
    3c36:	f1 2c       	mov	r15, r1
    3c38:	41 e0       	ldi	r20, 0x01	; 1
    3c3a:	61 e0       	ldi	r22, 0x01	; 1
    3c3c:	85 e0       	ldi	r24, 0x05	; 5
    3c3e:	0e 94 55 15 	call	0x2aaa	; 0x2aaa <_Z10Lcd_printfhh11LcdFontSizefi>
	//
	LcdGotoXY(5 , 4 );
    3c42:	64 e0       	ldi	r22, 0x04	; 4
    3c44:	85 e0       	ldi	r24, 0x05	; 5
    3c46:	0e 94 ce 13 	call	0x279c	; 0x279c <_Z9LcdGotoXYhh>
	LcdStepLevel(activity.Step);
    3c4a:	89 81       	ldd	r24, Y+1	; 0x01
    3c4c:	0e 94 08 14 	call	0x2810	; 0x2810 <_Z12LcdStepLevelh>
	
}
    3c50:	df 91       	pop	r29
    3c52:	cf 91       	pop	r28
    3c54:	1f 91       	pop	r17
    3c56:	0f 91       	pop	r16
    3c58:	ff 90       	pop	r15
    3c5a:	ef 90       	pop	r14
    3c5c:	08 95       	ret

00003c5e <_ZN6Screen21Draw_all_cursor_wheelEv>:

bool Screen::Draw_all_cursor_wheel(){
	LcdGotoXY(5,1);LcdChr_full(0x9A);
    3c5e:	61 e0       	ldi	r22, 0x01	; 1
    3c60:	85 e0       	ldi	r24, 0x05	; 5
    3c62:	0e 94 ce 13 	call	0x279c	; 0x279c <_Z9LcdGotoXYhh>
    3c66:	8a e9       	ldi	r24, 0x9A	; 154
    3c68:	0e 94 e9 13 	call	0x27d2	; 0x27d2 <_Z11LcdChr_fullh>
	LcdGotoXY(5,4);LcdChr_full(0x9A);
    3c6c:	64 e0       	ldi	r22, 0x04	; 4
    3c6e:	85 e0       	ldi	r24, 0x05	; 5
    3c70:	0e 94 ce 13 	call	0x279c	; 0x279c <_Z9LcdGotoXYhh>
    3c74:	8a e9       	ldi	r24, 0x9A	; 154
    3c76:	0e 94 e9 13 	call	0x27d2	; 0x27d2 <_Z11LcdChr_fullh>
	LcdGotoXY(8,1);LcdChr_full(0x9B);
    3c7a:	61 e0       	ldi	r22, 0x01	; 1
    3c7c:	88 e0       	ldi	r24, 0x08	; 8
    3c7e:	0e 94 ce 13 	call	0x279c	; 0x279c <_Z9LcdGotoXYhh>
    3c82:	8b e9       	ldi	r24, 0x9B	; 155
    3c84:	0e 94 e9 13 	call	0x27d2	; 0x27d2 <_Z11LcdChr_fullh>
	LcdGotoXY(8,4);LcdChr_full(0x9B);
    3c88:	64 e0       	ldi	r22, 0x04	; 4
    3c8a:	88 e0       	ldi	r24, 0x08	; 8
    3c8c:	0e 94 ce 13 	call	0x279c	; 0x279c <_Z9LcdGotoXYhh>
    3c90:	8b e9       	ldi	r24, 0x9B	; 155
    3c92:	0e 94 e9 13 	call	0x27d2	; 0x27d2 <_Z11LcdChr_fullh>
}
    3c96:	08 95       	ret

00003c98 <_ZN6Screen21Draw_CursorMainScreenER8Activity>:
		LcdChr_full(0x95);
	}

}	

bool Screen::Draw_CursorMainScreen(Activity &activity){
    3c98:	9c 01       	movw	r18, r24
	
	if (activity.Statment == SCREEN_ADJUST ){return false;};
    3c9a:	db 01       	movw	r26, r22
    3c9c:	9c 91       	ld	r25, X
    3c9e:	92 30       	cpi	r25, 0x02	; 2
    3ca0:	11 f4       	brne	.+4      	; 0x3ca6 <_ZN6Screen21Draw_CursorMainScreenER8Activity+0xe>
    3ca2:	80 e0       	ldi	r24, 0x00	; 0
    3ca4:	08 95       	ret
	switch(activity.Cursor){
    3ca6:	db 01       	movw	r26, r22
    3ca8:	17 96       	adiw	r26, 0x07	; 7
    3caa:	ec 91       	ld	r30, X
    3cac:	4e 2f       	mov	r20, r30
    3cae:	50 e0       	ldi	r21, 0x00	; 0
    3cb0:	48 30       	cpi	r20, 0x08	; 8
    3cb2:	51 05       	cpc	r21, r1
    3cb4:	08 f0       	brcs	.+2      	; 0x3cb8 <_ZN6Screen21Draw_CursorMainScreenER8Activity+0x20>
    3cb6:	49 c0       	rjmp	.+146    	; 0x3d4a <_ZN6Screen21Draw_CursorMainScreenER8Activity+0xb2>
    3cb8:	c9 01       	movw	r24, r18
    3cba:	fa 01       	movw	r30, r20
    3cbc:	e7 5a       	subi	r30, 0xA7	; 167
    3cbe:	ff 4f       	sbci	r31, 0xFF	; 255
    3cc0:	0c 94 35 25 	jmp	0x4a6a	; 0x4a6a <__tablejump2__>
		case(MENU):LcdGotoXY(6,1);LcdChr_full(0x9C);LcdChr_full(0x9D);break;
    3cc4:	61 e0       	ldi	r22, 0x01	; 1
    3cc6:	86 e0       	ldi	r24, 0x06	; 6
    3cc8:	0e 94 ce 13 	call	0x279c	; 0x279c <_Z9LcdGotoXYhh>
    3ccc:	8c e9       	ldi	r24, 0x9C	; 156
    3cce:	0e 94 e9 13 	call	0x27d2	; 0x27d2 <_Z11LcdChr_fullh>
    3cd2:	8d e9       	ldi	r24, 0x9D	; 157
    3cd4:	0e 94 e9 13 	call	0x27d2	; 0x27d2 <_Z11LcdChr_fullh>
    3cd8:	38 c0       	rjmp	.+112    	; 0x3d4a <_ZN6Screen21Draw_CursorMainScreenER8Activity+0xb2>
		case(ADJUST):LcdGotoXY(6,1);LcdChr_full(0xA5);LcdChr_full(0xA6);break;
    3cda:	61 e0       	ldi	r22, 0x01	; 1
    3cdc:	86 e0       	ldi	r24, 0x06	; 6
    3cde:	0e 94 ce 13 	call	0x279c	; 0x279c <_Z9LcdGotoXYhh>
    3ce2:	85 ea       	ldi	r24, 0xA5	; 165
    3ce4:	0e 94 e9 13 	call	0x27d2	; 0x27d2 <_Z11LcdChr_fullh>
    3ce8:	86 ea       	ldi	r24, 0xA6	; 166
    3cea:	0e 94 e9 13 	call	0x27d2	; 0x27d2 <_Z11LcdChr_fullh>
    3cee:	2d c0       	rjmp	.+90     	; 0x3d4a <_ZN6Screen21Draw_CursorMainScreenER8Activity+0xb2>
		case(CARRAGE):LcdGotoXY(6,4);LcdChr_full(0xA5);LcdChr_full(0xA6);break;
    3cf0:	64 e0       	ldi	r22, 0x04	; 4
    3cf2:	86 e0       	ldi	r24, 0x06	; 6
    3cf4:	0e 94 ce 13 	call	0x279c	; 0x279c <_Z9LcdGotoXYhh>
    3cf8:	85 ea       	ldi	r24, 0xA5	; 165
    3cfa:	0e 94 e9 13 	call	0x27d2	; 0x27d2 <_Z11LcdChr_fullh>
    3cfe:	86 ea       	ldi	r24, 0xA6	; 166
    3d00:	0e 94 e9 13 	call	0x27d2	; 0x27d2 <_Z11LcdChr_fullh>
    3d04:	22 c0       	rjmp	.+68     	; 0x3d4a <_ZN6Screen21Draw_CursorMainScreenER8Activity+0xb2>
		case(LEFTUP):LcdGotoXY(5,1);LcdChr_full(0x9A);break;
    3d06:	61 e0       	ldi	r22, 0x01	; 1
    3d08:	85 e0       	ldi	r24, 0x05	; 5
    3d0a:	0e 94 ce 13 	call	0x279c	; 0x279c <_Z9LcdGotoXYhh>
    3d0e:	8a e9       	ldi	r24, 0x9A	; 154
    3d10:	0e 94 e9 13 	call	0x27d2	; 0x27d2 <_Z11LcdChr_fullh>
    3d14:	1a c0       	rjmp	.+52     	; 0x3d4a <_ZN6Screen21Draw_CursorMainScreenER8Activity+0xb2>
		case(LEFTDOWN):LcdGotoXY(5,4);LcdChr_full(0x9A);break;
    3d16:	64 e0       	ldi	r22, 0x04	; 4
    3d18:	85 e0       	ldi	r24, 0x05	; 5
    3d1a:	0e 94 ce 13 	call	0x279c	; 0x279c <_Z9LcdGotoXYhh>
    3d1e:	8a e9       	ldi	r24, 0x9A	; 154
    3d20:	0e 94 e9 13 	call	0x27d2	; 0x27d2 <_Z11LcdChr_fullh>
    3d24:	12 c0       	rjmp	.+36     	; 0x3d4a <_ZN6Screen21Draw_CursorMainScreenER8Activity+0xb2>
		case(RIGHTUP):LcdGotoXY(8,1);LcdChr_full(0x9B);break;
    3d26:	61 e0       	ldi	r22, 0x01	; 1
    3d28:	88 e0       	ldi	r24, 0x08	; 8
    3d2a:	0e 94 ce 13 	call	0x279c	; 0x279c <_Z9LcdGotoXYhh>
    3d2e:	8b e9       	ldi	r24, 0x9B	; 155
    3d30:	0e 94 e9 13 	call	0x27d2	; 0x27d2 <_Z11LcdChr_fullh>
    3d34:	0a c0       	rjmp	.+20     	; 0x3d4a <_ZN6Screen21Draw_CursorMainScreenER8Activity+0xb2>
		case(RIGHTDOWN):LcdGotoXY(8,4);LcdChr_full(0x9B);break;
    3d36:	64 e0       	ldi	r22, 0x04	; 4
    3d38:	88 e0       	ldi	r24, 0x08	; 8
    3d3a:	0e 94 ce 13 	call	0x279c	; 0x279c <_Z9LcdGotoXYhh>
    3d3e:	8b e9       	ldi	r24, 0x9B	; 155
    3d40:	0e 94 e9 13 	call	0x27d2	; 0x27d2 <_Z11LcdChr_fullh>
    3d44:	02 c0       	rjmp	.+4      	; 0x3d4a <_ZN6Screen21Draw_CursorMainScreenER8Activity+0xb2>
		case(ALLWHEEL):Draw_all_cursor_wheel();break;
    3d46:	0e 94 2f 1e 	call	0x3c5e	; 0x3c5e <_ZN6Screen21Draw_all_cursor_wheelEv>
	}	
	
}
    3d4a:	08 95       	ret

00003d4c <_ZN6Screen11Render_mainER8ActivityR7Carrage>:
		case(SCREEN_MESSAGE):Message(activity,carrage);break;
	}
	Lcd_update();
}

void Screen::Render_main(Activity &activity, Carrage &carrage){	
    3d4c:	ef 92       	push	r14
    3d4e:	ff 92       	push	r15
    3d50:	0f 93       	push	r16
    3d52:	1f 93       	push	r17
    3d54:	cf 93       	push	r28
    3d56:	df 93       	push	r29
    3d58:	ec 01       	movw	r28, r24
    3d5a:	8b 01       	movw	r16, r22
    3d5c:	7a 01       	movw	r14, r20
	Draw_icon_menu();
    3d5e:	0e 94 88 1b 	call	0x3710	; 0x3710 <_ZN6Screen14Draw_icon_menuEv>
	Draw_icon_carrage(activity);
    3d62:	b8 01       	movw	r22, r16
    3d64:	ce 01       	movw	r24, r28
    3d66:	0e 94 97 1b 	call	0x372e	; 0x372e <_ZN6Screen17Draw_icon_carrageER8Activity>
	Draw_Carrage(carrage);
    3d6a:	b7 01       	movw	r22, r14
    3d6c:	ce 01       	movw	r24, r28
    3d6e:	0e 94 a7 1c 	call	0x394e	; 0x394e <_ZN6Screen12Draw_CarrageER7Carrage>
	Draw_adjustment_carrage(activity);
    3d72:	b8 01       	movw	r22, r16
    3d74:	ce 01       	movw	r24, r28
    3d76:	0e 94 21 1d 	call	0x3a42	; 0x3a42 <_ZN6Screen23Draw_adjustment_carrageER8Activity>
	Draw_CursorMainScreen(activity);	
    3d7a:	b8 01       	movw	r22, r16
    3d7c:	ce 01       	movw	r24, r28
    3d7e:	0e 94 4c 1e 	call	0x3c98	; 0x3c98 <_ZN6Screen21Draw_CursorMainScreenER8Activity>
	Print_Step_Value(activity);
    3d82:	b8 01       	movw	r22, r16
    3d84:	ce 01       	movw	r24, r28
    3d86:	0e 94 06 1e 	call	0x3c0c	; 0x3c0c <_ZN6Screen16Print_Step_ValueER8Activity>
	
}
    3d8a:	df 91       	pop	r29
    3d8c:	cf 91       	pop	r28
    3d8e:	1f 91       	pop	r17
    3d90:	0f 91       	pop	r16
    3d92:	ff 90       	pop	r15
    3d94:	ef 90       	pop	r14
    3d96:	08 95       	ret

00003d98 <_ZN6Screen7MessageER8ActivityR7Carrage>:
	LcdGotoXY(8,1);LcdChr_full(0x9B);
	LcdGotoXY(8,4);LcdChr_full(0x9B);
}

bool Screen::Message(Activity &activity, Carrage &carrage){
	Lcd_print(2, 2, FONT_1X,(unsigned char *)"...");
    3d98:	27 e9       	ldi	r18, 0x97	; 151
    3d9a:	32 e0       	ldi	r19, 0x02	; 2
    3d9c:	41 e0       	ldi	r20, 0x01	; 1
    3d9e:	62 e0       	ldi	r22, 0x02	; 2
    3da0:	82 e0       	ldi	r24, 0x02	; 2
    3da2:	0e 94 0e 15 	call	0x2a1c	; 0x2a1c <_Z9Lcd_printhh11LcdFontSizePh>
	
    3da6:	08 95       	ret

00003da8 <_ZN6Screen6RenderER8ActivityR7Carrage>:

void Screen::Init(){
	 
}

void Screen::Render(Activity &activity, Carrage &carrage){
    3da8:	ef 92       	push	r14
    3daa:	ff 92       	push	r15
    3dac:	0f 93       	push	r16
    3dae:	1f 93       	push	r17
    3db0:	cf 93       	push	r28
    3db2:	df 93       	push	r29
    3db4:	8c 01       	movw	r16, r24
    3db6:	eb 01       	movw	r28, r22
    3db8:	7a 01       	movw	r14, r20

	Lcd_clear();
    3dba:	0e 94 53 13 	call	0x26a6	; 0x26a6 <_Z9Lcd_clearv>
	switch(activity.Statment){
    3dbe:	e8 81       	ld	r30, Y
    3dc0:	8e 2f       	mov	r24, r30
    3dc2:	90 e0       	ldi	r25, 0x00	; 0
    3dc4:	89 30       	cpi	r24, 0x09	; 9
    3dc6:	91 05       	cpc	r25, r1
    3dc8:	d0 f5       	brcc	.+116    	; 0x3e3e <_ZN6Screen6RenderER8ActivityR7Carrage+0x96>
    3dca:	fc 01       	movw	r30, r24
    3dcc:	ef 59       	subi	r30, 0x9F	; 159
    3dce:	ff 4f       	sbci	r31, 0xFF	; 255
    3dd0:	0c 94 35 25 	jmp	0x4a6a	; 0x4a6a <__tablejump2__>
		case(SCREEN_MAIN):Render_main(activity,carrage);break;
    3dd4:	a7 01       	movw	r20, r14
    3dd6:	be 01       	movw	r22, r28
    3dd8:	c8 01       	movw	r24, r16
    3dda:	0e 94 a6 1e 	call	0x3d4c	; 0x3d4c <_ZN6Screen11Render_mainER8ActivityR7Carrage>
    3dde:	2f c0       	rjmp	.+94     	; 0x3e3e <_ZN6Screen6RenderER8ActivityR7Carrage+0x96>
		case(SCREEN_ADJUST):Render_main(activity,carrage);break;
    3de0:	a7 01       	movw	r20, r14
    3de2:	be 01       	movw	r22, r28
    3de4:	c8 01       	movw	r24, r16
    3de6:	0e 94 a6 1e 	call	0x3d4c	; 0x3d4c <_ZN6Screen11Render_mainER8ActivityR7Carrage>
    3dea:	29 c0       	rjmp	.+82     	; 0x3e3e <_ZN6Screen6RenderER8ActivityR7Carrage+0x96>
		case(SCREEN_MENU):Render_menu(activity,carrage);break;
    3dec:	a7 01       	movw	r20, r14
    3dee:	be 01       	movw	r22, r28
    3df0:	c8 01       	movw	r24, r16
    3df2:	0e 94 f5 1d 	call	0x3bea	; 0x3bea <_ZN6Screen11Render_menuER8ActivityR7Carrage>
    3df6:	23 c0       	rjmp	.+70     	; 0x3e3e <_ZN6Screen6RenderER8ActivityR7Carrage+0x96>
		case(SCREEN_TUNNING):Render_tunning(activity,carrage);break;
    3df8:	a7 01       	movw	r20, r14
    3dfa:	be 01       	movw	r22, r28
    3dfc:	c8 01       	movw	r24, r16
    3dfe:	0e 94 71 17 	call	0x2ee2	; 0x2ee2 <_ZN6Screen14Render_tunningER8ActivityR7Carrage>
    3e02:	1d c0       	rjmp	.+58     	; 0x3e3e <_ZN6Screen6RenderER8ActivityR7Carrage+0x96>
		case(SCREEN_LIMITS):Render_limits(activity,carrage);break;
    3e04:	a7 01       	movw	r20, r14
    3e06:	be 01       	movw	r22, r28
    3e08:	c8 01       	movw	r24, r16
    3e0a:	0e 94 be 17 	call	0x2f7c	; 0x2f7c <_ZN6Screen13Render_limitsER8ActivityR7Carrage>
    3e0e:	17 c0       	rjmp	.+46     	; 0x3e3e <_ZN6Screen6RenderER8ActivityR7Carrage+0x96>
		case(SCREEN_SET_MALFACTION):Render_maltifaction(activity,carrage);break;
    3e10:	a7 01       	movw	r20, r14
    3e12:	be 01       	movw	r22, r28
    3e14:	c8 01       	movw	r24, r16
    3e16:	0e 94 35 18 	call	0x306a	; 0x306a <_ZN6Screen19Render_maltifactionER8ActivityR7Carrage>
    3e1a:	11 c0       	rjmp	.+34     	; 0x3e3e <_ZN6Screen6RenderER8ActivityR7Carrage+0x96>
		case(SCREEN_SET_ERRORS):Render_ERRORS(activity,carrage);break;
    3e1c:	a7 01       	movw	r20, r14
    3e1e:	be 01       	movw	r22, r28
    3e20:	c8 01       	movw	r24, r16
    3e22:	0e 94 be 18 	call	0x317c	; 0x317c <_ZN6Screen13Render_ERRORSER8ActivityR7Carrage>
    3e26:	0b c0       	rjmp	.+22     	; 0x3e3e <_ZN6Screen6RenderER8ActivityR7Carrage+0x96>
		case(SCREEN_ERROR_WHEEL):Render_ERROR(activity,carrage);break;\
    3e28:	a7 01       	movw	r20, r14
    3e2a:	be 01       	movw	r22, r28
    3e2c:	c8 01       	movw	r24, r16
    3e2e:	0e 94 3b 1a 	call	0x3476	; 0x3476 <_ZN6Screen12Render_ERRORER8ActivityR7Carrage>
    3e32:	05 c0       	rjmp	.+10     	; 0x3e3e <_ZN6Screen6RenderER8ActivityR7Carrage+0x96>
		case(SCREEN_MESSAGE):Message(activity,carrage);break;
    3e34:	a7 01       	movw	r20, r14
    3e36:	be 01       	movw	r22, r28
    3e38:	c8 01       	movw	r24, r16
    3e3a:	0e 94 cc 1e 	call	0x3d98	; 0x3d98 <_ZN6Screen7MessageER8ActivityR7Carrage>
	}
	Lcd_update();
    3e3e:	0e 94 68 13 	call	0x26d0	; 0x26d0 <_Z10Lcd_updatev>
}
    3e42:	df 91       	pop	r29
    3e44:	cf 91       	pop	r28
    3e46:	1f 91       	pop	r17
    3e48:	0f 91       	pop	r16
    3e4a:	ff 90       	pop	r15
    3e4c:	ef 90       	pop	r14
    3e4e:	08 95       	ret

00003e50 <_ZN5PanelC1Ev>:
const int B_NOTHING = -1;

#include "Panel.h"

// default constructor
Panel::Panel()
    3e50:	cf 93       	push	r28
    3e52:	df 93       	push	r29
    3e54:	ec 01       	movw	r28, r24
    3e56:	0e 94 34 0b 	call	0x1668	; 0x1668 <_ZN6ButtonC1Ev>
    3e5a:	ce 01       	movw	r24, r28
    3e5c:	07 96       	adiw	r24, 0x07	; 7
    3e5e:	0e 94 34 0b 	call	0x1668	; 0x1668 <_ZN6ButtonC1Ev>
    3e62:	ce 01       	movw	r24, r28
    3e64:	0e 96       	adiw	r24, 0x0e	; 14
    3e66:	0e 94 34 0b 	call	0x1668	; 0x1668 <_ZN6ButtonC1Ev>
    3e6a:	ce 01       	movw	r24, r28
    3e6c:	45 96       	adiw	r24, 0x15	; 21
    3e6e:	0e 94 34 0b 	call	0x1668	; 0x1668 <_ZN6ButtonC1Ev>
    3e72:	ce 01       	movw	r24, r28
    3e74:	4c 96       	adiw	r24, 0x1c	; 28
    3e76:	0e 94 34 0b 	call	0x1668	; 0x1668 <_ZN6ButtonC1Ev>
    3e7a:	ce 01       	movw	r24, r28
    3e7c:	83 96       	adiw	r24, 0x23	; 35
    3e7e:	0e 94 34 0b 	call	0x1668	; 0x1668 <_ZN6ButtonC1Ev>
    3e82:	ce 01       	movw	r24, r28
    3e84:	8a 96       	adiw	r24, 0x2a	; 42
    3e86:	0e 94 34 0b 	call	0x1668	; 0x1668 <_ZN6ButtonC1Ev>
{
} 
    3e8a:	df 91       	pop	r29
    3e8c:	cf 91       	pop	r28
    3e8e:	08 95       	ret

00003e90 <_ZN5Panel4InitEv>:

void Panel::Init(){
    3e90:	cf 93       	push	r28
    3e92:	df 93       	push	r29
    3e94:	ec 01       	movw	r28, r24
	bat_wheel_up.Init('D', 0);
    3e96:	40 e0       	ldi	r20, 0x00	; 0
    3e98:	50 e0       	ldi	r21, 0x00	; 0
    3e9a:	64 e4       	ldi	r22, 0x44	; 68
    3e9c:	0e 94 35 0b 	call	0x166a	; 0x166a <_ZN6Button4InitEci>
	bat_wheel_down.Init('D', 1);
    3ea0:	41 e0       	ldi	r20, 0x01	; 1
    3ea2:	50 e0       	ldi	r21, 0x00	; 0
    3ea4:	64 e4       	ldi	r22, 0x44	; 68
    3ea6:	ce 01       	movw	r24, r28
    3ea8:	07 96       	adiw	r24, 0x07	; 7
    3eaa:	0e 94 35 0b 	call	0x166a	; 0x166a <_ZN6Button4InitEci>
	bat_ok.Init('D', 2);
    3eae:	42 e0       	ldi	r20, 0x02	; 2
    3eb0:	50 e0       	ldi	r21, 0x00	; 0
    3eb2:	64 e4       	ldi	r22, 0x44	; 68
    3eb4:	ce 01       	movw	r24, r28
    3eb6:	0e 96       	adiw	r24, 0x0e	; 14
    3eb8:	0e 94 35 0b 	call	0x166a	; 0x166a <_ZN6Button4InitEci>
	bat_up.Init('D', 3);
    3ebc:	43 e0       	ldi	r20, 0x03	; 3
    3ebe:	50 e0       	ldi	r21, 0x00	; 0
    3ec0:	64 e4       	ldi	r22, 0x44	; 68
    3ec2:	ce 01       	movw	r24, r28
    3ec4:	45 96       	adiw	r24, 0x15	; 21
    3ec6:	0e 94 35 0b 	call	0x166a	; 0x166a <_ZN6Button4InitEci>
	bat_down.Init('D', 4);
    3eca:	44 e0       	ldi	r20, 0x04	; 4
    3ecc:	50 e0       	ldi	r21, 0x00	; 0
    3ece:	64 e4       	ldi	r22, 0x44	; 68
    3ed0:	ce 01       	movw	r24, r28
    3ed2:	4c 96       	adiw	r24, 0x1c	; 28
    3ed4:	0e 94 35 0b 	call	0x166a	; 0x166a <_ZN6Button4InitEci>
	bat_left.Init('D',5);
    3ed8:	45 e0       	ldi	r20, 0x05	; 5
    3eda:	50 e0       	ldi	r21, 0x00	; 0
    3edc:	64 e4       	ldi	r22, 0x44	; 68
    3ede:	ce 01       	movw	r24, r28
    3ee0:	83 96       	adiw	r24, 0x23	; 35
    3ee2:	0e 94 35 0b 	call	0x166a	; 0x166a <_ZN6Button4InitEci>
	bat_right.Init('D',6);
    3ee6:	46 e0       	ldi	r20, 0x06	; 6
    3ee8:	50 e0       	ldi	r21, 0x00	; 0
    3eea:	64 e4       	ldi	r22, 0x44	; 68
    3eec:	ce 01       	movw	r24, r28
    3eee:	8a 96       	adiw	r24, 0x2a	; 42
    3ef0:	0e 94 35 0b 	call	0x166a	; 0x166a <_ZN6Button4InitEci>
}
    3ef4:	df 91       	pop	r29
    3ef6:	cf 91       	pop	r28
    3ef8:	08 95       	ret

00003efa <_ZN5Panel7PressedEi>:

int Panel::Pressed(int debounse){
    3efa:	0f 93       	push	r16
    3efc:	1f 93       	push	r17
    3efe:	cf 93       	push	r28
    3f00:	df 93       	push	r29
    3f02:	ec 01       	movw	r28, r24
    3f04:	8b 01       	movw	r16, r22
	if (bat_ok.Pressed(debounse)){return B_OK ;}
    3f06:	0e 96       	adiw	r24, 0x0e	; 14
    3f08:	0e 94 73 0b 	call	0x16e6	; 0x16e6 <_ZN6Button7PressedEi>
    3f0c:	81 11       	cpse	r24, r1
    3f0e:	2c c0       	rjmp	.+88     	; 0x3f68 <_ZN5Panel7PressedEi+0x6e>
	if (bat_up.Pressed(debounse)){return  B_UP;}
    3f10:	b8 01       	movw	r22, r16
    3f12:	ce 01       	movw	r24, r28
    3f14:	45 96       	adiw	r24, 0x15	; 21
    3f16:	0e 94 73 0b 	call	0x16e6	; 0x16e6 <_ZN6Button7PressedEi>
    3f1a:	81 11       	cpse	r24, r1
    3f1c:	28 c0       	rjmp	.+80     	; 0x3f6e <_ZN5Panel7PressedEi+0x74>
	if (bat_down.Pressed(debounse)){return B_DOWN ;}
    3f1e:	b8 01       	movw	r22, r16
    3f20:	ce 01       	movw	r24, r28
    3f22:	4c 96       	adiw	r24, 0x1c	; 28
    3f24:	0e 94 73 0b 	call	0x16e6	; 0x16e6 <_ZN6Button7PressedEi>
    3f28:	81 11       	cpse	r24, r1
    3f2a:	24 c0       	rjmp	.+72     	; 0x3f74 <_ZN5Panel7PressedEi+0x7a>
	if (bat_right.Pressed(debounse)){return B_RIGHT;}
    3f2c:	b8 01       	movw	r22, r16
    3f2e:	ce 01       	movw	r24, r28
    3f30:	8a 96       	adiw	r24, 0x2a	; 42
    3f32:	0e 94 73 0b 	call	0x16e6	; 0x16e6 <_ZN6Button7PressedEi>
    3f36:	81 11       	cpse	r24, r1
    3f38:	20 c0       	rjmp	.+64     	; 0x3f7a <_ZN5Panel7PressedEi+0x80>
	if (bat_left.Pressed(debounse)) {return B_LEFT;}	
    3f3a:	b8 01       	movw	r22, r16
    3f3c:	ce 01       	movw	r24, r28
    3f3e:	83 96       	adiw	r24, 0x23	; 35
    3f40:	0e 94 73 0b 	call	0x16e6	; 0x16e6 <_ZN6Button7PressedEi>
    3f44:	81 11       	cpse	r24, r1
    3f46:	1c c0       	rjmp	.+56     	; 0x3f80 <_ZN5Panel7PressedEi+0x86>
	if (bat_wheel_up.Pressed(debounse)){return B_WHEEL_UP;}
    3f48:	b8 01       	movw	r22, r16
    3f4a:	ce 01       	movw	r24, r28
    3f4c:	0e 94 73 0b 	call	0x16e6	; 0x16e6 <_ZN6Button7PressedEi>
    3f50:	81 11       	cpse	r24, r1
    3f52:	19 c0       	rjmp	.+50     	; 0x3f86 <_ZN5Panel7PressedEi+0x8c>
	if (bat_wheel_down.Pressed(debounse)) {return B_WHEEL_DOWN;}
    3f54:	b8 01       	movw	r22, r16
    3f56:	ce 01       	movw	r24, r28
    3f58:	07 96       	adiw	r24, 0x07	; 7
    3f5a:	0e 94 73 0b 	call	0x16e6	; 0x16e6 <_ZN6Button7PressedEi>
    3f5e:	81 11       	cpse	r24, r1
    3f60:	15 c0       	rjmp	.+42     	; 0x3f8c <_ZN5Panel7PressedEi+0x92>
	return B_NOTHING ;
    3f62:	8f ef       	ldi	r24, 0xFF	; 255
    3f64:	9f ef       	ldi	r25, 0xFF	; 255
    3f66:	14 c0       	rjmp	.+40     	; 0x3f90 <_ZN5Panel7PressedEi+0x96>
	bat_left.Init('D',5);
	bat_right.Init('D',6);
}

int Panel::Pressed(int debounse){
	if (bat_ok.Pressed(debounse)){return B_OK ;}
    3f68:	80 e0       	ldi	r24, 0x00	; 0
    3f6a:	90 e0       	ldi	r25, 0x00	; 0
    3f6c:	11 c0       	rjmp	.+34     	; 0x3f90 <_ZN5Panel7PressedEi+0x96>
	if (bat_up.Pressed(debounse)){return  B_UP;}
    3f6e:	81 e0       	ldi	r24, 0x01	; 1
    3f70:	90 e0       	ldi	r25, 0x00	; 0
    3f72:	0e c0       	rjmp	.+28     	; 0x3f90 <_ZN5Panel7PressedEi+0x96>
	if (bat_down.Pressed(debounse)){return B_DOWN ;}
    3f74:	82 e0       	ldi	r24, 0x02	; 2
    3f76:	90 e0       	ldi	r25, 0x00	; 0
    3f78:	0b c0       	rjmp	.+22     	; 0x3f90 <_ZN5Panel7PressedEi+0x96>
	if (bat_right.Pressed(debounse)){return B_RIGHT;}
    3f7a:	84 e0       	ldi	r24, 0x04	; 4
    3f7c:	90 e0       	ldi	r25, 0x00	; 0
    3f7e:	08 c0       	rjmp	.+16     	; 0x3f90 <_ZN5Panel7PressedEi+0x96>
	if (bat_left.Pressed(debounse)) {return B_LEFT;}	
    3f80:	83 e0       	ldi	r24, 0x03	; 3
    3f82:	90 e0       	ldi	r25, 0x00	; 0
    3f84:	05 c0       	rjmp	.+10     	; 0x3f90 <_ZN5Panel7PressedEi+0x96>
	if (bat_wheel_up.Pressed(debounse)){return B_WHEEL_UP;}
    3f86:	85 e0       	ldi	r24, 0x05	; 5
    3f88:	90 e0       	ldi	r25, 0x00	; 0
    3f8a:	02 c0       	rjmp	.+4      	; 0x3f90 <_ZN5Panel7PressedEi+0x96>
	if (bat_wheel_down.Pressed(debounse)) {return B_WHEEL_DOWN;}
    3f8c:	86 e0       	ldi	r24, 0x06	; 6
    3f8e:	90 e0       	ldi	r25, 0x00	; 0
	return B_NOTHING ;
    3f90:	df 91       	pop	r29
    3f92:	cf 91       	pop	r28
    3f94:	1f 91       	pop	r17
    3f96:	0f 91       	pop	r16
    3f98:	08 95       	ret

00003f9a <_ZN13SensorsWheelsC1Ev>:

#include <util/delay.h>
#include "SensorsWheels.h"

// default constructor
SensorsWheels::SensorsWheels()
    3f9a:	08 95       	ret

00003f9c <_ZN13SensorsWheels4InitEv>:
{
} //SensorsWheels

void SensorsWheels::Init(){
	ADMUX |=(1<<REFS0)|(1<<MUX0);//AVCC    
    3f9c:	ec e7       	ldi	r30, 0x7C	; 124
    3f9e:	f0 e0       	ldi	r31, 0x00	; 0
    3fa0:	80 81       	ld	r24, Z
    3fa2:	81 64       	ori	r24, 0x41	; 65
    3fa4:	80 83       	st	Z, r24
	ADCSRA |=(1<<ADEN)|(1<<ADIE)|(1<<ADPS0)|(1<<ADPS1)|(1<<ADPS2);//  ,  ,  
    3fa6:	ea e7       	ldi	r30, 0x7A	; 122
    3fa8:	f0 e0       	ldi	r31, 0x00	; 0
    3faa:	80 81       	ld	r24, Z
    3fac:	8f 68       	ori	r24, 0x8F	; 143
    3fae:	80 83       	st	Z, r24
    3fb0:	08 95       	ret

00003fb2 <_ZN13SensorsWheels9getParamsEi>:
	//sei ();//   
}

float SensorsWheels::getParams(int Input_number){
    3fb2:	fc 01       	movw	r30, r24
	ADMUX &= ~ (1<<MUX0);
    3fb4:	ac e7       	ldi	r26, 0x7C	; 124
    3fb6:	b0 e0       	ldi	r27, 0x00	; 0
    3fb8:	8c 91       	ld	r24, X
    3fba:	8e 7f       	andi	r24, 0xFE	; 254
    3fbc:	8c 93       	st	X, r24
	ADMUX &= ~ (1<<MUX1);
    3fbe:	8c 91       	ld	r24, X
    3fc0:	8d 7f       	andi	r24, 0xFD	; 253
    3fc2:	8c 93       	st	X, r24
	ADMUX &= ~ (1<<MUX2);
    3fc4:	8c 91       	ld	r24, X
    3fc6:	8b 7f       	andi	r24, 0xFB	; 251
    3fc8:	8c 93       	st	X, r24
	ADMUX &= ~ (1<<MUX3);
    3fca:	8c 91       	ld	r24, X
    3fcc:	87 7f       	andi	r24, 0xF7	; 247
    3fce:	8c 93       	st	X, r24
	switch(Input_number){
    3fd0:	63 30       	cpi	r22, 0x03	; 3
    3fd2:	71 05       	cpc	r23, r1
    3fd4:	51 f0       	breq	.+20     	; 0x3fea <_ZN13SensorsWheels9getParamsEi+0x38>
    3fd6:	64 30       	cpi	r22, 0x04	; 4
    3fd8:	71 05       	cpc	r23, r1
    3fda:	69 f0       	breq	.+26     	; 0x3ff6 <_ZN13SensorsWheels9getParamsEi+0x44>
    3fdc:	62 30       	cpi	r22, 0x02	; 2
    3fde:	71 05       	cpc	r23, r1
    3fe0:	79 f4       	brne	.+30     	; 0x4000 <_ZN13SensorsWheels9getParamsEi+0x4e>
		case(1):break;
		case(2):ADMUX |= (1<<MUX0);break;
    3fe2:	8c 91       	ld	r24, X
    3fe4:	81 60       	ori	r24, 0x01	; 1
    3fe6:	8c 93       	st	X, r24
    3fe8:	0b c0       	rjmp	.+22     	; 0x4000 <_ZN13SensorsWheels9getParamsEi+0x4e>
		case(3):ADMUX |= (1<<MUX1);break;
    3fea:	ac e7       	ldi	r26, 0x7C	; 124
    3fec:	b0 e0       	ldi	r27, 0x00	; 0
    3fee:	8c 91       	ld	r24, X
    3ff0:	82 60       	ori	r24, 0x02	; 2
    3ff2:	8c 93       	st	X, r24
    3ff4:	05 c0       	rjmp	.+10     	; 0x4000 <_ZN13SensorsWheels9getParamsEi+0x4e>
		case(4):ADMUX |= (1<<MUX0)|(1<<MUX1);break;
    3ff6:	ac e7       	ldi	r26, 0x7C	; 124
    3ff8:	b0 e0       	ldi	r27, 0x00	; 0
    3ffa:	8c 91       	ld	r24, X
    3ffc:	83 60       	ori	r24, 0x03	; 3
    3ffe:	8c 93       	st	X, r24
	}
	
	
	ADCSRA |=(1<<ADSC);//   	
    4000:	aa e7       	ldi	r26, 0x7A	; 122
    4002:	b0 e0       	ldi	r27, 0x00	; 0
    4004:	8c 91       	ld	r24, X
    4006:	80 64       	ori	r24, 0x40	; 64
    4008:	8c 93       	st	X, r24
	ready = false;
    400a:	10 82       	st	Z, r1
	while( !ready ){
		ready = (ADCSRA & (1 << ADIF));
    400c:	81 e0       	ldi	r24, 0x01	; 1
    400e:	40 e0       	ldi	r20, 0x00	; 0
    4010:	9c 91       	ld	r25, X
    4012:	28 2f       	mov	r18, r24
    4014:	39 2f       	mov	r19, r25
    4016:	30 71       	andi	r19, 0x10	; 16
    4018:	94 ff       	sbrs	r25, 4
    401a:	24 2f       	mov	r18, r20
    401c:	20 83       	st	Z, r18
	}
	
	
	ADCSRA |=(1<<ADSC);//   	
	ready = false;
	while( !ready ){
    401e:	33 23       	and	r19, r19
    4020:	b9 f3       	breq	.-18     	; 0x4010 <_ZN13SensorsWheels9getParamsEi+0x5e>
		ready = (ADCSRA & (1 << ADIF));
	};
	float Value = ADCW*0.00489;
    4022:	60 91 78 00 	lds	r22, 0x0078	; 0x800078 <__TEXT_REGION_LENGTH__+0x7e0078>
    4026:	70 91 79 00 	lds	r23, 0x0079	; 0x800079 <__TEXT_REGION_LENGTH__+0x7e0079>
	return Value;
    402a:	80 e0       	ldi	r24, 0x00	; 0
    402c:	90 e0       	ldi	r25, 0x00	; 0
    402e:	0e 94 fd 23 	call	0x47fa	; 0x47fa <__floatunsisf>
    4032:	2b e4       	ldi	r18, 0x4B	; 75
    4034:	3c e3       	ldi	r19, 0x3C	; 60
    4036:	40 ea       	ldi	r20, 0xA0	; 160
    4038:	5b e3       	ldi	r21, 0x3B	; 59
    403a:	0e 94 b4 24 	call	0x4968	; 0x4968 <__mulsf3>
	
};
    403e:	08 95       	ret

00004040 <_ZL8send_i2ch>:
void Support::Up(int ms_time, bool support_1, bool support_2, bool support_3, bool support_4 ){
	uint8_t data = (support_1<<0)|(support_2<<2)|(support_3<<4)|(support_4<<6);
	write_i2c((I2C_ADR_PCF8574<<1), data);
	for (i=0;i<ms_time;i++){_delay_ms(1);}
	write_i2c((I2C_ADR_PCF8574<<1), 0x00);
}
    4040:	80 93 bb 00 	sts	0x00BB, r24	; 0x8000bb <__TEXT_REGION_LENGTH__+0x7e00bb>
    4044:	84 e8       	ldi	r24, 0x84	; 132
    4046:	80 93 bc 00 	sts	0x00BC, r24	; 0x8000bc <__TEXT_REGION_LENGTH__+0x7e00bc>
    404a:	ec eb       	ldi	r30, 0xBC	; 188
    404c:	f0 e0       	ldi	r31, 0x00	; 0
    404e:	80 81       	ld	r24, Z
    4050:	88 23       	and	r24, r24
    4052:	ec f7       	brge	.-6      	; 0x404e <_ZL8send_i2ch+0xe>
    4054:	90 91 b9 00 	lds	r25, 0x00B9	; 0x8000b9 <__TEXT_REGION_LENGTH__+0x7e00b9>
    4058:	98 7f       	andi	r25, 0xF8	; 248
    405a:	98 31       	cpi	r25, 0x18	; 24
    405c:	29 f0       	breq	.+10     	; 0x4068 <_ZL8send_i2ch+0x28>
    405e:	81 e0       	ldi	r24, 0x01	; 1
    4060:	98 32       	cpi	r25, 0x28	; 40
    4062:	19 f4       	brne	.+6      	; 0x406a <_ZL8send_i2ch+0x2a>
    4064:	80 e0       	ldi	r24, 0x00	; 0
    4066:	08 95       	ret
    4068:	80 e0       	ldi	r24, 0x00	; 0
    406a:	08 95       	ret

0000406c <_ZL9write_i2chh>:
    406c:	cf 93       	push	r28
    406e:	94 ea       	ldi	r25, 0xA4	; 164
    4070:	90 93 bc 00 	sts	0x00BC, r25	; 0x8000bc <__TEXT_REGION_LENGTH__+0x7e00bc>
    4074:	ec eb       	ldi	r30, 0xBC	; 188
    4076:	f0 e0       	ldi	r31, 0x00	; 0
    4078:	90 81       	ld	r25, Z
    407a:	99 23       	and	r25, r25
    407c:	ec f7       	brge	.-6      	; 0x4078 <_ZL9write_i2chh+0xc>
    407e:	90 91 b9 00 	lds	r25, 0x00B9	; 0x8000b9 <__TEXT_REGION_LENGTH__+0x7e00b9>
    4082:	98 7f       	andi	r25, 0xF8	; 248
    4084:	98 30       	cpi	r25, 0x08	; 8
    4086:	11 f0       	breq	.+4      	; 0x408c <_ZL9write_i2chh+0x20>
    4088:	90 31       	cpi	r25, 0x10	; 16
    408a:	61 f4       	brne	.+24     	; 0x40a4 <_ZL9write_i2chh+0x38>
    408c:	c6 2f       	mov	r28, r22
    408e:	0e 94 20 20 	call	0x4040	; 0x4040 <_ZL8send_i2ch>
    4092:	81 30       	cpi	r24, 0x01	; 1
    4094:	39 f0       	breq	.+14     	; 0x40a4 <_ZL9write_i2chh+0x38>
    4096:	8c 2f       	mov	r24, r28
    4098:	0e 94 20 20 	call	0x4040	; 0x4040 <_ZL8send_i2ch>
    409c:	94 e9       	ldi	r25, 0x94	; 148
    409e:	90 93 bc 00 	sts	0x00BC, r25	; 0x8000bc <__TEXT_REGION_LENGTH__+0x7e00bc>
    40a2:	04 c0       	rjmp	.+8      	; 0x40ac <_ZL9write_i2chh+0x40>
    40a4:	84 e9       	ldi	r24, 0x94	; 148
    40a6:	80 93 bc 00 	sts	0x00BC, r24	; 0x8000bc <__TEXT_REGION_LENGTH__+0x7e00bc>
    40aa:	81 e0       	ldi	r24, 0x01	; 1
    40ac:	cf 91       	pop	r28
    40ae:	08 95       	ret

000040b0 <_ZN7SupportC1Ev>:
    40b0:	08 95       	ret

000040b2 <_ZN7Support4InitEv>:
    40b2:	60 e0       	ldi	r22, 0x00	; 0
    40b4:	8e e4       	ldi	r24, 0x4E	; 78
    40b6:	0e 94 36 20 	call	0x406c	; 0x406c <_ZL9write_i2chh>
    40ba:	08 95       	ret

000040bc <_ZN7Support6AdjastEiiiii>:

void Support::Adjast(int ms_time, int DerWheel_1, int DerWheel_2,int DerWheel_3, int DerWheel_4){
    40bc:	ef 92       	push	r14
    40be:	ff 92       	push	r15
    40c0:	0f 93       	push	r16
    40c2:	1f 93       	push	r17
    40c4:	cf 93       	push	r28
    40c6:	df 93       	push	r29
    40c8:	f9 01       	movw	r30, r18
	if(ms_time>0){
    40ca:	16 16       	cp	r1, r22
    40cc:	17 06       	cpc	r1, r23
    40ce:	0c f0       	brlt	.+2      	; 0x40d2 <_ZN7Support6AdjastEiiiii+0x16>
    40d0:	4f c0       	rjmp	.+158    	; 0x4170 <_ZN7Support6AdjastEiiiii+0xb4>
		uint8_t data = 0x00;
    40d2:	31 e0       	ldi	r19, 0x01	; 1
    40d4:	41 30       	cpi	r20, 0x01	; 1
    40d6:	51 05       	cpc	r21, r1
    40d8:	09 f0       	breq	.+2      	; 0x40dc <_ZN7Support6AdjastEiiiii+0x20>
    40da:	30 e0       	ldi	r19, 0x00	; 0
		if(DerWheel_1 == UP){data |= (1<<0);};
		if(DerWheel_1 == DOWN){data |= (1<<1);};
    40dc:	42 30       	cpi	r20, 0x02	; 2
    40de:	51 05       	cpc	r21, r1
    40e0:	09 f4       	brne	.+2      	; 0x40e4 <_ZN7Support6AdjastEiiiii+0x28>
    40e2:	32 60       	ori	r19, 0x02	; 2
		
		if(DerWheel_2 == UP){data |= (1<<2);};
    40e4:	e1 30       	cpi	r30, 0x01	; 1
    40e6:	f1 05       	cpc	r31, r1
    40e8:	11 f4       	brne	.+4      	; 0x40ee <_ZN7Support6AdjastEiiiii+0x32>
    40ea:	34 60       	ori	r19, 0x04	; 4
    40ec:	03 c0       	rjmp	.+6      	; 0x40f4 <_ZN7Support6AdjastEiiiii+0x38>
		if(DerWheel_2 == DOWN){data |= (1<<3);};
    40ee:	32 97       	sbiw	r30, 0x02	; 2
    40f0:	09 f4       	brne	.+2      	; 0x40f4 <_ZN7Support6AdjastEiiiii+0x38>
    40f2:	38 60       	ori	r19, 0x08	; 8
		
		if(DerWheel_3 == UP){data |= (1<<4);};
    40f4:	01 30       	cpi	r16, 0x01	; 1
    40f6:	11 05       	cpc	r17, r1
    40f8:	11 f4       	brne	.+4      	; 0x40fe <_ZN7Support6AdjastEiiiii+0x42>
    40fa:	30 61       	ori	r19, 0x10	; 16
    40fc:	04 c0       	rjmp	.+8      	; 0x4106 <_ZN7Support6AdjastEiiiii+0x4a>
		if(DerWheel_3 == DOWN){data |= (1<<5);};
    40fe:	02 30       	cpi	r16, 0x02	; 2
    4100:	11 05       	cpc	r17, r1
    4102:	09 f4       	brne	.+2      	; 0x4106 <_ZN7Support6AdjastEiiiii+0x4a>
    4104:	30 62       	ori	r19, 0x20	; 32
    4106:	8b 01       	movw	r16, r22
    4108:	ec 01       	movw	r28, r24
		
		if(DerWheel_4 == UP){data |= (1<<6);};
    410a:	81 e0       	ldi	r24, 0x01	; 1
    410c:	e8 16       	cp	r14, r24
    410e:	f1 04       	cpc	r15, r1
    4110:	19 f4       	brne	.+6      	; 0x4118 <_ZN7Support6AdjastEiiiii+0x5c>
    4112:	63 2f       	mov	r22, r19
    4114:	60 64       	ori	r22, 0x40	; 64
    4116:	06 c0       	rjmp	.+12     	; 0x4124 <_ZN7Support6AdjastEiiiii+0x68>
		if(DerWheel_4 == DOWN){data |= (1<<7);};
    4118:	92 e0       	ldi	r25, 0x02	; 2
    411a:	e9 16       	cp	r14, r25
    411c:	f1 04       	cpc	r15, r1
    411e:	09 f5       	brne	.+66     	; 0x4162 <_ZN7Support6AdjastEiiiii+0xa6>
    4120:	63 2f       	mov	r22, r19
    4122:	60 68       	ori	r22, 0x80	; 128
		
		write_i2c((I2C_ADR_PCF8574<<1), data);
    4124:	8e e4       	ldi	r24, 0x4E	; 78
    4126:	0e 94 36 20 	call	0x406c	; 0x406c <_ZL9write_i2chh>
		for (i=0;i<ms_time;i++){_delay_ms(1);}
    412a:	19 82       	std	Y+1, r1	; 0x01
    412c:	18 82       	st	Y, r1
    412e:	89 ef       	ldi	r24, 0xF9	; 249
    4130:	90 e0       	ldi	r25, 0x00	; 0
    4132:	01 97       	sbiw	r24, 0x01	; 1
    4134:	f1 f7       	brne	.-4      	; 0x4132 <_ZN7Support6AdjastEiiiii+0x76>
    4136:	00 c0       	rjmp	.+0      	; 0x4138 <_ZN7Support6AdjastEiiiii+0x7c>
    4138:	00 00       	nop
    413a:	28 81       	ld	r18, Y
    413c:	39 81       	ldd	r19, Y+1	; 0x01
    413e:	2f 5f       	subi	r18, 0xFF	; 255
    4140:	3f 4f       	sbci	r19, 0xFF	; 255
    4142:	39 83       	std	Y+1, r19	; 0x01
    4144:	28 83       	st	Y, r18
    4146:	20 17       	cp	r18, r16
    4148:	31 07       	cpc	r19, r17
    414a:	8c f3       	brlt	.-30     	; 0x412e <_ZN7Support6AdjastEiiiii+0x72>
		write_i2c((I2C_ADR_PCF8574<<1), 0x00);
    414c:	60 e0       	ldi	r22, 0x00	; 0
    414e:	8e e4       	ldi	r24, 0x4E	; 78
    4150:	0e 94 36 20 	call	0x406c	; 0x406c <_ZL9write_i2chh>
    4154:	83 ed       	ldi	r24, 0xD3	; 211
    4156:	90 e3       	ldi	r25, 0x30	; 48
    4158:	01 97       	sbiw	r24, 0x01	; 1
    415a:	f1 f7       	brne	.-4      	; 0x4158 <_ZN7Support6AdjastEiiiii+0x9c>
    415c:	00 c0       	rjmp	.+0      	; 0x415e <_ZN7Support6AdjastEiiiii+0xa2>
    415e:	00 00       	nop
		_delay_ms(50);
	}
	
}
    4160:	07 c0       	rjmp	.+14     	; 0x4170 <_ZN7Support6AdjastEiiiii+0xb4>
		if(DerWheel_3 == DOWN){data |= (1<<5);};
		
		if(DerWheel_4 == UP){data |= (1<<6);};
		if(DerWheel_4 == DOWN){data |= (1<<7);};
		
		write_i2c((I2C_ADR_PCF8574<<1), data);
    4162:	63 2f       	mov	r22, r19
    4164:	8e e4       	ldi	r24, 0x4E	; 78
    4166:	0e 94 36 20 	call	0x406c	; 0x406c <_ZL9write_i2chh>
		for (i=0;i<ms_time;i++){_delay_ms(1);}
    416a:	19 82       	std	Y+1, r1	; 0x01
    416c:	18 82       	st	Y, r1
    416e:	df cf       	rjmp	.-66     	; 0x412e <_ZN7Support6AdjastEiiiii+0x72>
		write_i2c((I2C_ADR_PCF8574<<1), 0x00);
		_delay_ms(50);
	}
	
}
    4170:	df 91       	pop	r29
    4172:	cf 91       	pop	r28
    4174:	1f 91       	pop	r17
    4176:	0f 91       	pop	r16
    4178:	ff 90       	pop	r15
    417a:	ef 90       	pop	r14
    417c:	08 95       	ret

0000417e <_ZN7Support9ForceMoveEiiiii>:

void Support::ForceMove(int ms_time, int DerWheel_1, int DerWheel_2,int DerWheel_3, int DerWheel_4){
    417e:	ef 92       	push	r14
    4180:	ff 92       	push	r15
    4182:	0f 93       	push	r16
    4184:	1f 93       	push	r17
    4186:	cf 93       	push	r28
    4188:	df 93       	push	r29
    418a:	f9 01       	movw	r30, r18
	if(ms_time>0){
    418c:	16 16       	cp	r1, r22
    418e:	17 06       	cpc	r1, r23
    4190:	0c f0       	brlt	.+2      	; 0x4194 <_ZN7Support9ForceMoveEiiiii+0x16>
    4192:	4f c0       	rjmp	.+158    	; 0x4232 <_ZN7Support9ForceMoveEiiiii+0xb4>
		uint8_t data = 0x00;
    4194:	31 e0       	ldi	r19, 0x01	; 1
    4196:	41 30       	cpi	r20, 0x01	; 1
    4198:	51 05       	cpc	r21, r1
    419a:	09 f0       	breq	.+2      	; 0x419e <_ZN7Support9ForceMoveEiiiii+0x20>
    419c:	30 e0       	ldi	r19, 0x00	; 0
		if(DerWheel_1 == UP){data |= (1<<0);};
		if(DerWheel_1 == DOWN){data |= (1<<1);};
    419e:	42 30       	cpi	r20, 0x02	; 2
    41a0:	51 05       	cpc	r21, r1
    41a2:	09 f4       	brne	.+2      	; 0x41a6 <_ZN7Support9ForceMoveEiiiii+0x28>
    41a4:	32 60       	ori	r19, 0x02	; 2
		
		if(DerWheel_2 == UP){data |= (1<<2);};
    41a6:	e1 30       	cpi	r30, 0x01	; 1
    41a8:	f1 05       	cpc	r31, r1
    41aa:	11 f4       	brne	.+4      	; 0x41b0 <_ZN7Support9ForceMoveEiiiii+0x32>
    41ac:	34 60       	ori	r19, 0x04	; 4
    41ae:	03 c0       	rjmp	.+6      	; 0x41b6 <_ZN7Support9ForceMoveEiiiii+0x38>
		if(DerWheel_2 == DOWN){data |= (1<<3);};
    41b0:	32 97       	sbiw	r30, 0x02	; 2
    41b2:	09 f4       	brne	.+2      	; 0x41b6 <_ZN7Support9ForceMoveEiiiii+0x38>
    41b4:	38 60       	ori	r19, 0x08	; 8
		
		if(DerWheel_3 == UP){data |= (1<<4);};
    41b6:	01 30       	cpi	r16, 0x01	; 1
    41b8:	11 05       	cpc	r17, r1
    41ba:	11 f4       	brne	.+4      	; 0x41c0 <_ZN7Support9ForceMoveEiiiii+0x42>
    41bc:	30 61       	ori	r19, 0x10	; 16
    41be:	04 c0       	rjmp	.+8      	; 0x41c8 <_ZN7Support9ForceMoveEiiiii+0x4a>
		if(DerWheel_3 == DOWN){data |= (1<<5);};
    41c0:	02 30       	cpi	r16, 0x02	; 2
    41c2:	11 05       	cpc	r17, r1
    41c4:	09 f4       	brne	.+2      	; 0x41c8 <_ZN7Support9ForceMoveEiiiii+0x4a>
    41c6:	30 62       	ori	r19, 0x20	; 32
    41c8:	8b 01       	movw	r16, r22
    41ca:	ec 01       	movw	r28, r24
		
		if(DerWheel_4 == UP){data |= (1<<6);};
    41cc:	81 e0       	ldi	r24, 0x01	; 1
    41ce:	e8 16       	cp	r14, r24
    41d0:	f1 04       	cpc	r15, r1
    41d2:	19 f4       	brne	.+6      	; 0x41da <_ZN7Support9ForceMoveEiiiii+0x5c>
    41d4:	63 2f       	mov	r22, r19
    41d6:	60 64       	ori	r22, 0x40	; 64
    41d8:	06 c0       	rjmp	.+12     	; 0x41e6 <_ZN7Support9ForceMoveEiiiii+0x68>
		if(DerWheel_4 == DOWN){data |= (1<<7);};
    41da:	92 e0       	ldi	r25, 0x02	; 2
    41dc:	e9 16       	cp	r14, r25
    41de:	f1 04       	cpc	r15, r1
    41e0:	09 f5       	brne	.+66     	; 0x4224 <_ZN7Support9ForceMoveEiiiii+0xa6>
    41e2:	63 2f       	mov	r22, r19
    41e4:	60 68       	ori	r22, 0x80	; 128
		
		write_i2c((I2C_ADR_PCF8574<<1), data);
    41e6:	8e e4       	ldi	r24, 0x4E	; 78
    41e8:	0e 94 36 20 	call	0x406c	; 0x406c <_ZL9write_i2chh>
		for (i=0;i<ms_time;i++){_delay_ms(1);}
    41ec:	19 82       	std	Y+1, r1	; 0x01
    41ee:	18 82       	st	Y, r1
    41f0:	89 ef       	ldi	r24, 0xF9	; 249
    41f2:	90 e0       	ldi	r25, 0x00	; 0
    41f4:	01 97       	sbiw	r24, 0x01	; 1
    41f6:	f1 f7       	brne	.-4      	; 0x41f4 <_ZN7Support9ForceMoveEiiiii+0x76>
    41f8:	00 c0       	rjmp	.+0      	; 0x41fa <_ZN7Support9ForceMoveEiiiii+0x7c>
    41fa:	00 00       	nop
    41fc:	28 81       	ld	r18, Y
    41fe:	39 81       	ldd	r19, Y+1	; 0x01
    4200:	2f 5f       	subi	r18, 0xFF	; 255
    4202:	3f 4f       	sbci	r19, 0xFF	; 255
    4204:	39 83       	std	Y+1, r19	; 0x01
    4206:	28 83       	st	Y, r18
    4208:	20 17       	cp	r18, r16
    420a:	31 07       	cpc	r19, r17
    420c:	8c f3       	brlt	.-30     	; 0x41f0 <_ZN7Support9ForceMoveEiiiii+0x72>
		write_i2c((I2C_ADR_PCF8574<<1), 0x00);
    420e:	60 e0       	ldi	r22, 0x00	; 0
    4210:	8e e4       	ldi	r24, 0x4E	; 78
    4212:	0e 94 36 20 	call	0x406c	; 0x406c <_ZL9write_i2chh>
    4216:	89 ef       	ldi	r24, 0xF9	; 249
    4218:	90 e0       	ldi	r25, 0x00	; 0
    421a:	01 97       	sbiw	r24, 0x01	; 1
    421c:	f1 f7       	brne	.-4      	; 0x421a <_ZN7Support9ForceMoveEiiiii+0x9c>
    421e:	00 c0       	rjmp	.+0      	; 0x4220 <_ZN7Support9ForceMoveEiiiii+0xa2>
    4220:	00 00       	nop
		_delay_ms(1);
	}
	
}
    4222:	07 c0       	rjmp	.+14     	; 0x4232 <_ZN7Support9ForceMoveEiiiii+0xb4>
		if(DerWheel_3 == DOWN){data |= (1<<5);};
		
		if(DerWheel_4 == UP){data |= (1<<6);};
		if(DerWheel_4 == DOWN){data |= (1<<7);};
		
		write_i2c((I2C_ADR_PCF8574<<1), data);
    4224:	63 2f       	mov	r22, r19
    4226:	8e e4       	ldi	r24, 0x4E	; 78
    4228:	0e 94 36 20 	call	0x406c	; 0x406c <_ZL9write_i2chh>
		for (i=0;i<ms_time;i++){_delay_ms(1);}
    422c:	19 82       	std	Y+1, r1	; 0x01
    422e:	18 82       	st	Y, r1
    4230:	df cf       	rjmp	.-66     	; 0x41f0 <_ZN7Support9ForceMoveEiiiii+0x72>
		write_i2c((I2C_ADR_PCF8574<<1), 0x00);
		_delay_ms(1);
	}
	
}
    4232:	df 91       	pop	r29
    4234:	cf 91       	pop	r28
    4236:	1f 91       	pop	r17
    4238:	0f 91       	pop	r16
    423a:	ff 90       	pop	r15
    423c:	ef 90       	pop	r14
    423e:	08 95       	ret

00004240 <_ZN5WheelC1Ev>:
#include "Wheel.h"



// default constructor
Wheel::Wheel()
    4240:	84 96       	adiw	r24, 0x24	; 36
    4242:	0e 94 cd 1f 	call	0x3f9a	; 0x3f9a <_ZN13SensorsWheelsC1Ev>
    4246:	08 95       	ret

00004248 <_ZN5Wheel9get_hightEv>:
	oldHigit = get_hight();
	countToMalfunction = 0;
	Error = 0;
}

float Wheel::get_hight(){
    4248:	cf 93       	push	r28
    424a:	df 93       	push	r29
    424c:	ec 01       	movw	r28, r24
	hight = sensorWheels.getParams(number);
    424e:	68 81       	ld	r22, Y
    4250:	79 81       	ldd	r23, Y+1	; 0x01
    4252:	84 96       	adiw	r24, 0x24	; 36
    4254:	0e 94 d9 1f 	call	0x3fb2	; 0x3fb2 <_ZN13SensorsWheels9getParamsEi>
    4258:	6a 83       	std	Y+2, r22	; 0x02
    425a:	7b 83       	std	Y+3, r23	; 0x03
    425c:	8c 83       	std	Y+4, r24	; 0x04
    425e:	9d 83       	std	Y+5, r25	; 0x05
	return hight;
}
    4260:	df 91       	pop	r29
    4262:	cf 91       	pop	r28
    4264:	08 95       	ret

00004266 <_ZN5Wheel4InitEi>:
// default constructor
Wheel::Wheel()
{
} //Wheel

void Wheel::Init(int _number){
    4266:	0f 93       	push	r16
    4268:	1f 93       	push	r17
    426a:	cf 93       	push	r28
    426c:	df 93       	push	r29
    426e:	ec 01       	movw	r28, r24
    4270:	8b 01       	movw	r16, r22
	sensorWheels.Init();
    4272:	84 96       	adiw	r24, 0x24	; 36
    4274:	0e 94 ce 1f 	call	0x3f9c	; 0x3f9c <_ZN13SensorsWheels4InitEv>
	number =  _number;
    4278:	19 83       	std	Y+1, r17	; 0x01
    427a:	08 83       	st	Y, r16
	maxHight = 5.00;
    427c:	80 e0       	ldi	r24, 0x00	; 0
    427e:	90 e0       	ldi	r25, 0x00	; 0
    4280:	a0 ea       	ldi	r26, 0xA0	; 160
    4282:	b0 e4       	ldi	r27, 0x40	; 64
    4284:	8e 83       	std	Y+6, r24	; 0x06
    4286:	9f 83       	std	Y+7, r25	; 0x07
    4288:	a8 87       	std	Y+8, r26	; 0x08
    428a:	b9 87       	std	Y+9, r27	; 0x09
	minHight = 0.01;
    428c:	8a e0       	ldi	r24, 0x0A	; 10
    428e:	97 ed       	ldi	r25, 0xD7	; 215
    4290:	a3 e2       	ldi	r26, 0x23	; 35
    4292:	bc e3       	ldi	r27, 0x3C	; 60
    4294:	8a 87       	std	Y+10, r24	; 0x0a
    4296:	9b 87       	std	Y+11, r25	; 0x0b
    4298:	ac 87       	std	Y+12, r26	; 0x0c
    429a:	bd 87       	std	Y+13, r27	; 0x0d
	oldHigit = get_hight();
    429c:	ce 01       	movw	r24, r28
    429e:	0e 94 24 21 	call	0x4248	; 0x4248 <_ZN5Wheel9get_hightEv>
    42a2:	6e 87       	std	Y+14, r22	; 0x0e
    42a4:	7f 87       	std	Y+15, r23	; 0x0f
    42a6:	88 8b       	std	Y+16, r24	; 0x10
    42a8:	99 8b       	std	Y+17, r25	; 0x11
	countToMalfunction = 0;
    42aa:	19 a2       	std	Y+33, r1	; 0x21
    42ac:	18 a2       	std	Y+32, r1	; 0x20
	Error = 0;
    42ae:	1f 8e       	std	Y+31, r1	; 0x1f
    42b0:	1e 8e       	std	Y+30, r1	; 0x1e
}
    42b2:	df 91       	pop	r29
    42b4:	cf 91       	pop	r28
    42b6:	1f 91       	pop	r17
    42b8:	0f 91       	pop	r16
    42ba:	08 95       	ret

000042bc <_ZN5Wheel12initialHightEv>:
float Wheel::get_hight(){
	hight = sensorWheels.getParams(number);
	return hight;
}

void Wheel::initialHight(){
    42bc:	cf 93       	push	r28
    42be:	df 93       	push	r29
    42c0:	ec 01       	movw	r28, r24
	get_hight();
    42c2:	0e 94 24 21 	call	0x4248	; 0x4248 <_ZN5Wheel9get_hightEv>
	sethight = hight;
    42c6:	8a 81       	ldd	r24, Y+2	; 0x02
    42c8:	9b 81       	ldd	r25, Y+3	; 0x03
    42ca:	ac 81       	ldd	r26, Y+4	; 0x04
    42cc:	bd 81       	ldd	r27, Y+5	; 0x05
    42ce:	8e 8b       	std	Y+22, r24	; 0x16
    42d0:	9f 8b       	std	Y+23, r25	; 0x17
    42d2:	a8 8f       	std	Y+24, r26	; 0x18
    42d4:	b9 8f       	std	Y+25, r27	; 0x19
}
    42d6:	df 91       	pop	r29
    42d8:	cf 91       	pop	r28
    42da:	08 95       	ret

000042dc <_ZN5Wheel13takeDerectionEv>:

int Wheel::takeDerection(){	
    42dc:	8f 92       	push	r8
    42de:	9f 92       	push	r9
    42e0:	af 92       	push	r10
    42e2:	bf 92       	push	r11
    42e4:	cf 92       	push	r12
    42e6:	df 92       	push	r13
    42e8:	ef 92       	push	r14
    42ea:	ff 92       	push	r15
    42ec:	cf 93       	push	r28
    42ee:	df 93       	push	r29
	if (!selected) return NORMAL;
    42f0:	fc 01       	movw	r30, r24
    42f2:	22 8d       	ldd	r18, Z+26	; 0x1a
    42f4:	22 23       	and	r18, r18
    42f6:	09 f4       	brne	.+2      	; 0x42fa <_ZN5Wheel13takeDerectionEv+0x1e>
    42f8:	58 c0       	rjmp	.+176    	; 0x43aa <_ZN5Wheel13takeDerectionEv+0xce>
	if (malfuction) return 0;
    42fa:	23 8d       	ldd	r18, Z+27	; 0x1b
    42fc:	21 11       	cpse	r18, r1
    42fe:	58 c0       	rjmp	.+176    	; 0x43b0 <_ZN5Wheel13takeDerectionEv+0xd4>
    4300:	ec 01       	movw	r28, r24
	hight = get_hight();
    4302:	0e 94 24 21 	call	0x4248	; 0x4248 <_ZN5Wheel9get_hightEv>
    4306:	6b 01       	movw	r12, r22
    4308:	7c 01       	movw	r14, r24
    430a:	6a 83       	std	Y+2, r22	; 0x02
    430c:	7b 83       	std	Y+3, r23	; 0x03
    430e:	8c 83       	std	Y+4, r24	; 0x04
    4310:	9d 83       	std	Y+5, r25	; 0x05
	if(sethight==0){sethight=0.01;}//correcting
    4312:	20 e0       	ldi	r18, 0x00	; 0
    4314:	30 e0       	ldi	r19, 0x00	; 0
    4316:	a9 01       	movw	r20, r18
    4318:	6e 89       	ldd	r22, Y+22	; 0x16
    431a:	7f 89       	ldd	r23, Y+23	; 0x17
    431c:	88 8d       	ldd	r24, Y+24	; 0x18
    431e:	99 8d       	ldd	r25, Y+25	; 0x19
    4320:	0e 94 50 23 	call	0x46a0	; 0x46a0 <__cmpsf2>
    4324:	81 11       	cpse	r24, r1
    4326:	08 c0       	rjmp	.+16     	; 0x4338 <_ZN5Wheel13takeDerectionEv+0x5c>
    4328:	8a e0       	ldi	r24, 0x0A	; 10
    432a:	97 ed       	ldi	r25, 0xD7	; 215
    432c:	a3 e2       	ldi	r26, 0x23	; 35
    432e:	bc e3       	ldi	r27, 0x3C	; 60
    4330:	8e 8b       	std	Y+22, r24	; 0x16
    4332:	9f 8b       	std	Y+23, r25	; 0x17
    4334:	a8 8f       	std	Y+24, r26	; 0x18
    4336:	b9 8f       	std	Y+25, r27	; 0x19
	diff = sethight*300 - hight*300;
    4338:	20 e0       	ldi	r18, 0x00	; 0
    433a:	30 e0       	ldi	r19, 0x00	; 0
    433c:	46 e9       	ldi	r20, 0x96	; 150
    433e:	53 e4       	ldi	r21, 0x43	; 67
    4340:	6e 89       	ldd	r22, Y+22	; 0x16
    4342:	7f 89       	ldd	r23, Y+23	; 0x17
    4344:	88 8d       	ldd	r24, Y+24	; 0x18
    4346:	99 8d       	ldd	r25, Y+25	; 0x19
    4348:	0e 94 b4 24 	call	0x4968	; 0x4968 <__mulsf3>
    434c:	4b 01       	movw	r8, r22
    434e:	5c 01       	movw	r10, r24
    4350:	20 e0       	ldi	r18, 0x00	; 0
    4352:	30 e0       	ldi	r19, 0x00	; 0
    4354:	46 e9       	ldi	r20, 0x96	; 150
    4356:	53 e4       	ldi	r21, 0x43	; 67
    4358:	c7 01       	movw	r24, r14
    435a:	b6 01       	movw	r22, r12
    435c:	0e 94 b4 24 	call	0x4968	; 0x4968 <__mulsf3>
    4360:	9b 01       	movw	r18, r22
    4362:	ac 01       	movw	r20, r24
    4364:	c5 01       	movw	r24, r10
    4366:	b4 01       	movw	r22, r8
    4368:	0e 94 e3 22 	call	0x45c6	; 0x45c6 <__subsf3>
    436c:	6d a3       	std	Y+37, r22	; 0x25
    436e:	7e a3       	std	Y+38, r23	; 0x26
    4370:	8f a3       	std	Y+39, r24	; 0x27
    4372:	98 a7       	std	Y+40, r25	; 0x28
	step = diff;
    4374:	0e 94 c7 23 	call	0x478e	; 0x478e <__fixsfsi>
    4378:	7b a3       	std	Y+35, r23	; 0x23
    437a:	6a a3       	std	Y+34, r22	; 0x22
	_diff = diff;
    437c:	7a a7       	std	Y+42, r23	; 0x2a
    437e:	69 a7       	std	Y+41, r22	; 0x29
	adjusted = false;
    4380:	1c 8e       	std	Y+28, r1	; 0x1c
	if (_diff < 0){ step = (0 - step) ; return DOWN;}
    4382:	77 23       	and	r23, r23
    4384:	44 f4       	brge	.+16     	; 0x4396 <_ZN5Wheel13takeDerectionEv+0xba>
    4386:	71 95       	neg	r23
    4388:	61 95       	neg	r22
    438a:	71 09       	sbc	r23, r1
    438c:	7b a3       	std	Y+35, r23	; 0x23
    438e:	6a a3       	std	Y+34, r22	; 0x22
    4390:	82 e0       	ldi	r24, 0x02	; 2
    4392:	90 e0       	ldi	r25, 0x00	; 0
    4394:	12 c0       	rjmp	.+36     	; 0x43ba <_ZN5Wheel13takeDerectionEv+0xde>
	if (_diff > 0){ ; return UP;}
    4396:	16 16       	cp	r1, r22
    4398:	17 06       	cpc	r1, r23
    439a:	6c f0       	brlt	.+26     	; 0x43b6 <_ZN5Wheel13takeDerectionEv+0xda>
	step = 0;
    439c:	1b a2       	std	Y+35, r1	; 0x23
    439e:	1a a2       	std	Y+34, r1	; 0x22
	adjusted = true;
    43a0:	81 e0       	ldi	r24, 0x01	; 1
    43a2:	8c 8f       	std	Y+28, r24	; 0x1c
	return NORMAL;
    43a4:	80 e0       	ldi	r24, 0x00	; 0
    43a6:	90 e0       	ldi	r25, 0x00	; 0
    43a8:	08 c0       	rjmp	.+16     	; 0x43ba <_ZN5Wheel13takeDerectionEv+0xde>
	get_hight();
	sethight = hight;
}

int Wheel::takeDerection(){	
	if (!selected) return NORMAL;
    43aa:	80 e0       	ldi	r24, 0x00	; 0
    43ac:	90 e0       	ldi	r25, 0x00	; 0
    43ae:	05 c0       	rjmp	.+10     	; 0x43ba <_ZN5Wheel13takeDerectionEv+0xde>
	if (malfuction) return 0;
    43b0:	80 e0       	ldi	r24, 0x00	; 0
    43b2:	90 e0       	ldi	r25, 0x00	; 0
    43b4:	02 c0       	rjmp	.+4      	; 0x43ba <_ZN5Wheel13takeDerectionEv+0xde>
	diff = sethight*300 - hight*300;
	step = diff;
	_diff = diff;
	adjusted = false;
	if (_diff < 0){ step = (0 - step) ; return DOWN;}
	if (_diff > 0){ ; return UP;}
    43b6:	81 e0       	ldi	r24, 0x01	; 1
    43b8:	90 e0       	ldi	r25, 0x00	; 0
	step = 0;
	adjusted = true;
	return NORMAL;
}
    43ba:	df 91       	pop	r29
    43bc:	cf 91       	pop	r28
    43be:	ff 90       	pop	r15
    43c0:	ef 90       	pop	r14
    43c2:	df 90       	pop	r13
    43c4:	cf 90       	pop	r12
    43c6:	bf 90       	pop	r11
    43c8:	af 90       	pop	r10
    43ca:	9f 90       	pop	r9
    43cc:	8f 90       	pop	r8
    43ce:	08 95       	ret

000043d0 <_ZN5Wheel5CheckEv>:

bool Wheel::Check(){
    43d0:	cf 93       	push	r28
    43d2:	df 93       	push	r29
    43d4:	ec 01       	movw	r28, r24
	checkhight = hight;
    43d6:	8a 81       	ldd	r24, Y+2	; 0x02
    43d8:	9b 81       	ldd	r25, Y+3	; 0x03
    43da:	ac 81       	ldd	r26, Y+4	; 0x04
    43dc:	bd 81       	ldd	r27, Y+5	; 0x05
    43de:	8a 8b       	std	Y+18, r24	; 0x12
    43e0:	9b 8b       	std	Y+19, r25	; 0x13
    43e2:	ac 8b       	std	Y+20, r26	; 0x14
    43e4:	bd 8b       	std	Y+21, r27	; 0x15
	hight = get_hight();
    43e6:	ce 01       	movw	r24, r28
    43e8:	0e 94 24 21 	call	0x4248	; 0x4248 <_ZN5Wheel9get_hightEv>
    43ec:	6a 83       	std	Y+2, r22	; 0x02
    43ee:	7b 83       	std	Y+3, r23	; 0x03
    43f0:	8c 83       	std	Y+4, r24	; 0x04
    43f2:	9d 83       	std	Y+5, r25	; 0x05
	if (checkhight == hight){
    43f4:	2a 89       	ldd	r18, Y+18	; 0x12
    43f6:	3b 89       	ldd	r19, Y+19	; 0x13
    43f8:	4c 89       	ldd	r20, Y+20	; 0x14
    43fa:	5d 89       	ldd	r21, Y+21	; 0x15
    43fc:	0e 94 50 23 	call	0x46a0	; 0x46a0 <__cmpsf2>
    4400:	81 11       	cpse	r24, r1
    4402:	08 c0       	rjmp	.+16     	; 0x4414 <_ZN5Wheel5CheckEv+0x44>
		malfuction = true;
    4404:	81 e0       	ldi	r24, 0x01	; 1
    4406:	8b 8f       	std	Y+27, r24	; 0x1b
		Error = 1;
    4408:	81 e0       	ldi	r24, 0x01	; 1
    440a:	90 e0       	ldi	r25, 0x00	; 0
    440c:	9f 8f       	std	Y+31, r25	; 0x1f
    440e:	8e 8f       	std	Y+30, r24	; 0x1e
		return false;
    4410:	80 e0       	ldi	r24, 0x00	; 0
    4412:	02 c0       	rjmp	.+4      	; 0x4418 <_ZN5Wheel5CheckEv+0x48>
	} else{
		malfuction = false;
    4414:	1b 8e       	std	Y+27, r1	; 0x1b
		return true;
    4416:	81 e0       	ldi	r24, 0x01	; 1
	}
}
    4418:	df 91       	pop	r29
    441a:	cf 91       	pop	r28
    441c:	08 95       	ret

0000441e <_ZN5Wheel18ControlMalfinctionEi>:

void Wheel::ControlMalfinction(int countToMalfunctionLimit ){
    441e:	fc 01       	movw	r30, r24
	if(!move){
    4420:	85 8d       	ldd	r24, Z+29	; 0x1d
    4422:	81 11       	cpse	r24, r1
    4424:	0f c0       	rjmp	.+30     	; 0x4444 <_ZN5Wheel18ControlMalfinctionEi+0x26>
		countToMalfunction++;
    4426:	80 a1       	ldd	r24, Z+32	; 0x20
    4428:	91 a1       	ldd	r25, Z+33	; 0x21
    442a:	01 96       	adiw	r24, 0x01	; 1
    442c:	91 a3       	std	Z+33, r25	; 0x21
    442e:	80 a3       	std	Z+32, r24	; 0x20
		if(countToMalfunction>countToMalfunctionLimit){
    4430:	68 17       	cp	r22, r24
    4432:	79 07       	cpc	r23, r25
    4434:	4c f4       	brge	.+18     	; 0x4448 <_ZN5Wheel18ControlMalfinctionEi+0x2a>
			malfuction = true;
    4436:	81 e0       	ldi	r24, 0x01	; 1
    4438:	83 8f       	std	Z+27, r24	; 0x1b
			Error = 3;
    443a:	83 e0       	ldi	r24, 0x03	; 3
    443c:	90 e0       	ldi	r25, 0x00	; 0
    443e:	97 8f       	std	Z+31, r25	; 0x1f
    4440:	86 8f       	std	Z+30, r24	; 0x1e
    4442:	08 95       	ret
		}
	}else{
		countToMalfunction=0;
    4444:	11 a2       	std	Z+33, r1	; 0x21
    4446:	10 a2       	std	Z+32, r1	; 0x20
    4448:	08 95       	ret

0000444a <_ZN5Wheel17SetLimitsSetHightEv>:
	}
}

void Wheel::SetLimitsSetHight(){
    444a:	cf 92       	push	r12
    444c:	df 92       	push	r13
    444e:	ef 92       	push	r14
    4450:	ff 92       	push	r15
    4452:	cf 93       	push	r28
    4454:	df 93       	push	r29
    4456:	ec 01       	movw	r28, r24
	if(sethight>=maxHight){sethight=maxHight;}
    4458:	ce 80       	ldd	r12, Y+6	; 0x06
    445a:	df 80       	ldd	r13, Y+7	; 0x07
    445c:	e8 84       	ldd	r14, Y+8	; 0x08
    445e:	f9 84       	ldd	r15, Y+9	; 0x09
    4460:	a7 01       	movw	r20, r14
    4462:	96 01       	movw	r18, r12
    4464:	6e 89       	ldd	r22, Y+22	; 0x16
    4466:	7f 89       	ldd	r23, Y+23	; 0x17
    4468:	88 8d       	ldd	r24, Y+24	; 0x18
    446a:	99 8d       	ldd	r25, Y+25	; 0x19
    446c:	0e 94 af 24 	call	0x495e	; 0x495e <__gesf2>
    4470:	88 23       	and	r24, r24
    4472:	24 f0       	brlt	.+8      	; 0x447c <_ZN5Wheel17SetLimitsSetHightEv+0x32>
    4474:	ce 8a       	std	Y+22, r12	; 0x16
    4476:	df 8a       	std	Y+23, r13	; 0x17
    4478:	e8 8e       	std	Y+24, r14	; 0x18
    447a:	f9 8e       	std	Y+25, r15	; 0x19
	if(sethight<=minHight){sethight=minHight;}
    447c:	ca 84       	ldd	r12, Y+10	; 0x0a
    447e:	db 84       	ldd	r13, Y+11	; 0x0b
    4480:	ec 84       	ldd	r14, Y+12	; 0x0c
    4482:	fd 84       	ldd	r15, Y+13	; 0x0d
    4484:	a7 01       	movw	r20, r14
    4486:	96 01       	movw	r18, r12
    4488:	6e 89       	ldd	r22, Y+22	; 0x16
    448a:	7f 89       	ldd	r23, Y+23	; 0x17
    448c:	88 8d       	ldd	r24, Y+24	; 0x18
    448e:	99 8d       	ldd	r25, Y+25	; 0x19
    4490:	0e 94 50 23 	call	0x46a0	; 0x46a0 <__cmpsf2>
    4494:	18 16       	cp	r1, r24
    4496:	24 f0       	brlt	.+8      	; 0x44a0 <_ZN5Wheel17SetLimitsSetHightEv+0x56>
    4498:	ce 8a       	std	Y+22, r12	; 0x16
    449a:	df 8a       	std	Y+23, r13	; 0x17
    449c:	e8 8e       	std	Y+24, r14	; 0x18
    449e:	f9 8e       	std	Y+25, r15	; 0x19
}
    44a0:	df 91       	pop	r29
    44a2:	cf 91       	pop	r28
    44a4:	ff 90       	pop	r15
    44a6:	ef 90       	pop	r14
    44a8:	df 90       	pop	r13
    44aa:	cf 90       	pop	r12
    44ac:	08 95       	ret

000044ae <_ZN5Wheel15IsChanchedHightEv>:

bool Wheel::IsChanchedHight(){
    44ae:	cf 92       	push	r12
    44b0:	df 92       	push	r13
    44b2:	ef 92       	push	r14
    44b4:	ff 92       	push	r15
    44b6:	cf 93       	push	r28
    44b8:	df 93       	push	r29
    44ba:	ec 01       	movw	r28, r24
	if(oldHigit != get_hight()){
    44bc:	ce 84       	ldd	r12, Y+14	; 0x0e
    44be:	df 84       	ldd	r13, Y+15	; 0x0f
    44c0:	e8 88       	ldd	r14, Y+16	; 0x10
    44c2:	f9 88       	ldd	r15, Y+17	; 0x11
    44c4:	0e 94 24 21 	call	0x4248	; 0x4248 <_ZN5Wheel9get_hightEv>
    44c8:	9b 01       	movw	r18, r22
    44ca:	ac 01       	movw	r20, r24
    44cc:	c7 01       	movw	r24, r14
    44ce:	b6 01       	movw	r22, r12
    44d0:	0e 94 50 23 	call	0x46a0	; 0x46a0 <__cmpsf2>
    44d4:	88 23       	and	r24, r24
    44d6:	59 f0       	breq	.+22     	; 0x44ee <_ZN5Wheel15IsChanchedHightEv+0x40>
		oldHigit = hight;
    44d8:	8a 81       	ldd	r24, Y+2	; 0x02
    44da:	9b 81       	ldd	r25, Y+3	; 0x03
    44dc:	ac 81       	ldd	r26, Y+4	; 0x04
    44de:	bd 81       	ldd	r27, Y+5	; 0x05
    44e0:	8e 87       	std	Y+14, r24	; 0x0e
    44e2:	9f 87       	std	Y+15, r25	; 0x0f
    44e4:	a8 8b       	std	Y+16, r26	; 0x10
    44e6:	b9 8b       	std	Y+17, r27	; 0x11
		move = true;
    44e8:	81 e0       	ldi	r24, 0x01	; 1
    44ea:	8d 8f       	std	Y+29, r24	; 0x1d
		return true;
    44ec:	02 c0       	rjmp	.+4      	; 0x44f2 <_ZN5Wheel15IsChanchedHightEv+0x44>
	}else{
		move = false;
    44ee:	1d 8e       	std	Y+29, r1	; 0x1d
		return false;		
    44f0:	80 e0       	ldi	r24, 0x00	; 0
	}
}
    44f2:	df 91       	pop	r29
    44f4:	cf 91       	pop	r28
    44f6:	ff 90       	pop	r15
    44f8:	ef 90       	pop	r14
    44fa:	df 90       	pop	r13
    44fc:	cf 90       	pop	r12
    44fe:	08 95       	ret

00004500 <_ZN5Wheel6SelectEv>:

void Wheel::Select(){
    4500:	fc 01       	movw	r30, r24
	selected = !selected;
    4502:	82 8d       	ldd	r24, Z+26	; 0x1a
    4504:	91 e0       	ldi	r25, 0x01	; 1
    4506:	98 27       	eor	r25, r24
    4508:	92 8f       	std	Z+26, r25	; 0x1a
    450a:	08 95       	ret

0000450c <_ZN5Wheel2UpEf>:
}

bool Wheel::Up(float step){
    450c:	cf 92       	push	r12
    450e:	df 92       	push	r13
    4510:	ef 92       	push	r14
    4512:	ff 92       	push	r15
    4514:	1f 93       	push	r17
    4516:	cf 93       	push	r28
    4518:	df 93       	push	r29
    451a:	ec 01       	movw	r28, r24
	if (!selected){return false;}
    451c:	1a 8d       	ldd	r17, Y+26	; 0x1a
    451e:	11 23       	and	r17, r17
    4520:	d1 f0       	breq	.+52     	; 0x4556 <_ZN5Wheel2UpEf+0x4a>
    4522:	cb 01       	movw	r24, r22
    4524:	ba 01       	movw	r22, r20
	sethight += step;
    4526:	2e 89       	ldd	r18, Y+22	; 0x16
    4528:	3f 89       	ldd	r19, Y+23	; 0x17
    452a:	48 8d       	ldd	r20, Y+24	; 0x18
    452c:	59 8d       	ldd	r21, Y+25	; 0x19
    452e:	0e 94 e4 22 	call	0x45c8	; 0x45c8 <__addsf3>
    4532:	6e 8b       	std	Y+22, r22	; 0x16
    4534:	7f 8b       	std	Y+23, r23	; 0x17
    4536:	88 8f       	std	Y+24, r24	; 0x18
    4538:	99 8f       	std	Y+25, r25	; 0x19
	if (sethight > maxHight){sethight = maxHight;}
    453a:	ce 80       	ldd	r12, Y+6	; 0x06
    453c:	df 80       	ldd	r13, Y+7	; 0x07
    453e:	e8 84       	ldd	r14, Y+8	; 0x08
    4540:	f9 84       	ldd	r15, Y+9	; 0x09
    4542:	a7 01       	movw	r20, r14
    4544:	96 01       	movw	r18, r12
    4546:	0e 94 af 24 	call	0x495e	; 0x495e <__gesf2>
    454a:	18 16       	cp	r1, r24
    454c:	24 f4       	brge	.+8      	; 0x4556 <_ZN5Wheel2UpEf+0x4a>
    454e:	ce 8a       	std	Y+22, r12	; 0x16
    4550:	df 8a       	std	Y+23, r13	; 0x17
    4552:	e8 8e       	std	Y+24, r14	; 0x18
    4554:	f9 8e       	std	Y+25, r15	; 0x19
	return true;
}
    4556:	81 2f       	mov	r24, r17
    4558:	df 91       	pop	r29
    455a:	cf 91       	pop	r28
    455c:	1f 91       	pop	r17
    455e:	ff 90       	pop	r15
    4560:	ef 90       	pop	r14
    4562:	df 90       	pop	r13
    4564:	cf 90       	pop	r12
    4566:	08 95       	ret

00004568 <_ZN5Wheel4DownEf>:

bool Wheel::Down(float step){
    4568:	cf 92       	push	r12
    456a:	df 92       	push	r13
    456c:	ef 92       	push	r14
    456e:	ff 92       	push	r15
    4570:	1f 93       	push	r17
    4572:	cf 93       	push	r28
    4574:	df 93       	push	r29
	if (!selected){return false;}
    4576:	fc 01       	movw	r30, r24
    4578:	12 8d       	ldd	r17, Z+26	; 0x1a
    457a:	11 23       	and	r17, r17
    457c:	d9 f0       	breq	.+54     	; 0x45b4 <_ZN5Wheel4DownEf+0x4c>
    457e:	9a 01       	movw	r18, r20
    4580:	ab 01       	movw	r20, r22
    4582:	ec 01       	movw	r28, r24
	sethight -= step;
    4584:	66 89       	ldd	r22, Z+22	; 0x16
    4586:	77 89       	ldd	r23, Z+23	; 0x17
    4588:	80 8d       	ldd	r24, Z+24	; 0x18
    458a:	91 8d       	ldd	r25, Z+25	; 0x19
    458c:	0e 94 e3 22 	call	0x45c6	; 0x45c6 <__subsf3>
    4590:	6e 8b       	std	Y+22, r22	; 0x16
    4592:	7f 8b       	std	Y+23, r23	; 0x17
    4594:	88 8f       	std	Y+24, r24	; 0x18
    4596:	99 8f       	std	Y+25, r25	; 0x19
	if (sethight < minHight){sethight = minHight;}
    4598:	ca 84       	ldd	r12, Y+10	; 0x0a
    459a:	db 84       	ldd	r13, Y+11	; 0x0b
    459c:	ec 84       	ldd	r14, Y+12	; 0x0c
    459e:	fd 84       	ldd	r15, Y+13	; 0x0d
    45a0:	a7 01       	movw	r20, r14
    45a2:	96 01       	movw	r18, r12
    45a4:	0e 94 50 23 	call	0x46a0	; 0x46a0 <__cmpsf2>
    45a8:	88 23       	and	r24, r24
    45aa:	24 f4       	brge	.+8      	; 0x45b4 <_ZN5Wheel4DownEf+0x4c>
    45ac:	ce 8a       	std	Y+22, r12	; 0x16
    45ae:	df 8a       	std	Y+23, r13	; 0x17
    45b0:	e8 8e       	std	Y+24, r14	; 0x18
    45b2:	f9 8e       	std	Y+25, r15	; 0x19
	return true;
}
    45b4:	81 2f       	mov	r24, r17
    45b6:	df 91       	pop	r29
    45b8:	cf 91       	pop	r28
    45ba:	1f 91       	pop	r17
    45bc:	ff 90       	pop	r15
    45be:	ef 90       	pop	r14
    45c0:	df 90       	pop	r13
    45c2:	cf 90       	pop	r12
    45c4:	08 95       	ret

000045c6 <__subsf3>:
    45c6:	50 58       	subi	r21, 0x80	; 128

000045c8 <__addsf3>:
    45c8:	bb 27       	eor	r27, r27
    45ca:	aa 27       	eor	r26, r26
    45cc:	0e 94 fb 22 	call	0x45f6	; 0x45f6 <__addsf3x>
    45d0:	0c 94 75 24 	jmp	0x48ea	; 0x48ea <__fp_round>
    45d4:	0e 94 67 24 	call	0x48ce	; 0x48ce <__fp_pscA>
    45d8:	38 f0       	brcs	.+14     	; 0x45e8 <__addsf3+0x20>
    45da:	0e 94 6e 24 	call	0x48dc	; 0x48dc <__fp_pscB>
    45de:	20 f0       	brcs	.+8      	; 0x45e8 <__addsf3+0x20>
    45e0:	39 f4       	brne	.+14     	; 0x45f0 <__addsf3+0x28>
    45e2:	9f 3f       	cpi	r25, 0xFF	; 255
    45e4:	19 f4       	brne	.+6      	; 0x45ec <__addsf3+0x24>
    45e6:	26 f4       	brtc	.+8      	; 0x45f0 <__addsf3+0x28>
    45e8:	0c 94 64 24 	jmp	0x48c8	; 0x48c8 <__fp_nan>
    45ec:	0e f4       	brtc	.+2      	; 0x45f0 <__addsf3+0x28>
    45ee:	e0 95       	com	r30
    45f0:	e7 fb       	bst	r30, 7
    45f2:	0c 94 5e 24 	jmp	0x48bc	; 0x48bc <__fp_inf>

000045f6 <__addsf3x>:
    45f6:	e9 2f       	mov	r30, r25
    45f8:	0e 94 86 24 	call	0x490c	; 0x490c <__fp_split3>
    45fc:	58 f3       	brcs	.-42     	; 0x45d4 <__addsf3+0xc>
    45fe:	ba 17       	cp	r27, r26
    4600:	62 07       	cpc	r22, r18
    4602:	73 07       	cpc	r23, r19
    4604:	84 07       	cpc	r24, r20
    4606:	95 07       	cpc	r25, r21
    4608:	20 f0       	brcs	.+8      	; 0x4612 <__addsf3x+0x1c>
    460a:	79 f4       	brne	.+30     	; 0x462a <__addsf3x+0x34>
    460c:	a6 f5       	brtc	.+104    	; 0x4676 <__addsf3x+0x80>
    460e:	0c 94 a8 24 	jmp	0x4950	; 0x4950 <__fp_zero>
    4612:	0e f4       	brtc	.+2      	; 0x4616 <__addsf3x+0x20>
    4614:	e0 95       	com	r30
    4616:	0b 2e       	mov	r0, r27
    4618:	ba 2f       	mov	r27, r26
    461a:	a0 2d       	mov	r26, r0
    461c:	0b 01       	movw	r0, r22
    461e:	b9 01       	movw	r22, r18
    4620:	90 01       	movw	r18, r0
    4622:	0c 01       	movw	r0, r24
    4624:	ca 01       	movw	r24, r20
    4626:	a0 01       	movw	r20, r0
    4628:	11 24       	eor	r1, r1
    462a:	ff 27       	eor	r31, r31
    462c:	59 1b       	sub	r21, r25
    462e:	99 f0       	breq	.+38     	; 0x4656 <__addsf3x+0x60>
    4630:	59 3f       	cpi	r21, 0xF9	; 249
    4632:	50 f4       	brcc	.+20     	; 0x4648 <__addsf3x+0x52>
    4634:	50 3e       	cpi	r21, 0xE0	; 224
    4636:	68 f1       	brcs	.+90     	; 0x4692 <__addsf3x+0x9c>
    4638:	1a 16       	cp	r1, r26
    463a:	f0 40       	sbci	r31, 0x00	; 0
    463c:	a2 2f       	mov	r26, r18
    463e:	23 2f       	mov	r18, r19
    4640:	34 2f       	mov	r19, r20
    4642:	44 27       	eor	r20, r20
    4644:	58 5f       	subi	r21, 0xF8	; 248
    4646:	f3 cf       	rjmp	.-26     	; 0x462e <__addsf3x+0x38>
    4648:	46 95       	lsr	r20
    464a:	37 95       	ror	r19
    464c:	27 95       	ror	r18
    464e:	a7 95       	ror	r26
    4650:	f0 40       	sbci	r31, 0x00	; 0
    4652:	53 95       	inc	r21
    4654:	c9 f7       	brne	.-14     	; 0x4648 <__addsf3x+0x52>
    4656:	7e f4       	brtc	.+30     	; 0x4676 <__addsf3x+0x80>
    4658:	1f 16       	cp	r1, r31
    465a:	ba 0b       	sbc	r27, r26
    465c:	62 0b       	sbc	r22, r18
    465e:	73 0b       	sbc	r23, r19
    4660:	84 0b       	sbc	r24, r20
    4662:	ba f0       	brmi	.+46     	; 0x4692 <__addsf3x+0x9c>
    4664:	91 50       	subi	r25, 0x01	; 1
    4666:	a1 f0       	breq	.+40     	; 0x4690 <__addsf3x+0x9a>
    4668:	ff 0f       	add	r31, r31
    466a:	bb 1f       	adc	r27, r27
    466c:	66 1f       	adc	r22, r22
    466e:	77 1f       	adc	r23, r23
    4670:	88 1f       	adc	r24, r24
    4672:	c2 f7       	brpl	.-16     	; 0x4664 <__addsf3x+0x6e>
    4674:	0e c0       	rjmp	.+28     	; 0x4692 <__addsf3x+0x9c>
    4676:	ba 0f       	add	r27, r26
    4678:	62 1f       	adc	r22, r18
    467a:	73 1f       	adc	r23, r19
    467c:	84 1f       	adc	r24, r20
    467e:	48 f4       	brcc	.+18     	; 0x4692 <__addsf3x+0x9c>
    4680:	87 95       	ror	r24
    4682:	77 95       	ror	r23
    4684:	67 95       	ror	r22
    4686:	b7 95       	ror	r27
    4688:	f7 95       	ror	r31
    468a:	9e 3f       	cpi	r25, 0xFE	; 254
    468c:	08 f0       	brcs	.+2      	; 0x4690 <__addsf3x+0x9a>
    468e:	b0 cf       	rjmp	.-160    	; 0x45f0 <__addsf3+0x28>
    4690:	93 95       	inc	r25
    4692:	88 0f       	add	r24, r24
    4694:	08 f0       	brcs	.+2      	; 0x4698 <__addsf3x+0xa2>
    4696:	99 27       	eor	r25, r25
    4698:	ee 0f       	add	r30, r30
    469a:	97 95       	ror	r25
    469c:	87 95       	ror	r24
    469e:	08 95       	ret

000046a0 <__cmpsf2>:
    46a0:	0e 94 3a 24 	call	0x4874	; 0x4874 <__fp_cmp>
    46a4:	08 f4       	brcc	.+2      	; 0x46a8 <__cmpsf2+0x8>
    46a6:	81 e0       	ldi	r24, 0x01	; 1
    46a8:	08 95       	ret

000046aa <__divsf3>:
    46aa:	0e 94 69 23 	call	0x46d2	; 0x46d2 <__divsf3x>
    46ae:	0c 94 75 24 	jmp	0x48ea	; 0x48ea <__fp_round>
    46b2:	0e 94 6e 24 	call	0x48dc	; 0x48dc <__fp_pscB>
    46b6:	58 f0       	brcs	.+22     	; 0x46ce <__divsf3+0x24>
    46b8:	0e 94 67 24 	call	0x48ce	; 0x48ce <__fp_pscA>
    46bc:	40 f0       	brcs	.+16     	; 0x46ce <__divsf3+0x24>
    46be:	29 f4       	brne	.+10     	; 0x46ca <__divsf3+0x20>
    46c0:	5f 3f       	cpi	r21, 0xFF	; 255
    46c2:	29 f0       	breq	.+10     	; 0x46ce <__divsf3+0x24>
    46c4:	0c 94 5e 24 	jmp	0x48bc	; 0x48bc <__fp_inf>
    46c8:	51 11       	cpse	r21, r1
    46ca:	0c 94 a9 24 	jmp	0x4952	; 0x4952 <__fp_szero>
    46ce:	0c 94 64 24 	jmp	0x48c8	; 0x48c8 <__fp_nan>

000046d2 <__divsf3x>:
    46d2:	0e 94 86 24 	call	0x490c	; 0x490c <__fp_split3>
    46d6:	68 f3       	brcs	.-38     	; 0x46b2 <__divsf3+0x8>

000046d8 <__divsf3_pse>:
    46d8:	99 23       	and	r25, r25
    46da:	b1 f3       	breq	.-20     	; 0x46c8 <__divsf3+0x1e>
    46dc:	55 23       	and	r21, r21
    46de:	91 f3       	breq	.-28     	; 0x46c4 <__divsf3+0x1a>
    46e0:	95 1b       	sub	r25, r21
    46e2:	55 0b       	sbc	r21, r21
    46e4:	bb 27       	eor	r27, r27
    46e6:	aa 27       	eor	r26, r26
    46e8:	62 17       	cp	r22, r18
    46ea:	73 07       	cpc	r23, r19
    46ec:	84 07       	cpc	r24, r20
    46ee:	38 f0       	brcs	.+14     	; 0x46fe <__divsf3_pse+0x26>
    46f0:	9f 5f       	subi	r25, 0xFF	; 255
    46f2:	5f 4f       	sbci	r21, 0xFF	; 255
    46f4:	22 0f       	add	r18, r18
    46f6:	33 1f       	adc	r19, r19
    46f8:	44 1f       	adc	r20, r20
    46fa:	aa 1f       	adc	r26, r26
    46fc:	a9 f3       	breq	.-22     	; 0x46e8 <__divsf3_pse+0x10>
    46fe:	35 d0       	rcall	.+106    	; 0x476a <__divsf3_pse+0x92>
    4700:	0e 2e       	mov	r0, r30
    4702:	3a f0       	brmi	.+14     	; 0x4712 <__divsf3_pse+0x3a>
    4704:	e0 e8       	ldi	r30, 0x80	; 128
    4706:	32 d0       	rcall	.+100    	; 0x476c <__divsf3_pse+0x94>
    4708:	91 50       	subi	r25, 0x01	; 1
    470a:	50 40       	sbci	r21, 0x00	; 0
    470c:	e6 95       	lsr	r30
    470e:	00 1c       	adc	r0, r0
    4710:	ca f7       	brpl	.-14     	; 0x4704 <__divsf3_pse+0x2c>
    4712:	2b d0       	rcall	.+86     	; 0x476a <__divsf3_pse+0x92>
    4714:	fe 2f       	mov	r31, r30
    4716:	29 d0       	rcall	.+82     	; 0x476a <__divsf3_pse+0x92>
    4718:	66 0f       	add	r22, r22
    471a:	77 1f       	adc	r23, r23
    471c:	88 1f       	adc	r24, r24
    471e:	bb 1f       	adc	r27, r27
    4720:	26 17       	cp	r18, r22
    4722:	37 07       	cpc	r19, r23
    4724:	48 07       	cpc	r20, r24
    4726:	ab 07       	cpc	r26, r27
    4728:	b0 e8       	ldi	r27, 0x80	; 128
    472a:	09 f0       	breq	.+2      	; 0x472e <__divsf3_pse+0x56>
    472c:	bb 0b       	sbc	r27, r27
    472e:	80 2d       	mov	r24, r0
    4730:	bf 01       	movw	r22, r30
    4732:	ff 27       	eor	r31, r31
    4734:	93 58       	subi	r25, 0x83	; 131
    4736:	5f 4f       	sbci	r21, 0xFF	; 255
    4738:	3a f0       	brmi	.+14     	; 0x4748 <__divsf3_pse+0x70>
    473a:	9e 3f       	cpi	r25, 0xFE	; 254
    473c:	51 05       	cpc	r21, r1
    473e:	78 f0       	brcs	.+30     	; 0x475e <__divsf3_pse+0x86>
    4740:	0c 94 5e 24 	jmp	0x48bc	; 0x48bc <__fp_inf>
    4744:	0c 94 a9 24 	jmp	0x4952	; 0x4952 <__fp_szero>
    4748:	5f 3f       	cpi	r21, 0xFF	; 255
    474a:	e4 f3       	brlt	.-8      	; 0x4744 <__divsf3_pse+0x6c>
    474c:	98 3e       	cpi	r25, 0xE8	; 232
    474e:	d4 f3       	brlt	.-12     	; 0x4744 <__divsf3_pse+0x6c>
    4750:	86 95       	lsr	r24
    4752:	77 95       	ror	r23
    4754:	67 95       	ror	r22
    4756:	b7 95       	ror	r27
    4758:	f7 95       	ror	r31
    475a:	9f 5f       	subi	r25, 0xFF	; 255
    475c:	c9 f7       	brne	.-14     	; 0x4750 <__divsf3_pse+0x78>
    475e:	88 0f       	add	r24, r24
    4760:	91 1d       	adc	r25, r1
    4762:	96 95       	lsr	r25
    4764:	87 95       	ror	r24
    4766:	97 f9       	bld	r25, 7
    4768:	08 95       	ret
    476a:	e1 e0       	ldi	r30, 0x01	; 1
    476c:	66 0f       	add	r22, r22
    476e:	77 1f       	adc	r23, r23
    4770:	88 1f       	adc	r24, r24
    4772:	bb 1f       	adc	r27, r27
    4774:	62 17       	cp	r22, r18
    4776:	73 07       	cpc	r23, r19
    4778:	84 07       	cpc	r24, r20
    477a:	ba 07       	cpc	r27, r26
    477c:	20 f0       	brcs	.+8      	; 0x4786 <__divsf3_pse+0xae>
    477e:	62 1b       	sub	r22, r18
    4780:	73 0b       	sbc	r23, r19
    4782:	84 0b       	sbc	r24, r20
    4784:	ba 0b       	sbc	r27, r26
    4786:	ee 1f       	adc	r30, r30
    4788:	88 f7       	brcc	.-30     	; 0x476c <__divsf3_pse+0x94>
    478a:	e0 95       	com	r30
    478c:	08 95       	ret

0000478e <__fixsfsi>:
    478e:	0e 94 ce 23 	call	0x479c	; 0x479c <__fixunssfsi>
    4792:	68 94       	set
    4794:	b1 11       	cpse	r27, r1
    4796:	0c 94 a9 24 	jmp	0x4952	; 0x4952 <__fp_szero>
    479a:	08 95       	ret

0000479c <__fixunssfsi>:
    479c:	0e 94 8e 24 	call	0x491c	; 0x491c <__fp_splitA>
    47a0:	88 f0       	brcs	.+34     	; 0x47c4 <__fixunssfsi+0x28>
    47a2:	9f 57       	subi	r25, 0x7F	; 127
    47a4:	98 f0       	brcs	.+38     	; 0x47cc <__fixunssfsi+0x30>
    47a6:	b9 2f       	mov	r27, r25
    47a8:	99 27       	eor	r25, r25
    47aa:	b7 51       	subi	r27, 0x17	; 23
    47ac:	b0 f0       	brcs	.+44     	; 0x47da <__fixunssfsi+0x3e>
    47ae:	e1 f0       	breq	.+56     	; 0x47e8 <__fixunssfsi+0x4c>
    47b0:	66 0f       	add	r22, r22
    47b2:	77 1f       	adc	r23, r23
    47b4:	88 1f       	adc	r24, r24
    47b6:	99 1f       	adc	r25, r25
    47b8:	1a f0       	brmi	.+6      	; 0x47c0 <__fixunssfsi+0x24>
    47ba:	ba 95       	dec	r27
    47bc:	c9 f7       	brne	.-14     	; 0x47b0 <__fixunssfsi+0x14>
    47be:	14 c0       	rjmp	.+40     	; 0x47e8 <__fixunssfsi+0x4c>
    47c0:	b1 30       	cpi	r27, 0x01	; 1
    47c2:	91 f0       	breq	.+36     	; 0x47e8 <__fixunssfsi+0x4c>
    47c4:	0e 94 a8 24 	call	0x4950	; 0x4950 <__fp_zero>
    47c8:	b1 e0       	ldi	r27, 0x01	; 1
    47ca:	08 95       	ret
    47cc:	0c 94 a8 24 	jmp	0x4950	; 0x4950 <__fp_zero>
    47d0:	67 2f       	mov	r22, r23
    47d2:	78 2f       	mov	r23, r24
    47d4:	88 27       	eor	r24, r24
    47d6:	b8 5f       	subi	r27, 0xF8	; 248
    47d8:	39 f0       	breq	.+14     	; 0x47e8 <__fixunssfsi+0x4c>
    47da:	b9 3f       	cpi	r27, 0xF9	; 249
    47dc:	cc f3       	brlt	.-14     	; 0x47d0 <__fixunssfsi+0x34>
    47de:	86 95       	lsr	r24
    47e0:	77 95       	ror	r23
    47e2:	67 95       	ror	r22
    47e4:	b3 95       	inc	r27
    47e6:	d9 f7       	brne	.-10     	; 0x47de <__fixunssfsi+0x42>
    47e8:	3e f4       	brtc	.+14     	; 0x47f8 <__fixunssfsi+0x5c>
    47ea:	90 95       	com	r25
    47ec:	80 95       	com	r24
    47ee:	70 95       	com	r23
    47f0:	61 95       	neg	r22
    47f2:	7f 4f       	sbci	r23, 0xFF	; 255
    47f4:	8f 4f       	sbci	r24, 0xFF	; 255
    47f6:	9f 4f       	sbci	r25, 0xFF	; 255
    47f8:	08 95       	ret

000047fa <__floatunsisf>:
    47fa:	e8 94       	clt
    47fc:	09 c0       	rjmp	.+18     	; 0x4810 <__floatsisf+0x12>

000047fe <__floatsisf>:
    47fe:	97 fb       	bst	r25, 7
    4800:	3e f4       	brtc	.+14     	; 0x4810 <__floatsisf+0x12>
    4802:	90 95       	com	r25
    4804:	80 95       	com	r24
    4806:	70 95       	com	r23
    4808:	61 95       	neg	r22
    480a:	7f 4f       	sbci	r23, 0xFF	; 255
    480c:	8f 4f       	sbci	r24, 0xFF	; 255
    480e:	9f 4f       	sbci	r25, 0xFF	; 255
    4810:	99 23       	and	r25, r25
    4812:	a9 f0       	breq	.+42     	; 0x483e <__floatsisf+0x40>
    4814:	f9 2f       	mov	r31, r25
    4816:	96 e9       	ldi	r25, 0x96	; 150
    4818:	bb 27       	eor	r27, r27
    481a:	93 95       	inc	r25
    481c:	f6 95       	lsr	r31
    481e:	87 95       	ror	r24
    4820:	77 95       	ror	r23
    4822:	67 95       	ror	r22
    4824:	b7 95       	ror	r27
    4826:	f1 11       	cpse	r31, r1
    4828:	f8 cf       	rjmp	.-16     	; 0x481a <__floatsisf+0x1c>
    482a:	fa f4       	brpl	.+62     	; 0x486a <__floatsisf+0x6c>
    482c:	bb 0f       	add	r27, r27
    482e:	11 f4       	brne	.+4      	; 0x4834 <__floatsisf+0x36>
    4830:	60 ff       	sbrs	r22, 0
    4832:	1b c0       	rjmp	.+54     	; 0x486a <__floatsisf+0x6c>
    4834:	6f 5f       	subi	r22, 0xFF	; 255
    4836:	7f 4f       	sbci	r23, 0xFF	; 255
    4838:	8f 4f       	sbci	r24, 0xFF	; 255
    483a:	9f 4f       	sbci	r25, 0xFF	; 255
    483c:	16 c0       	rjmp	.+44     	; 0x486a <__floatsisf+0x6c>
    483e:	88 23       	and	r24, r24
    4840:	11 f0       	breq	.+4      	; 0x4846 <__floatsisf+0x48>
    4842:	96 e9       	ldi	r25, 0x96	; 150
    4844:	11 c0       	rjmp	.+34     	; 0x4868 <__floatsisf+0x6a>
    4846:	77 23       	and	r23, r23
    4848:	21 f0       	breq	.+8      	; 0x4852 <__floatsisf+0x54>
    484a:	9e e8       	ldi	r25, 0x8E	; 142
    484c:	87 2f       	mov	r24, r23
    484e:	76 2f       	mov	r23, r22
    4850:	05 c0       	rjmp	.+10     	; 0x485c <__floatsisf+0x5e>
    4852:	66 23       	and	r22, r22
    4854:	71 f0       	breq	.+28     	; 0x4872 <__floatsisf+0x74>
    4856:	96 e8       	ldi	r25, 0x86	; 134
    4858:	86 2f       	mov	r24, r22
    485a:	70 e0       	ldi	r23, 0x00	; 0
    485c:	60 e0       	ldi	r22, 0x00	; 0
    485e:	2a f0       	brmi	.+10     	; 0x486a <__floatsisf+0x6c>
    4860:	9a 95       	dec	r25
    4862:	66 0f       	add	r22, r22
    4864:	77 1f       	adc	r23, r23
    4866:	88 1f       	adc	r24, r24
    4868:	da f7       	brpl	.-10     	; 0x4860 <__floatsisf+0x62>
    486a:	88 0f       	add	r24, r24
    486c:	96 95       	lsr	r25
    486e:	87 95       	ror	r24
    4870:	97 f9       	bld	r25, 7
    4872:	08 95       	ret

00004874 <__fp_cmp>:
    4874:	99 0f       	add	r25, r25
    4876:	00 08       	sbc	r0, r0
    4878:	55 0f       	add	r21, r21
    487a:	aa 0b       	sbc	r26, r26
    487c:	e0 e8       	ldi	r30, 0x80	; 128
    487e:	fe ef       	ldi	r31, 0xFE	; 254
    4880:	16 16       	cp	r1, r22
    4882:	17 06       	cpc	r1, r23
    4884:	e8 07       	cpc	r30, r24
    4886:	f9 07       	cpc	r31, r25
    4888:	c0 f0       	brcs	.+48     	; 0x48ba <__fp_cmp+0x46>
    488a:	12 16       	cp	r1, r18
    488c:	13 06       	cpc	r1, r19
    488e:	e4 07       	cpc	r30, r20
    4890:	f5 07       	cpc	r31, r21
    4892:	98 f0       	brcs	.+38     	; 0x48ba <__fp_cmp+0x46>
    4894:	62 1b       	sub	r22, r18
    4896:	73 0b       	sbc	r23, r19
    4898:	84 0b       	sbc	r24, r20
    489a:	95 0b       	sbc	r25, r21
    489c:	39 f4       	brne	.+14     	; 0x48ac <__fp_cmp+0x38>
    489e:	0a 26       	eor	r0, r26
    48a0:	61 f0       	breq	.+24     	; 0x48ba <__fp_cmp+0x46>
    48a2:	23 2b       	or	r18, r19
    48a4:	24 2b       	or	r18, r20
    48a6:	25 2b       	or	r18, r21
    48a8:	21 f4       	brne	.+8      	; 0x48b2 <__fp_cmp+0x3e>
    48aa:	08 95       	ret
    48ac:	0a 26       	eor	r0, r26
    48ae:	09 f4       	brne	.+2      	; 0x48b2 <__fp_cmp+0x3e>
    48b0:	a1 40       	sbci	r26, 0x01	; 1
    48b2:	a6 95       	lsr	r26
    48b4:	8f ef       	ldi	r24, 0xFF	; 255
    48b6:	81 1d       	adc	r24, r1
    48b8:	81 1d       	adc	r24, r1
    48ba:	08 95       	ret

000048bc <__fp_inf>:
    48bc:	97 f9       	bld	r25, 7
    48be:	9f 67       	ori	r25, 0x7F	; 127
    48c0:	80 e8       	ldi	r24, 0x80	; 128
    48c2:	70 e0       	ldi	r23, 0x00	; 0
    48c4:	60 e0       	ldi	r22, 0x00	; 0
    48c6:	08 95       	ret

000048c8 <__fp_nan>:
    48c8:	9f ef       	ldi	r25, 0xFF	; 255
    48ca:	80 ec       	ldi	r24, 0xC0	; 192
    48cc:	08 95       	ret

000048ce <__fp_pscA>:
    48ce:	00 24       	eor	r0, r0
    48d0:	0a 94       	dec	r0
    48d2:	16 16       	cp	r1, r22
    48d4:	17 06       	cpc	r1, r23
    48d6:	18 06       	cpc	r1, r24
    48d8:	09 06       	cpc	r0, r25
    48da:	08 95       	ret

000048dc <__fp_pscB>:
    48dc:	00 24       	eor	r0, r0
    48de:	0a 94       	dec	r0
    48e0:	12 16       	cp	r1, r18
    48e2:	13 06       	cpc	r1, r19
    48e4:	14 06       	cpc	r1, r20
    48e6:	05 06       	cpc	r0, r21
    48e8:	08 95       	ret

000048ea <__fp_round>:
    48ea:	09 2e       	mov	r0, r25
    48ec:	03 94       	inc	r0
    48ee:	00 0c       	add	r0, r0
    48f0:	11 f4       	brne	.+4      	; 0x48f6 <__fp_round+0xc>
    48f2:	88 23       	and	r24, r24
    48f4:	52 f0       	brmi	.+20     	; 0x490a <__fp_round+0x20>
    48f6:	bb 0f       	add	r27, r27
    48f8:	40 f4       	brcc	.+16     	; 0x490a <__fp_round+0x20>
    48fa:	bf 2b       	or	r27, r31
    48fc:	11 f4       	brne	.+4      	; 0x4902 <__fp_round+0x18>
    48fe:	60 ff       	sbrs	r22, 0
    4900:	04 c0       	rjmp	.+8      	; 0x490a <__fp_round+0x20>
    4902:	6f 5f       	subi	r22, 0xFF	; 255
    4904:	7f 4f       	sbci	r23, 0xFF	; 255
    4906:	8f 4f       	sbci	r24, 0xFF	; 255
    4908:	9f 4f       	sbci	r25, 0xFF	; 255
    490a:	08 95       	ret

0000490c <__fp_split3>:
    490c:	57 fd       	sbrc	r21, 7
    490e:	90 58       	subi	r25, 0x80	; 128
    4910:	44 0f       	add	r20, r20
    4912:	55 1f       	adc	r21, r21
    4914:	59 f0       	breq	.+22     	; 0x492c <__fp_splitA+0x10>
    4916:	5f 3f       	cpi	r21, 0xFF	; 255
    4918:	71 f0       	breq	.+28     	; 0x4936 <__fp_splitA+0x1a>
    491a:	47 95       	ror	r20

0000491c <__fp_splitA>:
    491c:	88 0f       	add	r24, r24
    491e:	97 fb       	bst	r25, 7
    4920:	99 1f       	adc	r25, r25
    4922:	61 f0       	breq	.+24     	; 0x493c <__fp_splitA+0x20>
    4924:	9f 3f       	cpi	r25, 0xFF	; 255
    4926:	79 f0       	breq	.+30     	; 0x4946 <__fp_splitA+0x2a>
    4928:	87 95       	ror	r24
    492a:	08 95       	ret
    492c:	12 16       	cp	r1, r18
    492e:	13 06       	cpc	r1, r19
    4930:	14 06       	cpc	r1, r20
    4932:	55 1f       	adc	r21, r21
    4934:	f2 cf       	rjmp	.-28     	; 0x491a <__fp_split3+0xe>
    4936:	46 95       	lsr	r20
    4938:	f1 df       	rcall	.-30     	; 0x491c <__fp_splitA>
    493a:	08 c0       	rjmp	.+16     	; 0x494c <__fp_splitA+0x30>
    493c:	16 16       	cp	r1, r22
    493e:	17 06       	cpc	r1, r23
    4940:	18 06       	cpc	r1, r24
    4942:	99 1f       	adc	r25, r25
    4944:	f1 cf       	rjmp	.-30     	; 0x4928 <__fp_splitA+0xc>
    4946:	86 95       	lsr	r24
    4948:	71 05       	cpc	r23, r1
    494a:	61 05       	cpc	r22, r1
    494c:	08 94       	sec
    494e:	08 95       	ret

00004950 <__fp_zero>:
    4950:	e8 94       	clt

00004952 <__fp_szero>:
    4952:	bb 27       	eor	r27, r27
    4954:	66 27       	eor	r22, r22
    4956:	77 27       	eor	r23, r23
    4958:	cb 01       	movw	r24, r22
    495a:	97 f9       	bld	r25, 7
    495c:	08 95       	ret

0000495e <__gesf2>:
    495e:	0e 94 3a 24 	call	0x4874	; 0x4874 <__fp_cmp>
    4962:	08 f4       	brcc	.+2      	; 0x4966 <__gesf2+0x8>
    4964:	8f ef       	ldi	r24, 0xFF	; 255
    4966:	08 95       	ret

00004968 <__mulsf3>:
    4968:	0e 94 c7 24 	call	0x498e	; 0x498e <__mulsf3x>
    496c:	0c 94 75 24 	jmp	0x48ea	; 0x48ea <__fp_round>
    4970:	0e 94 67 24 	call	0x48ce	; 0x48ce <__fp_pscA>
    4974:	38 f0       	brcs	.+14     	; 0x4984 <__mulsf3+0x1c>
    4976:	0e 94 6e 24 	call	0x48dc	; 0x48dc <__fp_pscB>
    497a:	20 f0       	brcs	.+8      	; 0x4984 <__mulsf3+0x1c>
    497c:	95 23       	and	r25, r21
    497e:	11 f0       	breq	.+4      	; 0x4984 <__mulsf3+0x1c>
    4980:	0c 94 5e 24 	jmp	0x48bc	; 0x48bc <__fp_inf>
    4984:	0c 94 64 24 	jmp	0x48c8	; 0x48c8 <__fp_nan>
    4988:	11 24       	eor	r1, r1
    498a:	0c 94 a9 24 	jmp	0x4952	; 0x4952 <__fp_szero>

0000498e <__mulsf3x>:
    498e:	0e 94 86 24 	call	0x490c	; 0x490c <__fp_split3>
    4992:	70 f3       	brcs	.-36     	; 0x4970 <__mulsf3+0x8>

00004994 <__mulsf3_pse>:
    4994:	95 9f       	mul	r25, r21
    4996:	c1 f3       	breq	.-16     	; 0x4988 <__mulsf3+0x20>
    4998:	95 0f       	add	r25, r21
    499a:	50 e0       	ldi	r21, 0x00	; 0
    499c:	55 1f       	adc	r21, r21
    499e:	62 9f       	mul	r22, r18
    49a0:	f0 01       	movw	r30, r0
    49a2:	72 9f       	mul	r23, r18
    49a4:	bb 27       	eor	r27, r27
    49a6:	f0 0d       	add	r31, r0
    49a8:	b1 1d       	adc	r27, r1
    49aa:	63 9f       	mul	r22, r19
    49ac:	aa 27       	eor	r26, r26
    49ae:	f0 0d       	add	r31, r0
    49b0:	b1 1d       	adc	r27, r1
    49b2:	aa 1f       	adc	r26, r26
    49b4:	64 9f       	mul	r22, r20
    49b6:	66 27       	eor	r22, r22
    49b8:	b0 0d       	add	r27, r0
    49ba:	a1 1d       	adc	r26, r1
    49bc:	66 1f       	adc	r22, r22
    49be:	82 9f       	mul	r24, r18
    49c0:	22 27       	eor	r18, r18
    49c2:	b0 0d       	add	r27, r0
    49c4:	a1 1d       	adc	r26, r1
    49c6:	62 1f       	adc	r22, r18
    49c8:	73 9f       	mul	r23, r19
    49ca:	b0 0d       	add	r27, r0
    49cc:	a1 1d       	adc	r26, r1
    49ce:	62 1f       	adc	r22, r18
    49d0:	83 9f       	mul	r24, r19
    49d2:	a0 0d       	add	r26, r0
    49d4:	61 1d       	adc	r22, r1
    49d6:	22 1f       	adc	r18, r18
    49d8:	74 9f       	mul	r23, r20
    49da:	33 27       	eor	r19, r19
    49dc:	a0 0d       	add	r26, r0
    49de:	61 1d       	adc	r22, r1
    49e0:	23 1f       	adc	r18, r19
    49e2:	84 9f       	mul	r24, r20
    49e4:	60 0d       	add	r22, r0
    49e6:	21 1d       	adc	r18, r1
    49e8:	82 2f       	mov	r24, r18
    49ea:	76 2f       	mov	r23, r22
    49ec:	6a 2f       	mov	r22, r26
    49ee:	11 24       	eor	r1, r1
    49f0:	9f 57       	subi	r25, 0x7F	; 127
    49f2:	50 40       	sbci	r21, 0x00	; 0
    49f4:	9a f0       	brmi	.+38     	; 0x4a1c <__mulsf3_pse+0x88>
    49f6:	f1 f0       	breq	.+60     	; 0x4a34 <__mulsf3_pse+0xa0>
    49f8:	88 23       	and	r24, r24
    49fa:	4a f0       	brmi	.+18     	; 0x4a0e <__mulsf3_pse+0x7a>
    49fc:	ee 0f       	add	r30, r30
    49fe:	ff 1f       	adc	r31, r31
    4a00:	bb 1f       	adc	r27, r27
    4a02:	66 1f       	adc	r22, r22
    4a04:	77 1f       	adc	r23, r23
    4a06:	88 1f       	adc	r24, r24
    4a08:	91 50       	subi	r25, 0x01	; 1
    4a0a:	50 40       	sbci	r21, 0x00	; 0
    4a0c:	a9 f7       	brne	.-22     	; 0x49f8 <__mulsf3_pse+0x64>
    4a0e:	9e 3f       	cpi	r25, 0xFE	; 254
    4a10:	51 05       	cpc	r21, r1
    4a12:	80 f0       	brcs	.+32     	; 0x4a34 <__mulsf3_pse+0xa0>
    4a14:	0c 94 5e 24 	jmp	0x48bc	; 0x48bc <__fp_inf>
    4a18:	0c 94 a9 24 	jmp	0x4952	; 0x4952 <__fp_szero>
    4a1c:	5f 3f       	cpi	r21, 0xFF	; 255
    4a1e:	e4 f3       	brlt	.-8      	; 0x4a18 <__mulsf3_pse+0x84>
    4a20:	98 3e       	cpi	r25, 0xE8	; 232
    4a22:	d4 f3       	brlt	.-12     	; 0x4a18 <__mulsf3_pse+0x84>
    4a24:	86 95       	lsr	r24
    4a26:	77 95       	ror	r23
    4a28:	67 95       	ror	r22
    4a2a:	b7 95       	ror	r27
    4a2c:	f7 95       	ror	r31
    4a2e:	e7 95       	ror	r30
    4a30:	9f 5f       	subi	r25, 0xFF	; 255
    4a32:	c1 f7       	brne	.-16     	; 0x4a24 <__mulsf3_pse+0x90>
    4a34:	fe 2b       	or	r31, r30
    4a36:	88 0f       	add	r24, r24
    4a38:	91 1d       	adc	r25, r1
    4a3a:	96 95       	lsr	r25
    4a3c:	87 95       	ror	r24
    4a3e:	97 f9       	bld	r25, 7
    4a40:	08 95       	ret

00004a42 <__divmodhi4>:
    4a42:	97 fb       	bst	r25, 7
    4a44:	07 2e       	mov	r0, r23
    4a46:	16 f4       	brtc	.+4      	; 0x4a4c <__divmodhi4+0xa>
    4a48:	00 94       	com	r0
    4a4a:	07 d0       	rcall	.+14     	; 0x4a5a <__divmodhi4_neg1>
    4a4c:	77 fd       	sbrc	r23, 7
    4a4e:	09 d0       	rcall	.+18     	; 0x4a62 <__divmodhi4_neg2>
    4a50:	0e 94 3b 25 	call	0x4a76	; 0x4a76 <__udivmodhi4>
    4a54:	07 fc       	sbrc	r0, 7
    4a56:	05 d0       	rcall	.+10     	; 0x4a62 <__divmodhi4_neg2>
    4a58:	3e f4       	brtc	.+14     	; 0x4a68 <__divmodhi4_exit>

00004a5a <__divmodhi4_neg1>:
    4a5a:	90 95       	com	r25
    4a5c:	81 95       	neg	r24
    4a5e:	9f 4f       	sbci	r25, 0xFF	; 255
    4a60:	08 95       	ret

00004a62 <__divmodhi4_neg2>:
    4a62:	70 95       	com	r23
    4a64:	61 95       	neg	r22
    4a66:	7f 4f       	sbci	r23, 0xFF	; 255

00004a68 <__divmodhi4_exit>:
    4a68:	08 95       	ret

00004a6a <__tablejump2__>:
    4a6a:	ee 0f       	add	r30, r30
    4a6c:	ff 1f       	adc	r31, r31
    4a6e:	05 90       	lpm	r0, Z+
    4a70:	f4 91       	lpm	r31, Z
    4a72:	e0 2d       	mov	r30, r0
    4a74:	09 94       	ijmp

00004a76 <__udivmodhi4>:
    4a76:	aa 1b       	sub	r26, r26
    4a78:	bb 1b       	sub	r27, r27
    4a7a:	51 e1       	ldi	r21, 0x11	; 17
    4a7c:	07 c0       	rjmp	.+14     	; 0x4a8c <__udivmodhi4_ep>

00004a7e <__udivmodhi4_loop>:
    4a7e:	aa 1f       	adc	r26, r26
    4a80:	bb 1f       	adc	r27, r27
    4a82:	a6 17       	cp	r26, r22
    4a84:	b7 07       	cpc	r27, r23
    4a86:	10 f0       	brcs	.+4      	; 0x4a8c <__udivmodhi4_ep>
    4a88:	a6 1b       	sub	r26, r22
    4a8a:	b7 0b       	sbc	r27, r23

00004a8c <__udivmodhi4_ep>:
    4a8c:	88 1f       	adc	r24, r24
    4a8e:	99 1f       	adc	r25, r25
    4a90:	5a 95       	dec	r21
    4a92:	a9 f7       	brne	.-22     	; 0x4a7e <__udivmodhi4_loop>
    4a94:	80 95       	com	r24
    4a96:	90 95       	com	r25
    4a98:	bc 01       	movw	r22, r24
    4a9a:	cd 01       	movw	r24, r26
    4a9c:	08 95       	ret

00004a9e <eeprom_read_byte>:
    4a9e:	f9 99       	sbic	0x1f, 1	; 31
    4aa0:	fe cf       	rjmp	.-4      	; 0x4a9e <eeprom_read_byte>
    4aa2:	92 bd       	out	0x22, r25	; 34
    4aa4:	81 bd       	out	0x21, r24	; 33
    4aa6:	f8 9a       	sbi	0x1f, 0	; 31
    4aa8:	99 27       	eor	r25, r25
    4aaa:	80 b5       	in	r24, 0x20	; 32
    4aac:	08 95       	ret

00004aae <eeprom_read_dword>:
    4aae:	a6 e1       	ldi	r26, 0x16	; 22
    4ab0:	b0 e0       	ldi	r27, 0x00	; 0
    4ab2:	44 e0       	ldi	r20, 0x04	; 4
    4ab4:	50 e0       	ldi	r21, 0x00	; 0
    4ab6:	0c 94 7a 25 	jmp	0x4af4	; 0x4af4 <eeprom_read_blraw>

00004aba <eeprom_write_byte>:
    4aba:	26 2f       	mov	r18, r22

00004abc <eeprom_write_r18>:
    4abc:	f9 99       	sbic	0x1f, 1	; 31
    4abe:	fe cf       	rjmp	.-4      	; 0x4abc <eeprom_write_r18>
    4ac0:	1f ba       	out	0x1f, r1	; 31
    4ac2:	92 bd       	out	0x22, r25	; 34
    4ac4:	81 bd       	out	0x21, r24	; 33
    4ac6:	20 bd       	out	0x20, r18	; 32
    4ac8:	0f b6       	in	r0, 0x3f	; 63
    4aca:	f8 94       	cli
    4acc:	fa 9a       	sbi	0x1f, 2	; 31
    4ace:	f9 9a       	sbi	0x1f, 1	; 31
    4ad0:	0f be       	out	0x3f, r0	; 63
    4ad2:	01 96       	adiw	r24, 0x01	; 1
    4ad4:	08 95       	ret

00004ad6 <eeprom_write_dword>:
    4ad6:	24 2f       	mov	r18, r20
    4ad8:	0e 94 5e 25 	call	0x4abc	; 0x4abc <eeprom_write_r18>
    4adc:	25 2f       	mov	r18, r21
    4ade:	0e 94 5e 25 	call	0x4abc	; 0x4abc <eeprom_write_r18>
    4ae2:	0c 94 73 25 	jmp	0x4ae6	; 0x4ae6 <eeprom_write_word>

00004ae6 <eeprom_write_word>:
    4ae6:	0e 94 5d 25 	call	0x4aba	; 0x4aba <eeprom_write_byte>
    4aea:	27 2f       	mov	r18, r23
    4aec:	0c 94 5e 25 	jmp	0x4abc	; 0x4abc <eeprom_write_r18>

00004af0 <eeprom_read_block>:
    4af0:	dc 01       	movw	r26, r24
    4af2:	cb 01       	movw	r24, r22

00004af4 <eeprom_read_blraw>:
    4af4:	fc 01       	movw	r30, r24
    4af6:	f9 99       	sbic	0x1f, 1	; 31
    4af8:	fe cf       	rjmp	.-4      	; 0x4af6 <eeprom_read_blraw+0x2>
    4afa:	06 c0       	rjmp	.+12     	; 0x4b08 <eeprom_read_blraw+0x14>
    4afc:	f2 bd       	out	0x22, r31	; 34
    4afe:	e1 bd       	out	0x21, r30	; 33
    4b00:	f8 9a       	sbi	0x1f, 0	; 31
    4b02:	31 96       	adiw	r30, 0x01	; 1
    4b04:	00 b4       	in	r0, 0x20	; 32
    4b06:	0d 92       	st	X+, r0
    4b08:	41 50       	subi	r20, 0x01	; 1
    4b0a:	50 40       	sbci	r21, 0x00	; 0
    4b0c:	b8 f7       	brcc	.-18     	; 0x4afc <eeprom_read_blraw+0x8>
    4b0e:	08 95       	ret

00004b10 <_exit>:
    4b10:	f8 94       	cli

00004b12 <__stop_program>:
    4b12:	ff cf       	rjmp	.-2      	; 0x4b12 <__stop_program>
